EXPORTS
	?write@QDeclarativeProperty@@QBE_NABVQVariant@@@Z @ 1 NONAME ; bool QDeclarativeProperty::write(class QVariant const &) const
	?setStored@QMetaPropertyBuilder@@QAEX_N@Z @ 2 NONAME ABSENT ; void QMetaPropertyBuilder::setStored(bool)
	?trUtf8@QDeclarativeExpression@@SA?AVQString@@PBD0H@Z @ 3 NONAME ; class QString QDeclarativeExpression::trUtf8(char const *, char const *, int)
	?qt_metacast@QDeclarativeComponent@@UAEPAXPBD@Z @ 4 NONAME ; void * QDeclarativeComponent::qt_metacast(char const *)
	?name@QDeclarativeDebugService@@QBE?AVQString@@XZ @ 5 NONAME ; class QString QDeclarativeDebugService::name(void) const
	?debugId@QDeclarativeDebugObjectReference@@QBEHXZ @ 6 NONAME ABSENT ; int QDeclarativeDebugObjectReference::debugId(void) const
	?addPluginPath@QDeclarativeEngine@@QAEXABVQString@@@Z @ 7 NONAME ; void QDeclarativeEngine::addPluginPath(class QString const &)
	?name@QMetaPropertyBuilder@@QBE?AVQByteArray@@XZ @ 8 NONAME ABSENT ; class QByteArray QMetaPropertyBuilder::name(void) const
	??6QDeclarativeInfo@@QAEAAV0@_J@Z @ 9 NONAME ; class QDeclarativeInfo & QDeclarativeInfo::operator<<(long long)
	?propertyOffset@QDeclarativeOpenMetaObjectType@@QBEHXZ @ 10 NONAME ABSENT ; int QDeclarativeOpenMetaObjectType::propertyOffset(void) const
	??0QDeclarativeText@@QAE@PAVQDeclarativeItem@@@Z @ 11 NONAME ABSENT ; QDeclarativeText::QDeclarativeText(class QDeclarativeItem *)
	?propertyTypeName@QDeclarativeProperty@@QBEPBDXZ @ 12 NONAME ; char const * QDeclarativeProperty::propertyTypeName(void) const
	?getStaticMetaObject@QDeclarativeDebugService@@SAABUQMetaObject@@XZ @ 13 NONAME ; struct QMetaObject const & QDeclarativeDebugService::getStaticMetaObject(void)
	?setLeft@QDeclarativeAnchors@@QAEXABVQDeclarativeAnchorLine@@@Z @ 14 NONAME ABSENT ; void QDeclarativeAnchors::setLeft(class QDeclarativeAnchorLine const &)
	?qt_metacall@QDeclarativeExpression@@UAEHW4Call@QMetaObject@@HPAPAX@Z @ 15 NONAME ; int QDeclarativeExpression::qt_metacall(enum QMetaObject::Call, int, void * *)
	?staticMetaObject@QDeclarativePen@@2UQMetaObject@@B @ 16 NONAME ABSENT ; struct QMetaObject const QDeclarativePen::staticMetaObject
	?transformOriginChanged@QDeclarativeItem@@IAEXW4TransformOrigin@1@@Z @ 17 NONAME ; void QDeclarativeItem::transformOriginChanged(enum QDeclarativeItem::TransformOrigin)
	?isStored@QMetaPropertyBuilder@@QBE_NXZ @ 18 NONAME ABSENT ; bool QMetaPropertyBuilder::isStored(void) const
	?elapsed@QDeclarativeItemPrivate@@SA_JAAVQElapsedTimer@@@Z @ 19 NONAME ; long long QDeclarativeItemPrivate::elapsed(class QElapsedTimer &)
	?clearComponentCache@QDeclarativeEngine@@QAEXXZ @ 20 NONAME ; void QDeclarativeEngine::clearComponentCache(void)
	?forceActiveFocus@QDeclarativeItem@@QAEXXZ @ 21 NONAME ; void QDeclarativeItem::forceActiveFocus(void)
	?tr@QDeclarativeDebugObjectExpressionWatch@@SA?AVQString@@PBD0H@Z @ 22 NONAME ABSENT ; class QString QDeclarativeDebugObjectExpressionWatch::tr(char const *, char const *, int)
	??1QDeclarativeParserStatus@@UAE@XZ @ 23 NONAME ; QDeclarativeParserStatus::~QDeclarativeParserStatus(void)
	?gradient@QDeclarativeRectangle@@QBEPAVQDeclarativeGradient@@XZ @ 24 NONAME ABSENT ; class QDeclarativeGradient * QDeclarativeRectangle::gradient(void) const
	?setReadable@QMetaPropertyBuilder@@QAEX_N@Z @ 25 NONAME ABSENT ; void QMetaPropertyBuilder::setReadable(bool)
	?d_func@QDeclarativeExpression@@AAEPAVQDeclarativeExpressionPrivate@@XZ @ 26 NONAME ; class QDeclarativeExpressionPrivate * QDeclarativeExpression::d_func(void)
	??1QDeclarativeDomValueValueSource@@QAE@XZ @ 27 NONAME ABSENT ; QDeclarativeDomValueValueSource::~QDeclarativeDomValueValueSource(void)
	??_EQDeclarativeStateGroup@@UAE@I@Z @ 28 NONAME ; QDeclarativeStateGroup::~QDeclarativeStateGroup(unsigned int)
	?property@QDeclarativeDomObject@@QBE?AVQDeclarativeDomProperty@@ABVQByteArray@@@Z @ 29 NONAME ABSENT ; class QDeclarativeDomProperty QDeclarativeDomObject::property(class QByteArray const &) const
	?tr@QDeclarativeAnchors@@SA?AVQString@@PBD0H@Z @ 30 NONAME ABSENT ; class QString QDeclarativeAnchors::tr(char const *, char const *, int)
	?location@QDeclarativeCustomParserNode@@QBE?AULocation@QDeclarativeParser@@XZ @ 31 NONAME ; struct QDeclarativeParser::Location QDeclarativeCustomParserNode::location(void) const
	??0QDeclarativeComponent@@QAE@PAVQDeclarativeEngine@@ABVQString@@PAVQObject@@@Z @ 32 NONAME ; QDeclarativeComponent::QDeclarativeComponent(class QDeclarativeEngine *, class QString const &, class QObject *)
	?d_func@QDeclarativeContext@@AAEPAVQDeclarativeContextPrivate@@XZ @ 33 NONAME ; class QDeclarativeContextPrivate * QDeclarativeContext::d_func(void)
	?resetLeft@QDeclarativeAnchors@@QAEXXZ @ 34 NONAME ABSENT ; void QDeclarativeAnchors::resetLeft(void)
	?setOfflineStoragePath@QDeclarativeEngine@@QAEXABVQString@@@Z @ 35 NONAME ; void QDeclarativeEngine::setOfflineStoragePath(class QString const &)
	?getStaticMetaObject@QListModelInterface@@SAABUQMetaObject@@XZ @ 36 NONAME ABSENT ; struct QMetaObject const & QListModelInterface::getStaticMetaObject(void)
	?tr@QDeclarativeEngine@@SA?AVQString@@PBD0H@Z @ 37 NONAME ; class QString QDeclarativeEngine::tr(char const *, char const *, int)
	??0QDeclarativeEngine@@QAE@PAVQObject@@@Z @ 38 NONAME ; QDeclarativeEngine::QDeclarativeEngine(class QObject *)
	??0QDeclarativeDebugObjectReference@@QAE@ABV0@@Z @ 39 NONAME ABSENT ; QDeclarativeDebugObjectReference::QDeclarativeDebugObjectReference(class QDeclarativeDebugObjectReference const &)
	?set@QDeclarativeListModel@@QAEXHABVQScriptValue@@@Z @ 40 NONAME ABSENT ; void QDeclarativeListModel::set(int, class QScriptValue const &)
	?tr@QDeclarativeState@@SA?AVQString@@PBD0H@Z @ 41 NONAME ; class QString QDeclarativeState::tr(char const *, char const *, int)
	?metaObject@QDeclarativeBinding@@UBEPBUQMetaObject@@XZ @ 42 NONAME ABSENT ; struct QMetaObject const * QDeclarativeBinding::metaObject(void) const
	?setUser@QMetaPropertyBuilder@@QAEX_N@Z @ 43 NONAME ABSENT ; void QMetaPropertyBuilder::setUser(bool)
	?tr@QDeclarativeDebugRootContextQuery@@SA?AVQString@@PBD0@Z @ 44 NONAME ABSENT ; class QString QDeclarativeDebugRootContextQuery::tr(char const *, char const *)
	?setHorizontalCenterOffset@QDeclarativeAnchors@@QAEXM@Z @ 45 NONAME ABSENT ; void QDeclarativeAnchors::setHorizontalCenterOffset(float)
	?connectDownloadProgress@QDeclarativePixmap@@QAE_NPAVQObject@@H@Z @ 46 NONAME ; bool QDeclarativePixmap::connectDownloadProgress(class QObject *, int)
	??0QDeclarativeProperty@@QAE@XZ @ 47 NONAME ; QDeclarativeProperty::QDeclarativeProperty(void)
	?valueType@QDeclarativeValueTypeFactory@@SAPAVQDeclarativeValueType@@H@Z @ 48 NONAME ABSENT ; class QDeclarativeValueType * QDeclarativeValueTypeFactory::valueType(int)
	??1QDeclarativeText@@UAE@XZ @ 49 NONAME ABSENT ; QDeclarativeText::~QDeclarativeText(void)
	?getStaticMetaObject@QDeclarativeText@@SAABUQMetaObject@@XZ @ 50 NONAME ABSENT ; struct QMetaObject const & QDeclarativeText::getStaticMetaObject(void)
	?isDesignable@QMetaPropertyBuilder@@QBE_NXZ @ 51 NONAME ABSENT ; bool QMetaPropertyBuilder::isDesignable(void) const
	?tr@QDeclarativeStateGroup@@SA?AVQString@@PBD0H@Z @ 52 NONAME ; class QString QDeclarativeStateGroup::tr(char const *, char const *, int)
	?errors@QDeclarativeView@@QBE?AV?$QList@VQDeclarativeError@@@@XZ @ 53 NONAME ; class QList<class QDeclarativeError> QDeclarativeView::errors(void) const
	??0QPacket@@QAE@ABV0@@Z @ 54 NONAME ; QPacket::QPacket(class QPacket const &)
	??1QDeclarativeDebugObjectExpressionWatch@@UAE@XZ @ 55 NONAME ABSENT ; QDeclarativeDebugObjectExpressionWatch::~QDeclarativeDebugObjectExpressionWatch(void)
	?status@QDeclarativePixmap@@QBE?AW4Status@1@XZ @ 56 NONAME ; enum QDeclarativePixmap::Status QDeclarativePixmap::status(void) const
	?bottom@QDeclarativeAnchors@@QBE?AVQDeclarativeAnchorLine@@XZ @ 57 NONAME ABSENT ; class QDeclarativeAnchorLine QDeclarativeAnchors::bottom(void) const
	??_EQDeclarativeDebugObjectQuery@@UAE@I@Z @ 58 NONAME ABSENT ; QDeclarativeDebugObjectQuery::~QDeclarativeDebugObjectQuery(unsigned int)
	??0QDeclarativeDomObject@@QAE@XZ @ 59 NONAME ABSENT ; QDeclarativeDomObject::QDeclarativeDomObject(void)
	?errors@QDeclarativeDomDocument@@QBE?AV?$QList@VQDeclarativeError@@@@XZ @ 60 NONAME ABSENT ; class QList<class QDeclarativeError> QDeclarativeDomDocument::errors(void) const
	?toChanged@QDeclarativeTransition@@IAEXXZ @ 61 NONAME ; void QDeclarativeTransition::toChanged(void)
	?objectOwnership@QDeclarativeEngine@@SA?AW4ObjectOwnership@1@PAVQObject@@@Z @ 62 NONAME ; enum QDeclarativeEngine::ObjectOwnership QDeclarativeEngine::objectOwnership(class QObject *)
	??0QDeclarativeDebugWatch@@QAE@PAVQObject@@@Z @ 63 NONAME ABSENT ; QDeclarativeDebugWatch::QDeclarativeDebugWatch(class QObject *)
	?value@QDeclarativePropertyMap@@QBE?AVQVariant@@ABVQString@@@Z @ 64 NONAME ; class QVariant QDeclarativePropertyMap::value(class QString const &) const
	?trUtf8@QDeclarativePropertyMap@@SA?AVQString@@PBD0@Z @ 65 NONAME ; class QString QDeclarativePropertyMap::trUtf8(char const *, char const *)
	?isWaiting@QDeclarativeDebugQuery@@QBE_NXZ @ 66 NONAME ABSENT ; bool QDeclarativeDebugQuery::isWaiting(void) const
	??1Variant@QDeclarativeParser@@QAE@XZ @ 67 NONAME ; QDeclarativeParser::Variant::~Variant(void)
	??0Variant@QDeclarativeParser@@QAE@ABVQString@@@Z @ 68 NONAME ; QDeclarativeParser::Variant::Variant(class QString const &)
	?paintedSizeChanged@QDeclarativeText@@IAEXXZ @ 69 NONAME ABSENT ; void QDeclarativeText::paintedSizeChanged(void)
	??1QDeclarativeDebugClient@@UAE@XZ @ 70 NONAME ABSENT ; QDeclarativeDebugClient::~QDeclarativeDebugClient(void)
	?trUtf8@QPacketProtocol@@SA?AVQString@@PBD0@Z @ 71 NONAME ; class QString QPacketProtocol::trUtf8(char const *, char const *)
	?trUtf8@QDeclarativeListModel@@SA?AVQString@@PBD0@Z @ 72 NONAME ABSENT ; class QString QDeclarativeListModel::trUtf8(char const *, char const *)
	?qt_metacast@QDeclarativeState@@UAEPAXPBD@Z @ 73 NONAME ; void * QDeclarativeState::qt_metacast(char const *)
	??1QDeclarativeDebugContextReference@@QAE@XZ @ 74 NONAME ABSENT ; QDeclarativeDebugContextReference::~QDeclarativeDebugContextReference(void)
	?getStaticMetaObject@QDeclarativeStateOperation@@SAABUQMetaObject@@XZ @ 75 NONAME ; struct QMetaObject const & QDeclarativeStateOperation::getStaticMetaObject(void)
	?isInvalid@QDeclarativeDomValue@@QBE_NXZ @ 76 NONAME ABSENT ; bool QDeclarativeDomValue::isInvalid(void) const
	?trUtf8@QDeclarativeText@@SA?AVQString@@PBD0H@Z @ 77 NONAME ABSENT ; class QString QDeclarativeText::trUtf8(char const *, char const *, int)
	??0QDeclarativeListReference@@QAE@ABV0@@Z @ 78 NONAME ; QDeclarativeListReference::QDeclarativeListReference(class QDeclarativeListReference const &)
	?classBegin@QDeclarativeItem@@MAEXXZ @ 79 NONAME ; void QDeclarativeItem::classBegin(void)
	?setTransformOrigin@QDeclarativeItem@@QAEXW4TransformOrigin@1@@Z @ 80 NONAME ; void QDeclarativeItem::setTransformOrigin(enum QDeclarativeItem::TransformOrigin)
	?event@QDeclarativeItem@@MAE_NPAVQEvent@@@Z @ 81 NONAME ; bool QDeclarativeItem::event(class QEvent *)
	?setAttributes@QMetaMethodBuilder@@QAEXH@Z @ 82 NONAME ABSENT ; void QMetaMethodBuilder::setAttributes(int)
	?imageType@QDeclarativeImageProvider@@QBE?AW4ImageType@1@XZ @ 83 NONAME ; enum QDeclarativeImageProvider::ImageType QDeclarativeImageProvider::imageType(void) const
	??_EQDeclarativeDebugObjectReference@@QAE@I@Z @ 84 NONAME ABSENT ; QDeclarativeDebugObjectReference::~QDeclarativeDebugObjectReference(unsigned int)
	?qt_metacall@QDeclarativeDebugQuery@@UAEHW4Call@QMetaObject@@HPAPAX@Z @ 85 NONAME ABSENT ; int QDeclarativeDebugQuery::qt_metacall(enum QMetaObject::Call, int, void * *)
	?findState@QDeclarativeStateGroup@@QBEPAVQDeclarativeState@@ABVQString@@@Z @ 86 NONAME ; class QDeclarativeState * QDeclarativeStateGroup::findState(class QString const &) const
	?asScript@Variant@QDeclarativeParser@@QBE?AVQString@@XZ @ 87 NONAME ; class QString QDeclarativeParser::Variant::asScript(void) const
	?qt_metacast@QDeclarativeExtensionPlugin@@UAEPAXPBD@Z @ 88 NONAME ; void * QDeclarativeExtensionPlugin::qt_metacast(char const *)
	?objectId@QDeclarativeDomObject@@QBE?AVQString@@XZ @ 89 NONAME ABSENT ; class QString QDeclarativeDomObject::objectId(void) const
	?right@QDeclarativeAnchors@@QBE?AVQDeclarativeAnchorLine@@XZ @ 90 NONAME ABSENT ; class QDeclarativeAnchorLine QDeclarativeAnchors::right(void) const
	?removeFromObject@QDeclarativeAbstractBinding@@QAEXXZ @ 91 NONAME ABSENT ; void QDeclarativeAbstractBinding::removeFromObject(void)
	?resizeMode@QDeclarativeView@@QBE?AW4ResizeMode@1@XZ @ 92 NONAME ; enum QDeclarativeView::ResizeMode QDeclarativeView::resizeMode(void) const
	?object@QDeclarativeOpenMetaObject@@QBEPAVQObject@@XZ @ 93 NONAME ABSENT ; class QObject * QDeclarativeOpenMetaObject::object(void) const
	?staticMetaObject@QDeclarativeBehavior@@2UQMetaObject@@B @ 94 NONAME ABSENT ; struct QMetaObject const QDeclarativeBehavior::staticMetaObject
	?toObject@QDeclarativeDomValue@@QBE?AVQDeclarativeDomObject@@XZ @ 95 NONAME ABSENT ; class QDeclarativeDomObject QDeclarativeDomValue::toObject(void) const
	?setLine@QDeclarativeError@@QAEXH@Z @ 96 NONAME ; void QDeclarativeError::setLine(int)
	??6QDeclarativeInfo@@QAEAAV0@K@Z @ 97 NONAME ; class QDeclarativeInfo & QDeclarativeInfo::operator<<(unsigned long)
	??0QDeclarativeDebugConnection@@QAE@PAVQObject@@@Z @ 98 NONAME ABSENT ; QDeclarativeDebugConnection::QDeclarativeDebugConnection(class QObject *)
	?qt_metacast@QDeclarativeDebugQuery@@UAEPAXPBD@Z @ 99 NONAME ABSENT ; void * QDeclarativeDebugQuery::qt_metacast(char const *)
	?isValid@QDeclarativeGridScaledImage@@QBE_NXZ @ 100 NONAME ABSENT ; bool QDeclarativeGridScaledImage::isValid(void) const
	?qt_metacast@QDeclarativeContext@@UAEPAXPBD@Z @ 101 NONAME ; void * QDeclarativeContext::qt_metacast(char const *)
	?metaObject@QDeclarativeDebugClient@@UBEPBUQMetaObject@@XZ @ 102 NONAME ABSENT ; struct QMetaObject const * QDeclarativeDebugClient::metaObject(void) const
	?transitions@QDeclarativeItemPrivate@@QAE?AV?$QDeclarativeListProperty@VQDeclarativeTransition@@@@XZ @ 103 NONAME ; class QDeclarativeListProperty<class QDeclarativeTransition> QDeclarativeItemPrivate::transitions(void)
	??0QDeclarativeDebugPropertyWatch@@QAE@PAVQObject@@@Z @ 104 NONAME ABSENT ; QDeclarativeDebugPropertyWatch::QDeclarativeDebugPropertyWatch(class QObject *)
	??_EQDeclarativeDebugPropertyReference@@QAE@I@Z @ 105 NONAME ABSENT ; QDeclarativeDebugPropertyReference::~QDeclarativeDebugPropertyReference(unsigned int)
	?itemsChanged@QListModelInterface@@IAEXHHABV?$QList@H@@@Z @ 106 NONAME ABSENT ; void QListModelInterface::itemsChanged(int, int, class QList<int> const &)
	??6@YA?AVQDebug@@V0@PAVQDeclarativeItem@@@Z @ 107 NONAME ; class QDebug operator<<(class QDebug, class QDeclarativeItem *)
	?write@QDeclarativePropertyPrivate@@SA_NABVQDeclarativeProperty@@ABVQVariant@@V?$QFlags@W4WriteFlag@QDeclarativePropertyPrivate@@@@@Z @ 108 NONAME ABSENT ; bool QDeclarativePropertyPrivate::write(class QDeclarativeProperty const &, class QVariant const &, class QFlags<enum QDeclarativePropertyPrivate::WriteFlag>)
	?verticalTileRule@QDeclarativeGridScaledImage@@QBE?AW4TileMode@QDeclarativeBorderImage@@XZ @ 109 NONAME ABSENT ; enum QDeclarativeBorderImage::TileMode QDeclarativeGridScaledImage::verticalTileRule(void) const
	?tr@QDeclarativeDebugObjectQuery@@SA?AVQString@@PBD0@Z @ 110 NONAME ABSENT ; class QString QDeclarativeDebugObjectQuery::tr(char const *, char const *)
	?isDynamic@QMetaPropertyBuilder@@QBE_NXZ @ 111 NONAME ABSENT ; bool QMetaPropertyBuilder::isDynamic(void) const
	?removeClassInfo@QMetaObjectBuilder@@QAEXH@Z @ 112 NONAME ABSENT ; void QMetaObjectBuilder::removeClassInfo(int)
	?warnings@QDeclarativeEngine@@IAEXABV?$QList@VQDeclarativeError@@@@@Z @ 113 NONAME ; void QDeclarativeEngine::warnings(class QList<class QDeclarativeError> const &)
	?description@QDeclarativeError@@QBE?AVQString@@XZ @ 114 NONAME ; class QString QDeclarativeError::description(void) const
	?binding@QDeclarativeDebugPropertyReference@@QBE?AVQString@@XZ @ 115 NONAME ABSENT ; class QString QDeclarativeDebugPropertyReference::binding(void) const
	?trUtf8@QDeclarativePen@@SA?AVQString@@PBD0@Z @ 116 NONAME ABSENT ; class QString QDeclarativePen::trUtf8(char const *, char const *)
	?readValueProperty@QDeclarativePropertyPrivate@@QAE?AVQVariant@@XZ @ 117 NONAME ABSENT ; class QVariant QDeclarativePropertyPrivate::readValueProperty(void)
	?propertyType@QDeclarativeDomDynamicProperty@@QBEHXZ @ 118 NONAME ABSENT ; int QDeclarativeDomDynamicProperty::propertyType(void) const
	?gridBottom@QDeclarativeGridScaledImage@@QBEHXZ @ 119 NONAME ABSENT ; int QDeclarativeGridScaledImage::gridBottom(void) const
	?setRadius@QDeclarativeRectangle@@QAEXM@Z @ 120 NONAME ABSENT ; void QDeclarativeRectangle::setRadius(float)
	?d_func@QDeclarativeBehavior@@AAEPAVQDeclarativeBehaviorPrivate@@XZ @ 121 NONAME ABSENT ; class QDeclarativeBehaviorPrivate * QDeclarativeBehavior::d_func(void)
	?isValid@QDeclarativePen@@QAE_NXZ @ 122 NONAME ABSENT ; bool QDeclarativePen::isValid(void)
	?result@QDeclarativeDebugExpressionQuery@@QBE?AVQVariant@@XZ @ 123 NONAME ABSENT ; class QVariant QDeclarativeDebugExpressionQuery::result(void) const
	?isEnumOrFlag@QMetaPropertyBuilder@@QBE_NXZ @ 124 NONAME ABSENT ; bool QMetaPropertyBuilder::isEnumOrFlag(void) const
	?addToObject@QDeclarativeAbstractBinding@@QAEXPAVQObject@@@Z @ 125 NONAME ABSENT ; void QDeclarativeAbstractBinding::addToObject(class QObject *)
	?trUtf8@QDeclarativeView@@SA?AVQString@@PBD0H@Z @ 126 NONAME ; class QString QDeclarativeView::trUtf8(char const *, char const *, int)
	?d_func@QDeclarativeAnchors@@AAEPAVQDeclarativeAnchorsPrivate@@XZ @ 127 NONAME ABSENT ; class QDeclarativeAnchorsPrivate * QDeclarativeAnchors::d_func(void)
	??1QPacket@@UAE@XZ @ 128 NONAME ; QPacket::~QPacket(void)
	?top@QDeclarativeScaleGrid@@QBEHXZ @ 129 NONAME ABSENT ; int QDeclarativeScaleGrid::top(void) const
	?setExpression@QDeclarativeExpression@@QAEXABVQString@@@Z @ 130 NONAME ; void QDeclarativeExpression::setExpression(class QString const &)
	??1QDeclarativeDebugEngineReference@@QAE@XZ @ 131 NONAME ABSENT ; QDeclarativeDebugEngineReference::~QDeclarativeDebugEngineReference(void)
	??0QDeclarativeStateOperation@@QAE@PAVQObject@@@Z @ 132 NONAME ; QDeclarativeStateOperation::QDeclarativeStateOperation(class QObject *)
	?transform_clear@QDeclarativeItemPrivate@@SAXPAV?$QDeclarativeListProperty@VQGraphicsTransform@@@@@Z @ 133 NONAME ; void QDeclarativeItemPrivate::transform_clear(class QDeclarativeListProperty<class QGraphicsTransform> *)
	?staticMetaObject@QDeclarativeValueType@@2UQMetaObject@@B @ 134 NONAME ABSENT ; struct QMetaObject const QDeclarativeValueType::staticMetaObject
	?propertyName@QDeclarativeDomDynamicProperty@@QBE?AVQByteArray@@XZ @ 135 NONAME ABSENT ; class QByteArray QDeclarativeDomDynamicProperty::propertyName(void) const
	?focusChanged@QDeclarativeItem@@IAEX_N@Z @ 136 NONAME ; void QDeclarativeItem::focusChanged(bool)
	?getStaticMetaObject@QDeclarativeBinding@@SAABUQMetaObject@@XZ @ 137 NONAME ABSENT ; struct QMetaObject const & QDeclarativeBinding::getStaticMetaObject(void)
	?copy@QDeclarativeMetaType@@SA_NHPAXPBX@Z @ 138 NONAME ABSENT ; bool QDeclarativeMetaType::copy(int, void *, void const *)
	?qt_metacall@QDeclarativeDebugEnginesQuery@@UAEHW4Call@QMetaObject@@HPAPAX@Z @ 139 NONAME ABSENT ; int QDeclarativeDebugEnginesQuery::qt_metacall(enum QMetaObject::Call, int, void * *)
	?tr@QDeclarativeDebugWatch@@SA?AVQString@@PBD0@Z @ 140 NONAME ABSENT ; class QString QDeclarativeDebugWatch::tr(char const *, char const *)
	?setEnumOrFlag@QMetaPropertyBuilder@@QAEX_N@Z @ 141 NONAME ABSENT ; void QMetaPropertyBuilder::setEnumOrFlag(bool)
	?getStaticMetaObject@QDeclarativeRectangle@@SAABUQMetaObject@@XZ @ 142 NONAME ABSENT ; struct QMetaObject const & QDeclarativeRectangle::getStaticMetaObject(void)
	?isValid@QDeclarativeProperty@@QBE_NXZ @ 143 NONAME ; bool QDeclarativeProperty::isValid(void) const
	?isConnected@QDeclarativeDebugClient@@QBE_NXZ @ 144 NONAME ABSENT ; bool QDeclarativeDebugClient::isConnected(void) const
	?enabled@QDeclarativeBinding@@QBE_NXZ @ 145 NONAME ABSENT ; bool QDeclarativeBinding::enabled(void) const
	?setSource@QDeclarativeView@@QAEXABVQUrl@@@Z @ 146 NONAME ; void QDeclarativeView::setSource(class QUrl const &)
	??_EQDeclarativeDebugService@@UAE@I@Z @ 147 NONAME ; QDeclarativeDebugService::~QDeclarativeDebugService(unsigned int)
	??0QDeclarativeDomDynamicProperty@@QAE@ABV0@@Z @ 148 NONAME ABSENT ; QDeclarativeDomDynamicProperty::QDeclarativeDomDynamicProperty(class QDeclarativeDomDynamicProperty const &)
	?className@QDeclarativeDebugObjectReference@@QBE?AVQString@@XZ @ 149 NONAME ABSENT ; class QString QDeclarativeDebugObjectReference::className(void) const
	?indexOfSlot@QMetaObjectBuilder@@QAEHABVQByteArray@@@Z @ 150 NONAME ABSENT ; int QMetaObjectBuilder::indexOfSlot(class QByteArray const &)
	?tr@QDeclarativeDebugConnection@@SA?AVQString@@PBD0H@Z @ 151 NONAME ABSENT ; class QString QDeclarativeDebugConnection::tr(char const *, char const *, int)
	?progressChanged@QDeclarativeComponent@@IAEXM@Z @ 152 NONAME ; void QDeclarativeComponent::progressChanged(float)
	?hasError@QDeclarativeExpression@@QBE_NXZ @ 153 NONAME ; bool QDeclarativeExpression::hasError(void) const
	?error@QDeclarativePixmap@@QBE?AVQString@@XZ @ 154 NONAME ; class QString QDeclarativePixmap::error(void) const
	?property@QMetaObjectBuilder@@QBE?AVQMetaPropertyBuilder@@H@Z @ 155 NONAME ABSENT ; class QMetaPropertyBuilder QMetaObjectBuilder::property(int) const
	?index@QDeclarativeType@@QBEHXZ @ 156 NONAME ABSENT ; int QDeclarativeType::index(void) const
	?tr@QDeclarativeRectangle@@SA?AVQString@@PBD0@Z @ 157 NONAME ABSENT ; class QString QDeclarativeRectangle::tr(char const *, char const *)
	??0QDeclarativeScaleGrid@@QAE@PAVQObject@@@Z @ 158 NONAME ABSENT ; QDeclarativeScaleGrid::QDeclarativeScaleGrid(class QObject *)
	?engines@QDeclarativeDebugEnginesQuery@@QBE?AV?$QList@VQDeclarativeDebugEngineReference@@@@XZ @ 159 NONAME ABSENT ; class QList<class QDeclarativeDebugEngineReference> QDeclarativeDebugEnginesQuery::engines(void) const
	?qt_metacall@QDeclarativeDebugPropertyWatch@@UAEHW4Call@QMetaObject@@HPAPAX@Z @ 160 NONAME ABSENT ; int QDeclarativeDebugPropertyWatch::qt_metacall(enum QMetaObject::Call, int, void * *)
	?metaObject@QDeclarativeAnchors@@UBEPBUQMetaObject@@XZ @ 161 NONAME ABSENT ; struct QMetaObject const * QDeclarativeAnchors::metaObject(void) const
	??BQDeclarativePixmap@@QBEABVQPixmap@@XZ @ 162 NONAME ; QDeclarativePixmap::operator class QPixmap const &(void) const
	?sceneResized@QDeclarativeView@@IAEXVQSize@@@Z @ 163 NONAME ; void QDeclarativeView::sceneResized(class QSize)
	?subFocusItemChange@QDeclarativeItemPrivate@@UAEXXZ @ 164 NONAME ; void QDeclarativeItemPrivate::subFocusItemChange(void)
	?hasNotifySignal@QDeclarativeDebugPropertyReference@@QBE_NXZ @ 165 NONAME ABSENT ; bool QDeclarativeDebugPropertyReference::hasNotifySignal(void) const
	?addSlot@QMetaObjectBuilder@@QAE?AVQMetaMethodBuilder@@ABVQByteArray@@@Z @ 166 NONAME ABSENT ; class QMetaMethodBuilder QMetaObjectBuilder::addSlot(class QByteArray const &)
	?trUtf8@QDeclarativeStateOperation@@SA?AVQString@@PBD0@Z @ 167 NONAME ; class QString QDeclarativeStateOperation::trUtf8(char const *, char const *)
	?propertyCreated@QDeclarativeOpenMetaObjectType@@MAEXHAAVQMetaPropertyBuilder@@@Z @ 168 NONAME ABSENT ; void QDeclarativeOpenMetaObjectType::propertyCreated(int, class QMetaPropertyBuilder &)
	??1QDeclarativeItemPrivate@@UAE@XZ @ 169 NONAME ; QDeclarativeItemPrivate::~QDeclarativeItemPrivate(void)
	?clear@QDeclarativePropertyMap@@QAEXABVQString@@@Z @ 170 NONAME ; void QDeclarativePropertyMap::clear(class QString const &)
	?tr@QDeclarativeDebugClient@@SA?AVQString@@PBD0H@Z @ 171 NONAME ABSENT ; class QString QDeclarativeDebugClient::tr(char const *, char const *, int)
	?read@QDeclarativeProperty@@SA?AVQVariant@@PAVQObject@@ABVQString@@PAVQDeclarativeEngine@@@Z @ 172 NONAME ; class QVariant QDeclarativeProperty::read(class QObject *, class QString const &, class QDeclarativeEngine *)
	?insert@QDeclarativePropertyMap@@QAEXABVQString@@ABVQVariant@@@Z @ 173 NONAME ; void QDeclarativePropertyMap::insert(class QString const &, class QVariant const &)
	??1QDeclarativeContext@@UAE@XZ @ 174 NONAME ; QDeclarativeContext::~QDeclarativeContext(void)
	?operationCount@QDeclarativeState@@QBEHXZ @ 175 NONAME ; int QDeclarativeState::operationCount(void) const
	?getStaticMetaObject@QDeclarativeItem@@SAABUQMetaObject@@XZ @ 176 NONAME ; struct QMetaObject const & QDeclarativeItem::getStaticMetaObject(void)
	?qtAnimationStateChanged@QDeclarativeBehavior@@AAEXW4State@QAbstractAnimation@@0@Z @ 177 NONAME ABSENT ; void QDeclarativeBehavior::qtAnimationStateChanged(enum QAbstractAnimation::State, enum QAbstractAnimation::State)
	?trUtf8@QDeclarativeBehavior@@SA?AVQString@@PBD0H@Z @ 178 NONAME ABSENT ; class QString QDeclarativeBehavior::trUtf8(char const *, char const *, int)
	?status@QDeclarativeComponent@@QBE?AW4Status@1@XZ @ 179 NONAME ; enum QDeclarativeComponent::Status QDeclarativeComponent::status(void) const
	?boundingRect@QDeclarativeItem@@UBE?AVQRectF@@XZ @ 180 NONAME ; class QRectF QDeclarativeItem::boundingRect(void) const
	?availableInVersion@QDeclarativeType@@QBE_NHH@Z @ 181 NONAME ABSENT ; bool QDeclarativeType::availableInVersion(int, int) const
	?getStaticMetaObject@QDeclarativeDebugWatch@@SAABUQMetaObject@@XZ @ 182 NONAME ABSENT ; struct QMetaObject const & QDeclarativeDebugWatch::getStaticMetaObject(void)
	??_EQDeclarativeRectangle@@UAE@I@Z @ 183 NONAME ABSENT ; QDeclarativeRectangle::~QDeclarativeRectangle(unsigned int)
	?setTopMargin@QDeclarativeAnchors@@QAEXM@Z @ 184 NONAME ABSENT ; void QDeclarativeAnchors::setTopMargin(float)
	??5@YAAAVQDataStream@@AAV0@AAUQDeclarativeObjectProperty@QDeclarativeEngineDebugServer@@@Z @ 185 NONAME ABSENT ; class QDataStream & operator>>(class QDataStream &, struct QDeclarativeEngineDebugServer::QDeclarativeObjectProperty &)
	??1QDeclarativeValueTypeFactory@@QAE@XZ @ 186 NONAME ABSENT ; QDeclarativeValueTypeFactory::~QDeclarativeValueTypeFactory(void)
	?metaObject@QDeclarativeDebugObjectExpressionWatch@@UBEPBUQMetaObject@@XZ @ 187 NONAME ABSENT ; struct QMetaObject const * QDeclarativeDebugObjectExpressionWatch::metaObject(void) const
	??0QDeclarativeComponent@@QAE@PAVQObject@@@Z @ 188 NONAME ; QDeclarativeComponent::QDeclarativeComponent(class QObject *)
	?qt_metacast@QDeclarativeItem@@UAEPAXPBD@Z @ 189 NONAME ; void * QDeclarativeItem::qt_metacast(char const *)
	?changes@QDeclarativeState@@QAE?AV?$QDeclarativeListProperty@VQDeclarativeStateOperation@@@@XZ @ 190 NONAME ; class QDeclarativeListProperty<class QDeclarativeStateOperation> QDeclarativeState::changes(void)
	?resizeEvent@QDeclarativeView@@MAEXPAVQResizeEvent@@@Z @ 191 NONAME ; void QDeclarativeView::resizeEvent(class QResizeEvent *)
	?d_func@QDeclarativeBinding@@ABEPBVQDeclarativeBindingPrivate@@XZ @ 192 NONAME ABSENT ; class QDeclarativeBindingPrivate const * QDeclarativeBinding::d_func(void) const
	?wrapMode@QDeclarativeText@@QBE?AW4WrapMode@1@XZ @ 193 NONAME ABSENT ; enum QDeclarativeText::WrapMode QDeclarativeText::wrapMode(void) const
	?centerIn@QDeclarativeAnchors@@QBEPAVQGraphicsObject@@XZ @ 194 NONAME ABSENT ; class QGraphicsObject * QDeclarativeAnchors::centerIn(void) const
	??0QDeclarativeType@@AAE@HABURegisterType@QDeclarativePrivate@@@Z @ 195 NONAME ABSENT ; QDeclarativeType::QDeclarativeType(int, struct QDeclarativePrivate::RegisterType const &)
	?trUtf8@QDeclarativeComponent@@SA?AVQString@@PBD0H@Z @ 196 NONAME ; class QString QDeclarativeComponent::trUtf8(char const *, char const *, int)
	??0QMetaObjectBuilder@@QAE@PBUQMetaObject@@V?$QFlags@W4AddMember@QMetaObjectBuilder@@@@@Z @ 197 NONAME ABSENT ; QMetaObjectBuilder::QMetaObjectBuilder(struct QMetaObject const *, class QFlags<enum QMetaObjectBuilder::AddMember>)
	?quit@QDeclarativeEngine@@IAEXXZ @ 198 NONAME ; void QDeclarativeEngine::quit(void)
	?qmlregister@QDeclarativePrivate@@YAHW4RegistrationType@1@PAX@Z @ 199 NONAME ; int QDeclarativePrivate::qmlregister(enum QDeclarativePrivate::RegistrationType, void *)
	??0QMetaEnumBuilder@@AAE@PBVQMetaObjectBuilder@@H@Z @ 200 NONAME ABSENT ; QMetaEnumBuilder::QMetaEnumBuilder(class QMetaObjectBuilder const *, int)
	?setBottom@QDeclarativeAnchors@@QAEXABVQDeclarativeAnchorLine@@@Z @ 201 NONAME ABSENT ; void QDeclarativeAnchors::setBottom(class QDeclarativeAnchorLine const &)
	??0QDeclarativeCustomParser@@QAE@XZ @ 202 NONAME ; QDeclarativeCustomParser::QDeclarativeCustomParser(void)
	?value@QDeclarativeOpenMetaObject@@QBE?AVQVariant@@ABVQByteArray@@@Z @ 203 NONAME ABSENT ; class QVariant QDeclarativeOpenMetaObject::value(class QByteArray const &) const
	?styleColor@QDeclarativeText@@QBE?AVQColor@@XZ @ 204 NONAME ABSENT ; class QColor QDeclarativeText::styleColor(void) const
	?centerInChanged@QDeclarativeAnchors@@IAEXXZ @ 205 NONAME ABSENT ; void QDeclarativeAnchors::centerInChanged(void)
	?colorChanged@QDeclarativeRectangle@@IAEXXZ @ 206 NONAME ABSENT ; void QDeclarativeRectangle::colorChanged(void)
	??0QDeclarativePropertyPrivate@@QAE@ABV0@@Z @ 207 NONAME ABSENT ; QDeclarativePropertyPrivate::QDeclarativePropertyPrivate(class QDeclarativePropertyPrivate const &)
	?loadUrl@QDeclarativeComponent@@QAEXABVQUrl@@@Z @ 208 NONAME ; void QDeclarativeComponent::loadUrl(class QUrl const &)
	?beginCreate@QDeclarativeComponent@@UAEPAVQObject@@PAVQDeclarativeContext@@@Z @ 209 NONAME ; class QObject * QDeclarativeComponent::beginCreate(class QDeclarativeContext *)
	?setRight@QDeclarativeAnchors@@QAEXABVQDeclarativeAnchorLine@@@Z @ 210 NONAME ABSENT ; void QDeclarativeAnchors::setRight(class QDeclarativeAnchorLine const &)
	?needsNotifySignal@QDeclarativeProperty@@QBE_NXZ @ 211 NONAME ; bool QDeclarativeProperty::needsNotifySignal(void) const
	?fill@QDeclarativeAnchors@@QBEPAVQGraphicsObject@@XZ @ 212 NONAME ABSENT ; class QGraphicsObject * QDeclarativeAnchors::fill(void) const
	?top@QDeclarativeItemPrivate@@QBE?AVQDeclarativeAnchorLine@@XZ @ 213 NONAME ; class QDeclarativeAnchorLine QDeclarativeItemPrivate::top(void) const
	?clear@QDeclarativeListReference@@QBE_NXZ @ 214 NONAME ; bool QDeclarativeListReference::clear(void) const
	?parentChanged@QDeclarativeItem@@IAEXPAV1@@Z @ 215 NONAME ; void QDeclarativeItem::parentChanged(class QDeclarativeItem *)
	?columnNumber@QDeclarativeDebugFileReference@@QBEHXZ @ 216 NONAME ABSENT ; int QDeclarativeDebugFileReference::columnNumber(void) const
	??0QDeclarativeListModel@@AAE@_NPAVQObject@@@Z @ 217 NONAME ABSENT ; QDeclarativeListModel::QDeclarativeListModel(bool, class QObject *)
	?apply@QDeclarativeState@@QAEXPAVQDeclarativeStateGroup@@PAVQDeclarativeTransition@@PAV1@@Z @ 218 NONAME ; void QDeclarativeState::apply(class QDeclarativeStateGroup *, class QDeclarativeTransition *, class QDeclarativeState *)
	?isValid@QDeclarativeDomProperty@@QBE_NXZ @ 219 NONAME ABSENT ; bool QDeclarativeDomProperty::isValid(void) const
	?trUtf8@QDeclarativeDebugExpressionQuery@@SA?AVQString@@PBD0@Z @ 220 NONAME ABSENT ; class QString QDeclarativeDebugExpressionQuery::trUtf8(char const *, char const *)
	?statusChanged@QDeclarativeView@@IAEXW4Status@1@@Z @ 221 NONAME ; void QDeclarativeView::statusChanged(enum QDeclarativeView::Status)
	?componentComplete@QDeclarativeText@@UAEXXZ @ 222 NONAME ABSENT ; void QDeclarativeText::componentComplete(void)
	?canCount@QDeclarativeListReference@@QBE_NXZ @ 223 NONAME ; bool QDeclarativeListReference::canCount(void) const
	??1QListModelInterface@@UAE@XZ @ 224 NONAME ABSENT ; QListModelInterface::~QListModelInterface(void)
	??0QDeclarativeAnchors@@QAE@PAVQObject@@@Z @ 225 NONAME ABSENT ; QDeclarativeAnchors::QDeclarativeAnchors(class QObject *)
	?resources_at@QDeclarativeItemPrivate@@SAPAVQObject@@PAV?$QDeclarativeListProperty@VQObject@@@@H@Z @ 226 NONAME ; class QObject * QDeclarativeItemPrivate::resources_at(class QDeclarativeListProperty<class QObject> *, int)
	?isExtendedType@QDeclarativeType@@QBE_NXZ @ 227 NONAME ABSENT ; bool QDeclarativeType::isExtendedType(void) const
	?top@QDeclarativeAnchors@@QBE?AVQDeclarativeAnchorLine@@XZ @ 228 NONAME ABSENT ; class QDeclarativeAnchorLine QDeclarativeAnchors::top(void) const
	??0QDeclarativePropertyMap@@QAE@PAVQObject@@@Z @ 229 NONAME ; QDeclarativePropertyMap::QDeclarativePropertyMap(class QObject *)
	??0QDeclarativeExpression@@IAE@PAVQDeclarativeContextData@@PAXPAVQDeclarativeRefCount@@PAVQObject@@ABVQString@@HAAVQDeclarativeExpressionPrivate@@@Z @ 230 NONAME ; QDeclarativeExpression::QDeclarativeExpression(class QDeclarativeContextData *, void *, class QDeclarativeRefCount *, class QObject *, class QString const &, int, class QDeclarativeExpressionPrivate &)
	?setColor@QDeclarativeText@@QAEXABVQColor@@@Z @ 231 NONAME ABSENT ; void QDeclarativeText::setColor(class QColor const &)
	?hasStdCppSet@QMetaPropertyBuilder@@QBE_NXZ @ 232 NONAME ABSENT ; bool QMetaPropertyBuilder::hasStdCppSet(void) const
	??0QDeclarativeDebugFileReference@@QAE@ABV0@@Z @ 233 NONAME ABSENT ; QDeclarativeDebugFileReference::QDeclarativeDebugFileReference(class QDeclarativeDebugFileReference const &)
	?toValueInterceptor@QDeclarativeDomValue@@QBE?AVQDeclarativeDomValueValueInterceptor@@XZ @ 234 NONAME ABSENT ; class QDeclarativeDomValueValueInterceptor QDeclarativeDomValue::toValueInterceptor(void) const
	??0QDeclarativeDebugEngineReference@@QAE@H@Z @ 235 NONAME ABSENT ; QDeclarativeDebugEngineReference::QDeclarativeDebugEngineReference(int)
	?tr@QDeclarativePixmap@@SA?AVQString@@PBD0H@Z @ 236 NONAME ; class QString QDeclarativePixmap::tr(char const *, char const *, int)
	?state@QDeclarativeItemPrivate@@QBE?AVQString@@XZ @ 237 NONAME ; class QString QDeclarativeItemPrivate::state(void) const
	??1QDeclarativePropertyValueInterceptor@@UAE@XZ @ 238 NONAME ; QDeclarativePropertyValueInterceptor::~QDeclarativePropertyValueInterceptor(void)
	?getStaticMetaObject@QDeclarativePropertyMap@@SAABUQMetaObject@@XZ @ 239 NONAME ; struct QMetaObject const & QDeclarativePropertyMap::getStaticMetaObject(void)
	??1QDeclarativeScaleGrid@@UAE@XZ @ 240 NONAME ABSENT ; QDeclarativeScaleGrid::~QDeclarativeScaleGrid(void)
	?idString@QDeclarativeDebugObjectReference@@QBE?AVQString@@XZ @ 241 NONAME ABSENT ; class QString QDeclarativeDebugObjectReference::idString(void) const
	?customTypeData@QDeclarativeDomObject@@QBE?AVQByteArray@@XZ @ 242 NONAME ABSENT ; class QByteArray QDeclarativeDomObject::customTypeData(void) const
	?stop@QDeclarativeTransition@@QAEXXZ @ 243 NONAME ; void QDeclarativeTransition::stop(void)
	?data@QDeclarativeListModel@@UBE?AV?$QHash@HVQVariant@@@@HABV?$QList@H@@@Z @ 244 NONAME ABSENT ; class QHash<int, class QVariant> QDeclarativeListModel::data(int, class QList<int> const &) const
	?verticalCenterOffset@QDeclarativeAnchors@@QBEMXZ @ 245 NONAME ABSENT ; float QDeclarativeAnchors::verticalCenterOffset(void) const
	?metaObject@QDeclarativeText@@UBEPBUQMetaObject@@XZ @ 246 NONAME ABSENT ; struct QMetaObject const * QDeclarativeText::metaObject(void) const
	??0QDeclarativeComponent@@QAE@PAVQDeclarativeEngine@@PAVQObject@@@Z @ 247 NONAME ; QDeclarativeComponent::QDeclarativeComponent(class QDeclarativeEngine *, class QObject *)
	?createProperty@QDeclarativeOpenMetaObjectType@@QAEHABVQByteArray@@@Z @ 248 NONAME ABSENT ; int QDeclarativeOpenMetaObjectType::createProperty(class QByteArray const &)
	??0QDeclarativeContext@@QAE@PAVQDeclarativeEngine@@PAVQObject@@@Z @ 249 NONAME ; QDeclarativeContext::QDeclarativeContext(class QDeclarativeEngine *, class QObject *)
	??6QDeclarativeInfo@@QAEAAV0@M@Z @ 250 NONAME ; class QDeclarativeInfo & QDeclarativeInfo::operator<<(float)
	??4QDeclarativeDomValueLiteral@@QAEAAV0@ABV0@@Z @ 251 NONAME ABSENT ; class QDeclarativeDomValueLiteral & QDeclarativeDomValueLiteral::operator=(class QDeclarativeDomValueLiteral const &)
	?setScript@QDeclarativeScriptString@@QAEXABVQString@@@Z @ 252 NONAME ; void QDeclarativeScriptString::setScript(class QString const &)
	?requestImage@QDeclarativeImageProvider@@UAE?AVQImage@@ABVQString@@PAVQSize@@ABV4@@Z @ 253 NONAME ; class QImage QDeclarativeImageProvider::requestImage(class QString const &, class QSize *, class QSize const &)
	?qt_metacast@QPacketProtocol@@UAEPAXPBD@Z @ 254 NONAME ; void * QPacketProtocol::qt_metacast(char const *)
	?addMetaObject@QMetaObjectBuilder@@QAEXPBUQMetaObject@@V?$QFlags@W4AddMember@QMetaObjectBuilder@@@@@Z @ 255 NONAME ABSENT ; void QMetaObjectBuilder::addMetaObject(struct QMetaObject const *, class QFlags<enum QMetaObjectBuilder::AddMember>)
	?trUtf8@QDeclarativeRectangle@@SA?AVQString@@PBD0H@Z @ 256 NONAME ABSENT ; class QString QDeclarativeRectangle::trUtf8(char const *, char const *, int)
	?qt_metacast@QDeclarativeText@@UAEPAXPBD@Z @ 257 NONAME ABSENT ; void * QDeclarativeText::qt_metacast(char const *)
	?anchors@QDeclarativeItemPrivate@@QAEPAVQDeclarativeAnchors@@XZ @ 258 NONAME ; class QDeclarativeAnchors * QDeclarativeItemPrivate::anchors(void)
	??0QListModelInterface@@IAE@AAVQObjectPrivate@@PAVQObject@@@Z @ 259 NONAME ABSENT ; QListModelInterface::QListModelInterface(class QObjectPrivate &, class QObject *)
	?valueTypeName@QDeclarativeDebugPropertyReference@@QBE?AVQString@@XZ @ 260 NONAME ABSENT ; class QString QDeclarativeDebugPropertyReference::valueTypeName(void) const
	?setStyleColor@QDeclarativeText@@QAEXABVQColor@@@Z @ 261 NONAME ABSENT ; void QDeclarativeText::setStyleColor(class QColor const &)
	?create@QDeclarativeType@@QBEPAVQObject@@XZ @ 262 NONAME ABSENT ; class QObject * QDeclarativeType::create(void) const
	?metaObject@QDeclarativeDebugExpressionQuery@@UBEPBUQMetaObject@@XZ @ 263 NONAME ABSENT ; struct QMetaObject const * QDeclarativeDebugExpressionQuery::metaObject(void) const
	?engine@QDeclarativeView@@QBEPAVQDeclarativeEngine@@XZ @ 264 NONAME ; class QDeclarativeEngine * QDeclarativeView::engine(void) const
	?readyRead@QPacketProtocol@@IAEXXZ @ 265 NONAME ; void QPacketProtocol::readyRead(void)
	?qt_metacall@QDeclarativeValueType@@UAEHW4Call@QMetaObject@@HPAPAX@Z @ 266 NONAME ABSENT ; int QDeclarativeValueType::qt_metacall(enum QMetaObject::Call, int, void * *)
	?propertyType@QDeclarativePropertyPrivate@@QBEHXZ @ 267 NONAME ABSENT ; int QDeclarativePropertyPrivate::propertyType(void) const
	?inputMethodQuery@QDeclarativeItem@@MBE?AVQVariant@@W4InputMethodQuery@Qt@@@Z @ 268 NONAME ; class QVariant QDeclarativeItem::inputMethodQuery(enum Qt::InputMethodQuery) const
	?sizeHint@QDeclarativeView@@UBE?AVQSize@@XZ @ 269 NONAME ; class QSize QDeclarativeView::sizeHint(void) const
	?flags@QDeclarativeCustomParser@@QBE?AV?$QFlags@W4Flag@QDeclarativeCustomParser@@@@XZ @ 270 NONAME ; class QFlags<enum QDeclarativeCustomParser::Flag> QDeclarativeCustomParser::flags(void) const
	?staticMetaObject@QDeclarativeDebugObjectExpressionWatch@@2UQMetaObject@@B @ 271 NONAME ABSENT ; struct QMetaObject const QDeclarativeDebugObjectExpressionWatch::staticMetaObject
	??0QDeclarativeDebugPropertyReference@@QAE@ABV0@@Z @ 272 NONAME ABSENT ; QDeclarativeDebugPropertyReference::QDeclarativeDebugPropertyReference(class QDeclarativeDebugPropertyReference const &)
	??_EQDeclarativeCustomParser@@UAE@I@Z @ 273 NONAME ; QDeclarativeCustomParser::~QDeclarativeCustomParser(unsigned int)
	??6QDeclarativeInfo@@QAEAAV0@ABVQStringRef@@@Z @ 274 NONAME ; class QDeclarativeInfo & QDeclarativeInfo::operator<<(class QStringRef const &)
	?values@QDeclarativeDomList@@QBE?AV?$QList@VQDeclarativeDomValue@@@@XZ @ 275 NONAME ABSENT ; class QList<class QDeclarativeDomValue> QDeclarativeDomList::values(void) const
	?errorString@QDeclarativeComponent@@QBE?AVQString@@XZ @ 276 NONAME ; class QString QDeclarativeComponent::errorString(void) const
	?metaObject@QDeclarativeEngineDebug@@UBEPBUQMetaObject@@XZ @ 277 NONAME ABSENT ; struct QMetaObject const * QDeclarativeEngineDebug::metaObject(void) const
	??1QDeclarativeDomValueValueInterceptor@@QAE@XZ @ 278 NONAME ABSENT ; QDeclarativeDomValueValueInterceptor::~QDeclarativeDomValueValueInterceptor(void)
	?flatten@QDeclarativeListModel@@AAE_NXZ @ 279 NONAME ABSENT ; bool QDeclarativeListModel::flatten(void)
	?propertyCount@QMetaObjectBuilder@@QBEHXZ @ 280 NONAME ABSENT ; int QMetaObjectBuilder::propertyCount(void) const
	?method@QMetaObjectBuilder@@QBE?AVQMetaMethodBuilder@@H@Z @ 281 NONAME ABSENT ; class QMetaMethodBuilder QMetaObjectBuilder::method(int) const
	?textFormat@QDeclarativeText@@QBE?AW4TextFormat@1@XZ @ 282 NONAME ABSENT ; enum QDeclarativeText::TextFormat QDeclarativeText::textFormat(void) const
	?getStaticMetaObject@QDeclarativeDebugObjectExpressionWatch@@SAABUQMetaObject@@XZ @ 283 NONAME ABSENT ; struct QMetaObject const & QDeclarativeDebugObjectExpressionWatch::getStaticMetaObject(void)
	?write@QDeclarativeBehavior@@UAEXABVQVariant@@@Z @ 284 NONAME ABSENT ; void QDeclarativeBehavior::write(class QVariant const &)
	?load@QDeclarativePixmap@@QAEXPAVQDeclarativeEngine@@ABVQUrl@@ABVQSize@@@Z @ 285 NONAME ; void QDeclarativePixmap::load(class QDeclarativeEngine *, class QUrl const &, class QSize const &)
	?resetTop@QDeclarativeAnchors@@QAEXXZ @ 286 NONAME ABSENT ; void QDeclarativeAnchors::resetTop(void)
	?queryId@QDeclarativeDebugWatch@@QBEHXZ @ 287 NONAME ABSENT ; int QDeclarativeDebugWatch::queryId(void) const
	?trUtf8@QDeclarativeExtensionPlugin@@SA?AVQString@@PBD0H@Z @ 288 NONAME ; class QString QDeclarativeExtensionPlugin::trUtf8(char const *, char const *, int)
	?staticMetaObject@QDeclarativeComponent@@2UQMetaObject@@B @ 289 NONAME ; struct QMetaObject const QDeclarativeComponent::staticMetaObject
	?setStateGroup@QDeclarativeState@@QAEXPAVQDeclarativeStateGroup@@@Z @ 290 NONAME ; void QDeclarativeState::setStateGroup(class QDeclarativeStateGroup *)
	?access@QMetaMethodBuilder@@QBE?AW4Access@QMetaMethod@@XZ @ 291 NONAME ABSENT ; enum QMetaMethod::Access QMetaMethodBuilder::access(void) const
	?tr@QDeclarativeDebugQuery@@SA?AVQString@@PBD0@Z @ 292 NONAME ABSENT ; class QString QDeclarativeDebugQuery::tr(char const *, char const *)
	?attachedPropertiesType@QDeclarativeType@@QBEPBUQMetaObject@@XZ @ 293 NONAME ABSENT ; struct QMetaObject const * QDeclarativeType::attachedPropertiesType(void) const
	?setName@QDeclarativeState@@QAEXABVQString@@@Z @ 294 NONAME ; void QDeclarativeState::setName(class QString const &)
	?setReversed@QDeclarativeTransition@@QAEX_N@Z @ 295 NONAME ; void QDeclarativeTransition::setReversed(bool)
	?idForObject@QDeclarativeDebugService@@SAHPAVQObject@@@Z @ 296 NONAME ; int QDeclarativeDebugService::idForObject(class QObject *)
	?qt_metacall@QDeclarativeDebugWatch@@UAEHW4Call@QMetaObject@@HPAPAX@Z @ 297 NONAME ABSENT ; int QDeclarativeDebugWatch::qt_metacall(enum QMetaObject::Call, int, void * *)
	?fromState@QDeclarativeTransition@@QBE?AVQString@@XZ @ 298 NONAME ; class QString QDeclarativeTransition::fromState(void) const
	??1QDeclarativeExpression@@UAE@XZ @ 299 NONAME ; QDeclarativeExpression::~QDeclarativeExpression(void)
	?binding@QDeclarativePropertyPrivate@@SAPAVQDeclarativeAbstractBinding@@ABVQDeclarativeProperty@@@Z @ 300 NONAME ABSENT ; class QDeclarativeAbstractBinding * QDeclarativePropertyPrivate::binding(class QDeclarativeProperty const &)
	?removeMethod@QMetaObjectBuilder@@QAEXH@Z @ 301 NONAME ABSENT ; void QMetaObjectBuilder::removeMethod(int)
	?operationAt@QDeclarativeState@@QBEPAVQDeclarativeStateOperation@@H@Z @ 302 NONAME ; class QDeclarativeStateOperation * QDeclarativeState::operationAt(int) const
	?methodCount@QMetaObjectBuilder@@QBEHXZ @ 303 NONAME ABSENT ; int QMetaObjectBuilder::methodCount(void) const
	?font@QDeclarativeText@@QBE?AVQFont@@XZ @ 304 NONAME ABSENT ; class QFont QDeclarativeText::font(void) const
	?completeCreate@QDeclarativeComponent@@UAEXXZ @ 305 NONAME ; void QDeclarativeComponent::completeCreate(void)
	??0QDeclarativeDomProperty@@QAE@XZ @ 306 NONAME ABSENT ; QDeclarativeDomProperty::QDeclarativeDomProperty(void)
	?initDefault@QDeclarativePropertyPrivate@@QAEXPAVQObject@@@Z @ 307 NONAME ABSENT ; void QDeclarativePropertyPrivate::initDefault(class QObject *)
	?count@QDeclarativeListModel@@UBEHXZ @ 308 NONAME ABSENT ; int QDeclarativeListModel::count(void) const
	?setSmooth@QDeclarativeItem@@QAEX_N@Z @ 309 NONAME ; void QDeclarativeItem::setSmooth(bool)
	?value@QDeclarativeDebugPropertyReference@@QBE?AVQVariant@@XZ @ 310 NONAME ABSENT ; class QVariant QDeclarativeDebugPropertyReference::value(void) const
	?resources@QDeclarativeItemPrivate@@QAE?AV?$QDeclarativeListProperty@VQObject@@@@XZ @ 311 NONAME ; class QDeclarativeListProperty<class QObject> QDeclarativeItemPrivate::resources(void)
	?clear@QPacketProtocol@@QAEXXZ @ 312 NONAME ; void QPacketProtocol::clear(void)
	?setState@QDeclarativeItemPrivate@@QAEXABVQString@@@Z @ 313 NONAME ; void QDeclarativeItemPrivate::setState(class QString const &)
	??4QDeclarativeDebugPropertyReference@@QAEAAV0@ABV0@@Z @ 314 NONAME ABSENT ; class QDeclarativeDebugPropertyReference & QDeclarativeDebugPropertyReference::operator=(class QDeclarativeDebugPropertyReference const &)
	?metaObject@QDeclarativeView@@UBEPBUQMetaObject@@XZ @ 315 NONAME ; struct QMetaObject const * QDeclarativeView::metaObject(void) const
	?listElementType@QDeclarativeListReference@@QBEPBUQMetaObject@@XZ @ 316 NONAME ; struct QMetaObject const * QDeclarativeListReference::listElementType(void) const
	??0QDeclarativeProperty@@QAE@PAVQObject@@PAVQDeclarativeContext@@@Z @ 317 NONAME ; QDeclarativeProperty::QDeclarativeProperty(class QObject *, class QDeclarativeContext *)
	?setTarget@QDeclarativeBehavior@@UAEXABVQDeclarativeProperty@@@Z @ 318 NONAME ABSENT ; void QDeclarativeBehavior::setTarget(class QDeclarativeProperty const &)
	?tr@QDeclarativeValueType@@SA?AVQString@@PBD0H@Z @ 319 NONAME ABSENT ; class QString QDeclarativeValueType::tr(char const *, char const *, int)
	?parent@QDeclarativeOpenMetaObject@@IBEPAUQAbstractDynamicMetaObject@@XZ @ 320 NONAME ABSENT ; struct QAbstractDynamicMetaObject * QDeclarativeOpenMetaObject::parent(void) const
	??0QDeclarativeDebugClient@@QAE@ABVQString@@PAVQDeclarativeDebugConnection@@@Z @ 321 NONAME ABSENT ; QDeclarativeDebugClient::QDeclarativeDebugClient(class QString const &, class QDeclarativeDebugConnection *)
	?qt_metacall@QDeclarativeStateOperation@@UAEHW4Call@QMetaObject@@HPAPAX@Z @ 322 NONAME ; int QDeclarativeStateOperation::qt_metacall(enum QMetaObject::Call, int, void * *)
	?type@Variant@QDeclarativeParser@@QBE?AW4Type@12@XZ @ 323 NONAME ; enum QDeclarativeParser::Variant::Type QDeclarativeParser::Variant::type(void) const
	??6QDeclarativeInfo@@QAEAAV0@_N@Z @ 324 NONAME ; class QDeclarativeInfo & QDeclarativeInfo::operator<<(bool)
	?value@QDeclarativeDomProperty@@QBE?AVQDeclarativeDomValue@@XZ @ 325 NONAME ABSENT ; class QDeclarativeDomValue QDeclarativeDomProperty::value(void) const
	?addWatch@QDeclarativeEngineDebug@@QAEPAVQDeclarativeDebugObjectExpressionWatch@@ABVQDeclarativeDebugObjectReference@@ABVQString@@PAVQObject@@@Z @ 326 NONAME ABSENT ; class QDeclarativeDebugObjectExpressionWatch * QDeclarativeEngineDebug::addWatch(class QDeclarativeDebugObjectReference const &, class QString const &, class QObject *)
	??_EQDeclarativeDebugConnection@@UAE@I@Z @ 327 NONAME ABSENT ; QDeclarativeDebugConnection::~QDeclarativeDebugConnection(unsigned int)
	?qt_metacall@QDeclarativeDebugConnection@@UAEHW4Call@QMetaObject@@HPAPAX@Z @ 328 NONAME ABSENT ; int QDeclarativeDebugConnection::qt_metacall(enum QMetaObject::Call, int, void * *)
	?tr@QDeclarativeDebugPropertyWatch@@SA?AVQString@@PBD0H@Z @ 329 NONAME ABSENT ; class QString QDeclarativeDebugPropertyWatch::tr(char const *, char const *, int)
	?errors@QDeclarativeComponent@@QBE?AV?$QList@VQDeclarativeError@@@@XZ @ 330 NONAME ; class QList<class QDeclarativeError> QDeclarativeComponent::errors(void) const
	??0QDeclarativeCustomParserNode@@QAE@ABV0@@Z @ 331 NONAME ; QDeclarativeCustomParserNode::QDeclarativeCustomParserNode(class QDeclarativeCustomParserNode const &)
	??1QDeclarativeImageProvider@@UAE@XZ @ 332 NONAME ; QDeclarativeImageProvider::~QDeclarativeImageProvider(void)
	?sync@QDeclarativeListModel@@QAEXXZ @ 333 NONAME ABSENT ; void QDeclarativeListModel::sync(void)
	?objectForId@QDeclarativeDebugService@@SAPAVQObject@@H@Z @ 334 NONAME ; class QObject * QDeclarativeDebugService::objectForId(int)
	?hasFocus@QDeclarativeItem@@QBE_NXZ @ 335 NONAME ; bool QDeclarativeItem::hasFocus(void) const
	??1QDeclarativeExtensionPlugin@@UAE@XZ @ 336 NONAME ; QDeclarativeExtensionPlugin::~QDeclarativeExtensionPlugin(void)
	?qt_metacall@QDeclarativeBehavior@@UAEHW4Call@QMetaObject@@HPAPAX@Z @ 337 NONAME ABSENT ; int QDeclarativeBehavior::qt_metacall(enum QMetaObject::Call, int, void * *)
	?d_func@QDeclarativeBehavior@@ABEPBVQDeclarativeBehaviorPrivate@@XZ @ 338 NONAME ABSENT ; class QDeclarativeBehaviorPrivate const * QDeclarativeBehavior::d_func(void) const
	?wrapModeChanged@QDeclarativeText@@IAEXXZ @ 339 NONAME ABSENT ; void QDeclarativeText::wrapModeChanged(void)
	?elideModeChanged@QDeclarativeText@@IAEXW4TextElideMode@1@@Z @ 340 NONAME ABSENT ; void QDeclarativeText::elideModeChanged(enum QDeclarativeText::TextElideMode)
	??1QDeclarativeExtensionInterface@@UAE@XZ @ 341 NONAME ; QDeclarativeExtensionInterface::~QDeclarativeExtensionInterface(void)
	?addEnumerator@QMetaObjectBuilder@@QAE?AVQMetaEnumBuilder@@ABVQMetaEnum@@@Z @ 342 NONAME ABSENT ; class QMetaEnumBuilder QMetaObjectBuilder::addEnumerator(class QMetaEnum const &)
	?interfaceIId@QDeclarativeType@@QBEPBDXZ @ 343 NONAME ABSENT ; char const * QDeclarativeType::interfaceIId(void) const
	?resetHorizontalCenter@QDeclarativeAnchors@@QAEXXZ @ 344 NONAME ABSENT ; void QDeclarativeAnchors::resetHorizontalCenter(void)
	?outputWarningsToStandardError@QDeclarativeEngine@@QBE_NXZ @ 345 NONAME ; bool QDeclarativeEngine::outputWarningsToStandardError(void) const
	?height@QDeclarativePixmap@@QBEHXZ @ 346 NONAME ; int QDeclarativePixmap::height(void) const
	?getStaticMetaObject@QDeclarativeBehavior@@SAABUQMetaObject@@XZ @ 347 NONAME ABSENT ; struct QMetaObject const & QDeclarativeBehavior::getStaticMetaObject(void)
	??0QMetaEnumBuilder@@QAE@XZ @ 348 NONAME ABSENT ; QMetaEnumBuilder::QMetaEnumBuilder(void)
	?isValueType@QDeclarativeValueTypeFactory@@SA_NH@Z @ 349 NONAME ABSENT ; bool QDeclarativeValueTypeFactory::isValueType(int)
	?setWidth@QDeclarativePen@@QAEXH@Z @ 350 NONAME ABSENT ; void QDeclarativePen::setWidth(int)
	?isReadable@QMetaPropertyBuilder@@QBE_NXZ @ 351 NONAME ABSENT ; bool QMetaPropertyBuilder::isReadable(void) const
	?metaObject@QDeclarativeExpression@@UBEPBUQMetaObject@@XZ @ 352 NONAME ; struct QMetaObject const * QDeclarativeExpression::metaObject(void) const
	??0QDeclarativeDomValueLiteral@@QAE@ABV0@@Z @ 353 NONAME ABSENT ; QDeclarativeDomValueLiteral::QDeclarativeDomValueLiteral(class QDeclarativeDomValueLiteral const &)
	?getStaticMetaObject@QDeclarativeDebugQuery@@SAABUQMetaObject@@XZ @ 354 NONAME ABSENT ; struct QMetaObject const & QDeclarativeDebugQuery::getStaticMetaObject(void)
	??0QDeclarativeDomComponent@@QAE@XZ @ 355 NONAME ABSENT ; QDeclarativeDomComponent::QDeclarativeDomComponent(void)
	??1QDeclarativePropertyPrivate@@QAE@XZ @ 356 NONAME ABSENT ; QDeclarativePropertyPrivate::~QDeclarativePropertyPrivate(void)
	?setBaselineOffset@QDeclarativeItem@@QAEXM@Z @ 357 NONAME ; void QDeclarativeItem::setBaselineOffset(float)
	??0QDeclarativeDebugPropertyReference@@QAE@XZ @ 358 NONAME ABSENT ; QDeclarativeDebugPropertyReference::QDeclarativeDebugPropertyReference(void)
	?tr@QDeclarativeStateOperation@@SA?AVQString@@PBD0H@Z @ 359 NONAME ; class QString QDeclarativeStateOperation::tr(char const *, char const *, int)
	?setState@QDeclarativeStateGroup@@QAEXABVQString@@@Z @ 360 NONAME ; void QDeclarativeStateGroup::setState(class QString const &)
	??_EQDeclarativeImageProvider@@UAE@I@Z @ 361 NONAME ; QDeclarativeImageProvider::~QDeclarativeImageProvider(unsigned int)
	?trUtf8@QDeclarativeComponent@@SA?AVQString@@PBD0@Z @ 362 NONAME ; class QString QDeclarativeComponent::trUtf8(char const *, char const *)
	?isLoading@QDeclarativeComponent@@QBE_NXZ @ 363 NONAME ; bool QDeclarativeComponent::isLoading(void) const
	?createFunction@QDeclarativeType@@QBEP6AXPAX@ZXZ @ 364 NONAME ABSENT ; void (*)(void *) QDeclarativeType::createFunction(void) const
	?childrenRect@QDeclarativeItem@@QAE?AVQRectF@@XZ @ 365 NONAME ; class QRectF QDeclarativeItem::childrenRect(void)
	?tr@QDeclarativeEngineDebug@@SA?AVQString@@PBD0@Z @ 366 NONAME ABSENT ; class QString QDeclarativeEngineDebug::tr(char const *, char const *)
	?objectTypeMajorVersion@QDeclarativeDomObject@@QBEHXZ @ 367 NONAME ABSENT ; int QDeclarativeDomObject::objectTypeMajorVersion(void) const
	??6QDeclarativeInfo@@QAEAAV0@D@Z @ 368 NONAME ; class QDeclarativeInfo & QDeclarativeInfo::operator<<(char)
	??1QDeclarativeDomValueLiteral@@QAE@XZ @ 369 NONAME ABSENT ; QDeclarativeDomValueLiteral::~QDeclarativeDomValueLiteral(void)
	?keepMouseGrab@QDeclarativeItem@@QBE_NXZ @ 370 NONAME ; bool QDeclarativeItem::keepMouseGrab(void) const
	?tr@QDeclarativeEngineDebug@@SA?AVQString@@PBD0H@Z @ 371 NONAME ABSENT ; class QString QDeclarativeEngineDebug::tr(char const *, char const *, int)
	?getStaticMetaObject@QDeclarativeDebugConnection@@SAABUQMetaObject@@XZ @ 372 NONAME ABSENT ; struct QMetaObject const & QDeclarativeDebugConnection::getStaticMetaObject(void)
	?trUtf8@QDeclarativeDebugRootContextQuery@@SA?AVQString@@PBD0@Z @ 373 NONAME ABSENT ; class QString QDeclarativeDebugRootContextQuery::trUtf8(char const *, char const *)
	??AQDeclarativeOpenMetaObject@@QAEAAVQVariant@@H@Z @ 374 NONAME ABSENT ; class QVariant & QDeclarativeOpenMetaObject::operator[](int)
	??0Variant@QDeclarativeParser@@QAE@XZ @ 375 NONAME ; QDeclarativeParser::Variant::Variant(void)
	?status@QDeclarativeView@@QBE?AW4Status@1@XZ @ 376 NONAME ; enum QDeclarativeView::Status QDeclarativeView::status(void) const
	??0QDeclarativeEngineDebug@@QAE@PAVQDeclarativeDebugConnection@@PAVQObject@@@Z @ 377 NONAME ABSENT ; QDeclarativeEngineDebug::QDeclarativeEngineDebug(class QDeclarativeDebugConnection *, class QObject *)
	?create@QDeclarativeComponent@@UAEPAVQObject@@PAVQDeclarativeContext@@@Z @ 378 NONAME ; class QObject * QDeclarativeComponent::create(class QDeclarativeContext *)
	??_EQPacket@@UAE@I@Z @ 379 NONAME ; QPacket::~QPacket(unsigned int)
	?trUtf8@QDeclarativeScaleGrid@@SA?AVQString@@PBD0H@Z @ 380 NONAME ABSENT ; class QString QDeclarativeScaleGrid::trUtf8(char const *, char const *, int)
	?isResettable@QDeclarativeProperty@@QBE_NXZ @ 381 NONAME ; bool QDeclarativeProperty::isResettable(void) const
	?isList@QDeclarativeCustomParserProperty@@QBE_NXZ @ 382 NONAME ; bool QDeclarativeCustomParserProperty::isList(void) const
	?resetVerticalCenter@QDeclarativeAnchors@@QAEXXZ @ 383 NONAME ABSENT ; void QDeclarativeAnchors::resetVerticalCenter(void)
	??0QDeclarativeValueType@@QAE@PAVQObject@@@Z @ 384 NONAME ABSENT ; QDeclarativeValueType::QDeclarativeValueType(class QObject *)
	?staticMetaObject@QDeclarativeDebugConnection@@2UQMetaObject@@B @ 385 NONAME ABSENT ; struct QMetaObject const QDeclarativeDebugConnection::staticMetaObject
	?isLiteral@QDeclarativeDomValue@@QBE_NXZ @ 386 NONAME ABSENT ; bool QDeclarativeDomValue::isLiteral(void) const
	?qt_metacall@QDeclarativeItem@@UAEHW4Call@QMetaObject@@HPAPAX@Z @ 387 NONAME ; int QDeclarativeItem::qt_metacall(enum QMetaObject::Call, int, void * *)
	?qt_metacall@QListModelInterface@@UAEHW4Call@QMetaObject@@HPAPAX@Z @ 388 NONAME ABSENT ; int QListModelInterface::qt_metacall(enum QMetaObject::Call, int, void * *)
	?move@QDeclarativeListModel@@QAEXHHH@Z @ 389 NONAME ABSENT ; void QDeclarativeListModel::move(int, int, int)
	?metaObject@QDeclarativeBehavior@@UBEPBUQMetaObject@@XZ @ 390 NONAME ABSENT ; struct QMetaObject const * QDeclarativeBehavior::metaObject(void) const
	?inputMethodPreHandler@QDeclarativeItem@@IAEXPAVQInputMethodEvent@@@Z @ 391 NONAME ; void QDeclarativeItem::inputMethodPreHandler(class QInputMethodEvent *)
	?d_func@QDeclarativeText@@AAEPAVQDeclarativeTextPrivate@@XZ @ 392 NONAME ABSENT ; class QDeclarativeTextPrivate * QDeclarativeText::d_func(void)
	?signature@QMetaMethodBuilder@@QBE?AVQByteArray@@XZ @ 393 NONAME ABSENT ; class QByteArray QMetaMethodBuilder::signature(void) const
	??_EQDeclarativeParserStatus@@UAE@I@Z @ 394 NONAME ; QDeclarativeParserStatus::~QDeclarativeParserStatus(unsigned int)
	?rightMargin@QDeclarativeAnchors@@QBEMXZ @ 395 NONAME ABSENT ; float QDeclarativeAnchors::rightMargin(void) const
	?itemsMoved@QListModelInterface@@IAEXHHH@Z @ 396 NONAME ABSENT ; void QListModelInterface::itemsMoved(int, int, int)
	?rectFFromString@QDeclarativeStringConverters@@YA?AVQRectF@@ABVQString@@PA_N@Z @ 397 NONAME ABSENT ; class QRectF QDeclarativeStringConverters::rectFFromString(class QString const &, bool *)
	?canAt@QDeclarativeListReference@@QBE_NXZ @ 398 NONAME ; bool QDeclarativeListReference::canAt(void) const
	?children@QDeclarativeDebugObjectReference@@QBE?AV?$QList@VQDeclarativeDebugObjectReference@@@@XZ @ 399 NONAME ABSENT ; class QList<class QDeclarativeDebugObjectReference> QDeclarativeDebugObjectReference::children(void) const
	?tr@QDeclarativeDebugEnginesQuery@@SA?AVQString@@PBD0@Z @ 400 NONAME ABSENT ; class QString QDeclarativeDebugEnginesQuery::tr(char const *, char const *)
	?qt_metacall@QDeclarativeDebugExpressionQuery@@UAEHW4Call@QMetaObject@@HPAPAX@Z @ 401 NONAME ABSENT ; int QDeclarativeDebugExpressionQuery::qt_metacall(enum QMetaObject::Call, int, void * *)
	?getStaticMetaObject@QDeclarativeEngine@@SAABUQMetaObject@@XZ @ 402 NONAME ; struct QMetaObject const & QDeclarativeEngine::getStaticMetaObject(void)
	?paintEvent@QDeclarativeView@@MAEXPAVQPaintEvent@@@Z @ 403 NONAME ; void QDeclarativeView::paintEvent(class QPaintEvent *)
	?name@QDeclarativeDebugPropertyWatch@@QBE?AVQString@@XZ @ 404 NONAME ABSENT ; class QString QDeclarativeDebugPropertyWatch::name(void) const
	?bindingType@QDeclarativeAbstractBinding@@UBE?AW4Type@1@XZ @ 405 NONAME ABSENT ; enum QDeclarativeAbstractBinding::Type QDeclarativeAbstractBinding::bindingType(void) const
	?margins@QDeclarativeAnchors@@QBEMXZ @ 406 NONAME ABSENT ; float QDeclarativeAnchors::margins(void) const
	?length@QDeclarativeDomProperty@@QBEHXZ @ 407 NONAME ABSENT ; int QDeclarativeDomProperty::length(void) const
	??1QDeclarativeDomImport@@QAE@XZ @ 408 NONAME ABSENT ; QDeclarativeDomImport::~QDeclarativeDomImport(void)
	?mouseReleaseEvent@QDeclarativeText@@MAEXPAVQGraphicsSceneMouseEvent@@@Z @ 409 NONAME ABSENT ; void QDeclarativeText::mouseReleaseEvent(class QGraphicsSceneMouseEvent *)
	?isCustomType@QDeclarativeDomObject@@QBE_NXZ @ 410 NONAME ABSENT ; bool QDeclarativeDomObject::isCustomType(void) const
	?radius@QDeclarativeRectangle@@QBEMXZ @ 411 NONAME ABSENT ; float QDeclarativeRectangle::radius(void) const
	??0QDeclarativeComponent@@AAE@PAVQDeclarativeEngine@@PAVQDeclarativeCompiledData@@HHPAVQObject@@@Z @ 412 NONAME ; QDeclarativeComponent::QDeclarativeComponent(class QDeclarativeEngine *, class QDeclarativeCompiledData *, int, int, class QObject *)
	?resources_count@QDeclarativeItemPrivate@@SAHPAV?$QDeclarativeListProperty@VQObject@@@@@Z @ 413 NONAME ; int QDeclarativeItemPrivate::resources_count(class QDeclarativeListProperty<class QObject> *)
	?timerEvent@QDeclarativeView@@MAEXPAVQTimerEvent@@@Z @ 414 NONAME ; void QDeclarativeView::timerEvent(class QTimerEvent *)
	?setToState@QDeclarativeTransition@@QAEXABVQString@@@Z @ 415 NONAME ; void QDeclarativeTransition::setToState(class QString const &)
	?requestPixmap@QDeclarativeImageProvider@@UAE?AVQPixmap@@ABVQString@@PAVQSize@@ABV4@@Z @ 416 NONAME ; class QPixmap QDeclarativeImageProvider::requestPixmap(class QString const &, class QSize *, class QSize const &)
	?methodType@QMetaMethodBuilder@@QBE?AW4MethodType@QMetaMethod@@XZ @ 417 NONAME ABSENT ; enum QMetaMethod::MethodType QMetaMethodBuilder::methodType(void) const
	?getStaticMetaObject@QDeclarativeView@@SAABUQMetaObject@@XZ @ 418 NONAME ; struct QMetaObject const & QDeclarativeView::getStaticMetaObject(void)
	?metaObject@QDeclarativeStateOperation@@UBEPBUQMetaObject@@XZ @ 419 NONAME ; struct QMetaObject const * QDeclarativeStateOperation::metaObject(void) const
	?keyReleasePreHandler@QDeclarativeItem@@IAEXPAVQKeyEvent@@@Z @ 420 NONAME ; void QDeclarativeItem::keyReleasePreHandler(class QKeyEvent *)
	?append@QDeclarativeListModel@@QAEXABVQScriptValue@@@Z @ 421 NONAME ABSENT ; void QDeclarativeListModel::append(class QScriptValue const &)
	??1QDeclarativeDebugObjectReference@@QAE@XZ @ 422 NONAME ABSENT ; QDeclarativeDebugObjectReference::~QDeclarativeDebugObjectReference(void)
	?tr@QDeclarativeDebugClient@@SA?AVQString@@PBD0@Z @ 423 NONAME ABSENT ; class QString QDeclarativeDebugClient::tr(char const *, char const *)
	?resolvedUrl@QDeclarativeContext@@QAE?AVQUrl@@ABV2@@Z @ 424 NONAME ; class QUrl QDeclarativeContext::resolvedUrl(class QUrl const &)
	?object@QDeclarativeListReference@@QBEPAVQObject@@XZ @ 425 NONAME ; class QObject * QDeclarativeListReference::object(void) const
	?setEnabled@QDeclarativeBehavior@@QAEX_N@Z @ 426 NONAME ABSENT ; void QDeclarativeBehavior::setEnabled(bool)
	?line@QDeclarativeError@@QBEHXZ @ 427 NONAME ; int QDeclarativeError::line(void) const
	?heightValid@QDeclarativeItem@@IBE_NXZ @ 428 NONAME ; bool QDeclarativeItem::heightValid(void) const
	??1QDeclarativeOpenMetaObject@@UAE@XZ @ 429 NONAME ABSENT ; QDeclarativeOpenMetaObject::~QDeclarativeOpenMetaObject(void)
	??0QPacket@@QAE@XZ @ 430 NONAME ; QPacket::QPacket(void)
	?trUtf8@QDeclarativePropertyMap@@SA?AVQString@@PBD0H@Z @ 431 NONAME ; class QString QDeclarativePropertyMap::trUtf8(char const *, char const *, int)
	?trUtf8@QDeclarativeEngine@@SA?AVQString@@PBD0H@Z @ 432 NONAME ; class QString QDeclarativeEngine::trUtf8(char const *, char const *, int)
	??0QDeclarativeDebugEngineReference@@QAE@XZ @ 433 NONAME ABSENT ; QDeclarativeDebugEngineReference::QDeclarativeDebugEngineReference(void)
	?qmlEngine@@YAPAVQDeclarativeEngine@@PBVQObject@@@Z @ 434 NONAME ; class QDeclarativeEngine * qmlEngine(class QObject const *)
	?error@QDeclarativeExpression@@QBE?AVQDeclarativeError@@XZ @ 435 NONAME ; class QDeclarativeError QDeclarativeExpression::error(void) const
	?tr@QDeclarativeDebugExpressionQuery@@SA?AVQString@@PBD0@Z @ 436 NONAME ABSENT ; class QString QDeclarativeDebugExpressionQuery::tr(char const *, char const *)
	?styleColorChanged@QDeclarativeText@@IAEXABVQColor@@@Z @ 437 NONAME ABSENT ; void QDeclarativeText::styleColorChanged(class QColor const &)
	?getStaticMetaObject@QDeclarativeDebugExpressionQuery@@SAABUQMetaObject@@XZ @ 438 NONAME ABSENT ; struct QMetaObject const & QDeclarativeDebugExpressionQuery::getStaticMetaObject(void)
	?trUtf8@QDeclarativeTransition@@SA?AVQString@@PBD0H@Z @ 439 NONAME ; class QString QDeclarativeTransition::trUtf8(char const *, char const *, int)
	?writeValueProperty@QDeclarativePropertyPrivate@@QAE_NABVQVariant@@V?$QFlags@W4WriteFlag@QDeclarativePropertyPrivate@@@@@Z @ 440 NONAME ABSENT ; bool QDeclarativePropertyPrivate::writeValueProperty(class QVariant const &, class QFlags<enum QDeclarativePropertyPrivate::WriteFlag>)
	?errors@QDeclarativeCustomParser@@QBE?AV?$QList@VQDeclarativeError@@@@XZ @ 441 NONAME ; class QList<class QDeclarativeError> QDeclarativeCustomParser::errors(void) const
	?statesProperty@QDeclarativeStateGroup@@QAE?AV?$QDeclarativeListProperty@VQDeclarativeState@@@@XZ @ 442 NONAME ; class QDeclarativeListProperty<class QDeclarativeState> QDeclarativeStateGroup::statesProperty(void)
	?roles@QDeclarativeListModel@@UBE?AV?$QList@H@@XZ @ 443 NONAME ABSENT ; class QList<int> QDeclarativeListModel::roles(void) const
	?name@QMetaEnumBuilder@@QBE?AVQByteArray@@XZ @ 444 NONAME ABSENT ; class QByteArray QMetaEnumBuilder::name(void) const
	??_EQDeclarativeDebugRootContextQuery@@UAE@I@Z @ 445 NONAME ABSENT ; QDeclarativeDebugRootContextQuery::~QDeclarativeDebugRootContextQuery(unsigned int)
	?setColor@QDeclarativeRectangle@@QAEXABVQColor@@@Z @ 446 NONAME ABSENT ; void QDeclarativeRectangle::setColor(class QColor const &)
	?clipChanged@QDeclarativeItem@@IAEX_N@Z @ 447 NONAME ; void QDeclarativeItem::clipChanged(bool)
	??0QDeclarativeCustomParser@@QAE@V?$QFlags@W4Flag@QDeclarativeCustomParser@@@@@Z @ 448 NONAME ; QDeclarativeCustomParser::QDeclarativeCustomParser(class QFlags<enum QDeclarativeCustomParser::Flag>)
	?valueChanged@QDeclarativeDebugWatch@@IAEXABVQByteArray@@ABVQVariant@@@Z @ 449 NONAME ABSENT ; void QDeclarativeDebugWatch::valueChanged(class QByteArray const &, class QVariant const &)
	?activeFocusChanged@QDeclarativeItem@@IAEX_N@Z @ 450 NONAME ; void QDeclarativeItem::activeFocusChanged(bool)
	?smoothChanged@QDeclarativeItem@@IAEX_N@Z @ 451 NONAME ; void QDeclarativeItem::smoothChanged(bool)
	?colorChanged@QDeclarativeText@@IAEXABVQColor@@@Z @ 452 NONAME ABSENT ; void QDeclarativeText::colorChanged(class QColor const &)
	?continueExecute@QDeclarativeView@@AAEXXZ @ 453 NONAME ; void QDeclarativeView::continueExecute(void)
	?initialSize@QDeclarativeView@@QBE?AVQSize@@XZ @ 454 NONAME ; class QSize QDeclarativeView::initialSize(void) const
	?interfaceIId@QDeclarativeMetaType@@SAPBDH@Z @ 455 NONAME ABSENT ; char const * QDeclarativeMetaType::interfaceIId(int)
	?isValid@QDeclarativeDomDynamicProperty@@QBE_NXZ @ 456 NONAME ABSENT ; bool QDeclarativeDomDynamicProperty::isValid(void) const
	?baselineChanged@QDeclarativeAnchors@@IAEXXZ @ 457 NONAME ABSENT ; void QDeclarativeAnchors::baselineChanged(void)
	?name@QDeclarativeState@@QBE?AVQString@@XZ @ 458 NONAME ; class QString QDeclarativeState::name(void) const
	??4QDeclarativeDomObject@@QAEAAV0@ABV0@@Z @ 459 NONAME ABSENT ; class QDeclarativeDomObject & QDeclarativeDomObject::operator=(class QDeclarativeDomObject const &)
	?qt_metacall@QDeclarativeContext@@UAEHW4Call@QMetaObject@@HPAPAX@Z @ 460 NONAME ; int QDeclarativeContext::qt_metacall(enum QMetaObject::Call, int, void * *)
	??_EQDeclarativeValueType@@UAE@I@Z @ 461 NONAME ABSENT ; QDeclarativeValueType::~QDeclarativeValueType(unsigned int)
	?qt_metacall@QDeclarativeState@@UAEHW4Call@QMetaObject@@HPAPAX@Z @ 462 NONAME ; int QDeclarativeState::qt_metacall(enum QMetaObject::Call, int, void * *)
	?isEnabled@QDeclarativeDebugService@@QBE_NXZ @ 463 NONAME ABSENT ; bool QDeclarativeDebugService::isEnabled(void) const
	?stateChanged@QDeclarativeDebugWatch@@IAEXW4State@1@@Z @ 464 NONAME ABSENT ; void QDeclarativeDebugWatch::stateChanged(enum QDeclarativeDebugWatch::State)
	??0QMetaMethodBuilder@@AAE@PBVQMetaObjectBuilder@@H@Z @ 465 NONAME ABSENT ; QMetaMethodBuilder::QMetaMethodBuilder(class QMetaObjectBuilder const *, int)
	??4QDeclarativeListReference@@QAEAAV0@ABV0@@Z @ 466 NONAME ; class QDeclarativeListReference & QDeclarativeListReference::operator=(class QDeclarativeListReference const &)
	?componentFinalized@QDeclarativeBehavior@@AAEXXZ @ 467 NONAME ABSENT ; void QDeclarativeBehavior::componentFinalized(void)
	?stateChanged@QDeclarativeDebugQuery@@IAEXW4State@1@@Z @ 468 NONAME ABSENT ; void QDeclarativeDebugQuery::stateChanged(enum QDeclarativeDebugQuery::State)
	?setVerticalCenter@QDeclarativeAnchors@@QAEXABVQDeclarativeAnchorLine@@@Z @ 469 NONAME ABSENT ; void QDeclarativeAnchors::setVerticalCenter(class QDeclarativeAnchorLine const &)
	?keyPressEvent@QDeclarativeItem@@MAEXPAVQKeyEvent@@@Z @ 470 NONAME ; void QDeclarativeItem::keyPressEvent(class QKeyEvent *)
	?trUtf8@QDeclarativeValueType@@SA?AVQString@@PBD0@Z @ 471 NONAME ABSENT ; class QString QDeclarativeValueType::trUtf8(char const *, char const *)
	?metaObject@QDeclarativeExtensionPlugin@@UBEPBUQMetaObject@@XZ @ 472 NONAME ; struct QMetaObject const * QDeclarativeExtensionPlugin::metaObject(void) const
	?tr@QDeclarativeDebugObjectQuery@@SA?AVQString@@PBD0H@Z @ 473 NONAME ABSENT ; class QString QDeclarativeDebugObjectQuery::tr(char const *, char const *, int)
	?setCenterIn@QDeclarativeAnchors@@QAEXPAVQGraphicsObject@@@Z @ 474 NONAME ABSENT ; void QDeclarativeAnchors::setCenterIn(class QGraphicsObject *)
	?qmlType@QDeclarativeMetaType@@SAPAVQDeclarativeType@@ABVQByteArray@@HH@Z @ 475 NONAME ABSENT ; class QDeclarativeType * QDeclarativeMetaType::qmlType(class QByteArray const &, int, int)
	??0QDeclarativeDebugObjectQuery@@AAE@PAVQObject@@@Z @ 476 NONAME ABSENT ; QDeclarativeDebugObjectQuery::QDeclarativeDebugObjectQuery(class QObject *)
	?isComponent@QDeclarativeDomObject@@QBE_NXZ @ 477 NONAME ABSENT ; bool QDeclarativeDomObject::isComponent(void) const
	?inputMethodEvent@QDeclarativeItem@@MAEXPAVQInputMethodEvent@@@Z @ 478 NONAME ; void QDeclarativeItem::inputMethodEvent(class QInputMethodEvent *)
	?styleChanged@QDeclarativeText@@IAEXW4TextStyle@1@@Z @ 479 NONAME ABSENT ; void QDeclarativeText::styleChanged(enum QDeclarativeText::TextStyle)
	?write@QDeclarativeProperty@@SA_NPAVQObject@@ABVQString@@ABVQVariant@@PAVQDeclarativeEngine@@@Z @ 480 NONAME ; bool QDeclarativeProperty::write(class QObject *, class QString const &, class QVariant const &, class QDeclarativeEngine *)
	?pluginPathList@QDeclarativeEngine@@QBE?AVQStringList@@XZ @ 481 NONAME ; class QStringList QDeclarativeEngine::pluginPathList(void) const
	?parentContext@QDeclarativeContext@@QBEPAV1@XZ @ 482 NONAME ; class QDeclarativeContext * QDeclarativeContext::parentContext(void) const
	?leftMarginChanged@QDeclarativeAnchors@@IAEXXZ @ 483 NONAME ABSENT ; void QDeclarativeAnchors::leftMarginChanged(void)
	?staticMetaObject@QDeclarativeDebugService@@2UQMetaObject@@B @ 484 NONAME ; struct QMetaObject const QDeclarativeDebugService::staticMetaObject
	?topMargin@QDeclarativeAnchors@@QBEMXZ @ 485 NONAME ABSENT ; float QDeclarativeAnchors::topMargin(void) const
	??0QDeclarativeDebugExpressionQuery@@AAE@PAVQObject@@@Z @ 486 NONAME ABSENT ; QDeclarativeDebugExpressionQuery::QDeclarativeDebugExpressionQuery(class QObject *)
	??0QPacket@@IAE@ABVQByteArray@@@Z @ 487 NONAME ; QPacket::QPacket(class QByteArray const &)
	?implicitSize@QDeclarativePixmap@@QBEABVQSize@@XZ @ 488 NONAME ; class QSize const & QDeclarativePixmap::implicitSize(void) const
	?setFlags@QMetaObjectBuilder@@QAEXV?$QFlags@W4MetaObjectFlag@QMetaObjectBuilder@@@@@Z @ 489 NONAME ABSENT ; void QMetaObjectBuilder::setFlags(class QFlags<enum QMetaObjectBuilder::MetaObjectFlag>)
	?horizontalCenterChanged@QDeclarativeAnchors@@IAEXXZ @ 490 NONAME ABSENT ; void QDeclarativeAnchors::horizontalCenterChanged(void)
	?right@QDeclarativeItemPrivate@@QBE?AVQDeclarativeAnchorLine@@XZ @ 491 NONAME ; class QDeclarativeAnchorLine QDeclarativeItemPrivate::right(void) const
	?staticMetaObject@QDeclarativeDebugObjectQuery@@2UQMetaObject@@B @ 492 NONAME ABSENT ; struct QMetaObject const QDeclarativeDebugObjectQuery::staticMetaObject
	?propertyRead@QDeclarativeOpenMetaObject@@MAEXH@Z @ 493 NONAME ABSENT ; void QDeclarativeOpenMetaObject::propertyRead(int)
	?importPathList@QDeclarativeEngine@@QBE?AVQStringList@@XZ @ 494 NONAME ; class QStringList QDeclarativeEngine::importPathList(void) const
	?border@QDeclarativeRectangle@@QAEPAVQDeclarativePen@@XZ @ 495 NONAME ABSENT ; class QDeclarativePen * QDeclarativeRectangle::border(void)
	?baselineOffset@QDeclarativeItem@@QBEMXZ @ 496 NONAME ; float QDeclarativeItem::baselineOffset(void) const
	?dateFromString@QDeclarativeStringConverters@@YA?AVQDate@@ABVQString@@PA_N@Z @ 497 NONAME ABSENT ; class QDate QDeclarativeStringConverters::dateFromString(class QString const &, bool *)
	?qt_metacast@QDeclarativeDebugObjectExpressionWatch@@UAEPAXPBD@Z @ 498 NONAME ABSENT ; void * QDeclarativeDebugObjectExpressionWatch::qt_metacast(char const *)
	??0QDeclarativeDomValue@@QAE@ABV0@@Z @ 499 NONAME ABSENT ; QDeclarativeDomValue::QDeclarativeDomValue(class QDeclarativeDomValue const &)
	??1QDeclarativeListModel@@UAE@XZ @ 500 NONAME ABSENT ; QDeclarativeListModel::~QDeclarativeListModel(void)
	?qmlAttachedPropertiesObject@@YAPAVQObject@@PAHPBV1@PBUQMetaObject@@_N@Z @ 501 NONAME ; class QObject * qmlAttachedPropertiesObject(int *, class QObject const *, struct QMetaObject const *, bool)
	??_EQDeclarativeDebugClient@@UAE@I@Z @ 502 NONAME ABSENT ; QDeclarativeDebugClient::~QDeclarativeDebugClient(unsigned int)
	??4QDeclarativeDomComponent@@QAEAAV0@ABV0@@Z @ 503 NONAME ABSENT ; class QDeclarativeDomComponent & QDeclarativeDomComponent::operator=(class QDeclarativeDomComponent const &)
	?tr@QPacketProtocol@@SA?AVQString@@PBD0@Z @ 504 NONAME ; class QString QPacketProtocol::tr(char const *, char const *)
	?setFont@QDeclarativeText@@QAEXABVQFont@@@Z @ 505 NONAME ABSENT ; void QDeclarativeText::setFont(class QFont const &)
	?fromChanged@QDeclarativeTransition@@IAEXXZ @ 506 NONAME ; void QDeclarativeTransition::fromChanged(void)
	?addMethod@QMetaObjectBuilder@@QAE?AVQMetaMethodBuilder@@ABVQMetaMethod@@@Z @ 507 NONAME ABSENT ; class QMetaMethodBuilder QMetaObjectBuilder::addMethod(class QMetaMethod const &)
	?setHeight@QDeclarativeItemPrivate@@UAEXM@Z @ 508 NONAME ; void QDeclarativeItemPrivate::setHeight(float)
	??0Variant@QDeclarativeParser@@QAE@ABV01@@Z @ 509 NONAME ; QDeclarativeParser::Variant::Variant(class QDeclarativeParser::Variant const &)
	?getStaticMetaObject@QDeclarativeExtensionPlugin@@SAABUQMetaObject@@XZ @ 510 NONAME ; struct QMetaObject const & QDeclarativeExtensionPlugin::getStaticMetaObject(void)
	??0QDeclarativeBinding@@QAE@PAXPAVQDeclarativeRefCount@@PAVQObject@@PAVQDeclarativeContextData@@ABVQString@@H2@Z @ 511 NONAME ABSENT ; QDeclarativeBinding::QDeclarativeBinding(void *, class QDeclarativeRefCount *, class QObject *, class QDeclarativeContextData *, class QString const &, int, class QObject *)
	?qt_metacast@QDeclarativeDebugClient@@UAEPAXPBD@Z @ 512 NONAME ABSENT ; void * QDeclarativeDebugClient::qt_metacast(char const *)
	?classInfoValue@QMetaObjectBuilder@@QBE?AVQByteArray@@H@Z @ 513 NONAME ABSENT ; class QByteArray QMetaObjectBuilder::classInfoValue(int) const
	?right@QDeclarativeScaleGrid@@QBEHXZ @ 514 NONAME ABSENT ; int QDeclarativeScaleGrid::right(void) const
	?setClassName@QMetaObjectBuilder@@QAEXABVQByteArray@@@Z @ 515 NONAME ABSENT ; void QMetaObjectBuilder::setClassName(class QByteArray const &)
	??1QDeclarativeAnchors@@UAE@XZ @ 516 NONAME ABSENT ; QDeclarativeAnchors::~QDeclarativeAnchors(void)
	?removeConstructor@QMetaObjectBuilder@@QAEXH@Z @ 517 NONAME ABSENT ; void QMetaObjectBuilder::removeConstructor(int)
	??4QDeclarativeDomValueValueInterceptor@@QAEAAV0@ABV0@@Z @ 518 NONAME ABSENT ; class QDeclarativeDomValueValueInterceptor & QDeclarativeDomValueValueInterceptor::operator=(class QDeclarativeDomValueValueInterceptor const &)
	?resolveType@QDeclarativeCustomParser@@IBEPBUQMetaObject@@ABVQByteArray@@@Z @ 519 NONAME ; struct QMetaObject const * QDeclarativeCustomParser::resolveType(class QByteArray const &) const
	??_EQDeclarativePropertyValueSource@@UAE@I@Z @ 520 NONAME ; QDeclarativePropertyValueSource::~QDeclarativePropertyValueSource(unsigned int)
	?connectFinished@QDeclarativePixmap@@QAE_NPAVQObject@@PBD@Z @ 521 NONAME ; bool QDeclarativePixmap::connectFinished(class QObject *, char const *)
	?staticMetaObject@QDeclarativeItem@@2UQMetaObject@@B @ 522 NONAME ; struct QMetaObject const QDeclarativeItem::staticMetaObject
	?qt_metacast@QDeclarativeDebugRootContextQuery@@UAEPAXPBD@Z @ 523 NONAME ABSENT ; void * QDeclarativeDebugRootContextQuery::qt_metacast(char const *)
	?itemsRemoved@QListModelInterface@@IAEXHH@Z @ 524 NONAME ABSENT ; void QListModelInterface::itemsRemoved(int, int)
	?networkAccessManager@QDeclarativeEngine@@QBEPAVQNetworkAccessManager@@XZ @ 525 NONAME ; class QNetworkAccessManager * QDeclarativeEngine::networkAccessManager(void) const
	??0QDeclarativeDomValue@@QAE@XZ @ 526 NONAME ABSENT ; QDeclarativeDomValue::QDeclarativeDomValue(void)
	?init@QDeclarativeItemPrivate@@QAEXPAVQDeclarativeItem@@@Z @ 527 NONAME ; void QDeclarativeItemPrivate::init(class QDeclarativeItem *)
	?addProperty@QMetaObjectBuilder@@QAE?AVQMetaPropertyBuilder@@ABVQByteArray@@0H@Z @ 528 NONAME ABSENT ; class QMetaPropertyBuilder QMetaObjectBuilder::addProperty(class QByteArray const &, class QByteArray const &, int)
	?getStaticMetaObject@QDeclarativeState@@SAABUQMetaObject@@XZ @ 529 NONAME ; struct QMetaObject const & QDeclarativeState::getStaticMetaObject(void)
	?isResettable@QMetaPropertyBuilder@@QBE_NXZ @ 530 NONAME ABSENT ; bool QMetaPropertyBuilder::isResettable(void) const
	?focusScopeItemChange@QDeclarativeItemPrivate@@UAEX_N@Z @ 531 NONAME ; void QDeclarativeItemPrivate::focusScopeItemChange(bool)
	?bottomMarginChanged@QDeclarativeAnchors@@IAEXXZ @ 532 NONAME ABSENT ; void QDeclarativeAnchors::bottomMarginChanged(void)
	?offlineStoragePath@QDeclarativeEngine@@QBE?AVQString@@XZ @ 533 NONAME ; class QString QDeclarativeEngine::offlineStoragePath(void) const
	?keys@QDeclarativePropertyMap@@QBE?AVQStringList@@XZ @ 534 NONAME ; class QStringList QDeclarativePropertyMap::keys(void) const
	?addItemChangeListener@QDeclarativeItemPrivate@@QAEXPAVQDeclarativeItemChangeListener@@V?$QFlags@W4ChangeType@QDeclarativeItemPrivate@@@@@Z @ 535 NONAME ; void QDeclarativeItemPrivate::addItemChangeListener(class QDeclarativeItemChangeListener *, class QFlags<enum QDeclarativeItemPrivate::ChangeType>)
	?clear@QDeclarativePixmap@@QAEXPAVQObject@@@Z @ 536 NONAME ; void QDeclarativePixmap::clear(class QObject *)
	?addConstructor@QMetaObjectBuilder@@QAE?AVQMetaMethodBuilder@@ABVQMetaMethod@@@Z @ 537 NONAME ABSENT ; class QMetaMethodBuilder QMetaObjectBuilder::addConstructor(class QMetaMethod const &)
	??6QDeclarativeInfo@@QAEAAV0@F@Z @ 538 NONAME ; class QDeclarativeInfo & QDeclarativeInfo::operator<<(short)
	?serialize@QMetaObjectBuilder@@QBEXAAVQDataStream@@@Z @ 539 NONAME ABSENT ; void QMetaObjectBuilder::serialize(class QDataStream &) const
	??0QDeclarativeDebugContextReference@@QAE@ABV0@@Z @ 540 NONAME ABSENT ; QDeclarativeDebugContextReference::QDeclarativeDebugContextReference(class QDeclarativeDebugContextReference const &)
	?saveProperty@QDeclarativePropertyPrivate@@SA?AVQByteArray@@PBUQMetaObject@@H@Z @ 541 NONAME ABSENT ; class QByteArray QDeclarativePropertyPrivate::saveProperty(struct QMetaObject const *, int)
	?propertyType@QDeclarativeProperty@@QBEHXZ @ 542 NONAME ; int QDeclarativeProperty::propertyType(void) const
	?isDefaultProperty@QDeclarativeDomDynamicProperty@@QBE_NXZ @ 543 NONAME ABSENT ; bool QDeclarativeDomDynamicProperty::isDefaultProperty(void) const
	??_EQDeclarativeBehavior@@UAE@I@Z @ 544 NONAME ABSENT ; QDeclarativeBehavior::~QDeclarativeBehavior(unsigned int)
	??_EQDeclarativeListModel@@UAE@I@Z @ 545 NONAME ABSENT ; QDeclarativeListModel::~QDeclarativeListModel(unsigned int)
	?isCreatable@QDeclarativeType@@QBE_NXZ @ 546 NONAME ABSENT ; bool QDeclarativeType::isCreatable(void) const
	??6QDeclarativeInfo@@QAEAAV0@ABVQString@@@Z @ 547 NONAME ; class QDeclarativeInfo & QDeclarativeInfo::operator<<(class QString const &)
	?tr@QDeclarativePen@@SA?AVQString@@PBD0@Z @ 548 NONAME ABSENT ; class QString QDeclarativePen::tr(char const *, char const *)
	?trUtf8@QDeclarativeContext@@SA?AVQString@@PBD0H@Z @ 549 NONAME ; class QString QDeclarativeContext::trUtf8(char const *, char const *, int)
	??0QDeclarativeListModel@@QAE@PAVQObject@@@Z @ 550 NONAME ABSENT ; QDeclarativeListModel::QDeclarativeListModel(class QObject *)
	?addWatch@QDeclarativeEngineDebug@@QAEPAVQDeclarativeDebugWatch@@ABVQDeclarativeDebugContextReference@@ABVQString@@PAVQObject@@@Z @ 551 NONAME ABSENT ; class QDeclarativeDebugWatch * QDeclarativeEngineDebug::addWatch(class QDeclarativeDebugContextReference const &, class QString const &, class QObject *)
	?setColumn@QDeclarativeError@@QAEXH@Z @ 552 NONAME ; void QDeclarativeError::setColumn(int)
	??1QDeclarativeTransition@@UAE@XZ @ 553 NONAME ; QDeclarativeTransition::~QDeclarativeTransition(void)
	??AQDeclarativePropertyMap@@QBE?AVQVariant@@ABVQString@@@Z @ 554 NONAME ; class QVariant QDeclarativePropertyMap::operator[](class QString const &) const
	?qt_metacall@QDeclarativeListModel@@UAEHW4Call@QMetaObject@@HPAPAX@Z @ 555 NONAME ABSENT ; int QDeclarativeListModel::qt_metacall(enum QMetaObject::Call, int, void * *)
	?qdeclarativeelement_destructor@QDeclarativePrivate@@YAXPAVQObject@@@Z @ 556 NONAME ; void QDeclarativePrivate::qdeclarativeelement_destructor(class QObject *)
	?registerCustomStringConverter@QDeclarativeMetaType@@SAXHP6A?AVQVariant@@ABVQString@@@Z@Z @ 557 NONAME ABSENT ; void QDeclarativeMetaType::registerCustomStringConverter(int, class QVariant (*)(class QString const &))
	?metaObject@QDeclarativeEngine@@UBEPBUQMetaObject@@XZ @ 558 NONAME ; struct QMetaObject const * QDeclarativeEngine::metaObject(void) const
	??_EQDeclarativeDebugContextReference@@QAE@I@Z @ 559 NONAME ABSENT ; QDeclarativeDebugContextReference::~QDeclarativeDebugContextReference(unsigned int)
	?propertyWrite@QDeclarativeOpenMetaObject@@MAEXH@Z @ 560 NONAME ABSENT ; void QDeclarativeOpenMetaObject::propertyWrite(int)
	?qt_metacall@QDeclarativeDebugService@@UAEHW4Call@QMetaObject@@HPAPAX@Z @ 561 NONAME ; int QDeclarativeDebugService::qt_metacall(enum QMetaObject::Call, int, void * *)
	?setVerticalCenterOffset@QDeclarativeAnchors@@QAEXM@Z @ 562 NONAME ABSENT ; void QDeclarativeAnchors::setVerticalCenterOffset(float)
	??1QDeclarativeDebugWatch@@UAE@XZ @ 563 NONAME ABSENT ; QDeclarativeDebugWatch::~QDeclarativeDebugWatch(void)
	??1QPacketAutoSend@@UAE@XZ @ 564 NONAME ABSENT ; QPacketAutoSend::~QPacketAutoSend(void)
	?geometryChanged@QDeclarativeText@@MAEXABVQRectF@@0@Z @ 565 NONAME ABSENT ; void QDeclarativeText::geometryChanged(class QRectF const &, class QRectF const &)
	?d_func@QDeclarativeRectangle@@AAEPAVQDeclarativeRectanglePrivate@@XZ @ 566 NONAME ABSENT ; class QDeclarativeRectanglePrivate * QDeclarativeRectangle::d_func(void)
	?qt_metacast@QDeclarativeListModel@@UAEPAXPBD@Z @ 567 NONAME ABSENT ; void * QDeclarativeListModel::qt_metacast(char const *)
	?name@QDeclarativeCustomParserProperty@@QBE?AVQByteArray@@XZ @ 568 NONAME ; class QByteArray QDeclarativeCustomParserProperty::name(void) const
	?update@QDeclarativeBinding@@QAEXXZ @ 569 NONAME ABSENT ; void QDeclarativeBinding::update(void)
	?trUtf8@QDeclarativeEngine@@SA?AVQString@@PBD0@Z @ 570 NONAME ; class QString QDeclarativeEngine::trUtf8(char const *, char const *)
	?qt_metacast@QDeclarativeDebugConnection@@UAEPAXPBD@Z @ 571 NONAME ABSENT ; void * QDeclarativeDebugConnection::qt_metacast(char const *)
	?removeWatch@QDeclarativeEngineDebug@@QAEXPAVQDeclarativeDebugWatch@@@Z @ 572 NONAME ABSENT ; void QDeclarativeEngineDebug::removeWatch(class QDeclarativeDebugWatch *)
	?qt_metacast@QDeclarativeBinding@@UAEPAXPBD@Z @ 573 NONAME ABSENT ; void * QDeclarativeBinding::qt_metacast(char const *)
	?baseline@QDeclarativeAnchors@@QBE?AVQDeclarativeAnchorLine@@XZ @ 574 NONAME ABSENT ; class QDeclarativeAnchorLine QDeclarativeAnchors::baseline(void) const
	?connectDownloadProgress@QDeclarativePixmap@@QAE_NPAVQObject@@PBD@Z @ 575 NONAME ; bool QDeclarativePixmap::connectDownloadProgress(class QObject *, char const *)
	?restore@QDeclarativePropertyPrivate@@SA?AVQDeclarativeProperty@@ABVQByteArray@@PAVQObject@@PAVQDeclarativeContextData@@@Z @ 576 NONAME ABSENT ; class QDeclarativeProperty QDeclarativePropertyPrivate::restore(class QByteArray const &, class QObject *, class QDeclarativeContextData *)
	??0QDeclarativeProperty@@QAE@PAVQObject@@@Z @ 577 NONAME ; QDeclarativeProperty::QDeclarativeProperty(class QObject *)
	?source@QDeclarativeDebugObjectReference@@QBE?AVQDeclarativeDebugFileReference@@XZ @ 578 NONAME ABSENT ; class QDeclarativeDebugFileReference QDeclarativeDebugObjectReference::source(void) const
	?tr@QDeclarativeDebugExpressionQuery@@SA?AVQString@@PBD0H@Z @ 579 NONAME ABSENT ; class QString QDeclarativeDebugExpressionQuery::tr(char const *, char const *, int)
	?qmlType@QDeclarativeMetaType@@SAPAVQDeclarativeType@@H@Z @ 580 NONAME ABSENT ; class QDeclarativeType * QDeclarativeMetaType::qmlType(int)
	??1QDeclarativeCustomParser@@UAE@XZ @ 581 NONAME ; QDeclarativeCustomParser::~QDeclarativeCustomParser(void)
	?toList@QDeclarativeDomValue@@QBE?AVQDeclarativeDomList@@XZ @ 582 NONAME ABSENT ; class QDeclarativeDomList QDeclarativeDomValue::toList(void) const
	?metaObject@QDeclarativeType@@QBEPBUQMetaObject@@XZ @ 583 NONAME ABSENT ; struct QMetaObject const * QDeclarativeType::metaObject(void) const
	?animation@QDeclarativeBehavior@@QAEPAVQDeclarativeAbstractAnimation@@XZ @ 584 NONAME ABSENT ; class QDeclarativeAbstractAnimation * QDeclarativeBehavior::animation(void)
	?listType@QDeclarativeMetaType@@SAHH@Z @ 585 NONAME ABSENT ; int QDeclarativeMetaType::listType(int)
	?transform_append@QDeclarativeItemPrivate@@SAXPAV?$QDeclarativeListProperty@VQGraphicsTransform@@@@PAVQGraphicsTransform@@@Z @ 586 NONAME ; void QDeclarativeItemPrivate::transform_append(class QDeclarativeListProperty<class QGraphicsTransform> *, class QGraphicsTransform *)
	?d_func@QDeclarativeComponent@@AAEPAVQDeclarativeComponentPrivate@@XZ @ 587 NONAME ; class QDeclarativeComponentPrivate * QDeclarativeComponent::d_func(void)
	?variantFromString@QDeclarativeStringConverters@@YA?AVQVariant@@ABVQString@@@Z @ 588 NONAME ABSENT ; class QVariant QDeclarativeStringConverters::variantFromString(class QString const &)
	?qt_metacall@QDeclarativeScaleGrid@@UAEHW4Call@QMetaObject@@HPAPAX@Z @ 589 NONAME ABSENT ; int QDeclarativeScaleGrid::qt_metacall(enum QMetaObject::Call, int, void * *)
	?size@QDeclarativePropertyMap@@QBEHXZ @ 590 NONAME ; int QDeclarativePropertyMap::size(void) const
	?cancel@QDeclarativeState@@QAEXXZ @ 591 NONAME ; void QDeclarativeState::cancel(void)
	?qt_metacall@QDeclarativeStateGroup@@UAEHW4Call@QMetaObject@@HPAPAX@Z @ 592 NONAME ; int QDeclarativeStateGroup::qt_metacall(enum QMetaObject::Call, int, void * *)
	??0QDeclarativePropertyPrivate@@QAE@XZ @ 593 NONAME ABSENT ; QDeclarativePropertyPrivate::QDeclarativePropertyPrivate(void)
	?getStaticMetaObject@QDeclarativeDebugPropertyWatch@@SAABUQMetaObject@@XZ @ 594 NONAME ABSENT ; struct QMetaObject const & QDeclarativeDebugPropertyWatch::getStaticMetaObject(void)
	?trUtf8@QDeclarativeDebugWatch@@SA?AVQString@@PBD0H@Z @ 595 NONAME ABSENT ; class QString QDeclarativeDebugWatch::trUtf8(char const *, char const *, int)
	?transformOrigin@QDeclarativeItem@@QBE?AW4TransformOrigin@1@XZ @ 596 NONAME ; enum QDeclarativeItem::TransformOrigin QDeclarativeItem::transformOrigin(void) const
	?setState@QDeclarativeDebugWatch@@AAEXW4State@1@@Z @ 597 NONAME ABSENT ; void QDeclarativeDebugWatch::setState(enum QDeclarativeDebugWatch::State)
	?evaluateEnum@QDeclarativeCustomParser@@IBEHABVQByteArray@@@Z @ 598 NONAME ; int QDeclarativeCustomParser::evaluateEnum(class QByteArray const &) const
	?setState@QDeclarativeDebugQuery@@AAEXW4State@1@@Z @ 599 NONAME ABSENT ; void QDeclarativeDebugQuery::setState(enum QDeclarativeDebugQuery::State)
	?d_func@QDeclarativeText@@ABEPBVQDeclarativeTextPrivate@@XZ @ 600 NONAME ABSENT ; class QDeclarativeTextPrivate const * QDeclarativeText::d_func(void) const
	?transitionsProperty@QDeclarativeStateGroup@@QAE?AV?$QDeclarativeListProperty@VQDeclarativeTransition@@@@XZ @ 601 NONAME ; class QDeclarativeListProperty<class QDeclarativeTransition> QDeclarativeStateGroup::transitionsProperty(void)
	?typeName@QDeclarativeType@@QBE?AVQByteArray@@XZ @ 602 NONAME ABSENT ; class QByteArray QDeclarativeType::typeName(void) const
	?asStringList@Variant@QDeclarativeParser@@QBE?AVQStringList@@XZ @ 603 NONAME ; class QStringList QDeclarativeParser::Variant::asStringList(void) const
	?removeKey@QMetaEnumBuilder@@QAEXH@Z @ 604 NONAME ABSENT ; void QMetaEnumBuilder::removeKey(int)
	?addRelatedMetaObject@QMetaObjectBuilder@@QAEHABQ6AABUQMetaObject@@XZ@Z @ 605 NONAME ABSENT ; int QMetaObjectBuilder::addRelatedMetaObject(struct QMetaObject const & (* const)(void) const &)
	??0QDeclarativeDomValueLiteral@@QAE@XZ @ 606 NONAME ABSENT ; QDeclarativeDomValueLiteral::QDeclarativeDomValueLiteral(void)
	??_EQDeclarativeDebugObjectExpressionWatch@@UAE@I@Z @ 607 NONAME ABSENT ; QDeclarativeDebugObjectExpressionWatch::~QDeclarativeDebugObjectExpressionWatch(unsigned int)
	?computeTransformOrigin@QDeclarativeItemPrivate@@QBE?AVQPointF@@XZ @ 608 NONAME ; class QPointF QDeclarativeItemPrivate::computeTransformOrigin(void) const
	??0QDeclarativeListReference@@QAE@PAVQObject@@PBDPAVQDeclarativeEngine@@@Z @ 609 NONAME ; QDeclarativeListReference::QDeclarativeListReference(class QObject *, char const *, class QDeclarativeEngine *)
	?setData@QListModelInterface@@UAE_NHABV?$QHash@HVQVariant@@@@@Z @ 610 NONAME ABSENT ; bool QListModelInterface::setData(int, class QHash<int, class QVariant> const &)
	??0QDeclarativePen@@QAE@PAVQObject@@@Z @ 611 NONAME ABSENT ; QDeclarativePen::QDeclarativePen(class QObject *)
	?trUtf8@QPacketProtocol@@SA?AVQString@@PBD0H@Z @ 612 NONAME ; class QString QPacketProtocol::trUtf8(char const *, char const *, int)
	?setContextObject@QDeclarativeContext@@QAEXPAVQObject@@@Z @ 613 NONAME ; void QDeclarativeContext::setContextObject(class QObject *)
	??_EQDeclarativeState@@UAE@I@Z @ 614 NONAME ; QDeclarativeState::~QDeclarativeState(unsigned int)
	?expression@QDeclarativeExpression@@QBE?AVQString@@XZ @ 615 NONAME ; class QString QDeclarativeExpression::expression(void) const
	??1QDeclarativeDomDocument@@QAE@XZ @ 616 NONAME ABSENT ; QDeclarativeDomDocument::~QDeclarativeDomDocument(void)
	?trUtf8@QDeclarativeListModel@@SA?AVQString@@PBD0H@Z @ 617 NONAME ABSENT ; class QString QDeclarativeListModel::trUtf8(char const *, char const *, int)
	?asNumber@Variant@QDeclarativeParser@@QBENXZ @ 618 NONAME ; double QDeclarativeParser::Variant::asNumber(void) const
	?d_func@QDeclarativeDebugClient@@ABEPBVQDeclarativeDebugClientPrivate@@XZ @ 619 NONAME ABSENT ; class QDeclarativeDebugClientPrivate const * QDeclarativeDebugClient::d_func(void) const
	?sceneEvent@QDeclarativeItem@@MAE_NPAVQEvent@@@Z @ 620 NONAME ; bool QDeclarativeItem::sceneEvent(class QEvent *)
	??0QDeclarativeDebugRootContextQuery@@AAE@PAVQObject@@@Z @ 621 NONAME ABSENT ; QDeclarativeDebugRootContextQuery::QDeclarativeDebugRootContextQuery(class QObject *)
	?name@QDeclarativeDebugEngineReference@@QBE?AVQString@@XZ @ 622 NONAME ABSENT ; class QString QDeclarativeDebugEngineReference::name(void) const
	??_EQDeclarativeTransition@@UAE@I@Z @ 623 NONAME ; QDeclarativeTransition::~QDeclarativeTransition(unsigned int)
	??0QDeclarativeAction@@QAE@ABV0@@Z @ 624 NONAME ABSENT ; QDeclarativeAction::QDeclarativeAction(class QDeclarativeAction const &)
	?extends@QDeclarativeState@@QBE?AVQString@@XZ @ 625 NONAME ; class QString QDeclarativeState::extends(void) const
	?error@QDeclarativeCustomParser@@IAEXABVQDeclarativeCustomParserProperty@@ABVQString@@@Z @ 626 NONAME ; void QDeclarativeCustomParser::error(class QDeclarativeCustomParserProperty const &, class QString const &)
	??0QDeclarativeCustomParserNode@@QAE@XZ @ 627 NONAME ; QDeclarativeCustomParserNode::QDeclarativeCustomParserNode(void)
	?version@QDeclarativeDomImport@@QBE?AVQString@@XZ @ 628 NONAME ABSENT ; class QString QDeclarativeDomImport::version(void) const
	?smooth@QDeclarativeItem@@QBE_NXZ @ 629 NONAME ; bool QDeclarativeItem::smooth(void) const
	??1QDeclarativeInfo@@QAE@XZ @ 630 NONAME ; QDeclarativeInfo::~QDeclarativeInfo(void)
	?qt_metacast@QDeclarativeStateOperation@@UAEPAXPBD@Z @ 631 NONAME ; void * QDeclarativeStateOperation::qt_metacast(char const *)
	??4QDeclarativeDebugEngineReference@@QAEAAV0@ABV0@@Z @ 632 NONAME ABSENT ; class QDeclarativeDebugEngineReference & QDeclarativeDebugEngineReference::operator=(class QDeclarativeDebugEngineReference const &)
	?isValueType@QDeclarativePropertyPrivate@@QBE_NXZ @ 633 NONAME ABSENT ; bool QDeclarativePropertyPrivate::isValueType(void) const
	??0QDeclarativeDomValueValueSource@@QAE@ABV0@@Z @ 634 NONAME ABSENT ; QDeclarativeDomValueValueSource::QDeclarativeDomValueValueSource(class QDeclarativeDomValueValueSource const &)
	?trUtf8@QDeclarativeDebugPropertyWatch@@SA?AVQString@@PBD0H@Z @ 635 NONAME ABSENT ; class QString QDeclarativeDebugPropertyWatch::trUtf8(char const *, char const *, int)
	?trUtf8@QDeclarativePixmap@@SA?AVQString@@PBD0H@Z @ 636 NONAME ; class QString QDeclarativePixmap::trUtf8(char const *, char const *, int)
	??_EQDeclarativeDebugExpressionQuery@@UAE@I@Z @ 637 NONAME ABSENT ; QDeclarativeDebugExpressionQuery::~QDeclarativeDebugExpressionQuery(unsigned int)
	?trUtf8@QListModelInterface@@SA?AVQString@@PBD0H@Z @ 638 NONAME ABSENT ; class QString QListModelInterface::trUtf8(char const *, char const *, int)
	?qt_metacall@QDeclarativeDebugObjectExpressionWatch@@UAEHW4Call@QMetaObject@@HPAPAX@Z @ 639 NONAME ABSENT ; int QDeclarativeDebugObjectExpressionWatch::qt_metacall(enum QMetaObject::Call, int, void * *)
	?d_func@QDeclarativeItem@@AAEPAVQDeclarativeItemPrivate@@XZ @ 640 NONAME ; class QDeclarativeItemPrivate * QDeclarativeItem::d_func(void)
	?binding@QDeclarativeDomValueBinding@@QBE?AVQString@@XZ @ 641 NONAME ABSENT ; class QString QDeclarativeDomValueBinding::binding(void) const
	?updateAutoState@QDeclarativeStateGroup@@AAE_NXZ @ 642 NONAME ; bool QDeclarativeStateGroup::updateAutoState(void)
	?tr@QDeclarativeDebugService@@SA?AVQString@@PBD0@Z @ 643 NONAME ; class QString QDeclarativeDebugService::tr(char const *, char const *)
	?tr@QDeclarativeComponent@@SA?AVQString@@PBD0H@Z @ 644 NONAME ; class QString QDeclarativeComponent::tr(char const *, char const *, int)
	??1QDeclarativeProperty@@QAE@XZ @ 645 NONAME ; QDeclarativeProperty::~QDeclarativeProperty(void)
	?fontChanged@QDeclarativeText@@IAEXABVQFont@@@Z @ 646 NONAME ABSENT ; void QDeclarativeText::fontChanged(class QFont const &)
	?isLoading@QDeclarativePixmap@@QBE_NXZ @ 647 NONAME ; bool QDeclarativePixmap::isLoading(void) const
	?removeItemChangeListener@QDeclarativeItemPrivate@@QAEXPAVQDeclarativeItemChangeListener@@V?$QFlags@W4ChangeType@QDeclarativeItemPrivate@@@@@Z @ 648 NONAME ; void QDeclarativeItemPrivate::removeItemChangeListener(class QDeclarativeItemChangeListener *, class QFlags<enum QDeclarativeItemPrivate::ChangeType>)
	?isList@QDeclarativeDomValue@@QBE_NXZ @ 649 NONAME ABSENT ; bool QDeclarativeDomValue::isList(void) const
	?insert@QDeclarativeListModel@@QAEXHABVQScriptValue@@@Z @ 650 NONAME ABSENT ; void QDeclarativeListModel::insert(int, class QScriptValue const &)
	?staticMetaObject@QDeclarativeListModel@@2UQMetaObject@@B @ 651 NONAME ABSENT ; struct QMetaObject const QDeclarativeListModel::staticMetaObject
	?load@QDeclarativePixmap@@QAEXPAVQDeclarativeEngine@@ABVQUrl@@@Z @ 652 NONAME ; void QDeclarativePixmap::load(class QDeclarativeEngine *, class QUrl const &)
	?indexOfConstructor@QMetaObjectBuilder@@QAEHABVQByteArray@@@Z @ 653 NONAME ABSENT ; int QMetaObjectBuilder::indexOfConstructor(class QByteArray const &)
	?lineNumber@QDeclarativeExpression@@QBEHXZ @ 654 NONAME ; int QDeclarativeExpression::lineNumber(void) const
	?trUtf8@QDeclarativeDebugRootContextQuery@@SA?AVQString@@PBD0H@Z @ 655 NONAME ABSENT ; class QString QDeclarativeDebugRootContextQuery::trUtf8(char const *, char const *, int)
	?toString@QDeclarativeError@@QBE?AVQString@@XZ @ 656 NONAME ; class QString QDeclarativeError::toString(void) const
	?index@QMetaPropertyBuilder@@QBEHXZ @ 657 NONAME ABSENT ; int QMetaPropertyBuilder::index(void) const
	?commaPositions@QDeclarativeDomList@@QBE?AV?$QList@H@@XZ @ 658 NONAME ABSENT ; class QList<int> QDeclarativeDomList::commaPositions(void) const
	?tr@QDeclarativeDebugObjectExpressionWatch@@SA?AVQString@@PBD0@Z @ 659 NONAME ABSENT ; class QString QDeclarativeDebugObjectExpressionWatch::tr(char const *, char const *)
	?tr@QDeclarativeAnchors@@SA?AVQString@@PBD0@Z @ 660 NONAME ABSENT ; class QString QDeclarativeAnchors::tr(char const *, char const *)
	?tr@QDeclarativeEngine@@SA?AVQString@@PBD0@Z @ 661 NONAME ; class QString QDeclarativeEngine::tr(char const *, char const *)
	?setTextFormat@QDeclarativeText@@QAEXW4TextFormat@1@@Z @ 662 NONAME ABSENT ; void QDeclarativeText::setTextFormat(enum QDeclarativeText::TextFormat)
	?parserStatusCast@QDeclarativeType@@QBEHXZ @ 663 NONAME ABSENT ; int QDeclarativeType::parserStatusCast(void) const
	??_EQListModelInterface@@UAE@I@Z @ 664 NONAME ABSENT ; QListModelInterface::~QListModelInterface(unsigned int)
	?trUtf8@QDeclarativeBehavior@@SA?AVQString@@PBD0@Z @ 665 NONAME ABSENT ; class QString QDeclarativeBehavior::trUtf8(char const *, char const *)
	?getStaticMetaObject@QDeclarativeListModel@@SAABUQMetaObject@@XZ @ 666 NONAME ABSENT ; struct QMetaObject const & QDeclarativeListModel::getStaticMetaObject(void)
	?setStdCppSet@QMetaPropertyBuilder@@QAEX_N@Z @ 667 NONAME ABSENT ; void QMetaPropertyBuilder::setStdCppSet(bool)
	??0QDeclarativeItemPrivate@@QAE@XZ @ 668 NONAME ; QDeclarativeItemPrivate::QDeclarativeItemPrivate(void)
	??0QDeclarativeDebugService@@QAE@ABVQString@@PAVQObject@@@Z @ 669 NONAME ; QDeclarativeDebugService::QDeclarativeDebugService(class QString const &, class QObject *)
	?load@QDeclarativePixmap@@QAEXPAVQDeclarativeEngine@@ABVQUrl@@_N@Z @ 670 NONAME ABSENT ; void QDeclarativePixmap::load(class QDeclarativeEngine *, class QUrl const &, bool)
	??_EQPacketAutoSend@@UAE@I@Z @ 671 NONAME ABSENT ; QPacketAutoSend::~QPacketAutoSend(unsigned int)
	?saveValueType@QDeclarativePropertyPrivate@@SA?AVQByteArray@@PBUQMetaObject@@H0H@Z @ 672 NONAME ABSENT ; class QByteArray QDeclarativePropertyPrivate::saveValueType(struct QMetaObject const *, int, struct QMetaObject const *, int)
	?resetHeight@QDeclarativeItem@@QAEXXZ @ 673 NONAME ; void QDeclarativeItem::resetHeight(void)
	?setVAlign@QDeclarativeText@@QAEXW4VAlignment@1@@Z @ 674 NONAME ABSENT ; void QDeclarativeText::setVAlign(enum QDeclarativeText::VAlignment)
	??1QDeclarativeDebugService@@UAE@XZ @ 675 NONAME ; QDeclarativeDebugService::~QDeclarativeDebugService(void)
	?trUtf8@QDeclarativeDebugService@@SA?AVQString@@PBD0H@Z @ 676 NONAME ; class QString QDeclarativeDebugService::trUtf8(char const *, char const *, int)
	?elideMode@QDeclarativeText@@QBE?AW4TextElideMode@1@XZ @ 677 NONAME ABSENT ; enum QDeclarativeText::TextElideMode QDeclarativeText::elideMode(void) const
	?baseUrl@QDeclarativeContext@@QBE?AVQUrl@@XZ @ 678 NONAME ; class QUrl QDeclarativeContext::baseUrl(void) const
	?qt_metacall@QDeclarativeDebugRootContextQuery@@UAEHW4Call@QMetaObject@@HPAPAX@Z @ 679 NONAME ABSENT ; int QDeclarativeDebugRootContextQuery::qt_metacall(enum QMetaObject::Call, int, void * *)
	?isNamed@QDeclarativeState@@QBE_NXZ @ 680 NONAME ; bool QDeclarativeState::isNamed(void) const
	?isString@Variant@QDeclarativeParser@@QBE_NXZ @ 681 NONAME ; bool QDeclarativeParser::Variant::isString(void) const
	?restart@QDeclarativeItemPrivate@@SA_JAAVQElapsedTimer@@@Z @ 682 NONAME ; long long QDeclarativeItemPrivate::restart(class QElapsedTimer &)
	?trUtf8@QDeclarativeDebugClient@@SA?AVQString@@PBD0H@Z @ 683 NONAME ABSENT ; class QString QDeclarativeDebugClient::trUtf8(char const *, char const *, int)
	?qt_metacast@QDeclarativeTransition@@UAEPAXPBD@Z @ 684 NONAME ; void * QDeclarativeTransition::qt_metacast(char const *)
	??1QDeclarativePixmap@@QAE@XZ @ 685 NONAME ; QDeclarativePixmap::~QDeclarativePixmap(void)
	?timeFromString@QDeclarativeStringConverters@@YA?AVQTime@@ABVQString@@PA_N@Z @ 686 NONAME ABSENT ; class QTime QDeclarativeStringConverters::timeFromString(class QString const &, bool *)
	?d_func@QDeclarativeDebugClient@@AAEPAVQDeclarativeDebugClientPrivate@@XZ @ 687 NONAME ABSENT ; class QDeclarativeDebugClientPrivate * QDeclarativeDebugClient::d_func(void)
	??1QDeclarativeType@@AAE@XZ @ 688 NONAME ABSENT ; QDeclarativeType::~QDeclarativeType(void)
	?colorFromString@QDeclarativeStringConverters@@YA?AVQColor@@ABVQString@@PA_N@Z @ 689 NONAME ABSENT ; class QColor QDeclarativeStringConverters::colorFromString(class QString const &, bool *)
	??_EQPacketProtocol@@UAE@I@Z @ 690 NONAME ; QPacketProtocol::~QPacketProtocol(unsigned int)
	?tr@QDeclarativeListModel@@SA?AVQString@@PBD0@Z @ 691 NONAME ABSENT ; class QString QDeclarativeListModel::tr(char const *, char const *)
	??0QDeclarativePixmap@@QAE@XZ @ 692 NONAME ; QDeclarativePixmap::QDeclarativePixmap(void)
	??0QDeclarativeDebugObjectReference@@QAE@XZ @ 693 NONAME ABSENT ; QDeclarativeDebugObjectReference::QDeclarativeDebugObjectReference(void)
	?staticMetaObject@QDeclarativeExtensionPlugin@@2UQMetaObject@@B @ 694 NONAME ; struct QMetaObject const QDeclarativeExtensionPlugin::staticMetaObject
	?isNull@QDeclarativeScaleGrid@@QBE_NXZ @ 695 NONAME ABSENT ; bool QDeclarativeScaleGrid::isNull(void) const
	??_EQDeclarativeStateOperation@@UAE@I@Z @ 696 NONAME ; QDeclarativeStateOperation::~QDeclarativeStateOperation(unsigned int)
	??6QDeclarativeInfo@@QAEAAV0@H@Z @ 697 NONAME ; class QDeclarativeInfo & QDeclarativeInfo::operator<<(int)
	??0QDeclarativeDomDynamicProperty@@QAE@XZ @ 698 NONAME ABSENT ; QDeclarativeDomDynamicProperty::QDeclarativeDomDynamicProperty(void)
	?tr@QDeclarativeRectangle@@SA?AVQString@@PBD0H@Z @ 699 NONAME ABSENT ; class QString QDeclarativeRectangle::tr(char const *, char const *, int)
	?type@QDeclarativeProperty@@QBE?AW4Type@1@XZ @ 700 NONAME ; enum QDeclarativeProperty::Type QDeclarativeProperty::type(void) const
	??0QDeclarativeDebugQuery@@IAE@PAVQObject@@@Z @ 701 NONAME ABSENT ; QDeclarativeDebugQuery::QDeclarativeDebugQuery(class QObject *)
	?baselineOffset@QDeclarativeAnchors@@QBEMXZ @ 702 NONAME ABSENT ; float QDeclarativeAnchors::baselineOffset(void) const
	??4QDeclarativeDomDocument@@QAEAAV0@ABV0@@Z @ 703 NONAME ABSENT ; class QDeclarativeDomDocument & QDeclarativeDomDocument::operator=(class QDeclarativeDomDocument const &)
	??0QDeclarativeOpenMetaObject@@QAE@PAVQObject@@PAVQDeclarativeOpenMetaObjectType@@_N@Z @ 704 NONAME ABSENT ; QDeclarativeOpenMetaObject::QDeclarativeOpenMetaObject(class QObject *, class QDeclarativeOpenMetaObjectType *, bool)
	?trUtf8@QDeclarativeExpression@@SA?AVQString@@PBD0@Z @ 705 NONAME ; class QString QDeclarativeExpression::trUtf8(char const *, char const *)
	??0QPacketProtocol@@QAE@PAVQIODevice@@PAVQObject@@@Z @ 706 NONAME ; QPacketProtocol::QPacketProtocol(class QIODevice *, class QObject *)
	??1QDeclarativeListReference@@QAE@XZ @ 707 NONAME ; QDeclarativeListReference::~QDeclarativeListReference(void)
	?clearError@QDeclarativeExpression@@QAEXXZ @ 708 NONAME ; void QDeclarativeExpression::clearError(void)
	?setLineNumber@QDeclarativeDebugFileReference@@QAEXH@Z @ 709 NONAME ABSENT ; void QDeclarativeDebugFileReference::setLineNumber(int)
	?qt_metacall@QDeclarativeExtensionPlugin@@UAEHW4Call@QMetaObject@@HPAPAX@Z @ 710 NONAME ; int QDeclarativeExtensionPlugin::qt_metacall(enum QMetaObject::Call, int, void * *)
	?boundingRect@QDeclarativeText@@UBE?AVQRectF@@XZ @ 711 NONAME ABSENT ; class QRectF QDeclarativeText::boundingRect(void) const
	?setColor@QDeclarativePen@@QAEXABVQColor@@@Z @ 712 NONAME ABSENT ; void QDeclarativePen::setColor(class QColor const &)
	??0QDeclarativeDomImport@@QAE@XZ @ 713 NONAME ABSENT ; QDeclarativeDomImport::QDeclarativeDomImport(void)
	?clearErrors@QDeclarativeCustomParser@@QAEXXZ @ 714 NONAME ; void QDeclarativeCustomParser::clearErrors(void)
	?trUtf8@QDeclarativeDebugQuery@@SA?AVQString@@PBD0H@Z @ 715 NONAME ABSENT ; class QString QDeclarativeDebugQuery::trUtf8(char const *, char const *, int)
	?toRelocatableData@QMetaObjectBuilder@@QBE?AVQByteArray@@PA_N@Z @ 716 NONAME ABSENT ; class QByteArray QMetaObjectBuilder::toRelocatableData(bool *) const
	?qt_metacast@QDeclarativeView@@UAEPAXPBD@Z @ 717 NONAME ; void * QDeclarativeView::qt_metacast(char const *)
	?mapToItem@QDeclarativeItem@@QBE?AVQScriptValue@@ABV2@MM@Z @ 718 NONAME ; class QScriptValue QDeclarativeItem::mapToItem(class QScriptValue const &, float, float) const
	?setPluginPathList@QDeclarativeEngine@@QAEXABVQStringList@@@Z @ 719 NONAME ; void QDeclarativeEngine::setPluginPathList(class QStringList const &)
	?metaObject@QDeclarativeState@@UBEPBUQMetaObject@@XZ @ 720 NONAME ; struct QMetaObject const * QDeclarativeState::metaObject(void) const
	?boundingRect@QDeclarativeRectangle@@UBE?AVQRectF@@XZ @ 721 NONAME ABSENT ; class QRectF QDeclarativeRectangle::boundingRect(void) const
	?uri@QDeclarativeDomImport@@QBE?AVQString@@XZ @ 722 NONAME ABSENT ; class QString QDeclarativeDomImport::uri(void) const
	?setContextProperty@QDeclarativeContext@@QAEXABVQString@@PAVQObject@@@Z @ 723 NONAME ; void QDeclarativeContext::setContextProperty(class QString const &, class QObject *)
	?setBaseUrl@QDeclarativeEngine@@QAEXABVQUrl@@@Z @ 724 NONAME ; void QDeclarativeEngine::setBaseUrl(class QUrl const &)
	?trUtf8@QDeclarativeDebugEnginesQuery@@SA?AVQString@@PBD0H@Z @ 725 NONAME ABSENT ; class QString QDeclarativeDebugEnginesQuery::trUtf8(char const *, char const *, int)
	?setScriptable@QMetaPropertyBuilder@@QAEX_N@Z @ 726 NONAME ABSENT ; void QMetaPropertyBuilder::setScriptable(bool)
	??0QDeclarativeProperty@@QAE@PAVQObject@@PAVQDeclarativeEngine@@@Z @ 727 NONAME ; QDeclarativeProperty::QDeclarativeProperty(class QObject *, class QDeclarativeEngine *)
	?itemsInserted@QListModelInterface@@IAEXHH@Z @ 728 NONAME ABSENT ; void QListModelInterface::itemsInserted(int, int)
	?generateBorderedRect@QDeclarativeRectangle@@AAEXXZ @ 729 NONAME ABSENT ; void QDeclarativeRectangle::generateBorderedRect(void)
	?verticalCenterOffsetChanged@QDeclarativeAnchors@@IAEXXZ @ 730 NONAME ABSENT ; void QDeclarativeAnchors::verticalCenterOffsetChanged(void)
	?width@QDeclarativeItem@@QBEMXZ @ 731 NONAME ; float QDeclarativeItem::width(void) const
	?isValueInterceptor@QDeclarativeDomValue@@QBE_NXZ @ 732 NONAME ABSENT ; bool QDeclarativeDomValue::isValueInterceptor(void) const
	?transform_at@QDeclarativeItemPrivate@@SAPAVQGraphicsTransform@@PAV?$QDeclarativeListProperty@VQGraphicsTransform@@@@H@Z @ 733 NONAME ; class QGraphicsTransform * QDeclarativeItemPrivate::transform_at(class QDeclarativeListProperty<class QGraphicsTransform> *, int)
	??1QDeclarativeDomValueBinding@@QAE@XZ @ 734 NONAME ABSENT ; QDeclarativeDomValueBinding::~QDeclarativeDomValueBinding(void)
	?qt_metacast@QDeclarativeAnchors@@UAEPAXPBD@Z @ 735 NONAME ABSENT ; void * QDeclarativeAnchors::qt_metacast(char const *)
	?isInterface@QDeclarativeMetaType@@SA_NH@Z @ 736 NONAME ABSENT ; bool QDeclarativeMetaType::isInterface(int)
	?qt_metacall@QDeclarativeRectangle@@UAEHW4Call@QMetaObject@@HPAPAX@Z @ 737 NONAME ABSENT ; int QDeclarativeRectangle::qt_metacall(enum QMetaObject::Call, int, void * *)
	?trUtf8@QDeclarativePen@@SA?AVQString@@PBD0H@Z @ 738 NONAME ABSENT ; class QString QDeclarativePen::trUtf8(char const *, char const *, int)
	??0Variant@QDeclarativeParser@@QAE@ABVQString@@PAVNode@AST@QDeclarativeJS@@@Z @ 739 NONAME ; QDeclarativeParser::Variant::Variant(class QString const &, class QDeclarativeJS::AST::Node *)
	?rootObject@QDeclarativeDomDocument@@QBE?AVQDeclarativeDomObject@@XZ @ 740 NONAME ABSENT ; class QDeclarativeDomObject QDeclarativeDomDocument::rootObject(void) const
	?rightChanged@QDeclarativeAnchors@@IAEXXZ @ 741 NONAME ABSENT ; void QDeclarativeAnchors::rightChanged(void)
	?isReady@QDeclarativePixmap@@QBE_NXZ @ 742 NONAME ; bool QDeclarativePixmap::isReady(void) const
	??6QDeclarativeInfo@@QAEAAV0@ABVQByteArray@@@Z @ 743 NONAME ; class QDeclarativeInfo & QDeclarativeInfo::operator<<(class QByteArray const &)
	?qt_metacast@QDeclarativeEngine@@UAEPAXPBD@Z @ 744 NONAME ; void * QDeclarativeEngine::qt_metacast(char const *)
	?objectType@QDeclarativeDomObject@@QBE?AVQByteArray@@XZ @ 745 NONAME ABSENT ; class QByteArray QDeclarativeDomObject::objectType(void) const
	?addConstructor@QMetaObjectBuilder@@QAE?AVQMetaMethodBuilder@@ABVQByteArray@@@Z @ 746 NONAME ABSENT ; class QMetaMethodBuilder QMetaObjectBuilder::addConstructor(class QByteArray const &)
	?read@QDeclarativeProperty@@SA?AVQVariant@@PAVQObject@@ABVQString@@PAVQDeclarativeContext@@@Z @ 747 NONAME ; class QVariant QDeclarativeProperty::read(class QObject *, class QString const &, class QDeclarativeContext *)
	?staticMetaObject@QDeclarativeDebugExpressionQuery@@2UQMetaObject@@B @ 748 NONAME ABSENT ; struct QMetaObject const QDeclarativeDebugExpressionQuery::staticMetaObject
	?queryRootContexts@QDeclarativeEngineDebug@@QAEPAVQDeclarativeDebugRootContextQuery@@ABVQDeclarativeDebugEngineReference@@PAVQObject@@@Z @ 749 NONAME ABSENT ; class QDeclarativeDebugRootContextQuery * QDeclarativeEngineDebug::queryRootContexts(class QDeclarativeDebugEngineReference const &, class QObject *)
	?vector3DFromString@QDeclarativeStringConverters@@YA?AVQVector3D@@ABVQString@@PA_N@Z @ 750 NONAME ABSENT ; class QVector3D QDeclarativeStringConverters::vector3DFromString(class QString const &, bool *)
	?rootContext@QDeclarativeView@@QBEPAVQDeclarativeContext@@XZ @ 751 NONAME ; class QDeclarativeContext * QDeclarativeView::rootContext(void) const
	??_EQDeclarativeDebugPropertyWatch@@UAE@I@Z @ 752 NONAME ABSENT ; QDeclarativeDebugPropertyWatch::~QDeclarativeDebugPropertyWatch(unsigned int)
	?relatedMetaObjectCount@QMetaObjectBuilder@@QBEHXZ @ 753 NONAME ABSENT ; int QMetaObjectBuilder::relatedMetaObjectCount(void) const
	?script@QDeclarativeScriptString@@QBE?AVQString@@XZ @ 754 NONAME ; class QString QDeclarativeScriptString::script(void) const
	?index@QMetaMethodBuilder@@QBEHXZ @ 755 NONAME ABSENT ; int QMetaMethodBuilder::index(void) const
	??4QDeclarativeDomValueBinding@@QAEAAV0@ABV0@@Z @ 756 NONAME ABSENT ; class QDeclarativeDomValueBinding & QDeclarativeDomValueBinding::operator=(class QDeclarativeDomValueBinding const &)
	??0QDeclarativeExpression@@QAE@XZ @ 757 NONAME ; QDeclarativeExpression::QDeclarativeExpression(void)
	?paint@QDeclarativeItem@@UAEXPAVQPainter@@PBVQStyleOptionGraphicsItem@@PAVQWidget@@@Z @ 758 NONAME ; void QDeclarativeItem::paint(class QPainter *, class QStyleOptionGraphicsItem const *, class QWidget *)
	?send@QPacketProtocol@@QAE?AVQPacketAutoSend@@XZ @ 759 NONAME ; class QPacketAutoSend QPacketProtocol::send(void)
	?countChanged@QDeclarativeListModel@@IAEXXZ @ 760 NONAME ABSENT ; void QDeclarativeListModel::countChanged(void)
	??0QDeclarativeGridScaledImage@@QAE@PAVQIODevice@@@Z @ 761 NONAME ABSENT ; QDeclarativeGridScaledImage::QDeclarativeGridScaledImage(class QIODevice *)
	??_EQDeclarativeBinding@@UAE@I@Z @ 762 NONAME ABSENT ; QDeclarativeBinding::~QDeclarativeBinding(unsigned int)
	?baseMetaObject@QDeclarativeType@@QBEPBUQMetaObject@@XZ @ 763 NONAME ABSENT ; struct QMetaObject const * QDeclarativeType::baseMetaObject(void) const
	?tr@QDeclarativeDebugConnection@@SA?AVQString@@PBD0@Z @ 764 NONAME ABSENT ; class QString QDeclarativeDebugConnection::tr(char const *, char const *)
	?staticMetaObject@QDeclarativeBinding@@2UQMetaObject@@B @ 765 NONAME ABSENT ; struct QMetaObject const QDeclarativeBinding::staticMetaObject
	?qualifier@QDeclarativeDomImport@@QBE?AVQString@@XZ @ 766 NONAME ABSENT ; class QString QDeclarativeDomImport::qualifier(void) const
	??0QDeclarativeProperty@@QAE@PAVQObject@@ABVQString@@PAVQDeclarativeContext@@@Z @ 767 NONAME ; QDeclarativeProperty::QDeclarativeProperty(class QObject *, class QString const &, class QDeclarativeContext *)
	?setSuperClass@QMetaObjectBuilder@@QAEXPBUQMetaObject@@@Z @ 768 NONAME ABSENT ; void QMetaObjectBuilder::setSuperClass(struct QMetaObject const *)
	?contains@QDeclarativePropertyMap@@QBE_NABVQString@@@Z @ 769 NONAME ; bool QDeclarativePropertyMap::contains(class QString const &) const
	?setGradient@QDeclarativeRectangle@@QAEXPAVQDeclarativeGradient@@@Z @ 770 NONAME ABSENT ; void QDeclarativeRectangle::setGradient(class QDeclarativeGradient *)
	?metaObject@QDeclarativeTransition@@UBEPBUQMetaObject@@XZ @ 771 NONAME ; struct QMetaObject const * QDeclarativeTransition::metaObject(void) const
	?defaultMethod@QDeclarativeMetaType@@SA?AVQMetaMethod@@PBUQMetaObject@@@Z @ 772 NONAME ABSENT ; class QMetaMethod QDeclarativeMetaType::defaultMethod(struct QMetaObject const *)
	?tr@QDeclarativeExtensionPlugin@@SA?AVQString@@PBD0H@Z @ 773 NONAME ; class QString QDeclarativeExtensionPlugin::tr(char const *, char const *, int)
	?metaObject@QDeclarativeValueType@@UBEPBUQMetaObject@@XZ @ 774 NONAME ABSENT ; struct QMetaObject const * QDeclarativeValueType::metaObject(void) const
	?hasNotifySignal@QDeclarativeProperty@@QBE_NXZ @ 775 NONAME ; bool QDeclarativeProperty::hasNotifySignal(void) const
	?create@QDeclarativeType@@QBEXPAPAVQObject@@PAPAXI@Z @ 776 NONAME ABSENT ; void QDeclarativeType::create(class QObject * *, void * *, unsigned int) const
	?reversible@QDeclarativeTransition@@QBE_NXZ @ 777 NONAME ; bool QDeclarativeTransition::reversible(void) const
	?invalidPacket@QPacketProtocol@@IAEXXZ @ 778 NONAME ; void QPacketProtocol::invalidPacket(void)
	??0QDeclarativeDebugObjectReference@@QAE@H@Z @ 779 NONAME ABSENT ; QDeclarativeDebugObjectReference::QDeclarativeDebugObjectReference(int)
	?superClass@QMetaObjectBuilder@@QBEPBUQMetaObject@@XZ @ 780 NONAME ABSENT ; struct QMetaObject const * QMetaObjectBuilder::superClass(void) const
	?isValid@QDeclarativeListReference@@QBE_NXZ @ 781 NONAME ; bool QDeclarativeListReference::isValid(void) const
	?source@QDeclarativeView@@QBE?AVQUrl@@XZ @ 782 NONAME ; class QUrl QDeclarativeView::source(void) const
	?method@QDeclarativeProperty@@QBE?AVQMetaMethod@@XZ @ 783 NONAME ; class QMetaMethod QDeclarativeProperty::method(void) const
	??0QDeclarativeInfo@@QAE@ABV0@@Z @ 784 NONAME ; QDeclarativeInfo::QDeclarativeInfo(class QDeclarativeInfo const &)
	?deleteFromBinding@QDeclarativeAction@@QAEXXZ @ 785 NONAME ABSENT ; void QDeclarativeAction::deleteFromBinding(void)
	?setClip@QDeclarativeItem@@QAEX_N@Z @ 786 NONAME ; void QDeclarativeItem::setClip(bool)
	??4QDeclarativeCustomParserNode@@QAEAAV0@ABV0@@Z @ 787 NONAME ; class QDeclarativeCustomParserNode & QDeclarativeCustomParserNode::operator=(class QDeclarativeCustomParserNode const &)
	?color@QDeclarativePen@@QBE?AVQColor@@XZ @ 788 NONAME ABSENT ; class QColor QDeclarativePen::color(void) const
	?clear@QDeclarativePixmap@@QAEXXZ @ 789 NONAME ; void QDeclarativePixmap::clear(void)
	?setDesignable@QMetaPropertyBuilder@@QAEX_N@Z @ 790 NONAME ABSENT ; void QMetaPropertyBuilder::setDesignable(bool)
	?setWrapMode@QDeclarativeText@@QAEXW4WrapMode@1@@Z @ 791 NONAME ABSENT ; void QDeclarativeText::setWrapMode(enum QDeclarativeText::WrapMode)
	?addClassInfo@QMetaObjectBuilder@@QAEHABVQByteArray@@0@Z @ 792 NONAME ABSENT ; int QMetaObjectBuilder::addClassInfo(class QByteArray const &, class QByteArray const &)
	?qt_metacall@QDeclarativePen@@UAEHW4Call@QMetaObject@@HPAPAX@Z @ 793 NONAME ABSENT ; int QDeclarativePen::qt_metacall(enum QMetaObject::Call, int, void * *)
	?dynamicProperty@QDeclarativeDomObject@@QBE?AVQDeclarativeDomDynamicProperty@@ABVQByteArray@@@Z @ 794 NONAME ABSENT ; class QDeclarativeDomDynamicProperty QDeclarativeDomObject::dynamicProperty(class QByteArray const &) const
	??1QDeclarativeDomComponent@@QAE@XZ @ 795 NONAME ABSENT ; QDeclarativeDomComponent::~QDeclarativeDomComponent(void)
	?setRight@QDeclarativeScaleGrid@@QAEXH@Z @ 796 NONAME ABSENT ; void QDeclarativeScaleGrid::setRight(int)
	?isList@QDeclarativeMetaType@@SA_NH@Z @ 797 NONAME ABSENT ; bool QDeclarativeMetaType::isList(int)
	??6QDeclarativeInfo@@QAEAAV0@VQTextStreamManipulator@@@Z @ 798 NONAME ; class QDeclarativeInfo & QDeclarativeInfo::operator<<(class QTextStreamManipulator)
	?index@QDeclarativeProperty@@QBEHXZ @ 799 NONAME ; int QDeclarativeProperty::index(void) const
	?d_func@QMetaPropertyBuilder@@ABEPAVQMetaPropertyBuilderPrivate@@XZ @ 800 NONAME ABSENT ; class QMetaPropertyBuilderPrivate * QMetaPropertyBuilder::d_func(void) const
	?tr@QDeclarativeScaleGrid@@SA?AVQString@@PBD0H@Z @ 801 NONAME ABSENT ; class QString QDeclarativeScaleGrid::tr(char const *, char const *, int)
	?setEnabled@QDeclarativeAbstractBinding@@QAEX_N@Z @ 802 NONAME ABSENT ; void QDeclarativeAbstractBinding::setEnabled(bool)
	?returnType@QMetaMethodBuilder@@QBE?AVQByteArray@@XZ @ 803 NONAME ABSENT ; class QByteArray QMetaMethodBuilder::returnType(void) const
	?propertyValueSourceCast@QDeclarativeType@@QBEHXZ @ 804 NONAME ABSENT ; int QDeclarativeType::propertyValueSourceCast(void) const
	?mousePressEvent@QDeclarativeText@@MAEXPAVQGraphicsSceneMouseEvent@@@Z @ 805 NONAME ABSENT ; void QDeclarativeText::mousePressEvent(class QGraphicsSceneMouseEvent *)
	?trUtf8@QDeclarativeText@@SA?AVQString@@PBD0@Z @ 806 NONAME ABSENT ; class QString QDeclarativeText::trUtf8(char const *, char const *)
	?constructor@QMetaObjectBuilder@@QBE?AVQMetaMethodBuilder@@H@Z @ 807 NONAME ABSENT ; class QMetaMethodBuilder QMetaObjectBuilder::constructor(int) const
	?defaultProperty@QDeclarativeMetaType@@SA?AVQMetaProperty@@PAVQObject@@@Z @ 808 NONAME ABSENT ; class QMetaProperty QDeclarativeMetaType::defaultProperty(class QObject *)
	?resetHeight@QDeclarativeItemPrivate@@UAEXXZ @ 809 NONAME ; void QDeclarativeItemPrivate::resetHeight(void)
	?qt_metacast@QDeclarativeDebugPropertyWatch@@UAEPAXPBD@Z @ 810 NONAME ABSENT ; void * QDeclarativeDebugPropertyWatch::qt_metacast(char const *)
	??1QDeclarativeStateOperation@@UAE@XZ @ 811 NONAME ; QDeclarativeStateOperation::~QDeclarativeStateOperation(void)
	??_EQDeclarativeDebugQuery@@UAE@I@Z @ 812 NONAME ABSENT ; QDeclarativeDebugQuery::~QDeclarativeDebugQuery(unsigned int)
	?update@QDeclarativeAbstractBinding@@QAEXXZ @ 813 NONAME ABSENT ; void QDeclarativeAbstractBinding::update(void)
	?tr@QDeclarativeBehavior@@SA?AVQString@@PBD0H@Z @ 814 NONAME ABSENT ; class QString QDeclarativeBehavior::tr(char const *, char const *, int)
	?read@QPacketProtocol@@QAE?AVQPacket@@XZ @ 815 NONAME ; class QPacket QPacketProtocol::read(void)
	?setParentItem@QDeclarativeItem@@QAEXPAV1@@Z @ 816 NONAME ; void QDeclarativeItem::setParentItem(class QDeclarativeItem *)
	?qmlAttachedProperties@QDeclarativeComponent@@SAPAVQDeclarativeComponentAttached@@PAVQObject@@@Z @ 817 NONAME ; class QDeclarativeComponentAttached * QDeclarativeComponent::qmlAttachedProperties(class QObject *)
	??0QDeclarativeView@@QAE@ABVQUrl@@PAVQWidget@@@Z @ 818 NONAME ; QDeclarativeView::QDeclarativeView(class QUrl const &, class QWidget *)
	?valueChanged@QDeclarativeExpression@@IAEXXZ @ 819 NONAME ; void QDeclarativeExpression::valueChanged(void)
	??_EQDeclarativeView@@UAE@I@Z @ 820 NONAME ; QDeclarativeView::~QDeclarativeView(unsigned int)
	?trUtf8@QDeclarativeStateGroup@@SA?AVQString@@PBD0H@Z @ 821 NONAME ; class QString QDeclarativeStateGroup::trUtf8(char const *, char const *, int)
	?tag@QMetaMethodBuilder@@QBE?AVQByteArray@@XZ @ 822 NONAME ABSENT ; class QByteArray QMetaMethodBuilder::tag(void) const
	?getStaticMetaObject@QPacketProtocol@@SAABUQMetaObject@@XZ @ 823 NONAME ; struct QMetaObject const & QPacketProtocol::getStaticMetaObject(void)
	?setContext@QDeclarativeScriptString@@QAEXPAVQDeclarativeContext@@@Z @ 824 NONAME ; void QDeclarativeScriptString::setContext(class QDeclarativeContext *)
	?addImageProvider@QDeclarativeEngine@@QAEXABVQString@@PAVQDeclarativeImageProvider@@@Z @ 825 NONAME ; void QDeclarativeEngine::addImageProvider(class QString const &, class QDeclarativeImageProvider *)
	?d_func@QDeclarativeStateGroup@@ABEPBVQDeclarativeStateGroupPrivate@@XZ @ 826 NONAME ; class QDeclarativeStateGroupPrivate const * QDeclarativeStateGroup::d_func(void) const
	?stateChanged@QDeclarativeItem@@IAEXABVQString@@@Z @ 827 NONAME ; void QDeclarativeItem::stateChanged(class QString const &)
	?horizontalAlignmentChanged@QDeclarativeText@@IAEXW4HAlignment@1@@Z @ 828 NONAME ABSENT ; void QDeclarativeText::horizontalAlignmentChanged(enum QDeclarativeText::HAlignment)
	??5@YAAAVQDataStream@@AAV0@AAUQDeclarativeObjectData@QDeclarativeEngineDebugServer@@@Z @ 829 NONAME ABSENT ; class QDataStream & operator>>(class QDataStream &, struct QDeclarativeEngineDebugServer::QDeclarativeObjectData &)
	?setDynamic@QMetaPropertyBuilder@@QAEX_N@Z @ 830 NONAME ABSENT ; void QMetaPropertyBuilder::setDynamic(bool)
	?pixmap@QDeclarativePixmap@@QBEABVQPixmap@@XZ @ 831 NONAME ; class QPixmap const & QDeclarativePixmap::pixmap(void) const
	?d_func@QDeclarativeEngine@@ABEPBVQDeclarativeEnginePrivate@@XZ @ 832 NONAME ; class QDeclarativeEnginePrivate const * QDeclarativeEngine::d_func(void) const
	?toBinding@QDeclarativeDomValue@@QBE?AVQDeclarativeDomValueBinding@@XZ @ 833 NONAME ABSENT ; class QDeclarativeDomValueBinding QDeclarativeDomValue::toBinding(void) const
	?removeImageProvider@QDeclarativeEngine@@QAEXABVQString@@@Z @ 834 NONAME ; void QDeclarativeEngine::removeImageProvider(class QString const &)
	?horizontalCenterOffsetChanged@QDeclarativeAnchors@@IAEXXZ @ 835 NONAME ABSENT ; void QDeclarativeAnchors::horizontalCenterOffsetChanged(void)
	?tr@QDeclarativeContext@@SA?AVQString@@PBD0@Z @ 836 NONAME ; class QString QDeclarativeContext::tr(char const *, char const *)
	?d_func@QDeclarativeItem@@ABEPBVQDeclarativeItemPrivate@@XZ @ 837 NONAME ; class QDeclarativeItemPrivate const * QDeclarativeItem::d_func(void) const
	?isUser@QMetaPropertyBuilder@@QBE_NXZ @ 838 NONAME ABSENT ; bool QMetaPropertyBuilder::isUser(void) const
	?doUpdate@QDeclarativeRectangle@@AAEXXZ @ 839 NONAME ABSENT ; void QDeclarativeRectangle::doUpdate(void)
	?qmlExecuteDeferred@@YAXPAVQObject@@@Z @ 840 NONAME ; void qmlExecuteDeferred(class QObject *)
	?setImplicitHeight@QDeclarativeItem@@IAEXM@Z @ 841 NONAME ; void QDeclarativeItem::setImplicitHeight(float)
	?horizontalCenterOffset@QDeclarativeAnchors@@QBEMXZ @ 842 NONAME ABSENT ; float QDeclarativeAnchors::horizontalCenterOffset(void) const
	?resetRight@QDeclarativeAnchors@@QAEXXZ @ 843 NONAME ABSENT ; void QDeclarativeAnchors::resetRight(void)
	??6QDeclarativeInfo@@QAEAAV0@J@Z @ 844 NONAME ; class QDeclarativeInfo & QDeclarativeInfo::operator<<(long)
	?isReady@QDeclarativeComponent@@QBE_NXZ @ 845 NONAME ; bool QDeclarativeComponent::isReady(void) const
	??4QDeclarativeDebugObjectReference@@QAEAAV0@ABV0@@Z @ 846 NONAME ABSENT ; class QDeclarativeDebugObjectReference & QDeclarativeDebugObjectReference::operator=(class QDeclarativeDebugObjectReference const &)
	??1QDeclarativeDomDynamicProperty@@QAE@XZ @ 847 NONAME ABSENT ; QDeclarativeDomDynamicProperty::~QDeclarativeDomDynamicProperty(void)
	??1QDeclarativeBehavior@@UAE@XZ @ 848 NONAME ABSENT ; QDeclarativeBehavior::~QDeclarativeBehavior(void)
	?qmlInfo@@YA?AVQDeclarativeInfo@@PBVQObject@@@Z @ 849 NONAME ; class QDeclarativeInfo qmlInfo(class QObject const *)
	?qt_metacall@QDeclarativeDebugClient@@UAEHW4Call@QMetaObject@@HPAPAX@Z @ 850 NONAME ABSENT ; int QDeclarativeDebugClient::qt_metacall(enum QMetaObject::Call, int, void * *)
	?d_func@QDeclarativeDebugService@@ABEPBVQDeclarativeDebugServicePrivate@@XZ @ 851 NONAME ; class QDeclarativeDebugServicePrivate const * QDeclarativeDebugService::d_func(void) const
	??1QDeclarativeDebugQuery@@UAE@XZ @ 852 NONAME ABSENT ; QDeclarativeDebugQuery::~QDeclarativeDebugQuery(void)
	?data_append@QDeclarativeItemPrivate@@SAXPAV?$QDeclarativeListProperty@VQObject@@@@PAVQObject@@@Z @ 853 NONAME ; void QDeclarativeItemPrivate::data_append(class QDeclarativeListProperty<class QObject> *, class QObject *)
	?tr@QDeclarativeState@@SA?AVQString@@PBD0@Z @ 854 NONAME ; class QString QDeclarativeState::tr(char const *, char const *)
	?trUtf8@QDeclarativeEngineDebug@@SA?AVQString@@PBD0H@Z @ 855 NONAME ABSENT ; class QString QDeclarativeEngineDebug::trUtf8(char const *, char const *, int)
	?createProperty@QDeclarativeOpenMetaObject@@MAEHPBD0@Z @ 856 NONAME ABSENT ; int QDeclarativeOpenMetaObject::createProperty(char const *, char const *)
	?bottomMargin@QDeclarativeAnchors@@QBEMXZ @ 857 NONAME ABSENT ; float QDeclarativeAnchors::bottomMargin(void) const
	?q_func@QDeclarativeItemPrivate@@AAEPAVQDeclarativeItem@@XZ @ 858 NONAME ; class QDeclarativeItem * QDeclarativeItemPrivate::q_func(void)
	?trUtf8@QDeclarativeScaleGrid@@SA?AVQString@@PBD0@Z @ 859 NONAME ABSENT ; class QString QDeclarativeScaleGrid::trUtf8(char const *, char const *)
	??1QDeclarativeDomList@@QAE@XZ @ 860 NONAME ABSENT ; QDeclarativeDomList::~QDeclarativeDomList(void)
	??0QDeclarativeOpenMetaObjectType@@QAE@PBUQMetaObject@@PAVQDeclarativeEngine@@@Z @ 861 NONAME ABSENT ; QDeclarativeOpenMetaObjectType::QDeclarativeOpenMetaObjectType(struct QMetaObject const *, class QDeclarativeEngine *)
	?removeProperty@QMetaObjectBuilder@@QAEXH@Z @ 862 NONAME ABSENT ; void QMetaObjectBuilder::removeProperty(int)
	?staticMetaObject@QDeclarativeScaleGrid@@2UQMetaObject@@B @ 863 NONAME ABSENT ; struct QMetaObject const QDeclarativeScaleGrid::staticMetaObject
	??0QDeclarativeDomObject@@QAE@ABV0@@Z @ 864 NONAME ABSENT ; QDeclarativeDomObject::QDeclarativeDomObject(class QDeclarativeDomObject const &)
	?qt_metacast@QDeclarativeDebugWatch@@UAEPAXPBD@Z @ 865 NONAME ABSENT ; void * QDeclarativeDebugWatch::qt_metacast(char const *)
	?implicitHeight@QDeclarativeItem@@QBEMXZ @ 866 NONAME ; float QDeclarativeItem::implicitHeight(void) const
	?trUtf8@QDeclarativeDebugPropertyWatch@@SA?AVQString@@PBD0@Z @ 867 NONAME ABSENT ; class QString QDeclarativeDebugPropertyWatch::trUtf8(char const *, char const *)
	??6@YA?AVQDebug@@V0@ABVQDeclarativeError@@@Z @ 868 NONAME ; class QDebug operator<<(class QDebug, class QDeclarativeError const &)
	?setContextProperty@QDeclarativeContext@@QAEXABVQString@@ABVQVariant@@@Z @ 869 NONAME ; void QDeclarativeContext::setContextProperty(class QString const &, class QVariant const &)
	?imports@QDeclarativeDomDocument@@QBE?AV?$QList@VQDeclarativeDomImport@@@@XZ @ 870 NONAME ABSENT ; class QList<class QDeclarativeDomImport> QDeclarativeDomDocument::imports(void) const
	?tr@QDeclarativeExtensionPlugin@@SA?AVQString@@PBD0@Z @ 871 NONAME ; class QString QDeclarativeExtensionPlugin::tr(char const *, char const *)
	?getStaticMetaObject@QDeclarativePen@@SAABUQMetaObject@@XZ @ 872 NONAME ABSENT ; struct QMetaObject const & QDeclarativePen::getStaticMetaObject(void)
	?penChanged@QDeclarativePen@@IAEXXZ @ 873 NONAME ABSENT ; void QDeclarativePen::penChanged(void)
	?propertyTypeName@QDeclarativeDomDynamicProperty@@QBE?AVQByteArray@@XZ @ 874 NONAME ABSENT ; class QByteArray QDeclarativeDomDynamicProperty::propertyTypeName(void) const
	?position@QDeclarativeDomValue@@QBEHXZ @ 875 NONAME ABSENT ; int QDeclarativeDomValue::position(void) const
	?setWidth@QDeclarativeItemPrivate@@UAEXM@Z @ 876 NONAME ; void QDeclarativeItemPrivate::setWidth(float)
	?staticMetaObject@QDeclarativeDebugWatch@@2UQMetaObject@@B @ 877 NONAME ABSENT ; struct QMetaObject const QDeclarativeDebugWatch::staticMetaObject
	??0QDeclarativePixmap@@QAE@PAVQDeclarativeEngine@@ABVQUrl@@@Z @ 878 NONAME ; QDeclarativePixmap::QDeclarativePixmap(class QDeclarativeEngine *, class QUrl const &)
	??_EQDeclarativeContext@@UAE@I@Z @ 879 NONAME ; QDeclarativeContext::~QDeclarativeContext(unsigned int)
	?staticMetaObject@QDeclarativeDebugQuery@@2UQMetaObject@@B @ 880 NONAME ABSENT ; struct QMetaObject const QDeclarativeDebugQuery::staticMetaObject
	??0QDeclarativeExtensionPlugin@@QAE@PAVQObject@@@Z @ 881 NONAME ; QDeclarativeExtensionPlugin::QDeclarativeExtensionPlugin(class QObject *)
	?resetBindingForObject@QDeclarativeEngineDebug@@QAE_NHABVQString@@@Z @ 882 NONAME ABSENT ; bool QDeclarativeEngineDebug::resetBindingForObject(int, class QString const &)
	??_EQDeclarativeOpenMetaObject@@UAE@I@Z @ 883 NONAME ABSENT ; QDeclarativeOpenMetaObject::~QDeclarativeOpenMetaObject(unsigned int)
	?states@QDeclarativeItemPrivate@@QAE?AV?$QDeclarativeListProperty@VQDeclarativeState@@@@XZ @ 884 NONAME ; class QDeclarativeListProperty<class QDeclarativeState> QDeclarativeItemPrivate::states(void)
	?rawMetaObjectForType@QDeclarativePropertyPrivate@@SAPBUQMetaObject@@PAVQDeclarativeEnginePrivate@@H@Z @ 885 NONAME ABSENT ; struct QMetaObject const * QDeclarativePropertyPrivate::rawMetaObjectForType(class QDeclarativeEnginePrivate *, int)
	?setHeight@QDeclarativeItem@@QAEXM@Z @ 886 NONAME ; void QDeclarativeItem::setHeight(float)
	??0QDeclarativeDomDocument@@QAE@ABV0@@Z @ 887 NONAME ABSENT ; QDeclarativeDomDocument::QDeclarativeDomDocument(class QDeclarativeDomDocument const &)
	?position@QDeclarativeDomDynamicProperty@@QBEHXZ @ 888 NONAME ABSENT ; int QDeclarativeDomDynamicProperty::position(void) const
	?animations@QDeclarativeTransition@@QAE?AV?$QDeclarativeListProperty@VQDeclarativeAbstractAnimation@@@@XZ @ 889 NONAME ; class QDeclarativeListProperty<class QDeclarativeAbstractAnimation> QDeclarativeTransition::animations(void)
	?tr@QDeclarativeExpression@@SA?AVQString@@PBD0H@Z @ 890 NONAME ; class QString QDeclarativeExpression::tr(char const *, char const *, int)
	??_EQMetaObjectBuilder@@UAE@I@Z @ 891 NONAME ABSENT ; QMetaObjectBuilder::~QMetaObjectBuilder(unsigned int)
	?propertyName@QDeclarativeDomProperty@@QBE?AVQByteArray@@XZ @ 892 NONAME ABSENT ; class QByteArray QDeclarativeDomProperty::propertyName(void) const
	?setBindingForObject@QDeclarativeEngineDebug@@QAE_NHABVQString@@ABVQVariant@@_N@Z @ 893 NONAME ABSENT ; bool QDeclarativeEngineDebug::setBindingForObject(int, class QString const &, class QVariant const &, bool)
	??0QDeclarativeView@@QAE@PAVQWidget@@@Z @ 894 NONAME ; QDeclarativeView::QDeclarativeView(class QWidget *)
	?createObject@QDeclarativeComponent@@IAE?AVQScriptValue@@PAVQObject@@@Z @ 895 NONAME ; class QScriptValue QDeclarativeComponent::createObject(class QObject *)
	?name@QDeclarativeDebugPropertyReference@@QBE?AVQString@@XZ @ 896 NONAME ABSENT ; class QString QDeclarativeDebugPropertyReference::name(void) const
	?object@QDeclarativeDomValueValueSource@@QBE?AVQDeclarativeDomObject@@XZ @ 897 NONAME ABSENT ; class QDeclarativeDomObject QDeclarativeDomValueValueSource::object(void) const
	??0QMetaPropertyBuilder@@AAE@PBVQMetaObjectBuilder@@H@Z @ 898 NONAME ABSENT ; QMetaPropertyBuilder::QMetaPropertyBuilder(class QMetaObjectBuilder const *, int)
	?d_func@QDeclarativeEngineDebug@@ABEPBVQDeclarativeEngineDebugPrivate@@XZ @ 899 NONAME ABSENT ; class QDeclarativeEngineDebugPrivate const * QDeclarativeEngineDebug::d_func(void) const
	?d_func@QDeclarativeBinding@@AAEPAVQDeclarativeBindingPrivate@@XZ @ 900 NONAME ABSENT ; class QDeclarativeBindingPrivate * QDeclarativeBinding::d_func(void)
	?trUtf8@QDeclarativeDebugExpressionQuery@@SA?AVQString@@PBD0H@Z @ 901 NONAME ABSENT ; class QString QDeclarativeDebugExpressionQuery::trUtf8(char const *, char const *, int)
	?attachedPropertiesFuncId@QDeclarativeMetaType@@SAHPBUQMetaObject@@@Z @ 902 NONAME ABSENT ; int QDeclarativeMetaType::attachedPropertiesFuncId(struct QMetaObject const *)
	?horizontalCenter@QDeclarativeItemPrivate@@QBE?AVQDeclarativeAnchorLine@@XZ @ 903 NONAME ; class QDeclarativeAnchorLine QDeclarativeItemPrivate::horizontalCenter(void) const
	?isNull@QDeclarativeComponent@@QBE_NXZ @ 904 NONAME ; bool QDeclarativeComponent::isNull(void) const
	?d_func@QDeclarativeRectangle@@ABEPBVQDeclarativeRectanglePrivate@@XZ @ 905 NONAME ABSENT ; class QDeclarativeRectanglePrivate const * QDeclarativeRectangle::d_func(void) const
	?setRightMargin@QDeclarativeAnchors@@QAEXM@Z @ 906 NONAME ABSENT ; void QDeclarativeAnchors::setRightMargin(float)
	?className@QMetaObjectBuilder@@QBE?AVQByteArray@@XZ @ 907 NONAME ABSENT ; class QByteArray QMetaObjectBuilder::className(void) const
	??0QDeclarativeState@@QAE@PAVQObject@@@Z @ 908 NONAME ; QDeclarativeState::QDeclarativeState(class QObject *)
	?contexts@QDeclarativeDebugContextReference@@QBE?AV?$QList@VQDeclarativeDebugContextReference@@@@XZ @ 909 NONAME ABSENT ; class QList<class QDeclarativeDebugContextReference> QDeclarativeDebugContextReference::contexts(void) const
	?keyReleaseEvent@QDeclarativeItem@@MAEXPAVQKeyEvent@@@Z @ 910 NONAME ; void QDeclarativeItem::keyReleaseEvent(class QKeyEvent *)
	?qt_metacall@QDeclarativeAnchors@@UAEHW4Call@QMetaObject@@HPAPAX@Z @ 911 NONAME ABSENT ; int QDeclarativeAnchors::qt_metacall(enum QMetaObject::Call, int, void * *)
	??0QDeclarativeAnchors@@QAE@PAVQGraphicsObject@@PAVQObject@@@Z @ 912 NONAME ABSENT ; QDeclarativeAnchors::QDeclarativeAnchors(class QGraphicsObject *, class QObject *)
	??4QDeclarativeScriptString@@QAEAAV0@ABV0@@Z @ 913 NONAME ; class QDeclarativeScriptString & QDeclarativeScriptString::operator=(class QDeclarativeScriptString const &)
	??6@YAAAVQDataStream@@AAV0@ABUQDeclarativeObjectProperty@QDeclarativeEngineDebugServer@@@Z @ 914 NONAME ABSENT ; class QDataStream & operator<<(class QDataStream &, struct QDeclarativeEngineDebugServer::QDeclarativeObjectProperty const &)
	?hasNotifySignal@QMetaPropertyBuilder@@QBE_NXZ @ 915 NONAME ABSENT ; bool QMetaPropertyBuilder::hasNotifySignal(void) const
	??4QDeclarativeDomImport@@QAEAAV0@ABV0@@Z @ 916 NONAME ABSENT ; class QDeclarativeDomImport & QDeclarativeDomImport::operator=(class QDeclarativeDomImport const &)
	?resetFill@QDeclarativeAnchors@@QAEXXZ @ 917 NONAME ABSENT ; void QDeclarativeAnchors::resetFill(void)
	??6QDeclarativeInfo@@QAEAAV0@_K@Z @ 918 NONAME ; class QDeclarativeInfo & QDeclarativeInfo::operator<<(unsigned long long)
	?d_func@QDeclarativeComponent@@ABEPBVQDeclarativeComponentPrivate@@XZ @ 919 NONAME ; class QDeclarativeComponentPrivate const * QDeclarativeComponent::d_func(void) const
	??0QDeclarativeBehavior@@QAE@PAVQObject@@@Z @ 920 NONAME ABSENT ; QDeclarativeBehavior::QDeclarativeBehavior(class QObject *)
	?length@QDeclarativeDomValue@@QBEHXZ @ 921 NONAME ABSENT ; int QDeclarativeDomValue::length(void) const
	?trUtf8@QDeclarativeBinding@@SA?AVQString@@PBD0H@Z @ 922 NONAME ABSENT ; class QString QDeclarativeBinding::trUtf8(char const *, char const *, int)
	??0QDeclarativeType@@AAE@HABURegisterInterface@QDeclarativePrivate@@@Z @ 923 NONAME ABSENT ; QDeclarativeType::QDeclarativeType(int, struct QDeclarativePrivate::RegisterInterface const &)
	?scopeObject@QDeclarativeScriptString@@QBEPAVQObject@@XZ @ 924 NONAME ; class QObject * QDeclarativeScriptString::scopeObject(void) const
	?left@QDeclarativeItemPrivate@@QBE?AVQDeclarativeAnchorLine@@XZ @ 925 NONAME ; class QDeclarativeAnchorLine QDeclarativeItemPrivate::left(void) const
	??1QDeclarativeDebuggerStatus@@UAE@XZ @ 926 NONAME ABSENT ; QDeclarativeDebuggerStatus::~QDeclarativeDebuggerStatus(void)
	??6QDeclarativeInfo@@QAEAAV0@ABVQLatin1String@@@Z @ 927 NONAME ; class QDeclarativeInfo & QDeclarativeInfo::operator<<(class QLatin1String const &)
	?at@QDeclarativeListReference@@QBEPAVQObject@@H@Z @ 928 NONAME ; class QObject * QDeclarativeListReference::at(int) const
	?metaObject@QDeclarativeDebugWatch@@UBEPBUQMetaObject@@XZ @ 929 NONAME ABSENT ; struct QMetaObject const * QDeclarativeDebugWatch::metaObject(void) const
	?qt_metacast@QListModelInterface@@UAEPAXPBD@Z @ 930 NONAME ABSENT ; void * QListModelInterface::qt_metacast(char const *)
	?deserialize@QMetaObjectBuilder@@QAEXAAVQDataStream@@ABV?$QMap@VQByteArray@@PB$$CBUQMetaObject@@@@@Z @ 931 NONAME ABSENT ; void QMetaObjectBuilder::deserialize(class QDataStream &, class QMap<class QByteArray, struct QMetaObject const *> const &)
	?canClear@QDeclarativeListReference@@QBE_NXZ @ 932 NONAME ; bool QDeclarativeListReference::canClear(void) const
	??4QDeclarativeCustomParserProperty@@QAEAAV0@ABV0@@Z @ 933 NONAME ; class QDeclarativeCustomParserProperty & QDeclarativeCustomParserProperty::operator=(class QDeclarativeCustomParserProperty const &)
	?parameterNames@QMetaMethodBuilder@@QBE?AV?$QList@VQByteArray@@@@XZ @ 934 NONAME ABSENT ; class QList<class QByteArray> QMetaMethodBuilder::parameterNames(void) const
	?get@QDeclarativeListModel@@QBE?AVQScriptValue@@H@Z @ 935 NONAME ABSENT ; class QScriptValue QDeclarativeListModel::get(int) const
	?createSize@QDeclarativeType@@QBEHXZ @ 936 NONAME ABSENT ; int QDeclarativeType::createSize(void) const
	?rootContext@QDeclarativeEngine@@QBEPAVQDeclarativeContext@@XZ @ 937 NONAME ; class QDeclarativeContext * QDeclarativeEngine::rootContext(void) const
	?isValueSource@QDeclarativeDomValue@@QBE_NXZ @ 938 NONAME ABSENT ; bool QDeclarativeDomValue::isValueSource(void) const
	?isWritable@QDeclarativeProperty@@QBE_NXZ @ 939 NONAME ; bool QDeclarativeProperty::isWritable(void) const
	?setKeepMouseGrab@QDeclarativeItem@@QAEX_N@Z @ 940 NONAME ; void QDeclarativeItem::setKeepMouseGrab(bool)
	??0QDeclarativeDebugContextReference@@QAE@XZ @ 941 NONAME ABSENT ; QDeclarativeDebugContextReference::QDeclarativeDebugContextReference(void)
	?setParameterNames@QMetaMethodBuilder@@QAEXABV?$QList@VQByteArray@@@@@Z @ 942 NONAME ABSENT ; void QMetaMethodBuilder::setParameterNames(class QList<class QByteArray> const &)
	?getStaticMetaObject@QDeclarativeDebugRootContextQuery@@SAABUQMetaObject@@XZ @ 943 NONAME ABSENT ; struct QMetaObject const & QDeclarativeDebugRootContextQuery::getStaticMetaObject(void)
	?textChanged@QDeclarativeText@@IAEXABVQString@@@Z @ 944 NONAME ABSENT ; void QDeclarativeText::textChanged(class QString const &)
	?trUtf8@QDeclarativeItem@@SA?AVQString@@PBD0@Z @ 945 NONAME ; class QString QDeclarativeItem::trUtf8(char const *, char const *)
	??0QDeclarativeCustomParserProperty@@QAE@ABV0@@Z @ 946 NONAME ; QDeclarativeCustomParserProperty::QDeclarativeCustomParserProperty(class QDeclarativeCustomParserProperty const &)
	?getStaticMetaObject@QDeclarativeComponent@@SAABUQMetaObject@@XZ @ 947 NONAME ; struct QMetaObject const & QDeclarativeComponent::getStaticMetaObject(void)
	?parentItem@QDeclarativeItem@@QBEPAV1@XZ @ 948 NONAME ; class QDeclarativeItem * QDeclarativeItem::parentItem(void) const
	?value@QMetaEnumBuilder@@QBEHH@Z @ 949 NONAME ABSENT ; int QMetaEnumBuilder::value(int) const
	??_EQDeclarativeExpression@@UAE@I@Z @ 950 NONAME ; QDeclarativeExpression::~QDeclarativeExpression(unsigned int)
	?load@QDeclarativeDomDocument@@QAE_NPAVQDeclarativeEngine@@ABVQByteArray@@ABVQUrl@@@Z @ 951 NONAME ABSENT ; bool QDeclarativeDomDocument::load(class QDeclarativeEngine *, class QByteArray const &, class QUrl const &)
	?staticMetaObject@QDeclarativeStateGroup@@2UQMetaObject@@B @ 952 NONAME ; struct QMetaObject const QDeclarativeStateGroup::staticMetaObject
	?tr@QDeclarativePropertyMap@@SA?AVQString@@PBD0@Z @ 953 NONAME ; class QString QDeclarativePropertyMap::tr(char const *, char const *)
	?verticalCenterChanged@QDeclarativeAnchors@@IAEXXZ @ 954 NONAME ABSENT ; void QDeclarativeAnchors::verticalCenterChanged(void)
	?isScriptable@QMetaPropertyBuilder@@QBE_NXZ @ 955 NONAME ABSENT ; bool QMetaPropertyBuilder::isScriptable(void) const
	?typeCategory@QDeclarativeMetaType@@SA?AW4TypeCategory@1@H@Z @ 956 NONAME ABSENT ; enum QDeclarativeMetaType::TypeCategory QDeclarativeMetaType::typeCategory(int)
	?findSignalByName@QDeclarativePropertyPrivate@@SA?AVQMetaMethod@@PBUQMetaObject@@ABVQByteArray@@@Z @ 957 NONAME ABSENT ; class QMetaMethod QDeclarativePropertyPrivate::findSignalByName(struct QMetaObject const *, class QByteArray const &)
	?length@QDeclarativeDomDynamicProperty@@QBEHXZ @ 958 NONAME ABSENT ; int QDeclarativeDomDynamicProperty::length(void) const
	?property@QDeclarativeBinding@@QBE?AVQDeclarativeProperty@@XZ @ 959 NONAME ABSENT ; class QDeclarativeProperty QDeclarativeBinding::property(void) const
	??0QDeclarativeDomValueBinding@@QAE@XZ @ 960 NONAME ABSENT ; QDeclarativeDomValueBinding::QDeclarativeDomValueBinding(void)
	?addImportPath@QDeclarativeEngine@@QAEXABVQString@@@Z @ 961 NONAME ; void QDeclarativeEngine::addImportPath(class QString const &)
	?engine@QDeclarativeContext@@QBEPAVQDeclarativeEngine@@XZ @ 962 NONAME ; class QDeclarativeEngine * QDeclarativeContext::engine(void) const
	?length@QDeclarativeDomObject@@QBEHXZ @ 963 NONAME ABSENT ; int QDeclarativeDomObject::length(void) const
	?setBaselineOffset@QDeclarativeAnchors@@QAEXM@Z @ 964 NONAME ABSENT ; void QDeclarativeAnchors::setBaselineOffset(float)
	?append@QDeclarativeListReference@@QBE_NPAVQObject@@@Z @ 965 NONAME ; bool QDeclarativeListReference::append(class QObject *) const
	?d_func@QDeclarativeEngineDebug@@AAEPAVQDeclarativeEngineDebugPrivate@@XZ @ 966 NONAME ABSENT ; class QDeclarativeEngineDebugPrivate * QDeclarativeEngineDebug::d_func(void)
	??1QDeclarativeNetworkAccessManagerFactory@@UAE@XZ @ 967 NONAME ; QDeclarativeNetworkAccessManagerFactory::~QDeclarativeNetworkAccessManagerFactory(void)
	?textFormatChanged@QDeclarativeText@@IAEXW4TextFormat@1@@Z @ 968 NONAME ABSENT ; void QDeclarativeText::textFormatChanged(enum QDeclarativeText::TextFormat)
	?removeState@QDeclarativeStateGroup@@AAEXPAVQDeclarativeState@@@Z @ 969 NONAME ; void QDeclarativeStateGroup::removeState(class QDeclarativeState *)
	?qmlTypeName@QDeclarativeType@@QBE?AVQByteArray@@XZ @ 970 NONAME ABSENT ; class QByteArray QDeclarativeType::qmlTypeName(void) const
	?tr@QDeclarativeComponent@@SA?AVQString@@PBD0@Z @ 971 NONAME ; class QString QDeclarativeComponent::tr(char const *, char const *)
	?isProperty@QDeclarativeProperty@@QBE_NXZ @ 972 NONAME ; bool QDeclarativeProperty::isProperty(void) const
	?states@QDeclarativeStateGroup@@QBE?AV?$QList@PAVQDeclarativeState@@@@XZ @ 973 NONAME ; class QList<class QDeclarativeState *> QDeclarativeStateGroup::states(void) const
	??1QDeclarativeDebugExpressionQuery@@UAE@XZ @ 974 NONAME ABSENT ; QDeclarativeDebugExpressionQuery::~QDeclarativeDebugExpressionQuery(void)
	?isValid@QDeclarativeDomObject@@QBE_NXZ @ 975 NONAME ABSENT ; bool QDeclarativeDomObject::isValid(void) const
	?staticMetaObject@QDeclarativeAnchors@@2UQMetaObject@@B @ 976 NONAME ABSENT ; struct QMetaObject const QDeclarativeAnchors::staticMetaObject
	??_EQDeclarativePen@@UAE@I@Z @ 977 NONAME ABSENT ; QDeclarativePen::~QDeclarativePen(unsigned int)
	??0QDeclarativeDomProperty@@QAE@ABV0@@Z @ 978 NONAME ABSENT ; QDeclarativeDomProperty::QDeclarativeDomProperty(class QDeclarativeDomProperty const &)
	?_states@QDeclarativeItemPrivate@@QAEPAVQDeclarativeStateGroup@@XZ @ 979 NONAME ; class QDeclarativeStateGroup * QDeclarativeItemPrivate::_states(void)
	?verticalAlignmentChanged@QDeclarativeText@@IAEXW4VAlignment@1@@Z @ 980 NONAME ABSENT ; void QDeclarativeText::verticalAlignmentChanged(enum QDeclarativeText::VAlignment)
	?typeId@QDeclarativeType@@QBEHXZ @ 981 NONAME ABSENT ; int QDeclarativeType::typeId(void) const
	?marginsChanged@QDeclarativeAnchors@@IAEXXZ @ 982 NONAME ABSENT ; void QDeclarativeAnchors::marginsChanged(void)
	?setValue@QDeclarativeOpenMetaObject@@QAEXHABVQVariant@@@Z @ 983 NONAME ABSENT ; void QDeclarativeOpenMetaObject::setValue(int, class QVariant const &)
	?parentProperty@QDeclarativeItemPrivate@@SAXPAVQObject@@PAXPAVQDeclarativeNotifierEndpoint@@@Z @ 984 NONAME ; void QDeclarativeItemPrivate::parentProperty(class QObject *, void *, class QDeclarativeNotifierEndpoint *)
	??4QDeclarativeDebugContextReference@@QAEAAV0@ABV0@@Z @ 985 NONAME ABSENT ; class QDeclarativeDebugContextReference & QDeclarativeDebugContextReference::operator=(class QDeclarativeDebugContextReference const &)
	?isModule@QDeclarativeMetaType@@SA_NABVQByteArray@@HH@Z @ 986 NONAME ABSENT ; bool QDeclarativeMetaType::isModule(class QByteArray const &, int, int)
	?parentFunctions@QDeclarativeMetaType@@SA?AV?$QList@P6A?AW4AutoParentResult@QDeclarativePrivate@@PAVQObject@@0@Z@@XZ @ 987 NONAME ABSENT ; class QList<enum QDeclarativePrivate::AutoParentResult (*)(class QObject *, class QObject *)> QDeclarativeMetaType::parentFunctions(void)
	?metaObject@QDeclarativeDebugPropertyWatch@@UBEPBUQMetaObject@@XZ @ 988 NONAME ABSENT ; struct QMetaObject const * QDeclarativeDebugPropertyWatch::metaObject(void) const
	??0QDeclarativeRectangle@@QAE@PAVQDeclarativeItem@@@Z @ 989 NONAME ABSENT ; QDeclarativeRectangle::QDeclarativeRectangle(class QDeclarativeItem *)
	?setOutputWarningsToStandardError@QDeclarativeEngine@@QAEX_N@Z @ 990 NONAME ; void QDeclarativeEngine::setOutputWarningsToStandardError(bool)
	?addMethod@QMetaObjectBuilder@@QAE?AVQMetaMethodBuilder@@ABVQByteArray@@0@Z @ 991 NONAME ABSENT ; class QMetaMethodBuilder QMetaObjectBuilder::addMethod(class QByteArray const &, class QByteArray const &)
	?enumerator@QMetaObjectBuilder@@QBE?AVQMetaEnumBuilder@@H@Z @ 992 NONAME ABSENT ; class QMetaEnumBuilder QMetaObjectBuilder::enumerator(int) const
	?fromRelocatableData@QMetaObjectBuilder@@SAXPAUQMetaObject@@PBU2@ABVQByteArray@@@Z @ 993 NONAME ABSENT ; void QMetaObjectBuilder::fromRelocatableData(struct QMetaObject *, struct QMetaObject const *, class QByteArray const &)
	?gridRight@QDeclarativeGridScaledImage@@QBEHXZ @ 994 NONAME ABSENT ; int QDeclarativeGridScaledImage::gridRight(void) const
	?isAlias@QDeclarativeDomDynamicProperty@@QBE_NXZ @ 995 NONAME ABSENT ; bool QDeclarativeDomDynamicProperty::isAlias(void) const
	?d_func@QDeclarativeContext@@ABEPBVQDeclarativeContextPrivate@@XZ @ 996 NONAME ; class QDeclarativeContextPrivate const * QDeclarativeContext::d_func(void) const
	?getStaticMetaObject@QDeclarativeDebugEnginesQuery@@SAABUQMetaObject@@XZ @ 997 NONAME ABSENT ; struct QMetaObject const & QDeclarativeDebugEnginesQuery::getStaticMetaObject(void)
	?tr@QDeclarativeItem@@SA?AVQString@@PBD0H@Z @ 998 NONAME ; class QString QDeclarativeItem::tr(char const *, char const *, int)
	?staticMetaObject@QDeclarativeDebugPropertyWatch@@2UQMetaObject@@B @ 999 NONAME ABSENT ; struct QMetaObject const QDeclarativeDebugPropertyWatch::staticMetaObject
	?setDescription@QDeclarativeError@@QAEXABVQString@@@Z @ 1000 NONAME ; void QDeclarativeError::setDescription(class QString const &)
	??0QDeclarativeExpression@@AAE@PAVQDeclarativeContextData@@PAVQObject@@ABVQString@@@Z @ 1001 NONAME ; QDeclarativeExpression::QDeclarativeExpression(class QDeclarativeContextData *, class QObject *, class QString const &)
	??1QDeclarativeOpenMetaObjectType@@UAE@XZ @ 1002 NONAME ABSENT ; QDeclarativeOpenMetaObjectType::~QDeclarativeOpenMetaObjectType(void)
	?setReversible@QDeclarativeTransition@@QAEX_N@Z @ 1003 NONAME ; void QDeclarativeTransition::setReversible(bool)
	?notifySignal@QMetaPropertyBuilder@@QBE?AVQMetaMethodBuilder@@XZ @ 1004 NONAME ABSENT ; class QMetaMethodBuilder QMetaPropertyBuilder::notifySignal(void) const
	??0QDeclarativeDomList@@QAE@XZ @ 1005 NONAME ABSENT ; QDeclarativeDomList::QDeclarativeDomList(void)
	?hasActiveFocus@QDeclarativeItem@@QBE_NXZ @ 1006 NONAME ; bool QDeclarativeItem::hasActiveFocus(void) const
	?indexOfSignal@QMetaObjectBuilder@@QAEHABVQByteArray@@@Z @ 1007 NONAME ABSENT ; int QMetaObjectBuilder::indexOfSignal(class QByteArray const &)
	?toState@QDeclarativeTransition@@QBE?AVQString@@XZ @ 1008 NONAME ; class QString QDeclarativeTransition::toState(void) const
	??0QDeclarativeDomDocument@@QAE@XZ @ 1009 NONAME ABSENT ; QDeclarativeDomDocument::QDeclarativeDomDocument(void)
	?setWhen@QDeclarativeState@@QAEXPAVQDeclarativeBinding@@@Z @ 1010 NONAME ; void QDeclarativeState::setWhen(class QDeclarativeBinding *)
	?isWhenKnown@QDeclarativeState@@QBE_NXZ @ 1011 NONAME ; bool QDeclarativeState::isWhenKnown(void) const
	?agent@QDeclarativeListModel@@QAEPAVQDeclarativeListModelWorkerAgent@@XZ @ 1012 NONAME ABSENT ; class QDeclarativeListModelWorkerAgent * QDeclarativeListModel::agent(void)
	?engine@QDeclarativeExpression@@QBEPAVQDeclarativeEngine@@XZ @ 1013 NONAME ; class QDeclarativeEngine * QDeclarativeExpression::engine(void) const
	??_EQDeclarativeDebugWatch@@UAE@I@Z @ 1014 NONAME ABSENT ; QDeclarativeDebugWatch::~QDeclarativeDebugWatch(unsigned int)
	?isEmpty@QPacket@@QBE_NXZ @ 1015 NONAME ; bool QPacket::isEmpty(void) const
	?qmlType@QDeclarativeMetaType@@SAPAVQDeclarativeType@@PBUQMetaObject@@@Z @ 1016 NONAME ABSENT ; class QDeclarativeType * QDeclarativeMetaType::qmlType(struct QMetaObject const *)
	?setFill@QDeclarativeAnchors@@QAEXPAVQGraphicsObject@@@Z @ 1017 NONAME ABSENT ; void QDeclarativeAnchors::setFill(class QGraphicsObject *)
	?setHAlign@QDeclarativeText@@QAEXW4HAlignment@1@@Z @ 1018 NONAME ABSENT ; void QDeclarativeText::setHAlign(enum QDeclarativeText::HAlignment)
	??0QDeclarativeScriptString@@QAE@ABV0@@Z @ 1019 NONAME ; QDeclarativeScriptString::QDeclarativeScriptString(class QDeclarativeScriptString const &)
	?trUtf8@QDeclarativeTransition@@SA?AVQString@@PBD0@Z @ 1020 NONAME ; class QString QDeclarativeTransition::trUtf8(char const *, char const *)
	?metaObject@QDeclarativeDebugRootContextQuery@@UBEPBUQMetaObject@@XZ @ 1021 NONAME ABSENT ; struct QMetaObject const * QDeclarativeDebugRootContextQuery::metaObject(void) const
	?setSignalExpression@QDeclarativePropertyPrivate@@SAPAVQDeclarativeExpression@@ABVQDeclarativeProperty@@PAV2@@Z @ 1022 NONAME ABSENT ; class QDeclarativeExpression * QDeclarativePropertyPrivate::setSignalExpression(class QDeclarativeProperty const &, class QDeclarativeExpression *)
	?reversibleChanged@QDeclarativeTransition@@IAEXXZ @ 1023 NONAME ; void QDeclarativeTransition::reversibleChanged(void)
	??4QDeclarativeDomValueValueSource@@QAEAAV0@ABV0@@Z @ 1024 NONAME ABSENT ; class QDeclarativeDomValueValueSource & QDeclarativeDomValueValueSource::operator=(class QDeclarativeDomValueValueSource const &)
	?name@QDeclarativeDebugObjectReference@@QBE?AVQString@@XZ @ 1025 NONAME ABSENT ; class QString QDeclarativeDebugObjectReference::name(void) const
	?anchorLines@QDeclarativeItemPrivate@@QBEPAUAnchorLines@1@XZ @ 1026 NONAME ; struct QDeclarativeItemPrivate::AnchorLines * QDeclarativeItemPrivate::anchorLines(void) const
	?qmlInfo@@YA?AVQDeclarativeInfo@@PBVQObject@@ABVQDeclarativeError@@@Z @ 1027 NONAME ; class QDeclarativeInfo qmlInfo(class QObject const *, class QDeclarativeError const &)
	?staticMetaObject@QDeclarativeText@@2UQMetaObject@@B @ 1028 NONAME ABSENT ; struct QMetaObject const QDeclarativeText::staticMetaObject
	?color@QDeclarativeRectangle@@QBE?AVQColor@@XZ @ 1029 NONAME ABSENT ; class QColor QDeclarativeRectangle::color(void) const
	?isEnabled@QDeclarativeDebugClient@@QBE_NXZ @ 1030 NONAME ABSENT ; bool QDeclarativeDebugClient::isEnabled(void) const
	?send@QPacketProtocol@@QAEXABVQPacket@@@Z @ 1031 NONAME ; void QPacketProtocol::send(class QPacket const &)
	?width@QDeclarativePixmap@@QBEHXZ @ 1032 NONAME ; int QDeclarativePixmap::width(void) const
	?error@QDeclarativeCustomParser@@IAEXABVQDeclarativeCustomParserNode@@ABVQString@@@Z @ 1033 NONAME ; void QDeclarativeCustomParser::error(class QDeclarativeCustomParserNode const &, class QString const &)
	?defaultProperty@QDeclarativeMetaType@@SA?AVQMetaProperty@@PBUQMetaObject@@@Z @ 1034 NONAME ABSENT ; class QMetaProperty QDeclarativeMetaType::defaultProperty(struct QMetaObject const *)
	?isComponentComplete@QDeclarativeItem@@IBE_NXZ @ 1035 NONAME ; bool QDeclarativeItem::isComponentComplete(void) const
	?type@QMetaPropertyBuilder@@QBE?AVQByteArray@@XZ @ 1036 NONAME ABSENT ; class QByteArray QMetaPropertyBuilder::type(void) const
	?setProperty@QDeclarativeListModel@@QAEXHABVQString@@ABVQVariant@@@Z @ 1037 NONAME ABSENT ; void QDeclarativeListModel::setProperty(int, class QString const &, class QVariant const &)
	?rootContext@QDeclarativeDebugRootContextQuery@@QBE?AVQDeclarativeDebugContextReference@@XZ @ 1038 NONAME ABSENT ; class QDeclarativeDebugContextReference QDeclarativeDebugRootContextQuery::rootContext(void) const
	?contextForObject@QDeclarativeEngine@@SAPAVQDeclarativeContext@@PBVQObject@@@Z @ 1039 NONAME ; class QDeclarativeContext * QDeclarativeEngine::contextForObject(class QObject const *)
	?addProperty@QMetaObjectBuilder@@QAE?AVQMetaPropertyBuilder@@ABVQMetaProperty@@@Z @ 1040 NONAME ABSENT ; class QMetaPropertyBuilder QMetaObjectBuilder::addProperty(class QMetaProperty const &)
	?isQObject@QDeclarativeMetaType@@SA_NH@Z @ 1041 NONAME ABSENT ; bool QDeclarativeMetaType::isQObject(int)
	?trUtf8@QDeclarativeAnchors@@SA?AVQString@@PBD0@Z @ 1042 NONAME ABSENT ; class QString QDeclarativeAnchors::trUtf8(char const *, char const *)
	?getStaticMetaObject@QDeclarativeValueType@@SAABUQMetaObject@@XZ @ 1043 NONAME ABSENT ; struct QMetaObject const & QDeclarativeValueType::getStaticMetaObject(void)
	?valueChanged@QDeclarativePropertyMap@@IAEXABVQString@@ABVQVariant@@@Z @ 1044 NONAME ; void QDeclarativePropertyMap::valueChanged(class QString const &, class QVariant const &)
	?staticMetaObject@QPacketProtocol@@2UQMetaObject@@B @ 1045 NONAME ; struct QMetaObject const QPacketProtocol::staticMetaObject
	?tr@QDeclarativeListModel@@SA?AVQString@@PBD0H@Z @ 1046 NONAME ABSENT ; class QString QDeclarativeListModel::tr(char const *, char const *, int)
	??0QDeclarativeScriptString@@QAE@XZ @ 1047 NONAME ; QDeclarativeScriptString::QDeclarativeScriptString(void)
	?tr@QListModelInterface@@SA?AVQString@@PBD0@Z @ 1048 NONAME ABSENT ; class QString QListModelInterface::tr(char const *, char const *)
	?height@QDeclarativeItemPrivate@@UBEMXZ @ 1049 NONAME ; float QDeclarativeItemPrivate::height(void) const
	?qt_metacast@QDeclarativeDebugObjectQuery@@UAEPAXPBD@Z @ 1050 NONAME ABSENT ; void * QDeclarativeDebugObjectQuery::qt_metacast(char const *)
	??0QDeclarativeImageProvider@@QAE@W4ImageType@0@@Z @ 1051 NONAME ; QDeclarativeImageProvider::QDeclarativeImageProvider(enum QDeclarativeImageProvider::ImageType)
	?type@QDeclarativeDomValue@@QBE?AW4Type@1@XZ @ 1052 NONAME ABSENT ; enum QDeclarativeDomValue::Type QDeclarativeDomValue::type(void) const
	?setPixmap@QDeclarativePixmap@@QAEXABVQPixmap@@@Z @ 1053 NONAME ; void QDeclarativePixmap::setPixmap(class QPixmap const &)
	?staticMetacallFunction@QMetaObjectBuilder@@QBEP6AHW4Call@QMetaObject@@HPAPAX@ZXZ @ 1054 NONAME ABSENT ; int (*)(enum QMetaObject::Call, int, void * *) QMetaObjectBuilder::staticMetacallFunction(void) const
	?connectFinished@QDeclarativePixmap@@QAE_NPAVQObject@@H@Z @ 1055 NONAME ; bool QDeclarativePixmap::connectFinished(class QObject *, int)
	?setStyle@QDeclarativeText@@QAEXW4TextStyle@1@@Z @ 1056 NONAME ABSENT ; void QDeclarativeText::setStyle(enum QDeclarativeText::TextStyle)
	?staticMetaObject@QDeclarativePropertyMap@@2UQMetaObject@@B @ 1057 NONAME ; struct QMetaObject const QDeclarativePropertyMap::staticMetaObject
	??_EQDeclarativeDebugEnginesQuery@@UAE@I@Z @ 1058 NONAME ABSENT ; QDeclarativeDebugEnginesQuery::~QDeclarativeDebugEnginesQuery(unsigned int)
	?enumeratorCount@QMetaObjectBuilder@@QBEHXZ @ 1059 NONAME ABSENT ; int QMetaObjectBuilder::enumeratorCount(void) const
	?isError@QDeclarativePixmap@@QBE_NXZ @ 1060 NONAME ; bool QDeclarativePixmap::isError(void) const
	?setConsistentTime@QDeclarativeItemPrivate@@SAX_J@Z @ 1061 NONAME ; void QDeclarativeItemPrivate::setConsistentTime(long long)
	?initializeEngine@QDeclarativeExtensionPlugin@@UAEXPAVQDeclarativeEngine@@PBD@Z @ 1062 NONAME ; void QDeclarativeExtensionPlugin::initializeEngine(class QDeclarativeEngine *, char const *)
	?metaObject@QDeclarativeDebugQuery@@UBEPBUQMetaObject@@XZ @ 1063 NONAME ABSENT ; struct QMetaObject const * QDeclarativeDebugQuery::metaObject(void) const
	?rightMarginChanged@QDeclarativeAnchors@@IAEXXZ @ 1064 NONAME ABSENT ; void QDeclarativeAnchors::rightMarginChanged(void)
	??_EQDeclarativePropertyValueInterceptor@@UAE@I@Z @ 1065 NONAME ; QDeclarativePropertyValueInterceptor::~QDeclarativePropertyValueInterceptor(unsigned int)
	?linkActivated@QDeclarativeText@@IAEXABVQString@@@Z @ 1066 NONAME ABSENT ; void QDeclarativeText::linkActivated(class QString const &)
	?canConvert@QDeclarativePropertyPrivate@@SA_NPBUQMetaObject@@0@Z @ 1067 NONAME ABSENT ; bool QDeclarativePropertyPrivate::canConvert(struct QMetaObject const *, struct QMetaObject const *)
	?trUtf8@QDeclarativeAnchors@@SA?AVQString@@PBD0H@Z @ 1068 NONAME ABSENT ; class QString QDeclarativeAnchors::trUtf8(char const *, char const *, int)
	?toComponent@QDeclarativeDomObject@@QBE?AVQDeclarativeDomComponent@@XZ @ 1069 NONAME ABSENT ; class QDeclarativeDomComponent QDeclarativeDomObject::toComponent(void) const
	?tr@QDeclarativeValueType@@SA?AVQString@@PBD0@Z @ 1070 NONAME ABSENT ; class QString QDeclarativeValueType::tr(char const *, char const *)
	?setLeft@QDeclarativeScaleGrid@@QAEXH@Z @ 1071 NONAME ABSENT ; void QDeclarativeScaleGrid::setLeft(int)
	??1QDeclarativeGridScaledImage@@QAE@XZ @ 1072 NONAME ABSENT ; QDeclarativeGridScaledImage::~QDeclarativeGridScaledImage(void)
	??0QDeclarativeGridScaledImage@@QAE@ABV0@@Z @ 1073 NONAME ABSENT ; QDeclarativeGridScaledImage::QDeclarativeGridScaledImage(class QDeclarativeGridScaledImage const &)
	?column@QDeclarativeError@@QBEHXZ @ 1074 NONAME ; int QDeclarativeError::column(void) const
	?properties@QDeclarativeCustomParserNode@@QBE?AV?$QList@VQDeclarativeCustomParserProperty@@@@XZ @ 1075 NONAME ; class QList<class QDeclarativeCustomParserProperty> QDeclarativeCustomParserNode::properties(void) const
	?qt_metacast@QDeclarativeScaleGrid@@UAEPAXPBD@Z @ 1076 NONAME ABSENT ; void * QDeclarativeScaleGrid::qt_metacast(char const *)
	??0QDeclarativeListReference@@QAE@XZ @ 1077 NONAME ; QDeclarativeListReference::QDeclarativeListReference(void)
	??1QDeclarativeDebugRootContextQuery@@UAE@XZ @ 1078 NONAME ABSENT ; QDeclarativeDebugRootContextQuery::~QDeclarativeDebugRootContextQuery(void)
	?name@QDeclarativeCustomParserNode@@QBE?AVQByteArray@@XZ @ 1079 NONAME ; class QByteArray QDeclarativeCustomParserNode::name(void) const
	?object@QDeclarativeDomValueValueInterceptor@@QBE?AVQDeclarativeDomObject@@XZ @ 1080 NONAME ABSENT ; class QDeclarativeDomObject QDeclarativeDomValueValueInterceptor::object(void) const
	??1QDeclarativePen@@UAE@XZ @ 1081 NONAME ABSENT ; QDeclarativePen::~QDeclarativePen(void)
	?data@QDeclarativeItemPrivate@@QAE?AV?$QDeclarativeListProperty@VQObject@@@@XZ @ 1082 NONAME ; class QDeclarativeListProperty<class QObject> QDeclarativeItemPrivate::data(void)
	?qt_metacall@QDeclarativeBinding@@UAEHW4Call@QMetaObject@@HPAPAX@Z @ 1083 NONAME ABSENT ; int QDeclarativeBinding::qt_metacall(enum QMetaObject::Call, int, void * *)
	??1QDeclarativeEngine@@UAE@XZ @ 1084 NONAME ; QDeclarativeEngine::~QDeclarativeEngine(void)
	?debugId@QDeclarativeDebugContextReference@@QBEHXZ @ 1085 NONAME ABSENT ; int QDeclarativeDebugContextReference::debugId(void) const
	?propertyNameParts@QDeclarativeDomProperty@@QBE?AV?$QList@VQByteArray@@@@XZ @ 1086 NONAME ABSENT ; class QList<class QByteArray> QDeclarativeDomProperty::propertyNameParts(void) const
	?resetWidth@QDeclarativeItemPrivate@@UAEXXZ @ 1087 NONAME ; void QDeclarativeItemPrivate::resetWidth(void)
	??AQDeclarativeOpenMetaObject@@QAEAAVQVariant@@ABVQByteArray@@@Z @ 1088 NONAME ABSENT ; class QVariant & QDeclarativeOpenMetaObject::operator[](class QByteArray const &)
	?bottom@QDeclarativeItemPrivate@@QBE?AVQDeclarativeAnchorLine@@XZ @ 1089 NONAME ; class QDeclarativeAnchorLine QDeclarativeItemPrivate::bottom(void) const
	?device@QPacketProtocol@@QAEPAVQIODevice@@XZ @ 1090 NONAME ; class QIODevice * QPacketProtocol::device(void)
	?trUtf8@QDeclarativeStateGroup@@SA?AVQString@@PBD0@Z @ 1091 NONAME ; class QString QDeclarativeStateGroup::trUtf8(char const *, char const *)
	?variantFromString@QDeclarativeStringConverters@@YA?AVQVariant@@ABVQString@@HPA_N@Z @ 1092 NONAME ABSENT ; class QVariant QDeclarativeStringConverters::variantFromString(class QString const &, int, bool *)
	?metaObject@QDeclarativeComponent@@UBEPBUQMetaObject@@XZ @ 1093 NONAME ; struct QMetaObject const * QDeclarativeComponent::metaObject(void) const
	?qmlInfo@@YA?AVQDeclarativeInfo@@PBVQObject@@ABV?$QList@VQDeclarativeError@@@@@Z @ 1094 NONAME ; class QDeclarativeInfo qmlInfo(class QObject const *, class QList<class QDeclarativeError> const &)
	?assignedValues@QDeclarativeCustomParserProperty@@QBE?AV?$QList@VQVariant@@@@XZ @ 1095 NONAME ; class QList<class QVariant> QDeclarativeCustomParserProperty::assignedValues(void) const
	?setValue@QDeclarativeOpenMetaObject@@QAEXABVQByteArray@@ABVQVariant@@@Z @ 1096 NONAME ABSENT ; void QDeclarativeOpenMetaObject::setValue(class QByteArray const &, class QVariant const &)
	?data@QDeclarativeListModel@@UBE?AVQVariant@@HH@Z @ 1097 NONAME ABSENT ; class QVariant QDeclarativeListModel::data(int, int) const
	?setElideMode@QDeclarativeText@@QAEXW4TextElideMode@1@@Z @ 1098 NONAME ABSENT ; void QDeclarativeText::setElideMode(enum QDeclarativeText::TextElideMode)
	?d_func@QDeclarativePropertyMap@@ABEPBVQDeclarativePropertyMapPrivate@@XZ @ 1099 NONAME ; class QDeclarativePropertyMapPrivate const * QDeclarativePropertyMap::d_func(void) const
	?consistentTime@QDeclarativeItemPrivate@@2_JA @ 1100 NONAME ; long long QDeclarativeItemPrivate::consistentTime
	?setWidth@QDeclarativeItem@@QAEXM@Z @ 1101 NONAME ; void QDeclarativeItem::setWidth(float)
	?qt_metacall@QDeclarativeDebugObjectQuery@@UAEHW4Call@QMetaObject@@HPAPAX@Z @ 1102 NONAME ABSENT ; int QDeclarativeDebugObjectQuery::qt_metacall(enum QMetaObject::Call, int, void * *)
	?contextObject@QDeclarativeContext@@QBEPAVQObject@@XZ @ 1103 NONAME ; class QObject * QDeclarativeContext::contextObject(void) const
	??_EQDeclarativeOpenMetaObjectType@@UAE@I@Z @ 1104 NONAME ABSENT ; QDeclarativeOpenMetaObjectType::~QDeclarativeOpenMetaObjectType(unsigned int)
	?isWritable@QMetaPropertyBuilder@@QBE_NXZ @ 1105 NONAME ABSENT ; bool QMetaPropertyBuilder::isWritable(void) const
	?sizeFFromString@QDeclarativeStringConverters@@YA?AVQSizeF@@ABVQString@@PA_N@Z @ 1106 NONAME ABSENT ; class QSizeF QDeclarativeStringConverters::sizeFFromString(class QString const &, bool *)
	??0QDeclarativeProperty@@QAE@PAVQObject@@ABVQString@@PAVQDeclarativeEngine@@@Z @ 1107 NONAME ; QDeclarativeProperty::QDeclarativeProperty(class QObject *, class QString const &, class QDeclarativeEngine *)
	?addMethod@QMetaObjectBuilder@@QAE?AVQMetaMethodBuilder@@ABVQByteArray@@@Z @ 1108 NONAME ABSENT ; class QMetaMethodBuilder QMetaObjectBuilder::addMethod(class QByteArray const &)
	??0QDeclarativeDebugFileReference@@QAE@XZ @ 1109 NONAME ABSENT ; QDeclarativeDebugFileReference::QDeclarativeDebugFileReference(void)
	?mapFromItem@QDeclarativeItem@@QBE?AVQScriptValue@@ABV2@MM@Z @ 1110 NONAME ; class QScriptValue QDeclarativeItem::mapFromItem(class QScriptValue const &, float, float) const
	?trUtf8@QDeclarativeStateOperation@@SA?AVQString@@PBD0H@Z @ 1111 NONAME ; class QString QDeclarativeStateOperation::trUtf8(char const *, char const *, int)
	?tr@QPacketProtocol@@SA?AVQString@@PBD0H@Z @ 1112 NONAME ; class QString QPacketProtocol::tr(char const *, char const *, int)
	?d_func@QDeclarativeAnchors@@ABEPBVQDeclarativeAnchorsPrivate@@XZ @ 1113 NONAME ABSENT ; class QDeclarativeAnchorsPrivate const * QDeclarativeAnchors::d_func(void) const
	?setNotifySignal@QMetaPropertyBuilder@@QAEXABVQMetaMethodBuilder@@@Z @ 1114 NONAME ABSENT ; void QMetaPropertyBuilder::setNotifySignal(class QMetaMethodBuilder const &)
	?enabled@QDeclarativeBehavior@@QBE_NXZ @ 1115 NONAME ABSENT ; bool QDeclarativeBehavior::enabled(void) const
	?initProperty@QDeclarativePropertyPrivate@@QAEXPAVQObject@@ABVQString@@@Z @ 1116 NONAME ABSENT ; void QDeclarativePropertyPrivate::initProperty(class QObject *, class QString const &)
	?isEditable@QMetaPropertyBuilder@@QBE_NXZ @ 1117 NONAME ABSENT ; bool QMetaPropertyBuilder::isEditable(void) const
	??0QDeclarativeBinding@@QAE@ABVQString@@PAVQObject@@PAVQDeclarativeContextData@@1@Z @ 1118 NONAME ABSENT ; QDeclarativeBinding::QDeclarativeBinding(class QString const &, class QObject *, class QDeclarativeContextData *, class QObject *)
	?expression@QDeclarativeDebugExpressionQuery@@QBE?AVQVariant@@XZ @ 1119 NONAME ABSENT ; class QVariant QDeclarativeDebugExpressionQuery::expression(void) const
	??4QDeclarativeDomList@@QAEAAV0@ABV0@@Z @ 1120 NONAME ABSENT ; class QDeclarativeDomList & QDeclarativeDomList::operator=(class QDeclarativeDomList const &)
	?qt_metacall@QDeclarativeComponent@@UAEHW4Call@QMetaObject@@HPAPAX@Z @ 1121 NONAME ; int QDeclarativeComponent::qt_metacall(enum QMetaObject::Call, int, void * *)
	?tr@QDeclarativeDebugService@@SA?AVQString@@PBD0H@Z @ 1122 NONAME ; class QString QDeclarativeDebugService::tr(char const *, char const *, int)
	?staticMetaObject@QDeclarativeEngine@@2UQMetaObject@@B @ 1123 NONAME ; struct QMetaObject const QDeclarativeEngine::staticMetaObject
	?staticMetaObject@QDeclarativeStateOperation@@2UQMetaObject@@B @ 1124 NONAME ; struct QMetaObject const QDeclarativeStateOperation::staticMetaObject
	?actions@QDeclarativeStateOperation@@UAE?AV?$QList@VQDeclarativeAction@@@@XZ @ 1125 NONAME ; class QList<class QDeclarativeAction> QDeclarativeStateOperation::actions(void)
	?objectClassName@QDeclarativeDomObject@@QBE?AVQByteArray@@XZ @ 1126 NONAME ABSENT ; class QByteArray QDeclarativeDomObject::objectClassName(void) const
	??8QDeclarativeProperty@@QBE_NABV0@@Z @ 1127 NONAME ; bool QDeclarativeProperty::operator==(class QDeclarativeProperty const &) const
	??1QDeclarativeDomValue@@QAE@XZ @ 1128 NONAME ABSENT ; QDeclarativeDomValue::~QDeclarativeDomValue(void)
	??_EQDeclarativePropertyMap@@UAE@I@Z @ 1129 NONAME ; QDeclarativePropertyMap::~QDeclarativePropertyMap(unsigned int)
	?staticMetaObject@QDeclarativeDebugRootContextQuery@@2UQMetaObject@@B @ 1130 NONAME ABSENT ; struct QMetaObject const QDeclarativeDebugRootContextQuery::staticMetaObject
	?noCreationReason@QDeclarativeType@@QBE?AVQString@@XZ @ 1131 NONAME ABSENT ; class QString QDeclarativeType::noCreationReason(void) const
	?setUrl@QDeclarativeDebugFileReference@@QAEXABVQUrl@@@Z @ 1132 NONAME ABSENT ; void QDeclarativeDebugFileReference::setUrl(class QUrl const &)
	??1QDeclarativeCustomParserProperty@@QAE@XZ @ 1133 NONAME ; QDeclarativeCustomParserProperty::~QDeclarativeCustomParserProperty(void)
	??1QPacketProtocol@@UAE@XZ @ 1134 NONAME ; QPacketProtocol::~QPacketProtocol(void)
	??1QDeclarativeAbstractBinding@@MAE@XZ @ 1135 NONAME ABSENT ; QDeclarativeAbstractBinding::~QDeclarativeAbstractBinding(void)
	?indexOfEnumerator@QMetaObjectBuilder@@QAEHABVQByteArray@@@Z @ 1136 NONAME ABSENT ; int QMetaObjectBuilder::indexOfEnumerator(class QByteArray const &)
	?qt_metacast@QDeclarativePen@@UAEPAXPBD@Z @ 1137 NONAME ABSENT ; void * QDeclarativePen::qt_metacast(char const *)
	?leftMargin@QDeclarativeAnchors@@QBEMXZ @ 1138 NONAME ABSENT ; float QDeclarativeAnchors::leftMargin(void) const
	??1QDeclarativeComponent@@UAE@XZ @ 1139 NONAME ; QDeclarativeComponent::~QDeclarativeComponent(void)
	??1QDeclarativeItem@@UAE@XZ @ 1140 NONAME ; QDeclarativeItem::~QDeclarativeItem(void)
	?setEnabled@QDeclarativeAbstractBinding@@UAEX_NV?$QFlags@W4WriteFlag@QDeclarativePropertyPrivate@@@@@Z @ 1141 NONAME ABSENT ; void QDeclarativeAbstractBinding::setEnabled(bool, class QFlags<enum QDeclarativePropertyPrivate::WriteFlag>)
	?staticMetaObject@QListModelInterface@@2UQMetaObject@@B @ 1142 NONAME ABSENT ; struct QMetaObject const QListModelInterface::staticMetaObject
	?d_func@QDeclarativeTransition@@ABEPBVQDeclarativeTransitionPrivate@@XZ @ 1143 NONAME ; class QDeclarativeTransitionPrivate const * QDeclarativeTransition::d_func(void) const
	?sourceFile@QDeclarativeExpression@@QBE?AVQString@@XZ @ 1144 NONAME ; class QString QDeclarativeExpression::sourceFile(void) const
	??_EQDeclarativeAnchors@@UAE@I@Z @ 1145 NONAME ABSENT ; QDeclarativeAnchors::~QDeclarativeAnchors(unsigned int)
	?removeNotifySignal@QMetaPropertyBuilder@@QAEXXZ @ 1146 NONAME ABSENT ; void QMetaPropertyBuilder::removeNotifySignal(void)
	?trUtf8@QDeclarativeDebugService@@SA?AVQString@@PBD0@Z @ 1147 NONAME ; class QString QDeclarativeDebugService::trUtf8(char const *, char const *)
	?setImportPathList@QDeclarativeEngine@@QAEXABVQStringList@@@Z @ 1148 NONAME ; void QDeclarativeEngine::setImportPathList(class QStringList const &)
	?enabledChanged@QDeclarativeDebugService@@MAEX_N@Z @ 1149 NONAME ABSENT ; void QDeclarativeDebugService::enabledChanged(bool)
	?addWatch@QDeclarativeEngineDebug@@QAEPAVQDeclarativeDebugWatch@@ABVQDeclarativeDebugObjectReference@@PAVQObject@@@Z @ 1150 NONAME ABSENT ; class QDeclarativeDebugWatch * QDeclarativeEngineDebug::addWatch(class QDeclarativeDebugObjectReference const &, class QObject *)
	?asAST@Variant@QDeclarativeParser@@QBEPAVNode@AST@QDeclarativeJS@@XZ @ 1151 NONAME ; class QDeclarativeJS::AST::Node * QDeclarativeParser::Variant::asAST(void) const
	?indexOfClassInfo@QMetaObjectBuilder@@QAEHABVQByteArray@@@Z @ 1152 NONAME ABSENT ; int QMetaObjectBuilder::indexOfClassInfo(class QByteArray const &)
	??0QDeclarativeDomImport@@QAE@ABV0@@Z @ 1153 NONAME ABSENT ; QDeclarativeDomImport::QDeclarativeDomImport(class QDeclarativeDomImport const &)
	?width@QDeclarativePen@@QBEHXZ @ 1154 NONAME ABSENT ; int QDeclarativePen::width(void) const
	?d_func@QDeclarativeStateGroup@@AAEPAVQDeclarativeStateGroupPrivate@@XZ @ 1155 NONAME ; class QDeclarativeStateGroupPrivate * QDeclarativeStateGroup::d_func(void)
	??6QDeclarativeInfo@@QAEAAV0@P6AAAVQTextStream@@AAV1@@Z@Z @ 1156 NONAME ; class QDeclarativeInfo & QDeclarativeInfo::operator<<(class QTextStream & (*)(class QTextStream &))
	?trUtf8@QDeclarativeEngineDebug@@SA?AVQString@@PBD0@Z @ 1157 NONAME ABSENT ; class QString QDeclarativeEngineDebug::trUtf8(char const *, char const *)
	?type@QDeclarativeOpenMetaObject@@QBEPAVQDeclarativeOpenMetaObjectType@@XZ @ 1158 NONAME ABSENT ; class QDeclarativeOpenMetaObjectType * QDeclarativeOpenMetaObject::type(void) const
	?tr@QDeclarativeExpression@@SA?AVQString@@PBD0@Z @ 1159 NONAME ; class QString QDeclarativeExpression::tr(char const *, char const *)
	??0QDeclarativeDomValueValueInterceptor@@QAE@XZ @ 1160 NONAME ABSENT ; QDeclarativeDomValueValueInterceptor::QDeclarativeDomValueValueInterceptor(void)
	??1QDeclarativeDebugPropertyWatch@@UAE@XZ @ 1161 NONAME ABSENT ; QDeclarativeDebugPropertyWatch::~QDeclarativeDebugPropertyWatch(void)
	?evaluate@QDeclarativeExpression@@QAE?AVQVariant@@PA_N@Z @ 1162 NONAME ; class QVariant QDeclarativeExpression::evaluate(bool *)
	?isDefaultProperty@QDeclarativeDomProperty@@QBE_NXZ @ 1163 NONAME ABSENT ; bool QDeclarativeDomProperty::isDefaultProperty(void) const
	??0QDeclarativeAction@@QAE@PAVQObject@@ABVQString@@ABVQVariant@@@Z @ 1164 NONAME ABSENT ; QDeclarativeAction::QDeclarativeAction(class QObject *, class QString const &, class QVariant const &)
	?metaObject@QDeclarativeRectangle@@UBEPBUQMetaObject@@XZ @ 1165 NONAME ABSENT ; struct QMetaObject const * QDeclarativeRectangle::metaObject(void) const
	?removeRelatedMetaObject@QMetaObjectBuilder@@QAEXH@Z @ 1166 NONAME ABSENT ; void QMetaObjectBuilder::removeRelatedMetaObject(int)
	??0QDeclarativeError@@QAE@XZ @ 1167 NONAME ; QDeclarativeError::QDeclarativeError(void)
	?hasValue@QDeclarativeOpenMetaObject@@QBE_NH@Z @ 1168 NONAME ABSENT ; bool QDeclarativeOpenMetaObject::hasValue(int) const
	?object@QDeclarativeProperty@@QBEPAVQObject@@XZ @ 1169 NONAME ; class QObject * QDeclarativeProperty::object(void) const
	?stateGroup@QDeclarativeState@@QBEPAVQDeclarativeStateGroup@@XZ @ 1170 NONAME ; class QDeclarativeStateGroup * QDeclarativeState::stateGroup(void) const
	?connectNotifySignal@QDeclarativeProperty@@QBE_NPAVQObject@@H@Z @ 1171 NONAME ; bool QDeclarativeProperty::connectNotifySignal(class QObject *, int) const
	?focusChanged@QDeclarativeItemPrivate@@UAEX_N@Z @ 1172 NONAME ; void QDeclarativeItemPrivate::focusChanged(bool)
	?contextDebugId@QDeclarativeDebugObjectReference@@QBEHXZ @ 1173 NONAME ABSENT ; int QDeclarativeDebugObjectReference::contextDebugId(void) const
	?url@QDeclarativeDebugFileReference@@QBE?AVQUrl@@XZ @ 1174 NONAME ABSENT ; class QUrl QDeclarativeDebugFileReference::url(void) const
	?paint@QDeclarativeRectangle@@UAEXPAVQPainter@@PBVQStyleOptionGraphicsItem@@PAVQWidget@@@Z @ 1175 NONAME ABSENT ; void QDeclarativeRectangle::paint(class QPainter *, class QStyleOptionGraphicsItem const *, class QWidget *)
	??6QDeclarativeState@@QAEAAV0@PAVQDeclarativeStateOperation@@@Z @ 1176 NONAME ; class QDeclarativeState & QDeclarativeState::operator<<(class QDeclarativeStateOperation *)
	?destroy@QDeclarativeAbstractBinding@@UAEXXZ @ 1177 NONAME ABSENT ; void QDeclarativeAbstractBinding::destroy(void)
	?qt_metacast@QDeclarativeDebugService@@UAEPAXPBD@Z @ 1178 NONAME ; void * QDeclarativeDebugService::qt_metacast(char const *)
	?qt_metacast@QDeclarativeValueType@@UAEPAXPBD@Z @ 1179 NONAME ABSENT ; void * QDeclarativeValueType::qt_metacast(char const *)
	?childAt@QDeclarativeItem@@QBEPAV1@MM@Z @ 1180 NONAME ; class QDeclarativeItem * QDeclarativeItem::childAt(float, float) const
	?paintedWidth@QDeclarativeText@@QBEMXZ @ 1181 NONAME ABSENT ; float QDeclarativeText::paintedWidth(void) const
	?tr@QDeclarativeBinding@@SA?AVQString@@PBD0@Z @ 1182 NONAME ABSENT ; class QString QDeclarativeBinding::tr(char const *, char const *)
	?clip@QDeclarativeItem@@QBE_NXZ @ 1183 NONAME ; bool QDeclarativeItem::clip(void) const
	??0QDeclarativeValueTypeFactory@@QAE@XZ @ 1184 NONAME ABSENT ; QDeclarativeValueTypeFactory::QDeclarativeValueTypeFactory(void)
	??0QDeclarativeComponent@@QAE@PAVQDeclarativeEngine@@ABVQUrl@@PAVQObject@@@Z @ 1185 NONAME ; QDeclarativeComponent::QDeclarativeComponent(class QDeclarativeEngine *, class QUrl const &, class QObject *)
	?literal@QDeclarativeDomValueLiteral@@QBE?AVQString@@XZ @ 1186 NONAME ABSENT ; class QString QDeclarativeDomValueLiteral::literal(void) const
	??_EQDeclarativeEngineDebug@@UAE@I@Z @ 1187 NONAME ABSENT ; QDeclarativeEngineDebug::~QDeclarativeEngineDebug(unsigned int)
	?bottom@QDeclarativeScaleGrid@@QBEHXZ @ 1188 NONAME ABSENT ; int QDeclarativeScaleGrid::bottom(void) const
	?d_func@QDeclarativePropertyMap@@AAEPAVQDeclarativePropertyMapPrivate@@XZ @ 1189 NONAME ; class QDeclarativePropertyMapPrivate * QDeclarativePropertyMap::d_func(void)
	?trUtf8@QDeclarativeView@@SA?AVQString@@PBD0@Z @ 1190 NONAME ; class QString QDeclarativeView::trUtf8(char const *, char const *)
	?rect@QDeclarativePixmap@@QBE?AVQRect@@XZ @ 1191 NONAME ; class QRect QDeclarativePixmap::rect(void) const
	??0QDeclarativeTransition@@QAE@PAVQObject@@@Z @ 1192 NONAME ; QDeclarativeTransition::QDeclarativeTransition(class QObject *)
	?horizontalCenter@QDeclarativeAnchors@@QBE?AVQDeclarativeAnchorLine@@XZ @ 1193 NONAME ABSENT ; class QDeclarativeAnchorLine QDeclarativeAnchors::horizontalCenter(void) const
	?setObjectOwnership@QDeclarativeEngine@@SAXPAVQObject@@W4ObjectOwnership@1@@Z @ 1194 NONAME ; void QDeclarativeEngine::setObjectOwnership(class QObject *, enum QDeclarativeEngine::ObjectOwnership)
	?tr@QDeclarativeContext@@SA?AVQString@@PBD0H@Z @ 1195 NONAME ; class QString QDeclarativeContext::tr(char const *, char const *, int)
	?metaCall@QDeclarativeOpenMetaObject@@MAEHW4Call@QMetaObject@@HPAPAX@Z @ 1196 NONAME ABSENT ; int QDeclarativeOpenMetaObject::metaCall(enum QMetaObject::Call, int, void * *)
	??_EQDeclarativeText@@UAE@I@Z @ 1197 NONAME ABSENT ; QDeclarativeText::~QDeclarativeText(unsigned int)
	?setLeftMargin@QDeclarativeAnchors@@QAEXM@Z @ 1198 NONAME ABSENT ; void QDeclarativeAnchors::setLeftMargin(float)
	?metaObject@QDeclarativeStateGroup@@UBEPBUQMetaObject@@XZ @ 1199 NONAME ; struct QMetaObject const * QDeclarativeStateGroup::metaObject(void) const
	?expression@QDeclarativeAbstractBinding@@UBE?AVQString@@XZ @ 1200 NONAME ABSENT ; class QString QDeclarativeAbstractBinding::expression(void) const
	??6QDeclarativeInfo@@QAEAAV0@N@Z @ 1201 NONAME ; class QDeclarativeInfo & QDeclarativeInfo::operator<<(double)
	?setAnimation@QDeclarativeBehavior@@QAEXPAVQDeclarativeAbstractAnimation@@@Z @ 1202 NONAME ABSENT ; void QDeclarativeBehavior::setAnimation(class QDeclarativeAbstractAnimation *)
	?properties@QDeclarativeDebugObjectReference@@QBE?AV?$QList@VQDeclarativeDebugPropertyReference@@@@XZ @ 1203 NONAME ABSENT ; class QList<class QDeclarativeDebugPropertyReference> QDeclarativeDebugObjectReference::properties(void) const
	?trUtf8@QDeclarativePixmap@@SA?AVQString@@PBD0@Z @ 1204 NONAME ; class QString QDeclarativePixmap::trUtf8(char const *, char const *)
	?trUtf8@QDeclarativeDebugClient@@SA?AVQString@@PBD0@Z @ 1205 NONAME ABSENT ; class QString QDeclarativeDebugClient::trUtf8(char const *, char const *)
	?context@QDeclarativeExpression@@QBEPAVQDeclarativeContext@@XZ @ 1206 NONAME ; class QDeclarativeContext * QDeclarativeExpression::context(void) const
	?qt_metacast@QDeclarativeBehavior@@UAEPAXPBD@Z @ 1207 NONAME ABSENT ; void * QDeclarativeBehavior::qt_metacast(char const *)
	?objectTypeMinorVersion@QDeclarativeDomObject@@QBEHXZ @ 1208 NONAME ABSENT ; int QDeclarativeDomObject::objectTypeMinorVersion(void) const
	??0QDeclarativePropertyValueInterceptor@@QAE@XZ @ 1209 NONAME ; QDeclarativePropertyValueInterceptor::QDeclarativePropertyValueInterceptor(void)
	?isValid@QDeclarativeError@@QBE_NXZ @ 1210 NONAME ; bool QDeclarativeError::isValid(void) const
	??0QMetaMethodBuilder@@QAE@XZ @ 1211 NONAME ABSENT ; QMetaMethodBuilder::QMetaMethodBuilder(void)
	?completed@QDeclarativeState@@IAEXXZ @ 1212 NONAME ; void QDeclarativeState::completed(void)
	?radiusChanged@QDeclarativeRectangle@@IAEXXZ @ 1213 NONAME ABSENT ; void QDeclarativeRectangle::radiusChanged(void)
	?getStaticMetaObject@QDeclarativeExpression@@SAABUQMetaObject@@XZ @ 1214 NONAME ; struct QMetaObject const & QDeclarativeExpression::getStaticMetaObject(void)
	?gridLeft@QDeclarativeGridScaledImage@@QBEHXZ @ 1215 NONAME ABSENT ; int QDeclarativeGridScaledImage::gridLeft(void) const
	?setWritable@QMetaPropertyBuilder@@QAEX_N@Z @ 1216 NONAME ABSENT ; void QMetaPropertyBuilder::setWritable(bool)
	?qt_metacast@QDeclarativeStateGroup@@UAEPAXPBD@Z @ 1217 NONAME ; void * QDeclarativeStateGroup::qt_metacast(char const *)
	?defaultMethod@QDeclarativeMetaType@@SA?AVQMetaMethod@@PAVQObject@@@Z @ 1218 NONAME ABSENT ; class QMetaMethod QDeclarativeMetaType::defaultMethod(class QObject *)
	?qt_metacast@QDeclarativeEngineDebug@@UAEPAXPBD@Z @ 1219 NONAME ABSENT ; void * QDeclarativeEngineDebug::qt_metacast(char const *)
	?staticMetaObject@QDeclarativeExpression@@2UQMetaObject@@B @ 1220 NONAME ; struct QMetaObject const QDeclarativeExpression::staticMetaObject
	?statusChanged@QDeclarativeComponent@@IAEXW4Status@1@@Z @ 1221 NONAME ; void QDeclarativeComponent::statusChanged(enum QDeclarativeComponent::Status)
	?setTarget@QDeclarativeBinding@@QAEXABVQDeclarativeProperty@@@Z @ 1222 NONAME ABSENT ; void QDeclarativeBinding::setTarget(class QDeclarativeProperty const &)
	?imageProvider@QDeclarativeEngine@@QBEPAVQDeclarativeImageProvider@@ABVQString@@@Z @ 1223 NONAME ; class QDeclarativeImageProvider * QDeclarativeEngine::imageProvider(class QString const &) const
	?packetsAvailable@QPacketProtocol@@QBE_JXZ @ 1224 NONAME ; long long QPacketProtocol::packetsAvailable(void) const
	?state@QDeclarativeDebugWatch@@QBE?AW4State@1@XZ @ 1225 NONAME ABSENT ; enum QDeclarativeDebugWatch::State QDeclarativeDebugWatch::state(void) const
	?attachedPropertiesFuncById@QDeclarativeMetaType@@SAP6APAVQObject@@PAV2@@ZH@Z @ 1226 NONAME ABSENT ; class QObject * (*)(class QObject *) QDeclarativeMetaType::attachedPropertiesFuncById(int)
	?resetBaseline@QDeclarativeAnchors@@QAEXXZ @ 1227 NONAME ABSENT ; void QDeclarativeAnchors::resetBaseline(void)
	?name@QDeclarativeDebugClient@@QBE?AVQString@@XZ @ 1228 NONAME ABSENT ; class QString QDeclarativeDebugClient::name(void) const
	?propertyValueInterceptorCast@QDeclarativeType@@QBEHXZ @ 1229 NONAME ABSENT ; int QDeclarativeType::propertyValueInterceptorCast(void) const
	?setData@QDeclarativeComponent@@QAEXABVQByteArray@@ABVQUrl@@@Z @ 1230 NONAME ; void QDeclarativeComponent::setData(class QByteArray const &, class QUrl const &)
	??4QDeclarativeDomValue@@QAEAAV0@ABV0@@Z @ 1231 NONAME ABSENT ; class QDeclarativeDomValue & QDeclarativeDomValue::operator=(class QDeclarativeDomValue const &)
	?toString@QDeclarativeListModel@@UBE?AVQString@@H@Z @ 1232 NONAME ABSENT ; class QString QDeclarativeListModel::toString(int) const
	?resetWidth@QDeclarativeItem@@QAEXXZ @ 1233 NONAME ; void QDeclarativeItem::resetWidth(void)
	??0QDeclarativeProperty@@QAE@ABV0@@Z @ 1234 NONAME ; QDeclarativeProperty::QDeclarativeProperty(class QDeclarativeProperty const &)
	?text@QDeclarativeText@@QBE?AVQString@@XZ @ 1235 NONAME ABSENT ; class QString QDeclarativeText::text(void) const
	??1QDeclarativeDebugObjectQuery@@UAE@XZ @ 1236 NONAME ABSENT ; QDeclarativeDebugObjectQuery::~QDeclarativeDebugObjectQuery(void)
	?count@QDeclarativeOpenMetaObject@@QBEHXZ @ 1237 NONAME ABSENT ; int QDeclarativeOpenMetaObject::count(void) const
	?isFlag@QMetaEnumBuilder@@QBE_NXZ @ 1238 NONAME ABSENT ; bool QMetaEnumBuilder::isFlag(void) const
	?bindingIndex@QDeclarativePropertyPrivate@@SAHABVQDeclarativeProperty@@@Z @ 1239 NONAME ABSENT ; int QDeclarativePropertyPrivate::bindingIndex(class QDeclarativeProperty const &)
	??0QDeclarativeDomValueBinding@@QAE@ABV0@@Z @ 1240 NONAME ABSENT ; QDeclarativeDomValueBinding::QDeclarativeDomValueBinding(class QDeclarativeDomValueBinding const &)
	?trUtf8@QDeclarativeRectangle@@SA?AVQString@@PBD0@Z @ 1241 NONAME ABSENT ; class QString QDeclarativeRectangle::trUtf8(char const *, char const *)
	?classInfoName@QMetaObjectBuilder@@QBE?AVQByteArray@@H@Z @ 1242 NONAME ABSENT ; class QByteArray QMetaObjectBuilder::classInfoName(int) const
	?metaObject@QDeclarativeDebugObjectQuery@@UBEPBUQMetaObject@@XZ @ 1243 NONAME ABSENT ; struct QMetaObject const * QDeclarativeDebugObjectQuery::metaObject(void) const
	??4QDeclarativeDomDynamicProperty@@QAEAAV0@ABV0@@Z @ 1244 NONAME ABSENT ; class QDeclarativeDomDynamicProperty & QDeclarativeDomDynamicProperty::operator=(class QDeclarativeDomDynamicProperty const &)
	??_EQDeclarativeDebugEngineReference@@QAE@I@Z @ 1245 NONAME ABSENT ; QDeclarativeDebugEngineReference::~QDeclarativeDebugEngineReference(unsigned int)
	?usedAnchors@QDeclarativeAnchors@@QBE?AV?$QFlags@W4Anchor@QDeclarativeAnchors@@@@XZ @ 1246 NONAME ABSENT ; class QFlags<enum QDeclarativeAnchors::Anchor> QDeclarativeAnchors::usedAnchors(void) const
	?baseline@QDeclarativeItemPrivate@@QBE?AVQDeclarativeAnchorLine@@XZ @ 1247 NONAME ; class QDeclarativeAnchorLine QDeclarativeItemPrivate::baseline(void) const
	?clear@QDeclarativeListModel@@QAEXXZ @ 1248 NONAME ABSENT ; void QDeclarativeListModel::clear(void)
	??0QDeclarativeDebugObjectExpressionWatch@@QAE@PAVQObject@@@Z @ 1249 NONAME ABSENT ; QDeclarativeDebugObjectExpressionWatch::QDeclarativeDebugObjectExpressionWatch(class QObject *)
	??4QDeclarativeDomProperty@@QAEAAV0@ABV0@@Z @ 1250 NONAME ABSENT ; class QDeclarativeDomProperty & QDeclarativeDomProperty::operator=(class QDeclarativeDomProperty const &)
	?write@QDeclarativeProperty@@SA_NPAVQObject@@ABVQString@@ABVQVariant@@@Z @ 1251 NONAME ; bool QDeclarativeProperty::write(class QObject *, class QString const &, class QVariant const &)
	?trUtf8@QDeclarativeContext@@SA?AVQString@@PBD0@Z @ 1252 NONAME ; class QString QDeclarativeContext::trUtf8(char const *, char const *)
	?borderChanged@QDeclarativeScaleGrid@@IAEXXZ @ 1253 NONAME ABSENT ; void QDeclarativeScaleGrid::borderChanged(void)
	??1QDeclarativeRectangle@@UAE@XZ @ 1254 NONAME ABSENT ; QDeclarativeRectangle::~QDeclarativeRectangle(void)
	?count@QDeclarativePropertyMap@@QBEHXZ @ 1255 NONAME ; int QDeclarativePropertyMap::count(void) const
	?setReturnType@QMetaMethodBuilder@@QAEXABVQByteArray@@@Z @ 1256 NONAME ABSENT ; void QMetaMethodBuilder::setReturnType(class QByteArray const &)
	??0QDeclarativePropertyValueSource@@QAE@XZ @ 1257 NONAME ; QDeclarativePropertyValueSource::QDeclarativePropertyValueSource(void)
	?tr@QDeclarativePen@@SA?AVQString@@PBD0H@Z @ 1258 NONAME ABSENT ; class QString QDeclarativePen::tr(char const *, char const *, int)
	?toLiteral@QDeclarativeDomValue@@QBE?AVQDeclarativeDomValueLiteral@@XZ @ 1259 NONAME ABSENT ; class QDeclarativeDomValueLiteral QDeclarativeDomValue::toLiteral(void) const
	??0QDeclarativeOpenMetaObject@@QAE@PAVQObject@@_N@Z @ 1260 NONAME ABSENT ; QDeclarativeOpenMetaObject::QDeclarativeOpenMetaObject(class QObject *, bool)
	?url@QDeclarativeComponent@@QBE?AVQUrl@@XZ @ 1261 NONAME ; class QUrl QDeclarativeComponent::url(void) const
	?componentComplete@QDeclarativeStateGroup@@UAEXXZ @ 1262 NONAME ; void QDeclarativeStateGroup::componentComplete(void)
	?setMargins@QDeclarativeAnchors@@QAEXM@Z @ 1263 NONAME ABSENT ; void QDeclarativeAnchors::setMargins(float)
	?qt_metacall@QDeclarativeView@@UAEHW4Call@QMetaObject@@HPAPAX@Z @ 1264 NONAME ; int QDeclarativeView::qt_metacall(enum QMetaObject::Call, int, void * *)
	?state@QDeclarativeStateGroup@@QBE?AVQString@@XZ @ 1265 NONAME ; class QString QDeclarativeStateGroup::state(void) const
	??0QDeclarativeDomComponent@@QAE@ABV0@@Z @ 1266 NONAME ABSENT ; QDeclarativeDomComponent::QDeclarativeDomComponent(class QDeclarativeDomComponent const &)
	?queryAvailableEngines@QDeclarativeEngineDebug@@QAEPAVQDeclarativeDebugEnginesQuery@@PAVQObject@@@Z @ 1267 NONAME ABSENT ; class QDeclarativeDebugEnginesQuery * QDeclarativeEngineDebug::queryAvailableEngines(class QObject *)
	??_EQDeclarativeItemPrivate@@UAE@I@Z @ 1268 NONAME ; QDeclarativeItemPrivate::~QDeclarativeItemPrivate(unsigned int)
	?expression@QDeclarativeBinding@@UBE?AVQString@@XZ @ 1269 NONAME ABSENT ; class QString QDeclarativeBinding::expression(void) const
	?position@QDeclarativeDomProperty@@QBEHXZ @ 1270 NONAME ABSENT ; int QDeclarativeDomProperty::position(void) const
	?registerValueTypes@QDeclarativeValueTypeFactory@@SAXXZ @ 1271 NONAME ABSENT ; void QDeclarativeValueTypeFactory::registerValueTypes(void)
	?dynamicProperties@QDeclarativeDomObject@@QBE?AV?$QList@VQDeclarativeDomDynamicProperty@@@@XZ @ 1272 NONAME ABSENT ; class QList<class QDeclarativeDomDynamicProperty> QDeclarativeDomObject::dynamicProperties(void) const
	?attachedPropertiesFunction@QDeclarativeType@@QBEP6APAVQObject@@PAV2@@ZXZ @ 1273 NONAME ABSENT ; class QObject * (*)(class QObject *) QDeclarativeType::attachedPropertiesFunction(void) const
	??1QDeclarativePropertyMap@@UAE@XZ @ 1274 NONAME ; QDeclarativePropertyMap::~QDeclarativePropertyMap(void)
	??_EQDeclarativeExtensionInterface@@UAE@I@Z @ 1275 NONAME ; QDeclarativeExtensionInterface::~QDeclarativeExtensionInterface(unsigned int)
	??0Variant@QDeclarativeParser@@QAE@NABVQString@@@Z @ 1276 NONAME ; QDeclarativeParser::Variant::Variant(double, class QString const &)
	??6QDeclarativeInfo@@QAEAAV0@VQBool@@@Z @ 1277 NONAME ; class QDeclarativeInfo & QDeclarativeInfo::operator<<(class QBool)
	?setBinding@QDeclarativePropertyPrivate@@SAPAVQDeclarativeAbstractBinding@@PAVQObject@@HHPAV2@V?$QFlags@W4WriteFlag@QDeclarativePropertyPrivate@@@@@Z @ 1278 NONAME ABSENT ; class QDeclarativeAbstractBinding * QDeclarativePropertyPrivate::setBinding(class QObject *, int, int, class QDeclarativeAbstractBinding *, class QFlags<enum QDeclarativePropertyPrivate::WriteFlag>)
	?qt_metacast@QDeclarativeDebugExpressionQuery@@UAEPAXPBD@Z @ 1279 NONAME ABSENT ; void * QDeclarativeDebugExpressionQuery::qt_metacast(char const *)
	?contextProperty@QDeclarativeContext@@QBE?AVQVariant@@ABVQString@@@Z @ 1280 NONAME ; class QVariant QDeclarativeContext::contextProperty(class QString const &) const
	?verticalCenter@QDeclarativeItemPrivate@@QBE?AVQDeclarativeAnchorLine@@XZ @ 1281 NONAME ; class QDeclarativeAnchorLine QDeclarativeItemPrivate::verticalCenter(void) const
	?metaObject@QDeclarativeScaleGrid@@UBEPBUQMetaObject@@XZ @ 1282 NONAME ABSENT ; struct QMetaObject const * QDeclarativeScaleGrid::metaObject(void) const
	?qmlContext@@YAPAVQDeclarativeContext@@PBVQObject@@@Z @ 1283 NONAME ; class QDeclarativeContext * qmlContext(class QObject const *)
	?setMethodBody@QDeclarativeEngineDebug@@QAE_NHABVQString@@0@Z @ 1284 NONAME ABSENT ; bool QDeclarativeEngineDebug::setMethodBody(int, class QString const &, class QString const &)
	?transform_count@QDeclarativeItemPrivate@@SAHPAV?$QDeclarativeListProperty@VQGraphicsTransform@@@@@Z @ 1285 NONAME ; int QDeclarativeItemPrivate::transform_count(class QDeclarativeListProperty<class QGraphicsTransform> *)
	?tr@QListModelInterface@@SA?AVQString@@PBD0H@Z @ 1286 NONAME ABSENT ; class QString QListModelInterface::tr(char const *, char const *, int)
	??1QDeclarativeDebugFileReference@@QAE@XZ @ 1287 NONAME ABSENT ; QDeclarativeDebugFileReference::~QDeclarativeDebugFileReference(void)
	?style@QDeclarativeText@@QBE?AW4TextStyle@1@XZ @ 1288 NONAME ABSENT ; enum QDeclarativeText::TextStyle QDeclarativeText::style(void) const
	??0QDeclarativeAbstractBinding@@QAE@XZ @ 1289 NONAME ABSENT ; QDeclarativeAbstractBinding::QDeclarativeAbstractBinding(void)
	?staticMetaObject@QDeclarativeDebugEnginesQuery@@2UQMetaObject@@B @ 1290 NONAME ABSENT ; struct QMetaObject const QDeclarativeDebugEnginesQuery::staticMetaObject
	?tr@QDeclarativePixmap@@SA?AVQString@@PBD0@Z @ 1291 NONAME ; class QString QDeclarativePixmap::tr(char const *, char const *)
	?isError@QDeclarativeComponent@@QBE_NXZ @ 1292 NONAME ; bool QDeclarativeComponent::isError(void) const
	?qt_metacall@QDeclarativeTransition@@UAEHW4Call@QMetaObject@@HPAPAX@Z @ 1293 NONAME ; int QDeclarativeTransition::qt_metacall(enum QMetaObject::Call, int, void * *)
	?type@QDeclarativeDomImport@@QBE?AW4Type@1@XZ @ 1294 NONAME ABSENT ; enum QDeclarativeDomImport::Type QDeclarativeDomImport::type(void) const
	??1QDeclarativeDebugConnection@@UAE@XZ @ 1295 NONAME ABSENT ; QDeclarativeDebugConnection::~QDeclarativeDebugConnection(void)
	?value@QDeclarativeOpenMetaObject@@QBE?AVQVariant@@H@Z @ 1296 NONAME ABSENT ; class QVariant QDeclarativeOpenMetaObject::value(int) const
	?tr@QDeclarativeDebugRootContextQuery@@SA?AVQString@@PBD0H@Z @ 1297 NONAME ABSENT ; class QString QDeclarativeDebugRootContextQuery::tr(char const *, char const *, int)
	?setFromState@QDeclarativeTransition@@QAEXABVQString@@@Z @ 1298 NONAME ; void QDeclarativeTransition::setFromState(class QString const &)
	?metaObject@QDeclarativeDebugService@@UBEPBUQMetaObject@@XZ @ 1299 NONAME ; struct QMetaObject const * QDeclarativeDebugService::metaObject(void) const
	?state@QDeclarativeDebugQuery@@QBE?AW4State@1@XZ @ 1300 NONAME ABSENT ; enum QDeclarativeDebugQuery::State QDeclarativeDebugQuery::state(void) const
	?setBottom@QDeclarativeScaleGrid@@QAEXH@Z @ 1301 NONAME ABSENT ; void QDeclarativeScaleGrid::setBottom(int)
	?topMarginChanged@QDeclarativeAnchors@@IAEXXZ @ 1302 NONAME ABSENT ; void QDeclarativeAnchors::topMarginChanged(void)
	?itemChange@QDeclarativeItem@@MAE?AVQVariant@@W4GraphicsItemChange@QGraphicsItem@@ABV2@@Z @ 1303 NONAME ; class QVariant QDeclarativeItem::itemChange(enum QGraphicsItem::GraphicsItemChange, class QVariant const &)
	?position@QDeclarativeDomObject@@QBEHXZ @ 1304 NONAME ABSENT ; int QDeclarativeDomObject::position(void) const
	?update@QDeclarativeBinding@@UAEXV?$QFlags@W4WriteFlag@QDeclarativePropertyPrivate@@@@@Z @ 1305 NONAME ABSENT ; void QDeclarativeBinding::update(class QFlags<enum QDeclarativePropertyPrivate::WriteFlag>)
	?tr@QDeclarativeBehavior@@SA?AVQString@@PBD0@Z @ 1306 NONAME ABSENT ; class QString QDeclarativeBehavior::tr(char const *, char const *)
	?isDebuggingEnabled@QDeclarativeDebugService@@SA_NXZ @ 1307 NONAME ; bool QDeclarativeDebugService::isDebuggingEnabled(void)
	?tr@QDeclarativeText@@SA?AVQString@@PBD0H@Z @ 1308 NONAME ABSENT ; class QString QDeclarativeText::tr(char const *, char const *, int)
	?reset@QDeclarativeProperty@@QBE_NXZ @ 1309 NONAME ; bool QDeclarativeProperty::reset(void) const
	?objectDebugId@QDeclarativeDebugWatch@@QBEHXZ @ 1310 NONAME ABSENT ; int QDeclarativeDebugWatch::objectDebugId(void) const
	?width@QDeclarativeItemPrivate@@UBEMXZ @ 1311 NONAME ; float QDeclarativeItemPrivate::width(void) const
	?d_func@QMetaMethodBuilder@@ABEPAVQMetaMethodBuilderPrivate@@XZ @ 1312 NONAME ABSENT ; class QMetaMethodBuilderPrivate * QMetaMethodBuilder::d_func(void) const
	?isScript@Variant@QDeclarativeParser@@QBE_NXZ @ 1313 NONAME ; bool QDeclarativeParser::Variant::isScript(void) const
	?classBegin@QDeclarativeStateGroup@@UAEXXZ @ 1314 NONAME ; void QDeclarativeStateGroup::classBegin(void)
	?qt_metacast@QDeclarativeRectangle@@UAEPAXPBD@Z @ 1315 NONAME ABSENT ; void * QDeclarativeRectangle::qt_metacast(char const *)
	?qt_metacast@QDeclarativeExpression@@UAEPAXPBD@Z @ 1316 NONAME ; void * QDeclarativeExpression::qt_metacast(char const *)
	?indexOfProperty@QMetaObjectBuilder@@QAEHABVQByteArray@@@Z @ 1317 NONAME ABSENT ; int QMetaObjectBuilder::indexOfProperty(class QByteArray const &)
	?vAlign@QDeclarativeText@@QBE?AW4VAlignment@1@XZ @ 1318 NONAME ABSENT ; enum QDeclarativeText::VAlignment QDeclarativeText::vAlign(void) const
	?addEnumerator@QMetaObjectBuilder@@QAE?AVQMetaEnumBuilder@@ABVQByteArray@@@Z @ 1319 NONAME ABSENT ; class QMetaEnumBuilder QMetaObjectBuilder::addEnumerator(class QByteArray const &)
	??1QDeclarativeError@@QAE@XZ @ 1320 NONAME ; QDeclarativeError::~QDeclarativeError(void)
	?property@QDeclarativeProperty@@QBE?AVQMetaProperty@@XZ @ 1321 NONAME ; class QMetaProperty QDeclarativeProperty::property(void) const
	?tr@QDeclarativeText@@SA?AVQString@@PBD0@Z @ 1322 NONAME ABSENT ; class QString QDeclarativeText::tr(char const *, char const *)
	?write@QDeclarativeProperty@@SA_NPAVQObject@@ABVQString@@ABVQVariant@@PAVQDeclarativeContext@@@Z @ 1323 NONAME ; bool QDeclarativeProperty::write(class QObject *, class QString const &, class QVariant const &, class QDeclarativeContext *)
	??0QDeclarativeGridScaledImage@@QAE@XZ @ 1324 NONAME ABSENT ; QDeclarativeGridScaledImage::QDeclarativeGridScaledImage(void)
	?setText@QDeclarativeText@@QAEXABVQString@@@Z @ 1325 NONAME ABSENT ; void QDeclarativeText::setText(class QString const &)
	?setBaseline@QDeclarativeAnchors@@QAEXABVQDeclarativeAnchorLine@@@Z @ 1326 NONAME ABSENT ; void QDeclarativeAnchors::setBaseline(class QDeclarativeAnchorLine const &)
	?resetCenterIn@QDeclarativeAnchors@@QAEXXZ @ 1327 NONAME ABSENT ; void QDeclarativeAnchors::resetCenterIn(void)
	?pixmapUrl@QDeclarativeGridScaledImage@@QBE?AVQString@@XZ @ 1328 NONAME ABSENT ; class QString QDeclarativeGridScaledImage::pixmapUrl(void) const
	?name@QDeclarativeOpenMetaObject@@QBE?AVQByteArray@@H@Z @ 1329 NONAME ABSENT ; class QByteArray QDeclarativeOpenMetaObject::name(int) const
	?trUtf8@QDeclarativeDebugObjectQuery@@SA?AVQString@@PBD0@Z @ 1330 NONAME ABSENT ; class QString QDeclarativeDebugObjectQuery::trUtf8(char const *, char const *)
	?qt_metacall@QDeclarativeEngine@@UAEHW4Call@QMetaObject@@HPAPAX@Z @ 1331 NONAME ; int QDeclarativeEngine::qt_metacall(enum QMetaObject::Call, int, void * *)
	?getStaticMetaObject@QDeclarativeAnchors@@SAABUQMetaObject@@XZ @ 1332 NONAME ABSENT ; struct QMetaObject const & QDeclarativeAnchors::getStaticMetaObject(void)
	??0QDeclarativeProperty@@QAE@PAVQObject@@ABVQString@@@Z @ 1333 NONAME ; QDeclarativeProperty::QDeclarativeProperty(class QObject *, class QString const &)
	?trUtf8@QDeclarativeState@@SA?AVQString@@PBD0@Z @ 1334 NONAME ; class QString QDeclarativeState::trUtf8(char const *, char const *)
	?setStaticMetacallFunction@QMetaObjectBuilder@@QAEXP6AHW4Call@QMetaObject@@HPAPAX@Z@Z @ 1335 NONAME ABSENT ; void QMetaObjectBuilder::setStaticMetacallFunction(int (*)(enum QMetaObject::Call, int, void * *))
	?properties@QDeclarativeDomObject@@QBE?AV?$QList@VQDeclarativeDomProperty@@@@XZ @ 1336 NONAME ABSENT ; class QList<class QDeclarativeDomProperty> QDeclarativeDomObject::properties(void) const
	??0QDeclarativeExpression@@QAE@PAVQDeclarativeContext@@PAVQObject@@ABVQString@@1@Z @ 1337 NONAME ; QDeclarativeExpression::QDeclarativeExpression(class QDeclarativeContext *, class QObject *, class QString const &, class QObject *)
	?tr@QDeclarativeTransition@@SA?AVQString@@PBD0H@Z @ 1338 NONAME ; class QString QDeclarativeTransition::tr(char const *, char const *, int)
	?dateTimeFromString@QDeclarativeStringConverters@@YA?AVQDateTime@@ABVQString@@PA_N@Z @ 1339 NONAME ABSENT ; class QDateTime QDeclarativeStringConverters::dateTimeFromString(class QString const &, bool *)
	?implicitWidth@QDeclarativeItem@@QBEMXZ @ 1340 NONAME ; float QDeclarativeItem::implicitWidth(void) const
	?metaObject@QDeclarativeContext@@UBEPBUQMetaObject@@XZ @ 1341 NONAME ; struct QMetaObject const * QDeclarativeContext::metaObject(void) const
	??0QDeclarativeContext@@AAE@PAVQDeclarativeContextData@@@Z @ 1342 NONAME ; QDeclarativeContext::QDeclarativeContext(class QDeclarativeContextData *)
	?maximumPacketSize@QPacketProtocol@@QBEHXZ @ 1343 NONAME ; int QPacketProtocol::maximumPacketSize(void) const
	??_EQDeclarativeDebuggerStatus@@UAE@I@Z @ 1344 NONAME ABSENT ; QDeclarativeDebuggerStatus::~QDeclarativeDebuggerStatus(unsigned int)
	?error@QDeclarativeCustomParser@@IAEXABVQString@@@Z @ 1345 NONAME ; void QDeclarativeCustomParser::error(class QString const &)
	?messageReceived@QDeclarativeDebugService@@MAEXABVQByteArray@@@Z @ 1346 NONAME ; void QDeclarativeDebugService::messageReceived(class QByteArray const &)
	??0QDeclarativeParserStatus@@QAE@XZ @ 1347 NONAME ; QDeclarativeParserStatus::QDeclarativeParserStatus(void)
	?isNumber@Variant@QDeclarativeParser@@QBE_NXZ @ 1348 NONAME ; bool QDeclarativeParser::Variant::isNumber(void) const
	?getStaticMetaObject@QDeclarativeEngineDebug@@SAABUQMetaObject@@XZ @ 1349 NONAME ABSENT ; struct QMetaObject const & QDeclarativeEngineDebug::getStaticMetaObject(void)
	??_EQDeclarativeEngine@@UAE@I@Z @ 1350 NONAME ; QDeclarativeEngine::~QDeclarativeEngine(unsigned int)
	?isNull@QDeclarativePixmap@@QBE_NXZ @ 1351 NONAME ; bool QDeclarativePixmap::isNull(void) const
	??1QDeclarativeCustomParserNode@@QAE@XZ @ 1352 NONAME ; QDeclarativeCustomParserNode::~QDeclarativeCustomParserNode(void)
	??1QDeclarativeAction@@QAE@XZ @ 1353 NONAME ABSENT ; QDeclarativeAction::~QDeclarativeAction(void)
	?resourcesLoading@QDeclarativeText@@QBEHXZ @ 1354 NONAME ABSENT ; int QDeclarativeText::resourcesLoading(void) const
	?isBoolean@Variant@QDeclarativeParser@@QBE_NXZ @ 1355 NONAME ; bool QDeclarativeParser::Variant::isBoolean(void) const
	??0QDeclarativeAction@@QAE@XZ @ 1356 NONAME ABSENT ; QDeclarativeAction::QDeclarativeAction(void)
	?signalOffset@QDeclarativeOpenMetaObjectType@@QBEHXZ @ 1357 NONAME ABSENT ; int QDeclarativeOpenMetaObjectType::signalOffset(void) const
	?index@QMetaEnumBuilder@@QBEHXZ @ 1358 NONAME ABSENT ; int QMetaEnumBuilder::index(void) const
	?setResettable@QMetaPropertyBuilder@@QAEX_N@Z @ 1359 NONAME ABSENT ; void QMetaPropertyBuilder::setResettable(bool)
	??0QDeclarativeError@@QAE@ABV0@@Z @ 1360 NONAME ; QDeclarativeError::QDeclarativeError(class QDeclarativeError const &)
	?classInfoCount@QMetaObjectBuilder@@QBEHXZ @ 1361 NONAME ABSENT ; int QMetaObjectBuilder::classInfoCount(void) const
	?isObject@QDeclarativeDomValue@@QBE_NXZ @ 1362 NONAME ABSENT ; bool QDeclarativeDomValue::isObject(void) const
	?left@QDeclarativeScaleGrid@@QBEHXZ @ 1363 NONAME ABSENT ; int QDeclarativeScaleGrid::left(void) const
	?qt_metacast@QDeclarativeDebugEnginesQuery@@UAEPAXPBD@Z @ 1364 NONAME ABSENT ; void * QDeclarativeDebugEnginesQuery::qt_metacast(char const *)
	?d_func@QDeclarativeView@@AAEPAVQDeclarativeViewPrivate@@XZ @ 1365 NONAME ; class QDeclarativeViewPrivate * QDeclarativeView::d_func(void)
	?addWatch@QDeclarativeEngineDebug@@QAEPAVQDeclarativeDebugPropertyWatch@@ABVQDeclarativeDebugPropertyReference@@PAVQObject@@@Z @ 1366 NONAME ABSENT ; class QDeclarativeDebugPropertyWatch * QDeclarativeEngineDebug::addWatch(class QDeclarativeDebugPropertyReference const &, class QObject *)
	?stateChanged@QDeclarativeStateGroup@@IAEXABVQString@@@Z @ 1367 NONAME ; void QDeclarativeStateGroup::stateChanged(class QString const &)
	??0QDeclarativeDomValueValueSource@@QAE@XZ @ 1368 NONAME ABSENT ; QDeclarativeDomValueValueSource::QDeclarativeDomValueValueSource(void)
	?customStringConverter@QDeclarativeMetaType@@SAP6A?AVQVariant@@ABVQString@@@ZH@Z @ 1369 NONAME ABSENT ; class QVariant (*)(class QString const &) QDeclarativeMetaType::customStringConverter(int)
	?baselineOffsetChanged@QDeclarativeAnchors@@IAEXXZ @ 1370 NONAME ABSENT ; void QDeclarativeAnchors::baselineOffsetChanged(void)
	?tr@QDeclarativeView@@SA?AVQString@@PBD0H@Z @ 1371 NONAME ; class QString QDeclarativeView::tr(char const *, char const *, int)
	??4QDeclarativeDebugFileReference@@QAEAAV0@ABV0@@Z @ 1372 NONAME ABSENT ; class QDeclarativeDebugFileReference & QDeclarativeDebugFileReference::operator=(class QDeclarativeDebugFileReference const &)
	?eventFilter@QDeclarativeView@@MAE_NPAVQObject@@PAVQEvent@@@Z @ 1373 NONAME ; bool QDeclarativeView::eventFilter(class QObject *, class QEvent *)
	??1QDeclarativeView@@UAE@XZ @ 1374 NONAME ; QDeclarativeView::~QDeclarativeView(void)
	?verticalCenter@QDeclarativeAnchors@@QBE?AVQDeclarativeAnchorLine@@XZ @ 1375 NONAME ABSENT ; class QDeclarativeAnchorLine QDeclarativeAnchors::verticalCenter(void) const
	?setIsFlag@QMetaEnumBuilder@@QAEX_N@Z @ 1376 NONAME ABSENT ; void QMetaEnumBuilder::setIsFlag(bool)
	?trUtf8@QDeclarativeDebugConnection@@SA?AVQString@@PBD0H@Z @ 1377 NONAME ABSENT ; class QString QDeclarativeDebugConnection::trUtf8(char const *, char const *, int)
	?majorVersion@QDeclarativeType@@QBEHXZ @ 1378 NONAME ABSENT ; int QDeclarativeType::majorVersion(void) const
	?trUtf8@QDeclarativeDebugObjectExpressionWatch@@SA?AVQString@@PBD0@Z @ 1379 NONAME ABSENT ; class QString QDeclarativeDebugObjectExpressionWatch::trUtf8(char const *, char const *)
	?baseUrl@QDeclarativeEngine@@QBE?AVQUrl@@XZ @ 1380 NONAME ; class QUrl QDeclarativeEngine::baseUrl(void) const
	??6QDeclarativeInfo@@QAEAAV0@PBX@Z @ 1381 NONAME ; class QDeclarativeInfo & QDeclarativeInfo::operator<<(void const *)
	?setTop@QDeclarativeAnchors@@QAEXABVQDeclarativeAnchorLine@@@Z @ 1382 NONAME ABSENT ; void QDeclarativeAnchors::setTop(class QDeclarativeAnchorLine const &)
	?setEnabled@QDeclarativeBinding@@UAEX_NV?$QFlags@W4WriteFlag@QDeclarativePropertyPrivate@@@@@Z @ 1383 NONAME ABSENT ; void QDeclarativeBinding::setEnabled(bool, class QFlags<enum QDeclarativePropertyPrivate::WriteFlag>)
	??_EQDeclarativeNetworkAccessManagerFactory@@UAE@I@Z @ 1384 NONAME ; QDeclarativeNetworkAccessManagerFactory::~QDeclarativeNetworkAccessManagerFactory(unsigned int)
	?qmlTypes@QDeclarativeMetaType@@SA?AV?$QList@PAVQDeclarativeType@@@@XZ @ 1385 NONAME ABSENT ; class QList<class QDeclarativeType *> QDeclarativeMetaType::qmlTypes(void)
	?valueTypeCoreIndex@QDeclarativePropertyPrivate@@SAHABVQDeclarativeProperty@@@Z @ 1386 NONAME ABSENT ; int QDeclarativePropertyPrivate::valueTypeCoreIndex(class QDeclarativeProperty const &)
	?writeEnumProperty@QDeclarativePropertyPrivate@@SA_NABVQMetaProperty@@HPAVQObject@@ABVQVariant@@H@Z @ 1387 NONAME ABSENT ; bool QDeclarativePropertyPrivate::writeEnumProperty(class QMetaProperty const &, int, class QObject *, class QVariant const &, int)
	?setEnabled@QDeclarativeDebugClient@@QAEX_N@Z @ 1388 NONAME ABSENT ; void QDeclarativeDebugClient::setEnabled(bool)
	??1QMetaObjectBuilder@@UAE@XZ @ 1389 NONAME ABSENT ; QMetaObjectBuilder::~QMetaObjectBuilder(void)
	?tr@QDeclarativeStateOperation@@SA?AVQString@@PBD0@Z @ 1390 NONAME ; class QString QDeclarativeStateOperation::tr(char const *, char const *)
	?clear@QPacket@@QAEXXZ @ 1391 NONAME ; void QPacket::clear(void)
	?getStaticMetaObject@QDeclarativeDebugClient@@SAABUQMetaObject@@XZ @ 1392 NONAME ABSENT ; struct QMetaObject const & QDeclarativeDebugClient::getStaticMetaObject(void)
	??0QDeclarativeDomList@@QAE@ABV0@@Z @ 1393 NONAME ABSENT ; QDeclarativeDomList::QDeclarativeDomList(class QDeclarativeDomList const &)
	?gridTop@QDeclarativeGridScaledImage@@QBEHXZ @ 1394 NONAME ABSENT ; int QDeclarativeGridScaledImage::gridTop(void) const
	?setUrl@QDeclarativeError@@QAEXABVQUrl@@@Z @ 1395 NONAME ; void QDeclarativeError::setUrl(class QUrl const &)
	?setMaximumPacketSize@QPacketProtocol@@QAEHH@Z @ 1396 NONAME ; int QPacketProtocol::setMaximumPacketSize(int)
	??_EQDeclarativeAction@@QAE@I@Z @ 1397 NONAME ABSENT ; QDeclarativeAction::~QDeclarativeAction(unsigned int)
	?trUtf8@QDeclarativeDebugWatch@@SA?AVQString@@PBD0@Z @ 1398 NONAME ABSENT ; class QString QDeclarativeDebugWatch::trUtf8(char const *, char const *)
	?read@QDeclarativeProperty@@SA?AVQVariant@@PAVQObject@@ABVQString@@@Z @ 1399 NONAME ; class QVariant QDeclarativeProperty::read(class QObject *, class QString const &)
	?widthValid@QDeclarativeItem@@IBE_NXZ @ 1400 NONAME ; bool QDeclarativeItem::widthValid(void) const
	?staticMetaObject@QDeclarativeState@@2UQMetaObject@@B @ 1401 NONAME ; struct QMetaObject const QDeclarativeState::staticMetaObject
	?setAccess@QMetaMethodBuilder@@QAEXW4Access@QMetaMethod@@@Z @ 1402 NONAME ABSENT ; void QMetaMethodBuilder::setAccess(enum QMetaMethod::Access)
	??0QDeclarativeAction@@QAE@PAVQObject@@ABVQString@@PAVQDeclarativeContext@@ABVQVariant@@@Z @ 1403 NONAME ABSENT ; QDeclarativeAction::QDeclarativeAction(class QObject *, class QString const &, class QDeclarativeContext *, class QVariant const &)
	?staticMetaObject@QDeclarativeDebugClient@@2UQMetaObject@@B @ 1404 NONAME ABSENT ; struct QMetaObject const QDeclarativeDebugClient::staticMetaObject
	?trUtf8@QDeclarativeDebugEnginesQuery@@SA?AVQString@@PBD0@Z @ 1405 NONAME ABSENT ; class QString QDeclarativeDebugEnginesQuery::trUtf8(char const *, char const *)
	?d_func@QDeclarativeExpression@@ABEPBVQDeclarativeExpressionPrivate@@XZ @ 1406 NONAME ; class QDeclarativeExpressionPrivate const * QDeclarativeExpression::d_func(void) const
	??1QDeclarativeValueType@@UAE@XZ @ 1407 NONAME ABSENT ; QDeclarativeValueType::~QDeclarativeValueType(void)
	?setBaseUrl@QDeclarativeContext@@QAEXABVQUrl@@@Z @ 1408 NONAME ; void QDeclarativeContext::setBaseUrl(class QUrl const &)
	??_EQDeclarativeAbstractBinding@@UAE@I@Z @ 1409 NONAME ABSENT ; QDeclarativeAbstractBinding::~QDeclarativeAbstractBinding(unsigned int)
	?queryExpressionResult@QDeclarativeEngineDebug@@QAEPAVQDeclarativeDebugExpressionQuery@@HABVQString@@PAVQObject@@@Z @ 1410 NONAME ABSENT ; class QDeclarativeDebugExpressionQuery * QDeclarativeEngineDebug::queryExpressionResult(int, class QString const &, class QObject *)
	?indexOfMethod@QMetaObjectBuilder@@QAEHABVQByteArray@@@Z @ 1411 NONAME ABSENT ; int QMetaObjectBuilder::indexOfMethod(class QByteArray const &)
	?setCached@QDeclarativeOpenMetaObject@@QAEX_N@Z @ 1412 NONAME ABSENT ; void QDeclarativeOpenMetaObject::setCached(bool)
	?length@QDeclarativeDomList@@QBEHXZ @ 1413 NONAME ABSENT ; int QDeclarativeDomList::length(void) const
	?horizontalTileRule@QDeclarativeGridScaledImage@@QBE?AW4TileMode@QDeclarativeBorderImage@@XZ @ 1414 NONAME ABSENT ; enum QDeclarativeBorderImage::TileMode QDeclarativeGridScaledImage::horizontalTileRule(void) const
	??0QDeclarativeCustomParserProperty@@QAE@XZ @ 1415 NONAME ; QDeclarativeCustomParserProperty::QDeclarativeCustomParserProperty(void)
	??1QDeclarativeEngineDebug@@UAE@XZ @ 1416 NONAME ABSENT ; QDeclarativeEngineDebug::~QDeclarativeEngineDebug(void)
	?qt_metacall@QDeclarativeEngineDebug@@UAEHW4Call@QMetaObject@@HPAPAX@Z @ 1417 NONAME ABSENT ; int QDeclarativeEngineDebug::qt_metacall(enum QMetaObject::Call, int, void * *)
	?q_func@QDeclarativeItemPrivate@@ABEPBVQDeclarativeItem@@XZ @ 1418 NONAME ; class QDeclarativeItem const * QDeclarativeItemPrivate::q_func(void) const
	?customParser@QDeclarativeType@@QBEPAVQDeclarativeCustomParser@@XZ @ 1419 NONAME ABSENT ; class QDeclarativeCustomParser * QDeclarativeType::customParser(void) const
	?setSourceLocation@QDeclarativeExpression@@QAEXABVQString@@H@Z @ 1420 NONAME ; void QDeclarativeExpression::setSourceLocation(class QString const &, int)
	?equal@QDeclarativePropertyPrivate@@SA_NPBUQMetaObject@@0@Z @ 1421 NONAME ABSENT ; bool QDeclarativePropertyPrivate::equal(struct QMetaObject const *, struct QMetaObject const *)
	??_EQDeclarativeExtensionPlugin@@UAE@I@Z @ 1422 NONAME ; QDeclarativeExtensionPlugin::~QDeclarativeExtensionPlugin(unsigned int)
	?write@QDeclarativePropertyPrivate@@SA_NPAVQObject@@ABUData@QDeclarativePropertyCache@@ABVQVariant@@PAVQDeclarativeContextData@@V?$QFlags@W4WriteFlag@QDeclarativePropertyPrivate@@@@@Z @ 1423 NONAME ABSENT ; bool QDeclarativePropertyPrivate::write(class QObject *, struct QDeclarativePropertyCache::Data const &, class QVariant const &, class QDeclarativeContextData *, class QFlags<enum QDeclarativePropertyPrivate::WriteFlag>)
	?debugId@QDeclarativeDebugEngineReference@@QBEHXZ @ 1424 NONAME ABSENT ; int QDeclarativeDebugEngineReference::debugId(void) const
	?metaObject@QDeclarativeDebugEnginesQuery@@UBEPBUQMetaObject@@XZ @ 1425 NONAME ABSENT ; struct QMetaObject const * QDeclarativeDebugEnginesQuery::metaObject(void) const
	??_EQDeclarativeScaleGrid@@UAE@I@Z @ 1426 NONAME ABSENT ; QDeclarativeScaleGrid::~QDeclarativeScaleGrid(unsigned int)
	??1QDeclarativeDebugPropertyReference@@QAE@XZ @ 1427 NONAME ABSENT ; QDeclarativeDebugPropertyReference::~QDeclarativeDebugPropertyReference(void)
	?componentComplete@QDeclarativeAnchors@@QAEXXZ @ 1428 NONAME ABSENT ; void QDeclarativeAnchors::componentComplete(void)
	??1QDeclarativeDomObject@@QAE@XZ @ 1429 NONAME ABSENT ; QDeclarativeDomObject::~QDeclarativeDomObject(void)
	?expression@QDeclarativeDebugObjectExpressionWatch@@QBE?AVQString@@XZ @ 1430 NONAME ABSENT ; class QString QDeclarativeDebugObjectExpressionWatch::expression(void) const
	?metaObject@QListModelInterface@@UBEPBUQMetaObject@@XZ @ 1431 NONAME ABSENT ; struct QMetaObject const * QListModelInterface::metaObject(void) const
	?key@QMetaEnumBuilder@@QBE?AVQByteArray@@H@Z @ 1432 NONAME ABSENT ; class QByteArray QMetaEnumBuilder::key(int) const
	?d_func@QMetaEnumBuilder@@ABEPAVQMetaEnumBuilderPrivate@@XZ @ 1433 NONAME ABSENT ; class QMetaEnumBuilderPrivate * QMetaEnumBuilder::d_func(void) const
	??6QDeclarativeInfo@@QAEAAV0@PBD@Z @ 1434 NONAME ; class QDeclarativeInfo & QDeclarativeInfo::operator<<(char const *)
	?d_func@QDeclarativeState@@AAEPAVQDeclarativeStatePrivate@@XZ @ 1435 NONAME ; class QDeclarativeStatePrivate * QDeclarativeState::d_func(void)
	??0QDeclarativeDebugEnginesQuery@@AAE@PAVQObject@@@Z @ 1436 NONAME ABSENT ; QDeclarativeDebugEnginesQuery::QDeclarativeDebugEnginesQuery(class QObject *)
	?bottomChanged@QDeclarativeAnchors@@IAEXXZ @ 1437 NONAME ABSENT ; void QDeclarativeAnchors::bottomChanged(void)
	?qListTypeId@QDeclarativeType@@QBEHXZ @ 1438 NONAME ABSENT ; int QDeclarativeType::qListTypeId(void) const
	?setSelectedState@QDeclarativeDebuggerStatus@@UAEX_N@Z @ 1439 NONAME ABSENT ; void QDeclarativeDebuggerStatus::setSelectedState(bool)
	?staticMetaObject@QDeclarativeEngineDebug@@2UQMetaObject@@B @ 1440 NONAME ABSENT ; struct QMetaObject const QDeclarativeEngineDebug::staticMetaObject
	?setExtends@QDeclarativeState@@QAEXABVQString@@@Z @ 1441 NONAME ; void QDeclarativeState::setExtends(class QString const &)
	??4QDeclarativeError@@QAEAAV0@ABV0@@Z @ 1442 NONAME ; class QDeclarativeError & QDeclarativeError::operator=(class QDeclarativeError const &)
	?tr@QDeclarativeDebugEnginesQuery@@SA?AVQString@@PBD0H@Z @ 1443 NONAME ABSENT ; class QString QDeclarativeDebugEnginesQuery::tr(char const *, char const *, int)
	?d_func@QDeclarativeTransition@@AAEPAVQDeclarativeTransitionPrivate@@XZ @ 1444 NONAME ; class QDeclarativeTransitionPrivate * QDeclarativeTransition::d_func(void)
	?propertyWritten@QDeclarativeOpenMetaObject@@MAEXH@Z @ 1445 NONAME ABSENT ; void QDeclarativeOpenMetaObject::propertyWritten(int)
	?trUtf8@QListModelInterface@@SA?AVQString@@PBD0@Z @ 1446 NONAME ABSENT ; class QString QListModelInterface::trUtf8(char const *, char const *)
	?setColumnNumber@QDeclarativeDebugFileReference@@QAEXH@Z @ 1447 NONAME ABSENT ; void QDeclarativeDebugFileReference::setColumnNumber(int)
	?drawRect@QDeclarativeRectangle@@AAEXAAVQPainter@@@Z @ 1448 NONAME ABSENT ; void QDeclarativeRectangle::drawRect(class QPainter &)
	?read@QDeclarativeProperty@@QBE?AVQVariant@@XZ @ 1449 NONAME ; class QVariant QDeclarativeProperty::read(void) const
	?isEmpty@QDeclarativePropertyMap@@QBE_NXZ @ 1450 NONAME ; bool QDeclarativePropertyMap::isEmpty(void) const
	??6@YAAAVQDataStream@@AAV0@ABUQDeclarativeObjectData@QDeclarativeEngineDebugServer@@@Z @ 1451 NONAME ABSENT ; class QDataStream & operator<<(class QDataStream &, struct QDeclarativeEngineDebugServer::QDeclarativeObjectData const &)
	?trUtf8@QDeclarativeDebugObjectQuery@@SA?AVQString@@PBD0H@Z @ 1452 NONAME ABSENT ; class QString QDeclarativeDebugObjectQuery::trUtf8(char const *, char const *, int)
	??0QDeclarativeBinding@@QAE@ABVQString@@PAVQObject@@PAVQDeclarativeContext@@1@Z @ 1453 NONAME ABSENT ; QDeclarativeBinding::QDeclarativeBinding(class QString const &, class QObject *, class QDeclarativeContext *, class QObject *)
	?tr@QDeclarativeItem@@SA?AVQString@@PBD0@Z @ 1454 NONAME ; class QString QDeclarativeItem::tr(char const *, char const *)
	??6QDeclarativeInfo@@QAEAAV0@G@Z @ 1455 NONAME ; class QDeclarativeInfo & QDeclarativeInfo::operator<<(unsigned short)
	??0QDeclarativeStateOperation@@IAE@AAVQObjectPrivate@@PAVQObject@@@Z @ 1456 NONAME ; QDeclarativeStateOperation::QDeclarativeStateOperation(class QObjectPrivate &, class QObject *)
	?notifyOnValueChanged@QDeclarativeExpression@@QBE_NXZ @ 1457 NONAME ; bool QDeclarativeExpression::notifyOnValueChanged(void) const
	?keyPressPreHandler@QDeclarativeItem@@IAEXPAVQKeyEvent@@@Z @ 1458 NONAME ; void QDeclarativeItem::keyPressPreHandler(class QKeyEvent *)
	?trUtf8@QDeclarativeItem@@SA?AVQString@@PBD0H@Z @ 1459 NONAME ; class QString QDeclarativeItem::trUtf8(char const *, char const *, int)
	?addWatch@QDeclarativeEngineDebug@@QAEPAVQDeclarativeDebugWatch@@ABVQDeclarativeDebugFileReference@@PAVQObject@@@Z @ 1460 NONAME ABSENT ; class QDeclarativeDebugWatch * QDeclarativeEngineDebug::addWatch(class QDeclarativeDebugFileReference const &, class QObject *)
	?paintedHeight@QDeclarativeText@@QBEMXZ @ 1461 NONAME ABSENT ; float QDeclarativeText::paintedHeight(void) const
	?tr@QDeclarativeTransition@@SA?AVQString@@PBD0@Z @ 1462 NONAME ; class QString QDeclarativeTransition::tr(char const *, char const *)
	?transform@QDeclarativeItem@@QAE?AV?$QDeclarativeListProperty@VQGraphicsTransform@@@@XZ @ 1463 NONAME ; class QDeclarativeListProperty<class QGraphicsTransform> QDeclarativeItem::transform(void)
	?leftChanged@QDeclarativeAnchors@@IAEXXZ @ 1464 NONAME ABSENT ; void QDeclarativeAnchors::leftChanged(void)
	?topChanged@QDeclarativeAnchors@@IAEXXZ @ 1465 NONAME ABSENT ; void QDeclarativeAnchors::topChanged(void)
	??0QMetaObjectBuilder@@QAE@XZ @ 1466 NONAME ABSENT ; QMetaObjectBuilder::QMetaObjectBuilder(void)
	?asBoolean@Variant@QDeclarativeParser@@QBE_NXZ @ 1467 NONAME ; bool QDeclarativeParser::Variant::asBoolean(void) const
	?removeEnumerator@QMetaObjectBuilder@@QAEXH@Z @ 1468 NONAME ABSENT ; void QMetaObjectBuilder::removeEnumerator(int)
	?url@QDeclarativeDomObject@@QBE?AVQUrl@@XZ @ 1469 NONAME ABSENT ; class QUrl QDeclarativeDomObject::url(void) const
	?getStaticMetaObject@QDeclarativeScaleGrid@@SAABUQMetaObject@@XZ @ 1470 NONAME ABSENT ; struct QMetaObject const & QDeclarativeScaleGrid::getStaticMetaObject(void)
	?signalExpression@QDeclarativePropertyPrivate@@SAPAVQDeclarativeExpression@@ABVQDeclarativeProperty@@@Z @ 1471 NONAME ABSENT ; class QDeclarativeExpression * QDeclarativePropertyPrivate::signalExpression(class QDeclarativeProperty const &)
	?networkAccessManagerFactory@QDeclarativeEngine@@QBEPAVQDeclarativeNetworkAccessManagerFactory@@XZ @ 1472 NONAME ; class QDeclarativeNetworkAccessManagerFactory * QDeclarativeEngine::networkAccessManagerFactory(void) const
	?isStringList@Variant@QDeclarativeParser@@QBE_NXZ @ 1473 NONAME ; bool QDeclarativeParser::Variant::isStringList(void) const
	?packetWritten@QPacketProtocol@@IAEXXZ @ 1474 NONAME ; void QPacketProtocol::packetWritten(void)
	?getStaticMetaObject@QDeclarativeDebugObjectQuery@@SAABUQMetaObject@@XZ @ 1475 NONAME ABSENT ; struct QMetaObject const & QDeclarativeDebugObjectQuery::getStaticMetaObject(void)
	?isSignalProperty@QDeclarativeProperty@@QBE_NXZ @ 1476 NONAME ; bool QDeclarativeProperty::isSignalProperty(void) const
	?d_func@QDeclarativeDebugService@@AAEPAVQDeclarativeDebugServicePrivate@@XZ @ 1477 NONAME ; class QDeclarativeDebugServicePrivate * QDeclarativeDebugService::d_func(void)
	?qmlTypeNames@QDeclarativeMetaType@@SA?AV?$QList@VQByteArray@@@@XZ @ 1478 NONAME ABSENT ; class QList<class QByteArray> QDeclarativeMetaType::qmlTypeNames(void)
	?componentComplete@QDeclarativeItem@@MAEXXZ @ 1479 NONAME ; void QDeclarativeItem::componentComplete(void)
	?creationContext@QDeclarativeComponent@@QBEPAVQDeclarativeContext@@XZ @ 1480 NONAME ; class QDeclarativeContext * QDeclarativeComponent::creationContext(void) const
	?enabledChanged@QDeclarativeBehavior@@IAEXXZ @ 1481 NONAME ABSENT ; void QDeclarativeBehavior::enabledChanged(void)
	?staticMetaObject@QDeclarativeTransition@@2UQMetaObject@@B @ 1482 NONAME ; struct QMetaObject const QDeclarativeTransition::staticMetaObject
	??0QDeclarativeInfo@@AAE@PAVQDeclarativeInfoPrivate@@@Z @ 1483 NONAME ; QDeclarativeInfo::QDeclarativeInfo(class QDeclarativeInfoPrivate *)
	?name@QDeclarativeDebugContextReference@@QBE?AVQString@@XZ @ 1484 NONAME ABSENT ; class QString QDeclarativeDebugContextReference::name(void) const
	?propertyIndex@QDeclarativeBinding@@UAEHXZ @ 1485 NONAME ABSENT ; int QDeclarativeBinding::propertyIndex(void)
	?tr@QDeclarativeDebugWatch@@SA?AVQString@@PBD0H@Z @ 1486 NONAME ABSENT ; class QString QDeclarativeDebugWatch::tr(char const *, char const *, int)
	?qt_metacast@QDeclarativePropertyMap@@UAEPAXPBD@Z @ 1487 NONAME ; void * QDeclarativePropertyMap::qt_metacast(char const *)
	?classBegin@QDeclarativeAnchors@@QAEXXZ @ 1488 NONAME ABSENT ; void QDeclarativeAnchors::classBegin(void)
	?color@QDeclarativeText@@QBE?AVQColor@@XZ @ 1489 NONAME ABSENT ; class QColor QDeclarativeText::color(void) const
	?metaObject@QPacketProtocol@@UBEPBUQMetaObject@@XZ @ 1490 NONAME ; struct QMetaObject const * QPacketProtocol::metaObject(void) const
	??4QDeclarativeGridScaledImage@@QAEAAV0@ABV0@@Z @ 1491 NONAME ABSENT ; class QDeclarativeGridScaledImage & QDeclarativeGridScaledImage::operator=(class QDeclarativeGridScaledImage const &)
	?tr@QDeclarativeScaleGrid@@SA?AVQString@@PBD0@Z @ 1492 NONAME ABSENT ; class QString QDeclarativeScaleGrid::tr(char const *, char const *)
	??1QDeclarativeScriptString@@QAE@XZ @ 1493 NONAME ; QDeclarativeScriptString::~QDeclarativeScriptString(void)
	??1QDeclarativePropertyValueSource@@UAE@XZ @ 1494 NONAME ; QDeclarativePropertyValueSource::~QDeclarativePropertyValueSource(void)
	?position@QDeclarativeDomList@@QBEHXZ @ 1495 NONAME ABSENT ; int QDeclarativeDomList::position(void) const
	?toQObject@QDeclarativeMetaType@@SAPAVQObject@@ABVQVariant@@PA_N@Z @ 1496 NONAME ABSENT ; class QObject * QDeclarativeMetaType::toQObject(class QVariant const &, bool *)
	??_EQDeclarativeItem@@UAE@I@Z @ 1497 NONAME ; QDeclarativeItem::~QDeclarativeItem(unsigned int)
	?getStaticMetaObject@QDeclarativeContext@@SAABUQMetaObject@@XZ @ 1498 NONAME ; struct QMetaObject const & QDeclarativeContext::getStaticMetaObject(void)
	?metaObject@QDeclarativeListModel@@UBEPBUQMetaObject@@XZ @ 1499 NONAME ABSENT ; struct QMetaObject const * QDeclarativeListModel::metaObject(void) const
	?transformChanged@QDeclarativeItemPrivate@@UAEXXZ @ 1500 NONAME ; void QDeclarativeItemPrivate::transformChanged(void)
	?remove@QDeclarativeListModel@@QAEXH@Z @ 1501 NONAME ABSENT ; void QDeclarativeListModel::remove(int)
	?setResizeMode@QDeclarativeView@@QAEXW4ResizeMode@1@@Z @ 1502 NONAME ; void QDeclarativeView::setResizeMode(enum QDeclarativeView::ResizeMode)
	?left@QDeclarativeAnchors@@QBE?AVQDeclarativeAnchorLine@@XZ @ 1503 NONAME ABSENT ; class QDeclarativeAnchorLine QDeclarativeAnchors::left(void) const
	?flags@QMetaObjectBuilder@@QBE?AV?$QFlags@W4MetaObjectFlag@QMetaObjectBuilder@@@@XZ @ 1504 NONAME ABSENT ; class QFlags<enum QMetaObjectBuilder::MetaObjectFlag> QMetaObjectBuilder::flags(void) const
	??0QDeclarativeItem@@IAE@AAVQDeclarativeItemPrivate@@PAV0@@Z @ 1505 NONAME ; QDeclarativeItem::QDeclarativeItem(class QDeclarativeItemPrivate &, class QDeclarativeItem *)
	??0QDeclarativeContext@@QAE@PAV0@PAVQObject@@@Z @ 1506 NONAME ; QDeclarativeContext::QDeclarativeContext(class QDeclarativeContext *, class QObject *)
	?trUtf8@QDeclarativeDebugConnection@@SA?AVQString@@PBD0@Z @ 1507 NONAME ABSENT ; class QString QDeclarativeDebugConnection::trUtf8(char const *, char const *)
	??1QDeclarativeDebugEnginesQuery@@UAE@XZ @ 1508 NONAME ABSENT ; QDeclarativeDebugEnginesQuery::~QDeclarativeDebugEnginesQuery(void)
	?getStaticMetaObject@QDeclarativeTransition@@SAABUQMetaObject@@XZ @ 1509 NONAME ; struct QMetaObject const & QDeclarativeTransition::getStaticMetaObject(void)
	?trUtf8@QDeclarativeDebugObjectExpressionWatch@@SA?AVQString@@PBD0H@Z @ 1510 NONAME ABSENT ; class QString QDeclarativeDebugObjectExpressionWatch::trUtf8(char const *, char const *, int)
	?metaObject@QDeclarativePropertyMap@@UBEPBUQMetaObject@@XZ @ 1511 NONAME ; struct QMetaObject const * QDeclarativePropertyMap::metaObject(void) const
	?componentRoot@QDeclarativeDomComponent@@QBE?AVQDeclarativeDomObject@@XZ @ 1512 NONAME ABSENT ; class QDeclarativeDomObject QDeclarativeDomComponent::componentRoot(void) const
	?metaObject@QDeclarativeDebugConnection@@UBEPBUQMetaObject@@XZ @ 1513 NONAME ABSENT ; struct QMetaObject const * QDeclarativeDebugConnection::metaObject(void) const
	?setTag@QMetaMethodBuilder@@QAEXABVQByteArray@@@Z @ 1514 NONAME ABSENT ; void QMetaMethodBuilder::setTag(class QByteArray const &)
	?objects@QDeclarativeDebugContextReference@@QBE?AV?$QList@VQDeclarativeDebugObjectReference@@@@XZ @ 1515 NONAME ABSENT ; class QList<class QDeclarativeDebugObjectReference> QDeclarativeDebugContextReference::objects(void) const
	??4Variant@QDeclarativeParser@@QAEAAV01@ABV01@@Z @ 1516 NONAME ; class QDeclarativeParser::Variant & QDeclarativeParser::Variant::operator=(class QDeclarativeParser::Variant const &)
	?tr@QDeclarativeStateGroup@@SA?AVQString@@PBD0@Z @ 1517 NONAME ; class QString QDeclarativeStateGroup::tr(char const *, char const *)
	?setScopeObject@QDeclarativeScriptString@@QAEXPAVQObject@@@Z @ 1518 NONAME ; void QDeclarativeScriptString::setScopeObject(class QObject *)
	??1QDeclarativeBinding@@MAE@XZ @ 1519 NONAME ABSENT ; QDeclarativeBinding::~QDeclarativeBinding(void)
	?importPlugin@QDeclarativeEngine@@QAE_NABVQString@@0PAV2@@Z @ 1520 NONAME ; bool QDeclarativeEngine::importPlugin(class QString const &, class QString const &, class QString *)
	?setBottomMargin@QDeclarativeAnchors@@QAEXM@Z @ 1521 NONAME ABSENT ; void QDeclarativeAnchors::setBottomMargin(float)
	?geometryChanged@QDeclarativeItem@@MAEXABVQRectF@@0@Z @ 1522 NONAME ; void QDeclarativeItem::geometryChanged(class QRectF const &, class QRectF const &)
	?toValueSource@QDeclarativeDomValue@@QBE?AVQDeclarativeDomValueValueSource@@XZ @ 1523 NONAME ABSENT ; class QDeclarativeDomValueValueSource QDeclarativeDomValue::toValueSource(void) const
	?hAlign@QDeclarativeText@@QBE?AW4HAlignment@1@XZ @ 1524 NONAME ABSENT ; enum QDeclarativeText::HAlignment QDeclarativeText::hAlign(void) const
	?when@QDeclarativeState@@QBEPAVQDeclarativeBinding@@XZ @ 1525 NONAME ; class QDeclarativeBinding * QDeclarativeState::when(void) const
	?setRootObject@QDeclarativeView@@MAEXPAVQObject@@@Z @ 1526 NONAME ; void QDeclarativeView::setRootObject(class QObject *)
	?resetBottom@QDeclarativeAnchors@@QAEXXZ @ 1527 NONAME ABSENT ; void QDeclarativeAnchors::resetBottom(void)
	?qt_metacall@QDeclarativePropertyMap@@UAEHW4Call@QMetaObject@@HPAPAX@Z @ 1528 NONAME ; int QDeclarativePropertyMap::qt_metacall(enum QMetaObject::Call, int, void * *)
	??0QDeclarativeDebugEngineReference@@QAE@ABV0@@Z @ 1529 NONAME ABSENT ; QDeclarativeDebugEngineReference::QDeclarativeDebugEngineReference(class QDeclarativeDebugEngineReference const &)
	?objectDebugId@QDeclarativeDebugPropertyReference@@QBEHXZ @ 1530 NONAME ABSENT ; int QDeclarativeDebugPropertyReference::objectDebugId(void) const
	?trUtf8@QDeclarativeDebugQuery@@SA?AVQString@@PBD0@Z @ 1531 NONAME ABSENT ; class QString QDeclarativeDebugQuery::trUtf8(char const *, char const *)
	??AQDeclarativeValueTypeFactory@@QBEPAVQDeclarativeValueType@@H@Z @ 1532 NONAME ABSENT ; class QDeclarativeValueType * QDeclarativeValueTypeFactory::operator[](int) const
	?siblingOrderChange@QDeclarativeItemPrivate@@UAEXXZ @ 1533 NONAME ; void QDeclarativeItemPrivate::siblingOrderChange(void)
	??1QDeclarativeState@@UAE@XZ @ 1534 NONAME ; QDeclarativeState::~QDeclarativeState(void)
	?paint@QDeclarativeText@@UAEXPAVQPainter@@PBVQStyleOptionGraphicsItem@@PAVQWidget@@@Z @ 1535 NONAME ABSENT ; void QDeclarativeText::paint(class QPainter *, class QStyleOptionGraphicsItem const *, class QWidget *)
	??1QDeclarativeStateGroup@@UAE@XZ @ 1536 NONAME ; QDeclarativeStateGroup::~QDeclarativeStateGroup(void)
	?setEditable@QMetaPropertyBuilder@@QAEX_N@Z @ 1537 NONAME ABSENT ; void QMetaPropertyBuilder::setEditable(bool)
	?setBinding@QDeclarativePropertyPrivate@@SAPAVQDeclarativeAbstractBinding@@ABVQDeclarativeProperty@@PAV2@V?$QFlags@W4WriteFlag@QDeclarativePropertyPrivate@@@@@Z @ 1538 NONAME ABSENT ; class QDeclarativeAbstractBinding * QDeclarativePropertyPrivate::setBinding(class QDeclarativeProperty const &, class QDeclarativeAbstractBinding *, class QFlags<enum QDeclarativePropertyPrivate::WriteFlag>)
	?trUtf8@QDeclarativeBinding@@SA?AVQString@@PBD0@Z @ 1539 NONAME ABSENT ; class QString QDeclarativeBinding::trUtf8(char const *, char const *)
	?requestSize@QDeclarativePixmap@@QBEABVQSize@@XZ @ 1540 NONAME ; class QSize const & QDeclarativePixmap::requestSize(void) const
	?progress@QDeclarativeComponent@@QBEMXZ @ 1541 NONAME ; float QDeclarativeComponent::progress(void) const
	?d_func@QDeclarativeState@@ABEPBVQDeclarativeStatePrivate@@XZ @ 1542 NONAME ; class QDeclarativeStatePrivate const * QDeclarativeState::d_func(void) const
	??0QListModelInterface@@QAE@PAVQObject@@@Z @ 1543 NONAME ABSENT ; QListModelInterface::QListModelInterface(class QObject *)
	?pointFFromString@QDeclarativeStringConverters@@YA?AVQPointF@@ABVQString@@PA_N@Z @ 1544 NONAME ABSENT ; class QPointF QDeclarativeStringConverters::pointFFromString(class QString const &, bool *)
	?propertyCreated@QDeclarativeOpenMetaObject@@MAEXHAAVQMetaPropertyBuilder@@@Z @ 1545 NONAME ABSENT ; void QDeclarativeOpenMetaObject::propertyCreated(int, class QMetaPropertyBuilder &)
	?d_func@QDeclarativeView@@ABEPBVQDeclarativeViewPrivate@@XZ @ 1546 NONAME ; class QDeclarativeViewPrivate const * QDeclarativeView::d_func(void) const
	?rootObject@QDeclarativeView@@QBEPAVQGraphicsObject@@XZ @ 1547 NONAME ; class QGraphicsObject * QDeclarativeView::rootObject(void) const
	?tr@QDeclarativeBinding@@SA?AVQString@@PBD0H@Z @ 1548 NONAME ABSENT ; class QString QDeclarativeBinding::tr(char const *, char const *, int)
	?queryObjectRecursive@QDeclarativeEngineDebug@@QAEPAVQDeclarativeDebugObjectQuery@@ABVQDeclarativeDebugObjectReference@@PAVQObject@@@Z @ 1549 NONAME ABSENT ; class QDeclarativeDebugObjectQuery * QDeclarativeEngineDebug::queryObjectRecursive(class QDeclarativeDebugObjectReference const &, class QObject *)
	?prepare@QDeclarativeTransition@@QAEXAAV?$QList@VQDeclarativeAction@@@@AAV?$QList@VQDeclarativeProperty@@@@PAVQDeclarativeTransitionManager@@@Z @ 1550 NONAME ; void QDeclarativeTransition::prepare(class QList<class QDeclarativeAction> &, class QList<class QDeclarativeProperty> &, class QDeclarativeTransitionManager *)
	??6QDeclarativeInfo@@QAEAAV0@ABVQUrl@@@Z @ 1551 NONAME ; class QDeclarativeInfo & QDeclarativeInfo::operator<<(class QUrl const &)
	?scopeObject@QDeclarativeExpression@@QBEPAVQObject@@XZ @ 1552 NONAME ; class QObject * QDeclarativeExpression::scopeObject(void) const
	?isValid@QDeclarativeContext@@QBE_NXZ @ 1553 NONAME ; bool QDeclarativeContext::isValid(void) const
	?trUtf8@QDeclarativeValueType@@SA?AVQString@@PBD0H@Z @ 1554 NONAME ABSENT ; class QString QDeclarativeValueType::trUtf8(char const *, char const *, int)
	?qmlAttachedPropertiesObjectById@@YAPAVQObject@@HPBV1@_N@Z @ 1555 NONAME ; class QObject * qmlAttachedPropertiesObjectById(int, class QObject const *, bool)
	?constructorCount@QMetaObjectBuilder@@QBEHXZ @ 1556 NONAME ABSENT ; int QMetaObjectBuilder::constructorCount(void) const
	??0QDeclarativeDomValueValueInterceptor@@QAE@ABV0@@Z @ 1557 NONAME ABSENT ; QDeclarativeDomValueValueInterceptor::QDeclarativeDomValueValueInterceptor(class QDeclarativeDomValueValueInterceptor const &)
	?object@QDeclarativeDebugObjectQuery@@QBE?AVQDeclarativeDebugObjectReference@@XZ @ 1558 NONAME ABSENT ; class QDeclarativeDebugObjectReference QDeclarativeDebugObjectQuery::object(void) const
	??0QMetaPropertyBuilder@@QAE@XZ @ 1559 NONAME ABSENT ; QMetaPropertyBuilder::QMetaPropertyBuilder(void)
	?toMetaObject@QMetaObjectBuilder@@QBEPAUQMetaObject@@XZ @ 1560 NONAME ABSENT ; struct QMetaObject * QMetaObjectBuilder::toMetaObject(void) const
	?d_func@QDeclarativeEngine@@AAEPAVQDeclarativeEnginePrivate@@XZ @ 1561 NONAME ; class QDeclarativeEnginePrivate * QDeclarativeEngine::d_func(void)
	?staticMetaObject@QDeclarativeRectangle@@2UQMetaObject@@B @ 1562 NONAME ABSENT ; struct QMetaObject const QDeclarativeRectangle::staticMetaObject
	?addSignal@QMetaObjectBuilder@@QAE?AVQMetaMethodBuilder@@ABVQByteArray@@@Z @ 1563 NONAME ABSENT ; class QMetaMethodBuilder QMetaObjectBuilder::addSignal(class QByteArray const &)
	?getStaticMetaObject@QDeclarativeStateGroup@@SAABUQMetaObject@@XZ @ 1564 NONAME ; struct QMetaObject const & QDeclarativeStateGroup::getStaticMetaObject(void)
	?childrenRectChanged@QDeclarativeItem@@IAEXABVQRectF@@@Z @ 1565 NONAME ; void QDeclarativeItem::childrenRectChanged(class QRectF const &)
	?isDesignable@QDeclarativeProperty@@QBE_NXZ @ 1566 NONAME ; bool QDeclarativeProperty::isDesignable(void) const
	?propertyTypeCategory@QDeclarativePropertyPrivate@@QBE?AW4PropertyTypeCategory@QDeclarativeProperty@@XZ @ 1567 NONAME ABSENT ; enum QDeclarativeProperty::PropertyTypeCategory QDeclarativePropertyPrivate::propertyTypeCategory(void) const
	?setSize@QDeclarativeItem@@QAEXABVQSizeF@@@Z @ 1568 NONAME ; void QDeclarativeItem::setSize(class QSizeF const &)
	?generateRoundedRect@QDeclarativeRectangle@@AAEXXZ @ 1569 NONAME ABSENT ; void QDeclarativeRectangle::generateRoundedRect(void)
	??0QDeclarativePixmap@@QAE@PAVQDeclarativeEngine@@ABVQUrl@@ABVQSize@@@Z @ 1570 NONAME ; QDeclarativePixmap::QDeclarativePixmap(class QDeclarativeEngine *, class QUrl const &, class QSize const &)
	?tr@QDeclarativeDebugPropertyWatch@@SA?AVQString@@PBD0@Z @ 1571 NONAME ABSENT ; class QString QDeclarativeDebugPropertyWatch::tr(char const *, char const *)
	?propertyTypeCategory@QDeclarativeProperty@@QBE?AW4PropertyTypeCategory@1@XZ @ 1572 NONAME ; enum QDeclarativeProperty::PropertyTypeCategory QDeclarativeProperty::propertyTypeCategory(void) const
	??0QPacketAutoSend@@AAE@PAVQPacketProtocol@@@Z @ 1573 NONAME ABSENT ; QPacketAutoSend::QPacketAutoSend(class QPacketProtocol *)
	?keyCount@QMetaEnumBuilder@@QBEHXZ @ 1574 NONAME ABSENT ; int QMetaEnumBuilder::keyCount(void) const
	??1QDeclarativeDomProperty@@QAE@XZ @ 1575 NONAME ABSENT ; QDeclarativeDomProperty::~QDeclarativeDomProperty(void)
	?url@QDeclarativePixmap@@QBEABVQUrl@@XZ @ 1576 NONAME ; class QUrl const & QDeclarativePixmap::url(void) const
	?sendMessage@QDeclarativeDebugService@@QAEXABVQByteArray@@@Z @ 1577 NONAME ; void QDeclarativeDebugService::sendMessage(class QByteArray const &)
	?context@QDeclarativeScriptString@@QBEPAVQDeclarativeContext@@XZ @ 1578 NONAME ; class QDeclarativeContext * QDeclarativeScriptString::context(void) const
	?queryObject@QDeclarativeEngineDebug@@QAEPAVQDeclarativeDebugObjectQuery@@ABVQDeclarativeDebugObjectReference@@PAVQObject@@@Z @ 1579 NONAME ABSENT ; class QDeclarativeDebugObjectQuery * QDeclarativeEngineDebug::queryObject(class QDeclarativeDebugObjectReference const &, class QObject *)
	?tr@QDeclarativePropertyMap@@SA?AVQString@@PBD0H@Z @ 1580 NONAME ; class QString QDeclarativePropertyMap::tr(char const *, char const *, int)
	?setNotifyOnValueChanged@QDeclarativeExpression@@QAEX_N@Z @ 1581 NONAME ; void QDeclarativeExpression::setNotifyOnValueChanged(bool)
	??0QDeclarativeExpression@@IAE@PAVQDeclarativeContextData@@PAVQObject@@ABVQString@@AAVQDeclarativeExpressionPrivate@@@Z @ 1582 NONAME ; QDeclarativeExpression::QDeclarativeExpression(class QDeclarativeContextData *, class QObject *, class QString const &, class QDeclarativeExpressionPrivate &)
	?fillChanged@QDeclarativeAnchors@@IAEXXZ @ 1583 NONAME ABSENT ; void QDeclarativeAnchors::fillChanged(void)
	?resources_append@QDeclarativeItemPrivate@@SAXPAV?$QDeclarativeListProperty@VQObject@@@@PAVQObject@@@Z @ 1584 NONAME ; void QDeclarativeItemPrivate::resources_append(class QDeclarativeListProperty<class QObject> *, class QObject *)
	??0QDeclarativeComponent@@IAE@AAVQDeclarativeComponentPrivate@@PAVQObject@@@Z @ 1585 NONAME ; QDeclarativeComponent::QDeclarativeComponent(class QDeclarativeComponentPrivate &, class QObject *)
	?height@QDeclarativeItem@@QBEMXZ @ 1586 NONAME ; float QDeclarativeItem::height(void) const
	?minorVersion@QDeclarativeType@@QBEHXZ @ 1587 NONAME ABSENT ; int QDeclarativeType::minorVersion(void) const
	?qt_metacall@QDeclarativeText@@UAEHW4Call@QMetaObject@@HPAPAX@Z @ 1588 NONAME ABSENT ; int QDeclarativeText::qt_metacall(enum QMetaObject::Call, int, void * *)
	?isConnected@QDeclarativeDebugConnection@@QBE_NXZ @ 1589 NONAME ABSENT ; bool QDeclarativeDebugConnection::isConnected(void) const
	??6QDeclarativeInfo@@QAEAAV0@I@Z @ 1590 NONAME ; class QDeclarativeInfo & QDeclarativeInfo::operator<<(unsigned int)
	?setNetworkAccessManagerFactory@QDeclarativeEngine@@QAEXPAVQDeclarativeNetworkAccessManagerFactory@@@Z @ 1591 NONAME ; void QDeclarativeEngine::setNetworkAccessManagerFactory(class QDeclarativeNetworkAccessManagerFactory *)
	?tr@QDeclarativeDebugQuery@@SA?AVQString@@PBD0H@Z @ 1592 NONAME ABSENT ; class QString QDeclarativeDebugQuery::tr(char const *, char const *, int)
	??AQDeclarativePropertyMap@@QAEAAVQVariant@@ABVQString@@@Z @ 1593 NONAME ; class QVariant & QDeclarativePropertyMap::operator[](class QString const &)
	??0Variant@QDeclarativeParser@@QAE@_N@Z @ 1594 NONAME ; QDeclarativeParser::Variant::Variant(bool)
	?trUtf8@QDeclarativeState@@SA?AVQString@@PBD0H@Z @ 1595 NONAME ; class QString QDeclarativeState::trUtf8(char const *, char const *, int)
	??0QDeclarativeStateGroup@@QAE@PAVQObject@@@Z @ 1596 NONAME ; QDeclarativeStateGroup::QDeclarativeStateGroup(class QObject *)
	?count@QDeclarativeListReference@@QBEHXZ @ 1597 NONAME ; int QDeclarativeListReference::count(void) const
	?location@QDeclarativeCustomParserProperty@@QBE?AULocation@QDeclarativeParser@@XZ @ 1598 NONAME ; struct QDeclarativeParser::Location QDeclarativeCustomParserProperty::location(void) const
	?metaObject@QDeclarativePen@@UBEPBUQMetaObject@@XZ @ 1599 NONAME ABSENT ; struct QMetaObject const * QDeclarativePen::metaObject(void) const
	?url@QDeclarativeError@@QBE?AVQUrl@@XZ @ 1600 NONAME ; class QUrl QDeclarativeError::url(void) const
	?isBinding@QDeclarativeDomValue@@QBE_NXZ @ 1601 NONAME ABSENT ; bool QDeclarativeDomValue::isBinding(void) const
	?name@QDeclarativeProperty@@QBE?AVQString@@XZ @ 1602 NONAME ; class QString QDeclarativeProperty::name(void) const
	?asString@Variant@QDeclarativeParser@@QBE?AVQString@@XZ @ 1603 NONAME ; class QString QDeclarativeParser::Variant::asString(void) const
	?trUtf8@QDeclarativeExtensionPlugin@@SA?AVQString@@PBD0@Z @ 1604 NONAME ; class QString QDeclarativeExtensionPlugin::trUtf8(char const *, char const *)
	?sendMessage@QDeclarativeDebugClient@@QAEXABVQByteArray@@@Z @ 1605 NONAME ABSENT ; void QDeclarativeDebugClient::sendMessage(class QByteArray const &)
	?canAppend@QDeclarativeListReference@@QBE_NXZ @ 1606 NONAME ; bool QDeclarativeListReference::canAppend(void) const
	??_EQDeclarativeComponent@@UAE@I@Z @ 1607 NONAME ; QDeclarativeComponent::~QDeclarativeComponent(unsigned int)
	?get@QDeclarativeItemPrivate@@SAPAV1@PAVQDeclarativeItem@@@Z @ 1608 NONAME ; class QDeclarativeItemPrivate * QDeclarativeItemPrivate::get(class QDeclarativeItem *)
	?staticMetaObject@QDeclarativeView@@2UQMetaObject@@B @ 1609 NONAME ; struct QMetaObject const QDeclarativeView::staticMetaObject
	?objectToString@QDeclarativeDebugService@@SA?AVQString@@PAVQObject@@@Z @ 1610 NONAME ; class QString QDeclarativeDebugService::objectToString(class QObject *)
	?defaultValue@QDeclarativeDomDynamicProperty@@QBE?AVQDeclarativeDomProperty@@XZ @ 1611 NONAME ABSENT ; class QDeclarativeDomProperty QDeclarativeDomDynamicProperty::defaultValue(void) const
	?relatedMetaObject@QMetaObjectBuilder@@QBEPBUQMetaObject@@H@Z @ 1612 NONAME ABSENT ; struct QMetaObject const * QMetaObjectBuilder::relatedMetaObject(int) const
	?addKey@QMetaEnumBuilder@@QAEHABVQByteArray@@H@Z @ 1613 NONAME ABSENT ; int QMetaEnumBuilder::addKey(class QByteArray const &, int)
	?setPosHelper@QDeclarativeItemPrivate@@UAEXABVQPointF@@@Z @ 1614 NONAME ; void QDeclarativeItemPrivate::setPosHelper(class QPointF const &)
	?attributes@QMetaMethodBuilder@@QBEHXZ @ 1615 NONAME ABSENT ; int QMetaMethodBuilder::attributes(void) const
	?lineNumber@QDeclarativeDebugFileReference@@QBEHXZ @ 1616 NONAME ABSENT ; int QDeclarativeDebugFileReference::lineNumber(void) const
	?setTop@QDeclarativeScaleGrid@@QAEXH@Z @ 1617 NONAME ABSENT ; void QDeclarativeScaleGrid::setTop(int)
	?metaObject@QDeclarativeItem@@UBEPBUQMetaObject@@XZ @ 1618 NONAME ; struct QMetaObject const * QDeclarativeItem::metaObject(void) const
	?clear@QDeclarativeAbstractBinding@@IAEXXZ @ 1619 NONAME ABSENT ; void QDeclarativeAbstractBinding::clear(void)
	?start@QDeclarativeItemPrivate@@SAXAAVQElapsedTimer@@@Z @ 1620 NONAME ; void QDeclarativeItemPrivate::start(class QElapsedTimer &)
	?load@QDeclarativePixmap@@QAEXPAVQDeclarativeEngine@@ABVQUrl@@ABVQSize@@_N@Z @ 1621 NONAME ABSENT ; void QDeclarativePixmap::load(class QDeclarativeEngine *, class QUrl const &, class QSize const &, bool)
	?stringToRule@QDeclarativeGridScaledImage@@CA?AW4TileMode@QDeclarativeBorderImage@@ABVQString@@@Z @ 1622 NONAME ABSENT ; enum QDeclarativeBorderImage::TileMode QDeclarativeGridScaledImage::stringToRule(class QString const &)
	?setHorizontalCenter@QDeclarativeAnchors@@QAEXABVQDeclarativeAnchorLine@@@Z @ 1623 NONAME ABSENT ; void QDeclarativeAnchors::setHorizontalCenter(class QDeclarativeAnchorLine const &)
	?setFocus@QDeclarativeItem@@QAEX_N@Z @ 1624 NONAME ; void QDeclarativeItem::setFocus(bool)
	?connectNotifySignal@QDeclarativeProperty@@QBE_NPAVQObject@@PBD@Z @ 1625 NONAME ; bool QDeclarativeProperty::connectNotifySignal(class QObject *, char const *) const
	??4QDeclarativeProperty@@QAEAAV0@ABV0@@Z @ 1626 NONAME ; class QDeclarativeProperty & QDeclarativeProperty::operator=(class QDeclarativeProperty const &)
	?messageReceived@QDeclarativeDebugClient@@MAEXABVQByteArray@@@Z @ 1627 NONAME ABSENT ; void QDeclarativeDebugClient::messageReceived(class QByteArray const &)
	?setImplicitWidth@QDeclarativeItem@@IAEXM@Z @ 1628 NONAME ; void QDeclarativeItem::setImplicitWidth(float)
	?isInterface@QDeclarativeType@@QBE_NXZ @ 1629 NONAME ABSENT ; bool QDeclarativeType::isInterface(void) const
	??0QDeclarativeContext@@AAE@PAVQDeclarativeEngine@@_N@Z @ 1630 NONAME ; QDeclarativeContext::QDeclarativeContext(class QDeclarativeEngine *, bool)
	?initialValue@QDeclarativeOpenMetaObject@@UAE?AVQVariant@@H@Z @ 1631 NONAME ABSENT ; class QVariant QDeclarativeOpenMetaObject::initialValue(int)
	?tr@QDeclarativeView@@SA?AVQString@@PBD0@Z @ 1632 NONAME ; class QString QDeclarativeView::tr(char const *, char const *)
	?qt_metacall@QPacketProtocol@@UAEHW4Call@QMetaObject@@HPAPAX@Z @ 1633 NONAME ; int QPacketProtocol::qt_metacall(enum QMetaObject::Call, int, void * *)
	??0QDeclarativeItem@@QAE@PAV0@@Z @ 1634 NONAME ; QDeclarativeItem::QDeclarativeItem(class QDeclarativeItem *)
	?hasDebuggingClient@QDeclarativeDebugService@@SA_NXZ @ 1635 NONAME ; bool QDeclarativeDebugService::hasDebuggingClient(void)
	?staticMetaObject@QDeclarativeContext@@2UQMetaObject@@B @ 1636 NONAME ; struct QMetaObject const QDeclarativeContext::staticMetaObject
	?setContextForObject@QDeclarativeEngine@@SAXPAVQObject@@PAVQDeclarativeContext@@@Z @ 1637 NONAME ; void QDeclarativeEngine::setContextForObject(class QObject *, class QDeclarativeContext *)
	?baselineOffsetChanged@QDeclarativeItem@@IAEXM@Z @ 1638 NONAME ; void QDeclarativeItem::baselineOffsetChanged(float)
	??6QDeclarativeInfo@@QAEAAV0@VQChar@@@Z @ 1639 NONAME ; class QDeclarativeInfo & QDeclarativeInfo::operator<<(class QChar)
	?newObjects@QDeclarativeEngineDebug@@IAEXXZ @ 1640 NONAME ABSENT ; void QDeclarativeEngineDebug::newObjects(void)
	?qt_metacast@QDeclarativePropertyChanges@@UAEPAXPBD@Z @ 1641 NONAME ABSENT ; void * QDeclarativePropertyChanges::qt_metacast(char const *)
	?actions@QDeclarativePropertyChanges@@UAE?AV?$QList@VQDeclarativeAction@@@@XZ @ 1642 NONAME ABSENT ; class QList<class QDeclarativeAction> QDeclarativePropertyChanges::actions(void)
	??1QDeclarativePropertyChanges@@UAE@XZ @ 1643 NONAME ABSENT ; QDeclarativePropertyChanges::~QDeclarativePropertyChanges(void)
	??_EQDeclarativePropertyChanges@@UAE@I@Z @ 1644 NONAME ABSENT ; QDeclarativePropertyChanges::~QDeclarativePropertyChanges(unsigned int)
	?setObject@QDeclarativePropertyChanges@@QAEXPAVQObject@@@Z @ 1645 NONAME ABSENT ; void QDeclarativePropertyChanges::setObject(class QObject *)
	?staticMetaObject@QDeclarativePropertyChanges@@2UQMetaObject@@B @ 1646 NONAME ABSENT ; struct QMetaObject const QDeclarativePropertyChanges::staticMetaObject
	?removeEntryFromRevertList@QDeclarativeState@@QAE_NPAVQObject@@ABVQByteArray@@@Z @ 1647 NONAME ABSENT ; bool QDeclarativeState::removeEntryFromRevertList(class QObject *, class QByteArray const &)
	?restoreEntryValues@QDeclarativePropertyChanges@@QBE_NXZ @ 1648 NONAME ABSENT ; bool QDeclarativePropertyChanges::restoreEntryValues(void) const
	?setRestoreEntryValues@QDeclarativePropertyChanges@@QAEX_N@Z @ 1649 NONAME ABSENT ; void QDeclarativePropertyChanges::setRestoreEntryValues(bool)
	?changeValue@QDeclarativePropertyChanges@@QAEXABVQByteArray@@ABVQVariant@@@Z @ 1650 NONAME ABSENT ; void QDeclarativePropertyChanges::changeValue(class QByteArray const &, class QVariant const &)
	?metaObject@QDeclarativePropertyChanges@@UBEPBUQMetaObject@@XZ @ 1651 NONAME ABSENT ; struct QMetaObject const * QDeclarativePropertyChanges::metaObject(void) const
	?data_clear@QDeclarativeItemPrivate@@SAXPAV?$QDeclarativeListProperty@VQObject@@@@@Z @ 1652 NONAME ; void QDeclarativeItemPrivate::data_clear(class QDeclarativeListProperty<class QObject> *)
	?containsPropertyInRevertList@QDeclarativeState@@QBE_NPAVQObject@@ABVQByteArray@@@Z @ 1653 NONAME ABSENT ; bool QDeclarativeState::containsPropertyInRevertList(class QObject *, class QByteArray const &) const
	?containsValue@QDeclarativePropertyChanges@@QBE_NABVQByteArray@@@Z @ 1654 NONAME ABSENT ; bool QDeclarativePropertyChanges::containsValue(class QByteArray const &) const
	?bindingInRevertList@QDeclarativeState@@QBEPAVQDeclarativeAbstractBinding@@PAVQObject@@ABVQByteArray@@@Z @ 1655 NONAME ABSENT ; class QDeclarativeAbstractBinding * QDeclarativeState::bindingInRevertList(class QObject *, class QByteArray const &) const
	?d_func@QDeclarativePropertyChanges@@ABEPBVQDeclarativePropertyChangesPrivate@@XZ @ 1656 NONAME ABSENT ; class QDeclarativePropertyChangesPrivate const * QDeclarativePropertyChanges::d_func(void) const
	?containsProperty@QDeclarativePropertyChanges@@QBE_NABVQByteArray@@@Z @ 1657 NONAME ABSENT ; bool QDeclarativePropertyChanges::containsProperty(class QByteArray const &) const
	?trUtf8@QDeclarativePropertyChanges@@SA?AVQString@@PBD0H@Z @ 1658 NONAME ABSENT ; class QString QDeclarativePropertyChanges::trUtf8(char const *, char const *, int)
	?property@QDeclarativePropertyChanges@@QBE?AVQVariant@@ABVQByteArray@@@Z @ 1659 NONAME ABSENT ; class QVariant QDeclarativePropertyChanges::property(class QByteArray const &) const
	?containsExpression@QDeclarativePropertyChanges@@QBE_NABVQByteArray@@@Z @ 1660 NONAME ABSENT ; bool QDeclarativePropertyChanges::containsExpression(class QByteArray const &) const
	?d_func@QDeclarativeStateOperation@@ABEPBVQDeclarativeStateOperationPrivate@@XZ @ 1661 NONAME ; class QDeclarativeStateOperationPrivate const * QDeclarativeStateOperation::d_func(void) const
	?d_func@QDeclarativePropertyChanges@@AAEPAVQDeclarativePropertyChangesPrivate@@XZ @ 1662 NONAME ABSENT ; class QDeclarativePropertyChangesPrivate * QDeclarativePropertyChanges::d_func(void)
	?state@QDeclarativeStateOperation@@QBEPAVQDeclarativeState@@XZ @ 1663 NONAME ; class QDeclarativeState * QDeclarativeStateOperation::state(void) const
	?value@QDeclarativePropertyChanges@@QBE?AVQVariant@@ABVQByteArray@@@Z @ 1664 NONAME ABSENT ; class QVariant QDeclarativePropertyChanges::value(class QByteArray const &) const
	?qt_metacall@QDeclarativePropertyChanges@@UAEHW4Call@QMetaObject@@HPAPAX@Z @ 1665 NONAME ABSENT ; int QDeclarativePropertyChanges::qt_metacall(enum QMetaObject::Call, int, void * *)
	?trUtf8@QDeclarativePropertyChanges@@SA?AVQString@@PBD0@Z @ 1666 NONAME ABSENT ; class QString QDeclarativePropertyChanges::trUtf8(char const *, char const *)
	?attachToState@QDeclarativePropertyChanges@@QAEXXZ @ 1667 NONAME ABSENT ; void QDeclarativePropertyChanges::attachToState(void)
	?changeExpression@QDeclarativePropertyChanges@@QAEXABVQByteArray@@ABVQString@@@Z @ 1668 NONAME ABSENT ; void QDeclarativePropertyChanges::changeExpression(class QByteArray const &, class QString const &)
	?addEntryToRevertList@QDeclarativeState@@QAEXABVQDeclarativeAction@@@Z @ 1669 NONAME ; void QDeclarativeState::addEntryToRevertList(class QDeclarativeAction const &)
	??0QDeclarativePropertyChanges@@QAE@XZ @ 1670 NONAME ABSENT ; QDeclarativePropertyChanges::QDeclarativePropertyChanges(void)
	?resources_clear@QDeclarativeItemPrivate@@SAXPAV?$QDeclarativeListProperty@VQObject@@@@@Z @ 1671 NONAME ; void QDeclarativeItemPrivate::resources_clear(class QDeclarativeListProperty<class QObject> *)
	?isExplicit@QDeclarativePropertyChanges@@QBE_NXZ @ 1672 NONAME ABSENT ; bool QDeclarativePropertyChanges::isExplicit(void) const
	?setState@QDeclarativeStateOperation@@QAEXPAVQDeclarativeState@@@Z @ 1673 NONAME ; void QDeclarativeStateOperation::setState(class QDeclarativeState *)
	?detachFromState@QDeclarativePropertyChanges@@QAEXXZ @ 1674 NONAME ABSENT ; void QDeclarativePropertyChanges::detachFromState(void)
	?tr@QDeclarativePropertyChanges@@SA?AVQString@@PBD0H@Z @ 1675 NONAME ABSENT ; class QString QDeclarativePropertyChanges::tr(char const *, char const *, int)
	?addEntriesToRevertList@QDeclarativeState@@QAEXABV?$QList@VQDeclarativeAction@@@@@Z @ 1676 NONAME ; void QDeclarativeState::addEntriesToRevertList(class QList<class QDeclarativeAction> const &)
	?expression@QDeclarativePropertyChanges@@QBE?AVQString@@ABVQByteArray@@@Z @ 1677 NONAME ABSENT ; class QString QDeclarativePropertyChanges::expression(class QByteArray const &) const
	?object@QDeclarativePropertyChanges@@QBEPAVQObject@@XZ @ 1678 NONAME ABSENT ; class QObject * QDeclarativePropertyChanges::object(void) const
	?valueInRevertList@QDeclarativeState@@QBE?AVQVariant@@PAVQObject@@ABVQByteArray@@@Z @ 1679 NONAME ABSENT ; class QVariant QDeclarativeState::valueInRevertList(class QObject *, class QByteArray const &) const
	?removeAllEntriesFromRevertList@QDeclarativeState@@QAEXPAVQObject@@@Z @ 1680 NONAME ; void QDeclarativeState::removeAllEntriesFromRevertList(class QObject *)
	?d_func@QDeclarativeStateOperation@@AAEPAVQDeclarativeStateOperationPrivate@@XZ @ 1681 NONAME ; class QDeclarativeStateOperationPrivate * QDeclarativeStateOperation::d_func(void)
	?changeValueInRevertList@QDeclarativeState@@QAE_NPAVQObject@@ABVQByteArray@@ABVQVariant@@@Z @ 1682 NONAME ABSENT ; bool QDeclarativeState::changeValueInRevertList(class QObject *, class QByteArray const &, class QVariant const &)
	?setIsExplicit@QDeclarativePropertyChanges@@QAEX_N@Z @ 1683 NONAME ABSENT ; void QDeclarativePropertyChanges::setIsExplicit(bool)
	?isStateActive@QDeclarativeState@@QBE_NXZ @ 1684 NONAME ; bool QDeclarativeState::isStateActive(void) const
	?data_count@QDeclarativeItemPrivate@@SAHPAV?$QDeclarativeListProperty@VQObject@@@@@Z @ 1685 NONAME ; int QDeclarativeItemPrivate::data_count(class QDeclarativeListProperty<class QObject> *)
	?removeProperty@QDeclarativePropertyChanges@@QAEXABVQByteArray@@@Z @ 1686 NONAME ABSENT ; void QDeclarativePropertyChanges::removeProperty(class QByteArray const &)
	?data_at@QDeclarativeItemPrivate@@SAPAVQObject@@PAV?$QDeclarativeListProperty@VQObject@@@@H@Z @ 1687 NONAME ; class QObject * QDeclarativeItemPrivate::data_at(class QDeclarativeListProperty<class QObject> *, int)
	?tr@QDeclarativePropertyChanges@@SA?AVQString@@PBD0@Z @ 1688 NONAME ABSENT ; class QString QDeclarativePropertyChanges::tr(char const *, char const *)
	?changeBindingInRevertList@QDeclarativeState@@QAE_NPAVQObject@@ABVQByteArray@@PAVQDeclarativeAbstractBinding@@@Z @ 1689 NONAME ABSENT ; bool QDeclarativeState::changeBindingInRevertList(class QObject *, class QByteArray const &, class QDeclarativeAbstractBinding *)
	?getStaticMetaObject@QDeclarativePropertyChanges@@SAABUQMetaObject@@XZ @ 1690 NONAME ABSENT ; struct QMetaObject const & QDeclarativePropertyChanges::getStaticMetaObject(void)
	?weakPointer@QDeclarativeAbstractBinding@@QAE?AV?$QWeakPointer@VQDeclarativeAbstractBinding@@@@XZ @ 1691 NONAME ABSENT ; class QWeakPointer<class QDeclarativeAbstractBinding> QDeclarativeAbstractBinding::weakPointer(void)
	?getStaticMetaObject@QDeclarativeScriptAction@@SAABUQMetaObject@@XZ @ 1692 NONAME ABSENT ; struct QMetaObject const & QDeclarativeScriptAction::getStaticMetaObject(void)
	?qt_metacall@QDeclarativeScriptAction@@UAEHW4Call@QMetaObject@@HPAPAX@Z @ 1693 NONAME ABSENT ; int QDeclarativeScriptAction::qt_metacall(enum QMetaObject::Call, int, void * *)
	??1QDeclarativeScriptAction@@UAE@XZ @ 1694 NONAME ABSENT ; QDeclarativeScriptAction::~QDeclarativeScriptAction(void)
	?stateChangeScriptName@QDeclarativeScriptAction@@QBE?AVQString@@XZ @ 1695 NONAME ABSENT ; class QString QDeclarativeScriptAction::stateChangeScriptName(void) const
	?script@QDeclarativeScriptAction@@QBE?AVQDeclarativeScriptString@@XZ @ 1696 NONAME ABSENT ; class QDeclarativeScriptString QDeclarativeScriptAction::script(void) const
	?qt_metacast@QDeclarativeScriptAction@@UAEPAXPBD@Z @ 1697 NONAME ABSENT ; void * QDeclarativeScriptAction::qt_metacast(char const *)
	?tr@QDeclarativeScriptAction@@SA?AVQString@@PBD0@Z @ 1698 NONAME ABSENT ; class QString QDeclarativeScriptAction::tr(char const *, char const *)
	?setStateChangeScriptName@QDeclarativeScriptAction@@QAEXABVQString@@@Z @ 1699 NONAME ABSENT ; void QDeclarativeScriptAction::setStateChangeScriptName(class QString const &)
	??_EQDeclarativeScriptAction@@UAE@I@Z @ 1700 NONAME ABSENT ; QDeclarativeScriptAction::~QDeclarativeScriptAction(unsigned int)
	?d_func@QDeclarativeScriptAction@@ABEPBVQDeclarativeScriptActionPrivate@@XZ @ 1701 NONAME ABSENT ; class QDeclarativeScriptActionPrivate const * QDeclarativeScriptAction::d_func(void) const
	?weakPointer@QDeclarativeAbstractBinding@@AAE?AV?$QWeakPointer@VQDeclarativeAbstractBinding@@@@XZ @ 1702 NONAME ABSENT ; class QWeakPointer<class QDeclarativeAbstractBinding> QDeclarativeAbstractBinding::weakPointer(void)
	?trUtf8@QDeclarativeScriptAction@@SA?AVQString@@PBD0H@Z @ 1703 NONAME ABSENT ; class QString QDeclarativeScriptAction::trUtf8(char const *, char const *, int)
	?trUtf8@QDeclarativeScriptAction@@SA?AVQString@@PBD0@Z @ 1704 NONAME ABSENT ; class QString QDeclarativeScriptAction::trUtf8(char const *, char const *)
	?qtAnimation@QDeclarativeScriptAction@@MAEPAVQAbstractAnimation@@XZ @ 1705 NONAME ABSENT ; class QAbstractAnimation * QDeclarativeScriptAction::qtAnimation(void)
	??0QDeclarativeScriptAction@@QAE@PAVQObject@@@Z @ 1706 NONAME ABSENT ; QDeclarativeScriptAction::QDeclarativeScriptAction(class QObject *)
	?tr@QDeclarativeScriptAction@@SA?AVQString@@PBD0H@Z @ 1707 NONAME ABSENT ; class QString QDeclarativeScriptAction::tr(char const *, char const *, int)
	?d_func@QDeclarativeScriptAction@@AAEPAVQDeclarativeScriptActionPrivate@@XZ @ 1708 NONAME ABSENT ; class QDeclarativeScriptActionPrivate * QDeclarativeScriptAction::d_func(void)
	?transition@QDeclarativeScriptAction@@MAEXAAV?$QList@VQDeclarativeAction@@@@AAV?$QList@VQDeclarativeProperty@@@@W4TransitionDirection@QDeclarativeAbstractAnimation@@@Z @ 1709 NONAME ABSENT ; void QDeclarativeScriptAction::transition(class QList<class QDeclarativeAction> &, class QList<class QDeclarativeProperty> &, enum QDeclarativeAbstractAnimation::TransitionDirection)
	?staticMetaObject@QDeclarativeScriptAction@@2UQMetaObject@@B @ 1710 NONAME ABSENT ; struct QMetaObject const QDeclarativeScriptAction::staticMetaObject
	?setScript@QDeclarativeScriptAction@@QAEXABVQDeclarativeScriptString@@@Z @ 1711 NONAME ABSENT ; void QDeclarativeScriptAction::setScript(class QDeclarativeScriptString const &)
	?metaObject@QDeclarativeScriptAction@@UBEPBUQMetaObject@@XZ @ 1712 NONAME ABSENT ; struct QMetaObject const * QDeclarativeScriptAction::metaObject(void) const
	?getPointer@QDeclarativeAbstractBinding@@SA?AV?$QWeakPointer@VQDeclarativeAbstractBinding@@@@PAV1@@Z @ 1713 NONAME ABSENT ; class QWeakPointer<class QDeclarativeAbstractBinding> QDeclarativeAbstractBinding::getPointer(class QDeclarativeAbstractBinding *)
	??0QDeclarativeListModel@@AAE@PBV0@PAVQDeclarativeListModelWorkerAgent@@@Z @ 1714 NONAME ABSENT ; QDeclarativeListModel::QDeclarativeListModel(class QDeclarativeListModel const *, class QDeclarativeListModelWorkerAgent *)
	?inWorkerThread@QDeclarativeListModel@@ABE_NXZ @ 1715 NONAME ABSENT ; bool QDeclarativeListModel::inWorkerThread(void) const
	?canMove@QDeclarativeListModel@@ABE_NHHH@Z @ 1716 NONAME ABSENT ; bool QDeclarativeListModel::canMove(int, int, int) const
	?getScriptEngine@QDeclarativeDebugHelper@@SAPAVQScriptEngine@@PAVQDeclarativeEngine@@@Z @ 1717 NONAME ABSENT ; class QScriptEngine * QDeclarativeDebugHelper::getScriptEngine(class QDeclarativeEngine *)
	?setAnimationSlowDownFactor@QDeclarativeDebugHelper@@SAXM@Z @ 1718 NONAME ABSENT ; void QDeclarativeDebugHelper::setAnimationSlowDownFactor(float)
	?add@QDeclarativeBasePositioner@@QBEPAVQDeclarativeTransition@@XZ @ 1719 NONAME ABSENT ; class QDeclarativeTransition * QDeclarativeBasePositioner::add(void) const
	?setLoops@QDeclarativeAbstractAnimation@@QAEXH@Z @ 1720 NONAME ABSENT ; void QDeclarativeAbstractAnimation::setLoops(int)
	?trUtf8@QDeclarativeAbstractAnimation@@SA?AVQString@@PBD0@Z @ 1721 NONAME ABSENT ; class QString QDeclarativeAbstractAnimation::trUtf8(char const *, char const *)
	?tr@QDeclarativeBasePositioner@@SA?AVQString@@PBD0@Z @ 1722 NONAME ABSENT ; class QString QDeclarativeBasePositioner::tr(char const *, char const *)
	?staticMetaObject@QDeclarativeAbstractAnimation@@2UQMetaObject@@B @ 1723 NONAME ABSENT ; struct QMetaObject const QDeclarativeAbstractAnimation::staticMetaObject
	?setMove@QDeclarativeBasePositioner@@QAEXPAVQDeclarativeTransition@@@Z @ 1724 NONAME ABSENT ; void QDeclarativeBasePositioner::setMove(class QDeclarativeTransition *)
	?setRunning@QDeclarativeTimer@@QAEX_N@Z @ 1725 NONAME ABSENT ; void QDeclarativeTimer::setRunning(bool)
	?tr@QDeclarativeTimer@@SA?AVQString@@PBD0@Z @ 1726 NONAME ABSENT ; class QString QDeclarativeTimer::tr(char const *, char const *)
	?qt_metacall@QDeclarativeTimer@@UAEHW4Call@QMetaObject@@HPAPAX@Z @ 1727 NONAME ABSENT ; int QDeclarativeTimer::qt_metacall(enum QMetaObject::Call, int, void * *)
	?setPaused@QDeclarativeAbstractAnimation@@QAEX_N@Z @ 1728 NONAME ABSENT ; void QDeclarativeAbstractAnimation::setPaused(bool)
	?d_func@QDeclarativeBasePositioner@@ABEPBVQDeclarativeBasePositionerPrivate@@XZ @ 1729 NONAME ABSENT ; class QDeclarativeBasePositionerPrivate const * QDeclarativeBasePositioner::d_func(void) const
	?setRepeating@QDeclarativeTimer@@QAEX_N@Z @ 1730 NONAME ABSENT ; void QDeclarativeTimer::setRepeating(bool)
	?interval@QDeclarativeTimer@@QBEHXZ @ 1731 NONAME ABSENT ; int QDeclarativeTimer::interval(void) const
	?start@QDeclarativeTimer@@QAEXXZ @ 1732 NONAME ABSENT ; void QDeclarativeTimer::start(void)
	?transition@QDeclarativeAbstractAnimation@@UAEXAAV?$QList@VQDeclarativeAction@@@@AAV?$QList@VQDeclarativeProperty@@@@W4TransitionDirection@1@@Z @ 1733 NONAME ABSENT ; void QDeclarativeAbstractAnimation::transition(class QList<class QDeclarativeAction> &, class QList<class QDeclarativeProperty> &, enum QDeclarativeAbstractAnimation::TransitionDirection)
	?componentComplete@QDeclarativeAbstractAnimation@@UAEXXZ @ 1734 NONAME ABSENT ; void QDeclarativeAbstractAnimation::componentComplete(void)
	?statusChanged@QDeclarativeDebugService@@MAEXW4Status@1@@Z @ 1735 NONAME ; void QDeclarativeDebugService::statusChanged(enum QDeclarativeDebugService::Status)
	?runningChanged@QDeclarativeAbstractAnimation@@IAEX_N@Z @ 1736 NONAME ABSENT ; void QDeclarativeAbstractAnimation::runningChanged(bool)
	?trUtf8@QDeclarativeAbstractAnimation@@SA?AVQString@@PBD0H@Z @ 1737 NONAME ABSENT ; class QString QDeclarativeAbstractAnimation::trUtf8(char const *, char const *, int)
	??_EQDeclarativeBasePositioner@@UAE@I@Z @ 1738 NONAME ABSENT ; QDeclarativeBasePositioner::~QDeclarativeBasePositioner(unsigned int)
	?metaObject@QDeclarativeTimer@@UBEPBUQMetaObject@@XZ @ 1739 NONAME ABSENT ; struct QMetaObject const * QDeclarativeTimer::metaObject(void) const
	?setGroup@QDeclarativeAbstractAnimation@@QAEXPAVQDeclarativeAnimationGroup@@@Z @ 1740 NONAME ABSENT ; void QDeclarativeAbstractAnimation::setGroup(class QDeclarativeAnimationGroup *)
	?isRepeating@QDeclarativeTimer@@QBE_NXZ @ 1741 NONAME ABSENT ; bool QDeclarativeTimer::isRepeating(void) const
	?setTriggeredOnStart@QDeclarativeTimer@@QAEX_N@Z @ 1742 NONAME ABSENT ; void QDeclarativeTimer::setTriggeredOnStart(bool)
	?currentTime@QDeclarativeAbstractAnimation@@QAEHXZ @ 1743 NONAME ABSENT ; int QDeclarativeAbstractAnimation::currentTime(void)
	?status@QDeclarativeEngineDebug@@QBE?AW4Status@1@XZ @ 1744 NONAME ABSENT ; enum QDeclarativeEngineDebug::Status QDeclarativeEngineDebug::status(void) const
	??1QDeclarativeAbstractAnimation@@UAE@XZ @ 1745 NONAME ABSENT ; QDeclarativeAbstractAnimation::~QDeclarativeAbstractAnimation(void)
	?triggered@QDeclarativeTimer@@IAEXXZ @ 1746 NONAME ABSENT ; void QDeclarativeTimer::triggered(void)
	?getStaticMetaObject@QDeclarativeBasePositioner@@SAABUQMetaObject@@XZ @ 1747 NONAME ABSENT ; struct QMetaObject const & QDeclarativeBasePositioner::getStaticMetaObject(void)
	?finished@QDeclarativeTimer@@AAEXXZ @ 1748 NONAME ABSENT ; void QDeclarativeTimer::finished(void)
	?pausedChanged@QDeclarativeAbstractAnimation@@IAEX_N@Z @ 1749 NONAME ABSENT ; void QDeclarativeAbstractAnimation::pausedChanged(bool)
	?complete@QDeclarativeAbstractAnimation@@QAEXXZ @ 1750 NONAME ABSENT ; void QDeclarativeAbstractAnimation::complete(void)
	?setRunning@QDeclarativeAbstractAnimation@@QAEX_N@Z @ 1751 NONAME ABSENT ; void QDeclarativeAbstractAnimation::setRunning(bool)
	?trUtf8@QDeclarativeBasePositioner@@SA?AVQString@@PBD0H@Z @ 1752 NONAME ABSENT ; class QString QDeclarativeBasePositioner::trUtf8(char const *, char const *, int)
	?trUtf8@QDeclarativeBasePositioner@@SA?AVQString@@PBD0@Z @ 1753 NONAME ABSENT ; class QString QDeclarativeBasePositioner::trUtf8(char const *, char const *)
	?completed@QDeclarativeAbstractAnimation@@IAEXXZ @ 1754 NONAME ABSENT ; void QDeclarativeAbstractAnimation::completed(void)
	?trUtf8@QDeclarativeTimer@@SA?AVQString@@PBD0@Z @ 1755 NONAME ABSENT ; class QString QDeclarativeTimer::trUtf8(char const *, char const *)
	?loopCountChanged@QDeclarativeAbstractAnimation@@IAEXH@Z @ 1756 NONAME ABSENT ; void QDeclarativeAbstractAnimation::loopCountChanged(int)
	?repeatChanged@QDeclarativeTimer@@IAEXXZ @ 1757 NONAME ABSENT ; void QDeclarativeTimer::repeatChanged(void)
	?setDisableUserControl@QDeclarativeAbstractAnimation@@QAEXXZ @ 1758 NONAME ABSENT ; void QDeclarativeAbstractAnimation::setDisableUserControl(void)
	?componentComplete@QDeclarativeBasePositioner@@MAEXXZ @ 1759 NONAME ABSENT ; void QDeclarativeBasePositioner::componentComplete(void)
	?setDefaultTarget@QDeclarativeAbstractAnimation@@QAEXABVQDeclarativeProperty@@@Z @ 1760 NONAME ABSENT ; void QDeclarativeAbstractAnimation::setDefaultTarget(class QDeclarativeProperty const &)
	?staticMetaObject@QDeclarativeBasePositioner@@2UQMetaObject@@B @ 1761 NONAME ABSENT ; struct QMetaObject const QDeclarativeBasePositioner::staticMetaObject
	?triggeredOnStart@QDeclarativeTimer@@QBE_NXZ @ 1762 NONAME ABSENT ; bool QDeclarativeTimer::triggeredOnStart(void) const
	?notifyRunningChanged@QDeclarativeAbstractAnimation@@AAEX_N@Z @ 1763 NONAME ABSENT ; void QDeclarativeAbstractAnimation::notifyRunningChanged(bool)
	?statusChanged@QDeclarativeDebugClient@@MAEXW4Status@1@@Z @ 1764 NONAME ABSENT ; void QDeclarativeDebugClient::statusChanged(enum QDeclarativeDebugClient::Status)
	??0QDeclarativeBasePositioner@@IAE@AAVQDeclarativeBasePositionerPrivate@@W4PositionerType@0@PAVQDeclarativeItem@@@Z @ 1765 NONAME ABSENT ; QDeclarativeBasePositioner::QDeclarativeBasePositioner(class QDeclarativeBasePositionerPrivate &, enum QDeclarativeBasePositioner::PositionerType, class QDeclarativeItem *)
	?componentComplete@QDeclarativeTimer@@MAEXXZ @ 1766 NONAME ABSENT ; void QDeclarativeTimer::componentComplete(void)
	?tr@QDeclarativeAbstractAnimation@@SA?AVQString@@PBD0@Z @ 1767 NONAME ABSENT ; class QString QDeclarativeAbstractAnimation::tr(char const *, char const *)
	?isRunning@QDeclarativeAbstractAnimation@@QBE_NXZ @ 1768 NONAME ABSENT ; bool QDeclarativeAbstractAnimation::isRunning(void) const
	?d_func@QDeclarativeAbstractAnimation@@ABEPBVQDeclarativeAbstractAnimationPrivate@@XZ @ 1769 NONAME ABSENT ; class QDeclarativeAbstractAnimationPrivate const * QDeclarativeAbstractAnimation::d_func(void) const
	??_EQDeclarativeAbstractAnimation@@UAE@I@Z @ 1770 NONAME ABSENT ; QDeclarativeAbstractAnimation::~QDeclarativeAbstractAnimation(unsigned int)
	??0QDeclarativeBasePositioner@@QAE@W4PositionerType@0@PAVQDeclarativeItem@@@Z @ 1771 NONAME ABSENT ; QDeclarativeBasePositioner::QDeclarativeBasePositioner(enum QDeclarativeBasePositioner::PositionerType, class QDeclarativeItem *)
	?qt_metacall@QDeclarativeBasePositioner@@UAEHW4Call@QMetaObject@@HPAPAX@Z @ 1772 NONAME ABSENT ; int QDeclarativeBasePositioner::qt_metacall(enum QMetaObject::Call, int, void * *)
	?status@QDeclarativeDebugClient@@QBE?AW4Status@1@XZ @ 1773 NONAME ABSENT ; enum QDeclarativeDebugClient::Status QDeclarativeDebugClient::status(void) const
	?prePositioning@QDeclarativeBasePositioner@@IAEXXZ @ 1774 NONAME ABSENT ; void QDeclarativeBasePositioner::prePositioning(void)
	?finishApplyTransitions@QDeclarativeBasePositioner@@IAEXXZ @ 1775 NONAME ABSENT ; void QDeclarativeBasePositioner::finishApplyTransitions(void)
	?d_func@QDeclarativeAbstractAnimation@@AAEPAVQDeclarativeAbstractAnimationPrivate@@XZ @ 1776 NONAME ABSENT ; class QDeclarativeAbstractAnimationPrivate * QDeclarativeAbstractAnimation::d_func(void)
	?componentFinalized@QDeclarativeAbstractAnimation@@AAEXXZ @ 1777 NONAME ABSENT ; void QDeclarativeAbstractAnimation::componentFinalized(void)
	??_EQDeclarativeTimer@@UAE@I@Z @ 1778 NONAME ABSENT ; QDeclarativeTimer::~QDeclarativeTimer(unsigned int)
	?pause@QDeclarativeAbstractAnimation@@QAEXXZ @ 1779 NONAME ABSENT ; void QDeclarativeAbstractAnimation::pause(void)
	?stop@QDeclarativeTimer@@QAEXXZ @ 1780 NONAME ABSENT ; void QDeclarativeTimer::stop(void)
	?timelineComplete@QDeclarativeAbstractAnimation@@AAEXXZ @ 1781 NONAME ABSENT ; void QDeclarativeAbstractAnimation::timelineComplete(void)
	?d_func@QDeclarativeBasePositioner@@AAEPAVQDeclarativeBasePositionerPrivate@@XZ @ 1782 NONAME ABSENT ; class QDeclarativeBasePositionerPrivate * QDeclarativeBasePositioner::d_func(void)
	?setAlwaysRunToEnd@QDeclarativeAbstractAnimation@@QAEX_N@Z @ 1783 NONAME ABSENT ; void QDeclarativeAbstractAnimation::setAlwaysRunToEnd(bool)
	?classBegin@QDeclarativeAbstractAnimation@@UAEXXZ @ 1784 NONAME ABSENT ; void QDeclarativeAbstractAnimation::classBegin(void)
	?d_func@QDeclarativeTimer@@AAEPAVQDeclarativeTimerPrivate@@XZ @ 1785 NONAME ABSENT ; class QDeclarativeTimerPrivate * QDeclarativeTimer::d_func(void)
	?spacing@QDeclarativeBasePositioner@@QBEHXZ @ 1786 NONAME ABSENT ; int QDeclarativeBasePositioner::spacing(void) const
	??0QDeclarativeAbstractAnimation@@QAE@PAVQObject@@@Z @ 1787 NONAME ABSENT ; QDeclarativeAbstractAnimation::QDeclarativeAbstractAnimation(class QObject *)
	?metaObject@QDeclarativeAbstractAnimation@@UBEPBUQMetaObject@@XZ @ 1788 NONAME ABSENT ; struct QMetaObject const * QDeclarativeAbstractAnimation::metaObject(void) const
	?tr@QDeclarativeAbstractAnimation@@SA?AVQString@@PBD0H@Z @ 1789 NONAME ABSENT ; class QString QDeclarativeAbstractAnimation::tr(char const *, char const *, int)
	?started@QDeclarativeAbstractAnimation@@IAEXXZ @ 1790 NONAME ABSENT ; void QDeclarativeAbstractAnimation::started(void)
	?setInterval@QDeclarativeTimer@@QAEXH@Z @ 1791 NONAME ABSENT ; void QDeclarativeTimer::setInterval(int)
	?statusChanged@QDeclarativeEngineDebug@@IAEXW4Status@1@@Z @ 1792 NONAME ABSENT ; void QDeclarativeEngineDebug::statusChanged(enum QDeclarativeEngineDebug::Status)
	?d_func@QDeclarativeTimer@@ABEPBVQDeclarativeTimerPrivate@@XZ @ 1793 NONAME ABSENT ; class QDeclarativeTimerPrivate const * QDeclarativeTimer::d_func(void) const
	?setSpacing@QDeclarativeBasePositioner@@QAEXH@Z @ 1794 NONAME ABSENT ; void QDeclarativeBasePositioner::setSpacing(int)
	?staticMetaObject@QDeclarativeTimer@@2UQMetaObject@@B @ 1795 NONAME ABSENT ; struct QMetaObject const QDeclarativeTimer::staticMetaObject
	?positionY@QDeclarativeBasePositioner@@IAEXHABVPositionedItem@1@@Z @ 1796 NONAME ABSENT ; void QDeclarativeBasePositioner::positionY(int, class QDeclarativeBasePositioner::PositionedItem const &)
	?qt_metacast@QDeclarativeAbstractAnimation@@UAEPAXPBD@Z @ 1797 NONAME ABSENT ; void * QDeclarativeAbstractAnimation::qt_metacast(char const *)
	?setAdd@QDeclarativeBasePositioner@@QAEXPAVQDeclarativeTransition@@@Z @ 1798 NONAME ABSENT ; void QDeclarativeBasePositioner::setAdd(class QDeclarativeTransition *)
	?setCurrentTime@QDeclarativeAbstractAnimation@@QAEXH@Z @ 1799 NONAME ABSENT ; void QDeclarativeAbstractAnimation::setCurrentTime(int)
	?attachedPropertiesId@QDeclarativeType@@QBEHXZ @ 1800 NONAME ABSENT ; int QDeclarativeType::attachedPropertiesId(void) const
	?positionX@QDeclarativeBasePositioner@@IAEXHABVPositionedItem@1@@Z @ 1801 NONAME ABSENT ; void QDeclarativeBasePositioner::positionX(int, class QDeclarativeBasePositioner::PositionedItem const &)
	?restart@QDeclarativeAbstractAnimation@@QAEXXZ @ 1802 NONAME ABSENT ; void QDeclarativeAbstractAnimation::restart(void)
	?itemChange@QDeclarativeBasePositioner@@MAE?AVQVariant@@W4GraphicsItemChange@QGraphicsItem@@ABV2@@Z @ 1803 NONAME ABSENT ; class QVariant QDeclarativeBasePositioner::itemChange(enum QGraphicsItem::GraphicsItemChange, class QVariant const &)
	??0QDeclarativeAbstractAnimation@@IAE@AAVQDeclarativeAbstractAnimationPrivate@@PAVQObject@@@Z @ 1804 NONAME ABSENT ; QDeclarativeAbstractAnimation::QDeclarativeAbstractAnimation(class QDeclarativeAbstractAnimationPrivate &, class QObject *)
	?resume@QDeclarativeAbstractAnimation@@QAEXXZ @ 1805 NONAME ABSENT ; void QDeclarativeAbstractAnimation::resume(void)
	?runningChanged@QDeclarativeTimer@@IAEXXZ @ 1806 NONAME ABSENT ; void QDeclarativeTimer::runningChanged(void)
	?ticked@QDeclarativeTimer@@AAEXXZ @ 1807 NONAME ABSENT ; void QDeclarativeTimer::ticked(void)
	?graphicsWidgetGeometryChanged@QDeclarativeBasePositioner@@IAEXXZ @ 1808 NONAME ABSENT ; void QDeclarativeBasePositioner::graphicsWidgetGeometryChanged(void)
	?trUtf8@QDeclarativeTimer@@SA?AVQString@@PBD0H@Z @ 1809 NONAME ABSENT ; class QString QDeclarativeTimer::trUtf8(char const *, char const *, int)
	??0QDeclarativeTimer@@QAE@PAVQObject@@@Z @ 1810 NONAME ABSENT ; QDeclarativeTimer::QDeclarativeTimer(class QObject *)
	?loops@QDeclarativeAbstractAnimation@@QBEHXZ @ 1811 NONAME ABSENT ; int QDeclarativeAbstractAnimation::loops(void) const
	?setTarget@QDeclarativeAbstractAnimation@@EAEXABVQDeclarativeProperty@@@Z @ 1812 NONAME ABSENT ; void QDeclarativeAbstractAnimation::setTarget(class QDeclarativeProperty const &)
	?alwaysRunToEnd@QDeclarativeAbstractAnimation@@QBE_NXZ @ 1813 NONAME ABSENT ; bool QDeclarativeAbstractAnimation::alwaysRunToEnd(void) const
	?tr@QDeclarativeTimer@@SA?AVQString@@PBD0H@Z @ 1814 NONAME ABSENT ; class QString QDeclarativeTimer::tr(char const *, char const *, int)
	?status@QDeclarativeDebugService@@QBE?AW4Status@1@XZ @ 1815 NONAME ; enum QDeclarativeDebugService::Status QDeclarativeDebugService::status(void) const
	?intervalChanged@QDeclarativeTimer@@IAEXXZ @ 1816 NONAME ABSENT ; void QDeclarativeTimer::intervalChanged(void)
	?isPaused@QDeclarativeAbstractAnimation@@QBE_NXZ @ 1817 NONAME ABSENT ; bool QDeclarativeAbstractAnimation::isPaused(void) const
	?getStaticMetaObject@QDeclarativeAbstractAnimation@@SAABUQMetaObject@@XZ @ 1818 NONAME ABSENT ; struct QMetaObject const & QDeclarativeAbstractAnimation::getStaticMetaObject(void)
	?group@QDeclarativeAbstractAnimation@@QBEPAVQDeclarativeAnimationGroup@@XZ @ 1819 NONAME ABSENT ; class QDeclarativeAnimationGroup * QDeclarativeAbstractAnimation::group(void) const
	?classBegin@QDeclarativeTimer@@MAEXXZ @ 1820 NONAME ABSENT ; void QDeclarativeTimer::classBegin(void)
	?restart@QDeclarativeTimer@@QAEXXZ @ 1821 NONAME ABSENT ; void QDeclarativeTimer::restart(void)
	?move@QDeclarativeBasePositioner@@QBEPAVQDeclarativeTransition@@XZ @ 1822 NONAME ABSENT ; class QDeclarativeTransition * QDeclarativeBasePositioner::move(void) const
	?spacingChanged@QDeclarativeBasePositioner@@IAEXXZ @ 1823 NONAME ABSENT ; void QDeclarativeBasePositioner::spacingChanged(void)
	?qt_metacast@QDeclarativeBasePositioner@@UAEPAXPBD@Z @ 1824 NONAME ABSENT ; void * QDeclarativeBasePositioner::qt_metacast(char const *)
	??1QDeclarativeTimer@@UAE@XZ @ 1825 NONAME ABSENT ; QDeclarativeTimer::~QDeclarativeTimer(void)
	?getStaticMetaObject@QDeclarativeTimer@@SAABUQMetaObject@@XZ @ 1826 NONAME ABSENT ; struct QMetaObject const & QDeclarativeTimer::getStaticMetaObject(void)
	?tr@QDeclarativeBasePositioner@@SA?AVQString@@PBD0H@Z @ 1827 NONAME ABSENT ; class QString QDeclarativeBasePositioner::tr(char const *, char const *, int)
	??1QDeclarativeBasePositioner@@UAE@XZ @ 1828 NONAME ABSENT ; QDeclarativeBasePositioner::~QDeclarativeBasePositioner(void)
	?moveChanged@QDeclarativeBasePositioner@@IAEXXZ @ 1829 NONAME ABSENT ; void QDeclarativeBasePositioner::moveChanged(void)
	?qt_metacast@QDeclarativeTimer@@UAEPAXPBD@Z @ 1830 NONAME ABSENT ; void * QDeclarativeTimer::qt_metacast(char const *)
	?metaObject@QDeclarativeBasePositioner@@UBEPBUQMetaObject@@XZ @ 1831 NONAME ABSENT ; struct QMetaObject const * QDeclarativeBasePositioner::metaObject(void) const
	?alwaysRunToEndChanged@QDeclarativeAbstractAnimation@@IAEX_N@Z @ 1832 NONAME ABSENT ; void QDeclarativeAbstractAnimation::alwaysRunToEndChanged(bool)
	?triggeredOnStartChanged@QDeclarativeTimer@@IAEXXZ @ 1833 NONAME ABSENT ; void QDeclarativeTimer::triggeredOnStartChanged(void)
	?isRunning@QDeclarativeTimer@@QBE_NXZ @ 1834 NONAME ABSENT ; bool QDeclarativeTimer::isRunning(void) const
	?update@QDeclarativeTimer@@AAEXXZ @ 1835 NONAME ABSENT ; void QDeclarativeTimer::update(void)
	?stop@QDeclarativeAbstractAnimation@@QAEXXZ @ 1836 NONAME ABSENT ; void QDeclarativeAbstractAnimation::stop(void)
	?addChanged@QDeclarativeBasePositioner@@IAEXXZ @ 1837 NONAME ABSENT ; void QDeclarativeBasePositioner::addChanged(void)
	?start@QDeclarativeAbstractAnimation@@QAEXXZ @ 1838 NONAME ABSENT ; void QDeclarativeAbstractAnimation::start(void)
	?qt_metacall@QDeclarativeAbstractAnimation@@UAEHW4Call@QMetaObject@@HPAPAX@Z @ 1839 NONAME ABSENT ; int QDeclarativeAbstractAnimation::qt_metacall(enum QMetaObject::Call, int, void * *)
	?enableDebugging@QDeclarativeDebugHelper@@SAXXZ @ 1840 NONAME ; void QDeclarativeDebugHelper::enableDebugging(void)
	?connect@QDeclarativePropertyPrivate@@SA_NPBVQObject@@H0HHPAH@Z @ 1841 NONAME ABSENT ; bool QDeclarativePropertyPrivate::connect(class QObject const *, int, class QObject const *, int, int, int *)
	?qt_metacall@QDeclarativeDebugServer@@UAEHW4Call@QMetaObject@@HPAPAX@Z @ 1842 NONAME ; int QDeclarativeDebugServer::qt_metacall(enum QMetaObject::Call, int, void * *)
	?implicitHeight@QDeclarativeItemPrivate@@UBEMXZ @ 1843 NONAME ; float QDeclarativeItemPrivate::implicitHeight(void) const
	?instance@QDeclarativeDebugServer@@SAPAV1@XZ @ 1844 NONAME ; class QDeclarativeDebugServer * QDeclarativeDebugServer::instance(void)
	?addService@QDeclarativeDebugServer@@QAE_NPAVQDeclarativeDebugService@@@Z @ 1845 NONAME ; bool QDeclarativeDebugServer::addService(class QDeclarativeDebugService *)
	?containsPropertyInRevertList@QDeclarativeState@@QBE_NPAVQObject@@ABVQString@@@Z @ 1846 NONAME ; bool QDeclarativeState::containsPropertyInRevertList(class QObject *, class QString const &) const
	?data@QPacket@@QBE?AVQByteArray@@XZ @ 1847 NONAME ; class QByteArray QPacket::data(void) const
	?removeService@QDeclarativeDebugServer@@QAE_NPAVQDeclarativeDebugService@@@Z @ 1848 NONAME ; bool QDeclarativeDebugServer::removeService(class QDeclarativeDebugService *)
	?serviceNames@QDeclarativeDebugServer@@QBE?AVQStringList@@XZ @ 1849 NONAME ; class QStringList QDeclarativeDebugServer::serviceNames(void) const
	??_EQDeclarativeDebugServer@@UAE@I@Z @ 1850 NONAME ; QDeclarativeDebugServer::~QDeclarativeDebugServer(unsigned int)
	?staticMetaObject@QDeclarativeDebugServer@@2UQMetaObject@@B @ 1851 NONAME ; struct QMetaObject const QDeclarativeDebugServer::staticMetaObject
	?services@QDeclarativeDebugServer@@QBE?AV?$QList@PAVQDeclarativeDebugService@@@@XZ @ 1852 NONAME ; class QList<class QDeclarativeDebugService *> QDeclarativeDebugServer::services(void) const
	?rewriteBinding@QDeclarativeCustomParser@@IAEHABVQString@@ABVQByteArray@@@Z @ 1853 NONAME ; int QDeclarativeCustomParser::rewriteBinding(class QString const &, class QByteArray const &)
	?changeValueInRevertList@QDeclarativeState@@QAE_NPAVQObject@@ABVQString@@ABVQVariant@@@Z @ 1854 NONAME ; bool QDeclarativeState::changeValueInRevertList(class QObject *, class QString const &, class QVariant const &)
	?load@QDeclarativePixmap@@QAEXPAVQDeclarativeEngine@@ABVQUrl@@ABVQSize@@V?$QFlags@W4Option@QDeclarativePixmap@@@@@Z @ 1855 NONAME ; void QDeclarativePixmap::load(class QDeclarativeEngine *, class QUrl const &, class QSize const &, class QFlags<enum QDeclarativePixmap::Option>)
	?implicitHeightChanged@QDeclarativeItemPrivate@@UAEXXZ @ 1856 NONAME ; void QDeclarativeItemPrivate::implicitHeightChanged(void)
	?implicitWidthChanged@QDeclarativeItem@@IAEXXZ @ 1857 NONAME ; void QDeclarativeItem::implicitWidthChanged(void)
	?implicitWidthChanged@QDeclarativeItemPrivate@@UAEXXZ @ 1858 NONAME ; void QDeclarativeItemPrivate::implicitWidthChanged(void)
	?trUtf8@QDeclarativeDebugServer@@SA?AVQString@@PBD0H@Z @ 1859 NONAME ; class QString QDeclarativeDebugServer::trUtf8(char const *, char const *, int)
	?implicitHeightChanged@QDeclarativeItem@@IAEXXZ @ 1860 NONAME ; void QDeclarativeItem::implicitHeightChanged(void)
	?load@QDeclarativePixmap@@QAEXPAVQDeclarativeEngine@@ABVQUrl@@V?$QFlags@W4Option@QDeclarativePixmap@@@@@Z @ 1861 NONAME ; void QDeclarativePixmap::load(class QDeclarativeEngine *, class QUrl const &, class QFlags<enum QDeclarativePixmap::Option>)
	?trUtf8@QDeclarativeDebugServer@@SA?AVQString@@PBD0@Z @ 1862 NONAME ; class QString QDeclarativeDebugServer::trUtf8(char const *, char const *)
	??_EQDeclarativeDebugServerConnection@@UAE@I@Z @ 1863 NONAME ; QDeclarativeDebugServerConnection::~QDeclarativeDebugServerConnection(unsigned int)
	?receiveMessage@QDeclarativeDebugServer@@QAEXABVQByteArray@@@Z @ 1864 NONAME ; void QDeclarativeDebugServer::receiveMessage(class QByteArray const &)
	??0QDeclarativeDebugServer@@AAE@XZ @ 1865 NONAME ; QDeclarativeDebugServer::QDeclarativeDebugServer(void)
	?tr@QDeclarativeDebugServer@@SA?AVQString@@PBD0@Z @ 1866 NONAME ; class QString QDeclarativeDebugServer::tr(char const *, char const *)
	??1QDeclarativeDebugServer@@UAE@XZ @ 1867 NONAME ; QDeclarativeDebugServer::~QDeclarativeDebugServer(void)
	?sendMessage@QDeclarativeDebugServer@@QAEXPAVQDeclarativeDebugService@@ABVQByteArray@@@Z @ 1868 NONAME ; void QDeclarativeDebugServer::sendMessage(class QDeclarativeDebugService *, class QByteArray const &)
	??1QDeclarativeDebugServerConnection@@UAE@XZ @ 1869 NONAME ; QDeclarativeDebugServerConnection::~QDeclarativeDebugServerConnection(void)
	?qt_metacast@QDeclarativeDebugServer@@UAEPAXPBD@Z @ 1870 NONAME ; void * QDeclarativeDebugServer::qt_metacast(char const *)
	?hasDebuggingClient@QDeclarativeDebugServer@@QBE_NXZ @ 1871 NONAME ; bool QDeclarativeDebugServer::hasDebuggingClient(void) const
	?bindingInRevertList@QDeclarativeState@@QBEPAVQDeclarativeAbstractBinding@@PAVQObject@@ABVQString@@@Z @ 1872 NONAME ; class QDeclarativeAbstractBinding * QDeclarativeState::bindingInRevertList(class QObject *, class QString const &) const
	?getStaticMetaObject@QDeclarativeDebugServer@@SAABUQMetaObject@@XZ @ 1873 NONAME ; struct QMetaObject const & QDeclarativeDebugServer::getStaticMetaObject(void)
	?metaObject@QDeclarativeDebugServer@@UBEPBUQMetaObject@@XZ @ 1874 NONAME ; struct QMetaObject const * QDeclarativeDebugServer::metaObject(void) const
	?d_func@QDeclarativeDebugServer@@ABEPBVQDeclarativeDebugServerPrivate@@XZ @ 1875 NONAME ; class QDeclarativeDebugServerPrivate const * QDeclarativeDebugServer::d_func(void) const
	??0QDeclarativeExpression@@IAE@PAVQDeclarativeContextData@@PAVQObject@@ABVQScriptValue@@AAVQDeclarativeExpressionPrivate@@@Z @ 1876 NONAME ; QDeclarativeExpression::QDeclarativeExpression(class QDeclarativeContextData *, class QObject *, class QScriptValue const &, class QDeclarativeExpressionPrivate &)
	?createObject@QDeclarativeComponent@@IAE?AVQScriptValue@@PAVQObject@@ABV2@@Z @ 1877 NONAME ; class QScriptValue QDeclarativeComponent::createObject(class QObject *, class QScriptValue const &)
	?changeBindingInRevertList@QDeclarativeState@@QAE_NPAVQObject@@ABVQString@@PAVQDeclarativeAbstractBinding@@@Z @ 1878 NONAME ; bool QDeclarativeState::changeBindingInRevertList(class QObject *, class QString const &, class QDeclarativeAbstractBinding *)
	??0QDeclarativeDebugServerConnection@@QAE@XZ @ 1879 NONAME ; QDeclarativeDebugServerConnection::QDeclarativeDebugServerConnection(void)
	?valueInRevertList@QDeclarativeState@@QBE?AVQVariant@@PAVQObject@@ABVQString@@@Z @ 1880 NONAME ; class QVariant QDeclarativeState::valueInRevertList(class QObject *, class QString const &) const
	?removeEntryFromRevertList@QDeclarativeState@@QAE_NPAVQObject@@ABVQString@@@Z @ 1881 NONAME ; bool QDeclarativeState::removeEntryFromRevertList(class QObject *, class QString const &)
	?d_func@QDeclarativeDebugServer@@AAEPAVQDeclarativeDebugServerPrivate@@XZ @ 1882 NONAME ; class QDeclarativeDebugServerPrivate * QDeclarativeDebugServer::d_func(void)
	?tr@QDeclarativeDebugServer@@SA?AVQString@@PBD0H@Z @ 1883 NONAME ; class QString QDeclarativeDebugServer::tr(char const *, char const *, int)
	?implicitWidth@QDeclarativeItemPrivate@@UBEMXZ @ 1884 NONAME ; float QDeclarativeItemPrivate::implicitWidth(void) const
	??_EQDeclarativeRefCount@@UAE@I@Z @ 1885 NONAME ; QDeclarativeRefCount::~QDeclarativeRefCount(unsigned int)
	??0QDeclarativeRefCount@@QAE@XZ @ 1886 NONAME ; QDeclarativeRefCount::QDeclarativeRefCount(void)
	??1QDeclarativeRefCount@@UAE@XZ @ 1887 NONAME ; QDeclarativeRefCount::~QDeclarativeRefCount(void)
	?addref@QDeclarativeRefCount@@QAEXXZ @ 1888 NONAME ; void QDeclarativeRefCount::addref(void)
	?release@QDeclarativeRefCount@@QAEXXZ @ 1889 NONAME ; void QDeclarativeRefCount::release(void)
	?resolveLayoutMirror@QDeclarativeItemPrivate@@QAEXXZ @ 1890 NONAME ; void QDeclarativeItemPrivate::resolveLayoutMirror(void)
	?mirrorChange@QDeclarativeItemPrivate@@UAEXXZ @ 1891 NONAME ; void QDeclarativeItemPrivate::mirrorChange(void)
	?setLayoutMirror@QDeclarativeItemPrivate@@QAEX_N@Z @ 1892 NONAME ; void QDeclarativeItemPrivate::setLayoutMirror(bool)
	?setImplicitLayoutMirror@QDeclarativeItemPrivate@@QAEX_N0@Z @ 1893 NONAME ; void QDeclarativeItemPrivate::setImplicitLayoutMirror(bool, bool)
	?isMirrored@QDeclarativeItemPrivate@@QBE_NXZ @ 1894 NONAME ; bool QDeclarativeItemPrivate::isMirrored(void) const
	?qt_static_metacall@QDeclarativeExtensionPlugin@@CAXPAVQObject@@W4Call@QMetaObject@@HPAPAX@Z @ 1895 NONAME ; void QDeclarativeExtensionPlugin::qt_static_metacall(class QObject *, enum QMetaObject::Call, int, void * *)
	?staticMetaObjectExtraData@QDeclarativeEngine@@0UQMetaObjectExtraData@@B @ 1896 NONAME ; struct QMetaObjectExtraData const QDeclarativeEngine::staticMetaObjectExtraData
	?staticMetaObjectExtraData@QDeclarativeComponent@@0UQMetaObjectExtraData@@B @ 1897 NONAME ; struct QMetaObjectExtraData const QDeclarativeComponent::staticMetaObjectExtraData
	?staticMetaObjectExtraData@QDeclarativeState@@0UQMetaObjectExtraData@@B @ 1898 NONAME ; struct QMetaObjectExtraData const QDeclarativeState::staticMetaObjectExtraData
	?staticMetaObjectExtraData@QPacketProtocol@@0UQMetaObjectExtraData@@B @ 1899 NONAME ; struct QMetaObjectExtraData const QPacketProtocol::staticMetaObjectExtraData
	?staticMetaObjectExtraData@QDeclarativeExtensionPlugin@@0UQMetaObjectExtraData@@B @ 1900 NONAME ; struct QMetaObjectExtraData const QDeclarativeExtensionPlugin::staticMetaObjectExtraData
	?staticMetaObjectExtraData@QDeclarativeContext@@0UQMetaObjectExtraData@@B @ 1901 NONAME ; struct QMetaObjectExtraData const QDeclarativeContext::staticMetaObjectExtraData
	?qt_static_metacall@QPacketProtocol@@CAXPAVQObject@@W4Call@QMetaObject@@HPAPAX@Z @ 1902 NONAME ; void QPacketProtocol::qt_static_metacall(class QObject *, enum QMetaObject::Call, int, void * *)
	?staticMetaObjectExtraData@QDeclarativeDebugServer@@0UQMetaObjectExtraData@@B @ 1903 NONAME ; struct QMetaObjectExtraData const QDeclarativeDebugServer::staticMetaObjectExtraData
	?qt_static_metacall@QDeclarativeStateOperation@@CAXPAVQObject@@W4Call@QMetaObject@@HPAPAX@Z @ 1904 NONAME ; void QDeclarativeStateOperation::qt_static_metacall(class QObject *, enum QMetaObject::Call, int, void * *)
	?qt_static_metacall@QDeclarativeComponent@@CAXPAVQObject@@W4Call@QMetaObject@@HPAPAX@Z @ 1905 NONAME ; void QDeclarativeComponent::qt_static_metacall(class QObject *, enum QMetaObject::Call, int, void * *)
	?staticMetaObjectExtraData@QDeclarativeTransition@@0UQMetaObjectExtraData@@B @ 1906 NONAME ; struct QMetaObjectExtraData const QDeclarativeTransition::staticMetaObjectExtraData
	?qt_static_metacall@QDeclarativePropertyMap@@CAXPAVQObject@@W4Call@QMetaObject@@HPAPAX@Z @ 1907 NONAME ; void QDeclarativePropertyMap::qt_static_metacall(class QObject *, enum QMetaObject::Call, int, void * *)
	?qt_static_metacall@QDeclarativeDebugService@@CAXPAVQObject@@W4Call@QMetaObject@@HPAPAX@Z @ 1908 NONAME ; void QDeclarativeDebugService::qt_static_metacall(class QObject *, enum QMetaObject::Call, int, void * *)
	?qt_static_metacall@QDeclarativeContext@@CAXPAVQObject@@W4Call@QMetaObject@@HPAPAX@Z @ 1909 NONAME ; void QDeclarativeContext::qt_static_metacall(class QObject *, enum QMetaObject::Call, int, void * *)
	?staticMetaObjectExtraData@QDeclarativeItem@@0UQMetaObjectExtraData@@B @ 1910 NONAME ; struct QMetaObjectExtraData const QDeclarativeItem::staticMetaObjectExtraData
	?qt_static_metacall@QDeclarativeState@@CAXPAVQObject@@W4Call@QMetaObject@@HPAPAX@Z @ 1911 NONAME ; void QDeclarativeState::qt_static_metacall(class QObject *, enum QMetaObject::Call, int, void * *)
	?staticMetaObjectExtraData@QDeclarativeDebugService@@0UQMetaObjectExtraData@@B @ 1912 NONAME ; struct QMetaObjectExtraData const QDeclarativeDebugService::staticMetaObjectExtraData
	?qt_static_metacall@QDeclarativeItem@@CAXPAVQObject@@W4Call@QMetaObject@@HPAPAX@Z @ 1913 NONAME ; void QDeclarativeItem::qt_static_metacall(class QObject *, enum QMetaObject::Call, int, void * *)
	?staticMetaObjectExtraData@QDeclarativeStateOperation@@0UQMetaObjectExtraData@@B @ 1914 NONAME ; struct QMetaObjectExtraData const QDeclarativeStateOperation::staticMetaObjectExtraData
	?staticMetaObjectExtraData@QDeclarativePropertyMap@@0UQMetaObjectExtraData@@B @ 1915 NONAME ; struct QMetaObjectExtraData const QDeclarativePropertyMap::staticMetaObjectExtraData
	?qt_static_metacall@QDeclarativeDebugServer@@CAXPAVQObject@@W4Call@QMetaObject@@HPAPAX@Z @ 1916 NONAME ; void QDeclarativeDebugServer::qt_static_metacall(class QObject *, enum QMetaObject::Call, int, void * *)
	?qt_static_metacall@QDeclarativeExpression@@CAXPAVQObject@@W4Call@QMetaObject@@HPAPAX@Z @ 1917 NONAME ; void QDeclarativeExpression::qt_static_metacall(class QObject *, enum QMetaObject::Call, int, void * *)
	?qt_static_metacall@QDeclarativeView@@CAXPAVQObject@@W4Call@QMetaObject@@HPAPAX@Z @ 1918 NONAME ; void QDeclarativeView::qt_static_metacall(class QObject *, enum QMetaObject::Call, int, void * *)
	?qt_static_metacall@QDeclarativeTransition@@CAXPAVQObject@@W4Call@QMetaObject@@HPAPAX@Z @ 1919 NONAME ; void QDeclarativeTransition::qt_static_metacall(class QObject *, enum QMetaObject::Call, int, void * *)
	?qt_static_metacall@QDeclarativeStateGroup@@CAXPAVQObject@@W4Call@QMetaObject@@HPAPAX@Z @ 1920 NONAME ; void QDeclarativeStateGroup::qt_static_metacall(class QObject *, enum QMetaObject::Call, int, void * *)
	?staticMetaObjectExtraData@QDeclarativeExpression@@0UQMetaObjectExtraData@@B @ 1921 NONAME ; struct QMetaObjectExtraData const QDeclarativeExpression::staticMetaObjectExtraData
	?staticMetaObjectExtraData@QDeclarativeStateGroup@@0UQMetaObjectExtraData@@B @ 1922 NONAME ; struct QMetaObjectExtraData const QDeclarativeStateGroup::staticMetaObjectExtraData
	?staticMetaObjectExtraData@QDeclarativeView@@0UQMetaObjectExtraData@@B @ 1923 NONAME ; struct QMetaObjectExtraData const QDeclarativeView::staticMetaObjectExtraData
	?qt_static_metacall@QDeclarativeEngine@@CAXPAVQObject@@W4Call@QMetaObject@@HPAPAX@Z @ 1924 NONAME ; void QDeclarativeEngine::qt_static_metacall(class QObject *, enum QMetaObject::Call, int, void * *)

