EXPORTS
	??0Key@QPixmapCache@@QAE@ABV01@@Z @ 1 NONAME ; QPixmapCache::Key::Key(class QPixmapCache::Key const &)
	??0Key@QPixmapCache@@QAE@XZ @ 2 NONAME ; QPixmapCache::Key::Key(void)
	??0Parser@QCss@@QAE@ABVQString@@_N@Z @ 3 NONAME ; QCss::Parser::Parser(class QString const &, bool)
	??0Parser@QCss@@QAE@XZ @ 4 NONAME ; QCss::Parser::Parser(void)
	??0QAbstractButton@@IAE@AAVQAbstractButtonPrivate@@PAVQWidget@@@Z @ 5 NONAME ; QAbstractButton::QAbstractButton(class QAbstractButtonPrivate &, class QWidget *)
	??0QAbstractButton@@QAE@PAVQWidget@@@Z @ 6 NONAME ; QAbstractButton::QAbstractButton(class QWidget *)
	??0QAbstractGraphicsShapeItem@@IAE@AAVQAbstractGraphicsShapeItemPrivate@@PAVQGraphicsItem@@PAVQGraphicsScene@@@Z @ 7 NONAME ; QAbstractGraphicsShapeItem::QAbstractGraphicsShapeItem(class QAbstractGraphicsShapeItemPrivate &, class QGraphicsItem *, class QGraphicsScene *)
	??0QAbstractGraphicsShapeItem@@QAE@PAVQGraphicsItem@@PAVQGraphicsScene@@@Z @ 8 NONAME ; QAbstractGraphicsShapeItem::QAbstractGraphicsShapeItem(class QGraphicsItem *, class QGraphicsScene *)
	??0QAbstractItemDelegate@@IAE@AAVQObjectPrivate@@PAVQObject@@@Z @ 9 NONAME ; QAbstractItemDelegate::QAbstractItemDelegate(class QObjectPrivate &, class QObject *)
	??0QAbstractItemDelegate@@QAE@PAVQObject@@@Z @ 10 NONAME ; QAbstractItemDelegate::QAbstractItemDelegate(class QObject *)
	??0QAbstractItemView@@IAE@AAVQAbstractItemViewPrivate@@PAVQWidget@@@Z @ 11 NONAME ; QAbstractItemView::QAbstractItemView(class QAbstractItemViewPrivate &, class QWidget *)
	??0QAbstractItemView@@QAE@PAVQWidget@@@Z @ 12 NONAME ; QAbstractItemView::QAbstractItemView(class QWidget *)
	??0QAbstractProxyModel@@IAE@AAVQAbstractProxyModelPrivate@@PAVQObject@@@Z @ 13 NONAME ; QAbstractProxyModel::QAbstractProxyModel(class QAbstractProxyModelPrivate &, class QObject *)
	??0QAbstractProxyModel@@QAE@PAVQObject@@@Z @ 14 NONAME ; QAbstractProxyModel::QAbstractProxyModel(class QObject *)
	??0QAbstractScrollArea@@IAE@AAVQAbstractScrollAreaPrivate@@PAVQWidget@@@Z @ 15 NONAME ; QAbstractScrollArea::QAbstractScrollArea(class QAbstractScrollAreaPrivate &, class QWidget *)
	??0QAbstractScrollArea@@QAE@PAVQWidget@@@Z @ 16 NONAME ; QAbstractScrollArea::QAbstractScrollArea(class QWidget *)
	??0QAbstractSlider@@IAE@AAVQAbstractSliderPrivate@@PAVQWidget@@@Z @ 17 NONAME ; QAbstractSlider::QAbstractSlider(class QAbstractSliderPrivate &, class QWidget *)
	??0QAbstractSlider@@QAE@PAVQWidget@@@Z @ 18 NONAME ; QAbstractSlider::QAbstractSlider(class QWidget *)
	??0QAbstractSpinBox@@IAE@AAVQAbstractSpinBoxPrivate@@PAVQWidget@@@Z @ 19 NONAME ; QAbstractSpinBox::QAbstractSpinBox(class QAbstractSpinBoxPrivate &, class QWidget *)
	??0QAbstractSpinBox@@QAE@PAVQWidget@@@Z @ 20 NONAME ; QAbstractSpinBox::QAbstractSpinBox(class QWidget *)
	??0QAbstractTextDocumentLayout@@IAE@AAVQAbstractTextDocumentLayoutPrivate@@PAVQTextDocument@@@Z @ 21 NONAME ; QAbstractTextDocumentLayout::QAbstractTextDocumentLayout(class QAbstractTextDocumentLayoutPrivate &, class QTextDocument *)
	??0QAbstractTextDocumentLayout@@QAE@PAVQTextDocument@@@Z @ 22 NONAME ; QAbstractTextDocumentLayout::QAbstractTextDocumentLayout(class QTextDocument *)
	??0QAction@@IAE@AAVQActionPrivate@@PAVQObject@@@Z @ 23 NONAME ; QAction::QAction(class QActionPrivate &, class QObject *)
	??0QAction@@QAE@ABVQIcon@@ABVQString@@PAVQObject@@@Z @ 24 NONAME ; QAction::QAction(class QIcon const &, class QString const &, class QObject *)
	??0QAction@@QAE@ABVQString@@PAVQObject@@@Z @ 25 NONAME ; QAction::QAction(class QString const &, class QObject *)
	??0QAction@@QAE@PAVQObject@@@Z @ 26 NONAME ; QAction::QAction(class QObject *)
	??0QActionEvent@@QAE@HPAVQAction@@0@Z @ 27 NONAME ; QActionEvent::QActionEvent(int, class QAction *, class QAction *)
	??0QActionGroup@@QAE@PAVQObject@@@Z @ 28 NONAME ; QActionGroup::QActionGroup(class QObject *)
	??0QApplication@@IAE@AAHPAPAD@Z @ 29 NONAME ; QApplication::QApplication(int &, char * *)
	??0QApplication@@IAE@AAHPAPADW4Type@0@@Z @ 30 NONAME ; QApplication::QApplication(int &, char * *, enum QApplication::Type)
	??0QApplication@@IAE@AAHPAPAD_N@Z @ 31 NONAME ; QApplication::QApplication(int &, char * *, bool)
	??0QApplication@@IAE@P6APAVCApaApplication@@XZAAHPAPAD@Z @ 32 NONAME ; QApplication::QApplication(class CApaApplication * (*)(void), int &, char * *)
	??0QApplication@@QAE@AAHPAPADH@Z @ 33 NONAME ; QApplication::QApplication(int &, char * *, int)
	??0QApplication@@QAE@AAHPAPADW4Type@0@H@Z @ 34 NONAME ; QApplication::QApplication(int &, char * *, enum QApplication::Type, int)
	??0QApplication@@QAE@AAHPAPAD_NH@Z @ 35 NONAME ; QApplication::QApplication(int &, char * *, bool, int)
	??0QApplication@@QAE@P6APAVCApaApplication@@XZAAHPAPADH@Z @ 36 NONAME ; QApplication::QApplication(class CApaApplication * (*)(void), int &, char * *, int)
	??0QApplicationPrivate@@QAE@AAHPAPADW4Type@QApplication@@@Z @ 37 NONAME ABSENT ; QApplicationPrivate::QApplicationPrivate(int &, char * *, enum QApplication::Type)
	??0QBitmap@@QAE@ABVQPixmap@@@Z @ 38 NONAME ; QBitmap::QBitmap(class QPixmap const &)
	??0QBitmap@@QAE@ABVQSize@@@Z @ 39 NONAME ; QBitmap::QBitmap(class QSize const &)
	??0QBitmap@@QAE@ABVQString@@PBD@Z @ 40 NONAME ; QBitmap::QBitmap(class QString const &, char const *)
	??0QBitmap@@QAE@HH@Z @ 41 NONAME ; QBitmap::QBitmap(int, int)
	??0QBitmap@@QAE@XZ @ 42 NONAME ; QBitmap::QBitmap(void)
	??0QBoxLayout@@QAE@W4Direction@0@PAVQWidget@@@Z @ 43 NONAME ; QBoxLayout::QBoxLayout(enum QBoxLayout::Direction, class QWidget *)
	??0QBrush@@QAE@ABV0@@Z @ 44 NONAME ; QBrush::QBrush(class QBrush const &)
	??0QBrush@@QAE@ABVQColor@@ABVQPixmap@@@Z @ 45 NONAME ; QBrush::QBrush(class QColor const &, class QPixmap const &)
	??0QBrush@@QAE@ABVQColor@@W4BrushStyle@Qt@@@Z @ 46 NONAME ; QBrush::QBrush(class QColor const &, enum Qt::BrushStyle)
	??0QBrush@@QAE@ABVQGradient@@@Z @ 47 NONAME ; QBrush::QBrush(class QGradient const &)
	??0QBrush@@QAE@ABVQImage@@@Z @ 48 NONAME ; QBrush::QBrush(class QImage const &)
	??0QBrush@@QAE@ABVQPixmap@@@Z @ 49 NONAME ; QBrush::QBrush(class QPixmap const &)
	??0QBrush@@QAE@W4BrushStyle@Qt@@@Z @ 50 NONAME ; QBrush::QBrush(enum Qt::BrushStyle)
	??0QBrush@@QAE@W4GlobalColor@Qt@@ABVQPixmap@@@Z @ 51 NONAME ; QBrush::QBrush(enum Qt::GlobalColor, class QPixmap const &)
	??0QBrush@@QAE@W4GlobalColor@Qt@@W4BrushStyle@2@@Z @ 52 NONAME ; QBrush::QBrush(enum Qt::GlobalColor, enum Qt::BrushStyle)
	??0QBrush@@QAE@XZ @ 53 NONAME ; QBrush::QBrush(void)
	??0QButtonGroup@@QAE@PAVQObject@@@Z @ 54 NONAME ; QButtonGroup::QButtonGroup(class QObject *)
	??0QCalendarWidget@@QAE@PAVQWidget@@@Z @ 55 NONAME ; QCalendarWidget::QCalendarWidget(class QWidget *)
	??0QCheckBox@@QAE@ABVQString@@PAVQWidget@@@Z @ 56 NONAME ; QCheckBox::QCheckBox(class QString const &, class QWidget *)
	??0QCheckBox@@QAE@PAVQWidget@@@Z @ 57 NONAME ; QCheckBox::QCheckBox(class QWidget *)
	??0QClipboard@@AAE@PAVQObject@@@Z @ 58 NONAME ; QClipboard::QClipboard(class QObject *)
	??0QClipboardEvent@@QAE@PAVQEventPrivate@@@Z @ 59 NONAME ; QClipboardEvent::QClipboardEvent(class QEventPrivate *)
	??0QCloseEvent@@QAE@XZ @ 60 NONAME ; QCloseEvent::QCloseEvent(void)
	??0QColor@@QAE@ABV0@@Z @ 61 NONAME ; QColor::QColor(class QColor const &)
	??0QColor@@QAE@ABVQString@@@Z @ 62 NONAME ; QColor::QColor(class QString const &)
	??0QColor@@QAE@HHHH@Z @ 63 NONAME ; QColor::QColor(int, int, int, int)
	??0QColor@@QAE@I@Z @ 64 NONAME ; QColor::QColor(unsigned int)
	??0QColor@@QAE@PBD@Z @ 65 NONAME ; QColor::QColor(char const *)
	??0QColor@@QAE@W4GlobalColor@Qt@@@Z @ 66 NONAME ; QColor::QColor(enum Qt::GlobalColor)
	??0QColor@@QAE@W4Spec@0@@Z @ 67 NONAME ; QColor::QColor(enum QColor::Spec)
	??0QColor@@QAE@XZ @ 68 NONAME ; QColor::QColor(void)
	??0QColorDialog@@QAE@ABVQColor@@PAVQWidget@@@Z @ 69 NONAME ; QColorDialog::QColorDialog(class QColor const &, class QWidget *)
	??0QColorDialog@@QAE@PAVQWidget@@@Z @ 70 NONAME ; QColorDialog::QColorDialog(class QWidget *)
	??0QColormap@@AAE@XZ @ 71 NONAME ; QColormap::QColormap(void)
	??0QColormap@@QAE@ABV0@@Z @ 72 NONAME ; QColormap::QColormap(class QColormap const &)
	??0QColumnView@@IAE@AAVQColumnViewPrivate@@PAVQWidget@@@Z @ 73 NONAME ; QColumnView::QColumnView(class QColumnViewPrivate &, class QWidget *)
	??0QColumnView@@QAE@PAVQWidget@@@Z @ 74 NONAME ; QColumnView::QColumnView(class QWidget *)
	??0QComboBox@@IAE@AAVQComboBoxPrivate@@PAVQWidget@@@Z @ 75 NONAME ; QComboBox::QComboBox(class QComboBoxPrivate &, class QWidget *)
	??0QComboBox@@QAE@PAVQWidget@@@Z @ 76 NONAME ; QComboBox::QComboBox(class QWidget *)
	??0QCommandLinkButton@@QAE@ABVQString@@0PAVQWidget@@@Z @ 77 NONAME ; QCommandLinkButton::QCommandLinkButton(class QString const &, class QString const &, class QWidget *)
	??0QCommandLinkButton@@QAE@ABVQString@@PAVQWidget@@@Z @ 78 NONAME ; QCommandLinkButton::QCommandLinkButton(class QString const &, class QWidget *)
	??0QCommandLinkButton@@QAE@PAVQWidget@@@Z @ 79 NONAME ; QCommandLinkButton::QCommandLinkButton(class QWidget *)
	??0QCommonStyle@@IAE@AAVQCommonStylePrivate@@@Z @ 80 NONAME ; QCommonStyle::QCommonStyle(class QCommonStylePrivate &)
	??0QCommonStyle@@QAE@XZ @ 81 NONAME ; QCommonStyle::QCommonStyle(void)
	??0QCompleter@@QAE@ABVQStringList@@PAVQObject@@@Z @ 82 NONAME ; QCompleter::QCompleter(class QStringList const &, class QObject *)
	??0QCompleter@@QAE@PAVQAbstractItemModel@@PAVQObject@@@Z @ 83 NONAME ; QCompleter::QCompleter(class QAbstractItemModel *, class QObject *)
	??0QCompleter@@QAE@PAVQObject@@@Z @ 84 NONAME ; QCompleter::QCompleter(class QObject *)
	??0QConicalGradient@@QAE@ABVQPointF@@M@Z @ 85 NONAME ; QConicalGradient::QConicalGradient(class QPointF const &, float)
	??0QConicalGradient@@QAE@MMM@Z @ 86 NONAME ; QConicalGradient::QConicalGradient(float, float, float)
	??0QConicalGradient@@QAE@XZ @ 87 NONAME ; QConicalGradient::QConicalGradient(void)
	??0QContextMenuEvent@@QAE@W4Reason@0@ABVQPoint@@1@Z @ 88 NONAME ; QContextMenuEvent::QContextMenuEvent(enum QContextMenuEvent::Reason, class QPoint const &, class QPoint const &)
	??0QContextMenuEvent@@QAE@W4Reason@0@ABVQPoint@@1V?$QFlags@W4KeyboardModifier@Qt@@@@@Z @ 89 NONAME ; QContextMenuEvent::QContextMenuEvent(enum QContextMenuEvent::Reason, class QPoint const &, class QPoint const &, class QFlags<enum Qt::KeyboardModifier>)
	??0QContextMenuEvent@@QAE@W4Reason@0@ABVQPoint@@@Z @ 90 NONAME ; QContextMenuEvent::QContextMenuEvent(enum QContextMenuEvent::Reason, class QPoint const &)
	??0QCursor@@QAE@ABV0@@Z @ 91 NONAME ; QCursor::QCursor(class QCursor const &)
	??0QCursor@@QAE@ABVQBitmap@@0HH@Z @ 92 NONAME ; QCursor::QCursor(class QBitmap const &, class QBitmap const &, int, int)
	??0QCursor@@QAE@ABVQPixmap@@HH@Z @ 93 NONAME ; QCursor::QCursor(class QPixmap const &, int, int)
	??0QCursor@@QAE@W4CursorShape@Qt@@@Z @ 94 NONAME ; QCursor::QCursor(enum Qt::CursorShape)
	??0QCursor@@QAE@XZ @ 95 NONAME ; QCursor::QCursor(void)
	??0QDashStroker@@QAE@PAVQStroker@@@Z @ 96 NONAME ; QDashStroker::QDashStroker(class QStroker *)
	??0QDataWidgetMapper@@QAE@PAVQObject@@@Z @ 97 NONAME ; QDataWidgetMapper::QDataWidgetMapper(class QObject *)
	??0QDateEdit@@QAE@ABVQDate@@PAVQWidget@@@Z @ 98 NONAME ; QDateEdit::QDateEdit(class QDate const &, class QWidget *)
	??0QDateEdit@@QAE@PAVQWidget@@@Z @ 99 NONAME ; QDateEdit::QDateEdit(class QWidget *)
	??0QDateTimeEdit@@IAE@ABVQVariant@@W4Type@1@PAVQWidget@@@Z @ 100 NONAME ; QDateTimeEdit::QDateTimeEdit(class QVariant const &, enum QVariant::Type, class QWidget *)
	??0QDateTimeEdit@@QAE@ABVQDate@@PAVQWidget@@@Z @ 101 NONAME ; QDateTimeEdit::QDateTimeEdit(class QDate const &, class QWidget *)
	??0QDateTimeEdit@@QAE@ABVQDateTime@@PAVQWidget@@@Z @ 102 NONAME ; QDateTimeEdit::QDateTimeEdit(class QDateTime const &, class QWidget *)
	??0QDateTimeEdit@@QAE@ABVQTime@@PAVQWidget@@@Z @ 103 NONAME ; QDateTimeEdit::QDateTimeEdit(class QTime const &, class QWidget *)
	??0QDateTimeEdit@@QAE@PAVQWidget@@@Z @ 104 NONAME ; QDateTimeEdit::QDateTimeEdit(class QWidget *)
	??0QDesktopWidget@@QAE@XZ @ 105 NONAME ; QDesktopWidget::QDesktopWidget(void)
	??0QDial@@QAE@PAVQWidget@@@Z @ 106 NONAME ; QDial::QDial(class QWidget *)
	??0QDialog@@IAE@AAVQDialogPrivate@@PAVQWidget@@V?$QFlags@W4WindowType@Qt@@@@@Z @ 107 NONAME ; QDialog::QDialog(class QDialogPrivate &, class QWidget *, class QFlags<enum Qt::WindowType>)
	??0QDialog@@QAE@PAVQWidget@@V?$QFlags@W4WindowType@Qt@@@@@Z @ 108 NONAME ; QDialog::QDialog(class QWidget *, class QFlags<enum Qt::WindowType>)
	??0QDialogButtonBox@@QAE@PAVQWidget@@@Z @ 109 NONAME ; QDialogButtonBox::QDialogButtonBox(class QWidget *)
	??0QDialogButtonBox@@QAE@V?$QFlags@W4StandardButton@QDialogButtonBox@@@@W4Orientation@Qt@@PAVQWidget@@@Z @ 110 NONAME ; QDialogButtonBox::QDialogButtonBox(class QFlags<enum QDialogButtonBox::StandardButton>, enum Qt::Orientation, class QWidget *)
	??0QDialogButtonBox@@QAE@W4Orientation@Qt@@PAVQWidget@@@Z @ 111 NONAME ; QDialogButtonBox::QDialogButtonBox(enum Qt::Orientation, class QWidget *)
	??0QDirModel@@IAE@AAVQDirModelPrivate@@PAVQObject@@@Z @ 112 NONAME ; QDirModel::QDirModel(class QDirModelPrivate &, class QObject *)
	??0QDirModel@@QAE@ABVQStringList@@V?$QFlags@W4Filter@QDir@@@@V?$QFlags@W4SortFlag@QDir@@@@PAVQObject@@@Z @ 113 NONAME ; QDirModel::QDirModel(class QStringList const &, class QFlags<enum QDir::Filter>, class QFlags<enum QDir::SortFlag>, class QObject *)
	??0QDirModel@@QAE@PAVQObject@@@Z @ 114 NONAME ; QDirModel::QDirModel(class QObject *)
	??0QDockWidget@@QAE@ABVQString@@PAVQWidget@@V?$QFlags@W4WindowType@Qt@@@@@Z @ 115 NONAME ; QDockWidget::QDockWidget(class QString const &, class QWidget *, class QFlags<enum Qt::WindowType>)
	??0QDockWidget@@QAE@PAVQWidget@@V?$QFlags@W4WindowType@Qt@@@@@Z @ 116 NONAME ; QDockWidget::QDockWidget(class QWidget *, class QFlags<enum Qt::WindowType>)
	??0QDockWidgetLayout@@QAE@PAVQWidget@@@Z @ 117 NONAME ; QDockWidgetLayout::QDockWidgetLayout(class QWidget *)
	??0QDoubleSpinBox@@QAE@PAVQWidget@@@Z @ 118 NONAME ; QDoubleSpinBox::QDoubleSpinBox(class QWidget *)
	??0QDoubleValidator@@QAE@NNHPAVQObject@@@Z @ 119 NONAME ; QDoubleValidator::QDoubleValidator(double, double, int, class QObject *)
	??0QDoubleValidator@@QAE@PAVQObject@@@Z @ 120 NONAME ; QDoubleValidator::QDoubleValidator(class QObject *)
	??0QDrag@@QAE@PAVQWidget@@@Z @ 121 NONAME ; QDrag::QDrag(class QWidget *)
	??0QDragEnterEvent@@QAE@ABVQPoint@@V?$QFlags@W4DropAction@Qt@@@@PBVQMimeData@@V?$QFlags@W4MouseButton@Qt@@@@V?$QFlags@W4KeyboardModifier@Qt@@@@@Z @ 122 NONAME ; QDragEnterEvent::QDragEnterEvent(class QPoint const &, class QFlags<enum Qt::DropAction>, class QMimeData const *, class QFlags<enum Qt::MouseButton>, class QFlags<enum Qt::KeyboardModifier>)
	??0QDragLeaveEvent@@QAE@XZ @ 123 NONAME ; QDragLeaveEvent::QDragLeaveEvent(void)
	??0QDragMoveEvent@@QAE@ABV0@@Z @ 124 NONAME ; QDragMoveEvent::QDragMoveEvent(class QDragMoveEvent const &)
	??0QDragMoveEvent@@QAE@ABVQPoint@@V?$QFlags@W4DropAction@Qt@@@@PBVQMimeData@@V?$QFlags@W4MouseButton@Qt@@@@V?$QFlags@W4KeyboardModifier@Qt@@@@W4Type@QEvent@@@Z @ 125 NONAME ; QDragMoveEvent::QDragMoveEvent(class QPoint const &, class QFlags<enum Qt::DropAction>, class QMimeData const *, class QFlags<enum Qt::MouseButton>, class QFlags<enum Qt::KeyboardModifier>, enum QEvent::Type)
	??0QDragResponseEvent@@QAE@_N@Z @ 126 NONAME ; QDragResponseEvent::QDragResponseEvent(bool)
	??0QDropEvent@@QAE@ABV0@@Z @ 127 NONAME ; QDropEvent::QDropEvent(class QDropEvent const &)
	??0QDropEvent@@QAE@ABVQPoint@@V?$QFlags@W4DropAction@Qt@@@@PBVQMimeData@@V?$QFlags@W4MouseButton@Qt@@@@V?$QFlags@W4KeyboardModifier@Qt@@@@W4Type@QEvent@@@Z @ 128 NONAME ; QDropEvent::QDropEvent(class QPoint const &, class QFlags<enum Qt::DropAction>, class QMimeData const *, class QFlags<enum Qt::MouseButton>, class QFlags<enum Qt::KeyboardModifier>, enum QEvent::Type)
	??0QErrorMessage@@QAE@PAVQWidget@@@Z @ 129 NONAME ; QErrorMessage::QErrorMessage(class QWidget *)
	??0QEventDispatcherS60@@QAE@PAVQObject@@@Z @ 130 NONAME ; QEventDispatcherS60::QEventDispatcherS60(class QObject *)
	??0QFileDialog@@IAE@ABUQFileDialogArgs@@@Z @ 131 NONAME ; QFileDialog::QFileDialog(struct QFileDialogArgs const &)
	??0QFileDialog@@QAE@PAVQWidget@@ABVQString@@11@Z @ 132 NONAME ; QFileDialog::QFileDialog(class QWidget *, class QString const &, class QString const &, class QString const &)
	??0QFileDialog@@QAE@PAVQWidget@@V?$QFlags@W4WindowType@Qt@@@@@Z @ 133 NONAME ; QFileDialog::QFileDialog(class QWidget *, class QFlags<enum Qt::WindowType>)
	??0QFileIconProvider@@QAE@XZ @ 134 NONAME ; QFileIconProvider::QFileIconProvider(void)
	??0QFileOpenEvent@@QAE@ABVQString@@@Z @ 135 NONAME ; QFileOpenEvent::QFileOpenEvent(class QString const &)
	??0QFileOpenEvent@@QAE@ABVQUrl@@@Z @ 136 NONAME ; QFileOpenEvent::QFileOpenEvent(class QUrl const &)
	??0QFileSystemModel@@IAE@AAVQFileSystemModelPrivate@@PAVQObject@@@Z @ 137 NONAME ; QFileSystemModel::QFileSystemModel(class QFileSystemModelPrivate &, class QObject *)
	??0QFileSystemModel@@QAE@PAVQObject@@@Z @ 138 NONAME ; QFileSystemModel::QFileSystemModel(class QObject *)
	??0QFocusEvent@@QAE@W4Type@QEvent@@W4FocusReason@Qt@@@Z @ 139 NONAME ; QFocusEvent::QFocusEvent(enum QEvent::Type, enum Qt::FocusReason)
	??0QFocusFrame@@QAE@PAVQWidget@@@Z @ 140 NONAME ; QFocusFrame::QFocusFrame(class QWidget *)
	??0QFont@@AAE@PAVQFontPrivate@@@Z @ 141 NONAME ; QFont::QFont(class QFontPrivate *)
	??0QFont@@QAE@ABV0@@Z @ 142 NONAME ; QFont::QFont(class QFont const &)
	??0QFont@@QAE@ABV0@PAVQPaintDevice@@@Z @ 143 NONAME ; QFont::QFont(class QFont const &, class QPaintDevice *)
	??0QFont@@QAE@ABVQString@@HH_N@Z @ 144 NONAME ; QFont::QFont(class QString const &, int, int, bool)
	??0QFont@@QAE@XZ @ 145 NONAME ; QFont::QFont(void)
	??0QFontComboBox@@QAE@PAVQWidget@@@Z @ 146 NONAME ; QFontComboBox::QFontComboBox(class QWidget *)
	??0QFontDatabase@@QAE@XZ @ 147 NONAME ; QFontDatabase::QFontDatabase(void)
	??0QFontDialog@@QAE@ABVQFont@@PAVQWidget@@@Z @ 148 NONAME ; QFontDialog::QFontDialog(class QFont const &, class QWidget *)
	??0QFontDialog@@QAE@PAVQWidget@@@Z @ 149 NONAME ; QFontDialog::QFontDialog(class QWidget *)
	??0QFontEngine@@QAE@XZ @ 150 NONAME ; QFontEngine::QFontEngine(void)
	??0QFontInfo@@QAE@ABV0@@Z @ 151 NONAME ; QFontInfo::QFontInfo(class QFontInfo const &)
	??0QFontInfo@@QAE@ABVQFont@@@Z @ 152 NONAME ; QFontInfo::QFontInfo(class QFont const &)
	??0QFontMetrics@@QAE@ABV0@@Z @ 153 NONAME ; QFontMetrics::QFontMetrics(class QFontMetrics const &)
	??0QFontMetrics@@QAE@ABVQFont@@@Z @ 154 NONAME ; QFontMetrics::QFontMetrics(class QFont const &)
	??0QFontMetrics@@QAE@ABVQFont@@PAVQPaintDevice@@@Z @ 155 NONAME ; QFontMetrics::QFontMetrics(class QFont const &, class QPaintDevice *)
	??0QFontMetricsF@@QAE@ABV0@@Z @ 156 NONAME ; QFontMetricsF::QFontMetricsF(class QFontMetricsF const &)
	??0QFontMetricsF@@QAE@ABVQFont@@@Z @ 157 NONAME ; QFontMetricsF::QFontMetricsF(class QFont const &)
	??0QFontMetricsF@@QAE@ABVQFont@@PAVQPaintDevice@@@Z @ 158 NONAME ; QFontMetricsF::QFontMetricsF(class QFont const &, class QPaintDevice *)
	??0QFontMetricsF@@QAE@ABVQFontMetrics@@@Z @ 159 NONAME ; QFontMetricsF::QFontMetricsF(class QFontMetrics const &)
	??0QFontPrivate@@QAE@ABV0@@Z @ 160 NONAME ; QFontPrivate::QFontPrivate(class QFontPrivate const &)
	??0QFontPrivate@@QAE@XZ @ 161 NONAME ; QFontPrivate::QFontPrivate(void)
	??0QFormLayout@@QAE@PAVQWidget@@@Z @ 162 NONAME ; QFormLayout::QFormLayout(class QWidget *)
	??0QFrame@@IAE@AAVQFramePrivate@@PAVQWidget@@V?$QFlags@W4WindowType@Qt@@@@@Z @ 163 NONAME ; QFrame::QFrame(class QFramePrivate &, class QWidget *, class QFlags<enum Qt::WindowType>)
	??0QFrame@@QAE@PAVQWidget@@V?$QFlags@W4WindowType@Qt@@@@@Z @ 164 NONAME ; QFrame::QFrame(class QWidget *, class QFlags<enum Qt::WindowType>)
	??0QGesture@@IAE@AAVQGesturePrivate@@PAVQObject@@@Z @ 165 NONAME ; QGesture::QGesture(class QGesturePrivate &, class QObject *)
	??0QGesture@@QAE@PAVQObject@@@Z @ 166 NONAME ; QGesture::QGesture(class QObject *)
	??0QGestureEvent@@QAE@ABV?$QList@PAVQGesture@@@@@Z @ 167 NONAME ; QGestureEvent::QGestureEvent(class QList<class QGesture *> const &)
	??0QGestureRecognizer@@QAE@XZ @ 168 NONAME ; QGestureRecognizer::QGestureRecognizer(void)
	??0QGradient@@QAE@XZ @ 169 NONAME ; QGradient::QGradient(void)
	??0QGraphicsAnchor@@AAE@PAVQGraphicsAnchorLayout@@@Z @ 170 NONAME ; QGraphicsAnchor::QGraphicsAnchor(class QGraphicsAnchorLayout *)
	??0QGraphicsAnchorLayout@@QAE@PAVQGraphicsLayoutItem@@@Z @ 171 NONAME ; QGraphicsAnchorLayout::QGraphicsAnchorLayout(class QGraphicsLayoutItem *)
	??0QGraphicsBlurEffect@@QAE@PAVQObject@@@Z @ 172 NONAME ; QGraphicsBlurEffect::QGraphicsBlurEffect(class QObject *)
	??0QGraphicsColorizeEffect@@QAE@PAVQObject@@@Z @ 173 NONAME ; QGraphicsColorizeEffect::QGraphicsColorizeEffect(class QObject *)
	??0QGraphicsDropShadowEffect@@QAE@PAVQObject@@@Z @ 174 NONAME ; QGraphicsDropShadowEffect::QGraphicsDropShadowEffect(class QObject *)
	??0QGraphicsEffect@@IAE@AAVQGraphicsEffectPrivate@@PAVQObject@@@Z @ 175 NONAME ; QGraphicsEffect::QGraphicsEffect(class QGraphicsEffectPrivate &, class QObject *)
	??0QGraphicsEffect@@QAE@PAVQObject@@@Z @ 176 NONAME ; QGraphicsEffect::QGraphicsEffect(class QObject *)
	??0QGraphicsEffectPrivate@@QAE@XZ @ 177 NONAME ; QGraphicsEffectPrivate::QGraphicsEffectPrivate(void)
	??0QGraphicsEffectSource@@IAE@AAVQGraphicsEffectSourcePrivate@@PAVQObject@@@Z @ 178 NONAME ; QGraphicsEffectSource::QGraphicsEffectSource(class QGraphicsEffectSourcePrivate &, class QObject *)
	??0QGraphicsEllipseItem@@QAE@ABVQRectF@@PAVQGraphicsItem@@PAVQGraphicsScene@@@Z @ 179 NONAME ; QGraphicsEllipseItem::QGraphicsEllipseItem(class QRectF const &, class QGraphicsItem *, class QGraphicsScene *)
	??0QGraphicsEllipseItem@@QAE@MMMMPAVQGraphicsItem@@PAVQGraphicsScene@@@Z @ 180 NONAME ; QGraphicsEllipseItem::QGraphicsEllipseItem(float, float, float, float, class QGraphicsItem *, class QGraphicsScene *)
	??0QGraphicsEllipseItem@@QAE@PAVQGraphicsItem@@PAVQGraphicsScene@@@Z @ 181 NONAME ; QGraphicsEllipseItem::QGraphicsEllipseItem(class QGraphicsItem *, class QGraphicsScene *)
	??0QGraphicsGridLayout@@QAE@PAVQGraphicsLayoutItem@@@Z @ 182 NONAME ; QGraphicsGridLayout::QGraphicsGridLayout(class QGraphicsLayoutItem *)
	??0QGraphicsItem@@IAE@AAVQGraphicsItemPrivate@@PAV0@PAVQGraphicsScene@@@Z @ 183 NONAME ; QGraphicsItem::QGraphicsItem(class QGraphicsItemPrivate &, class QGraphicsItem *, class QGraphicsScene *)
	??0QGraphicsItem@@QAE@PAV0@PAVQGraphicsScene@@@Z @ 184 NONAME ; QGraphicsItem::QGraphicsItem(class QGraphicsItem *, class QGraphicsScene *)
	??0QGraphicsItemAnimation@@QAE@PAVQObject@@@Z @ 185 NONAME ; QGraphicsItemAnimation::QGraphicsItemAnimation(class QObject *)
	??0QGraphicsItemGroup@@QAE@PAVQGraphicsItem@@PAVQGraphicsScene@@@Z @ 186 NONAME ; QGraphicsItemGroup::QGraphicsItemGroup(class QGraphicsItem *, class QGraphicsScene *)
	??0QGraphicsItemPrivate@@QAE@XZ @ 187 NONAME ; QGraphicsItemPrivate::QGraphicsItemPrivate(void)
	??0QGraphicsLayout@@IAE@AAVQGraphicsLayoutPrivate@@PAVQGraphicsLayoutItem@@@Z @ 188 NONAME ; QGraphicsLayout::QGraphicsLayout(class QGraphicsLayoutPrivate &, class QGraphicsLayoutItem *)
	??0QGraphicsLayout@@QAE@PAVQGraphicsLayoutItem@@@Z @ 189 NONAME ; QGraphicsLayout::QGraphicsLayout(class QGraphicsLayoutItem *)
	??0QGraphicsLayoutItem@@IAE@AAVQGraphicsLayoutItemPrivate@@@Z @ 190 NONAME ; QGraphicsLayoutItem::QGraphicsLayoutItem(class QGraphicsLayoutItemPrivate &)
	??0QGraphicsLayoutItem@@QAE@PAV0@_N@Z @ 191 NONAME ; QGraphicsLayoutItem::QGraphicsLayoutItem(class QGraphicsLayoutItem *, bool)
	??0QGraphicsLineItem@@QAE@ABVQLineF@@PAVQGraphicsItem@@PAVQGraphicsScene@@@Z @ 192 NONAME ; QGraphicsLineItem::QGraphicsLineItem(class QLineF const &, class QGraphicsItem *, class QGraphicsScene *)
	??0QGraphicsLineItem@@QAE@MMMMPAVQGraphicsItem@@PAVQGraphicsScene@@@Z @ 193 NONAME ; QGraphicsLineItem::QGraphicsLineItem(float, float, float, float, class QGraphicsItem *, class QGraphicsScene *)
	??0QGraphicsLineItem@@QAE@PAVQGraphicsItem@@PAVQGraphicsScene@@@Z @ 194 NONAME ; QGraphicsLineItem::QGraphicsLineItem(class QGraphicsItem *, class QGraphicsScene *)
	??0QGraphicsLinearLayout@@QAE@PAVQGraphicsLayoutItem@@@Z @ 195 NONAME ; QGraphicsLinearLayout::QGraphicsLinearLayout(class QGraphicsLayoutItem *)
	??0QGraphicsLinearLayout@@QAE@W4Orientation@Qt@@PAVQGraphicsLayoutItem@@@Z @ 196 NONAME ; QGraphicsLinearLayout::QGraphicsLinearLayout(enum Qt::Orientation, class QGraphicsLayoutItem *)
	??0QGraphicsObject@@IAE@AAVQGraphicsItemPrivate@@PAVQGraphicsItem@@PAVQGraphicsScene@@@Z @ 197 NONAME ; QGraphicsObject::QGraphicsObject(class QGraphicsItemPrivate &, class QGraphicsItem *, class QGraphicsScene *)
	??0QGraphicsObject@@QAE@PAVQGraphicsItem@@@Z @ 198 NONAME ; QGraphicsObject::QGraphicsObject(class QGraphicsItem *)
	??0QGraphicsOpacityEffect@@QAE@PAVQObject@@@Z @ 199 NONAME ; QGraphicsOpacityEffect::QGraphicsOpacityEffect(class QObject *)
	??0QGraphicsPathItem@@QAE@ABVQPainterPath@@PAVQGraphicsItem@@PAVQGraphicsScene@@@Z @ 200 NONAME ; QGraphicsPathItem::QGraphicsPathItem(class QPainterPath const &, class QGraphicsItem *, class QGraphicsScene *)
	??0QGraphicsPathItem@@QAE@PAVQGraphicsItem@@PAVQGraphicsScene@@@Z @ 201 NONAME ; QGraphicsPathItem::QGraphicsPathItem(class QGraphicsItem *, class QGraphicsScene *)
	??0QGraphicsPixmapItem@@QAE@ABVQPixmap@@PAVQGraphicsItem@@PAVQGraphicsScene@@@Z @ 202 NONAME ; QGraphicsPixmapItem::QGraphicsPixmapItem(class QPixmap const &, class QGraphicsItem *, class QGraphicsScene *)
	??0QGraphicsPixmapItem@@QAE@PAVQGraphicsItem@@PAVQGraphicsScene@@@Z @ 203 NONAME ; QGraphicsPixmapItem::QGraphicsPixmapItem(class QGraphicsItem *, class QGraphicsScene *)
	??0QGraphicsPolygonItem@@QAE@ABVQPolygonF@@PAVQGraphicsItem@@PAVQGraphicsScene@@@Z @ 204 NONAME ; QGraphicsPolygonItem::QGraphicsPolygonItem(class QPolygonF const &, class QGraphicsItem *, class QGraphicsScene *)
	??0QGraphicsPolygonItem@@QAE@PAVQGraphicsItem@@PAVQGraphicsScene@@@Z @ 205 NONAME ; QGraphicsPolygonItem::QGraphicsPolygonItem(class QGraphicsItem *, class QGraphicsScene *)
	??0QGraphicsProxyWidget@@QAE@PAVQGraphicsItem@@V?$QFlags@W4WindowType@Qt@@@@@Z @ 206 NONAME ; QGraphicsProxyWidget::QGraphicsProxyWidget(class QGraphicsItem *, class QFlags<enum Qt::WindowType>)
	??0QGraphicsRectItem@@QAE@ABVQRectF@@PAVQGraphicsItem@@PAVQGraphicsScene@@@Z @ 207 NONAME ; QGraphicsRectItem::QGraphicsRectItem(class QRectF const &, class QGraphicsItem *, class QGraphicsScene *)
	??0QGraphicsRectItem@@QAE@MMMMPAVQGraphicsItem@@PAVQGraphicsScene@@@Z @ 208 NONAME ; QGraphicsRectItem::QGraphicsRectItem(float, float, float, float, class QGraphicsItem *, class QGraphicsScene *)
	??0QGraphicsRectItem@@QAE@PAVQGraphicsItem@@PAVQGraphicsScene@@@Z @ 209 NONAME ; QGraphicsRectItem::QGraphicsRectItem(class QGraphicsItem *, class QGraphicsScene *)
	??0QGraphicsRotation@@QAE@PAVQObject@@@Z @ 210 NONAME ; QGraphicsRotation::QGraphicsRotation(class QObject *)
	??0QGraphicsScale@@QAE@PAVQObject@@@Z @ 211 NONAME ; QGraphicsScale::QGraphicsScale(class QObject *)
	??0QGraphicsScene@@QAE@ABVQRectF@@PAVQObject@@@Z @ 212 NONAME ; QGraphicsScene::QGraphicsScene(class QRectF const &, class QObject *)
	??0QGraphicsScene@@QAE@MMMMPAVQObject@@@Z @ 213 NONAME ; QGraphicsScene::QGraphicsScene(float, float, float, float, class QObject *)
	??0QGraphicsScene@@QAE@PAVQObject@@@Z @ 214 NONAME ; QGraphicsScene::QGraphicsScene(class QObject *)
	??0QGraphicsSceneContextMenuEvent@@QAE@W4Type@QEvent@@@Z @ 215 NONAME ; QGraphicsSceneContextMenuEvent::QGraphicsSceneContextMenuEvent(enum QEvent::Type)
	??0QGraphicsSceneDragDropEvent@@QAE@W4Type@QEvent@@@Z @ 216 NONAME ; QGraphicsSceneDragDropEvent::QGraphicsSceneDragDropEvent(enum QEvent::Type)
	??0QGraphicsSceneEvent@@IAE@AAVQGraphicsSceneEventPrivate@@W4Type@QEvent@@@Z @ 217 NONAME ; QGraphicsSceneEvent::QGraphicsSceneEvent(class QGraphicsSceneEventPrivate &, enum QEvent::Type)
	??0QGraphicsSceneEvent@@QAE@W4Type@QEvent@@@Z @ 218 NONAME ; QGraphicsSceneEvent::QGraphicsSceneEvent(enum QEvent::Type)
	??0QGraphicsSceneHelpEvent@@QAE@W4Type@QEvent@@@Z @ 219 NONAME ; QGraphicsSceneHelpEvent::QGraphicsSceneHelpEvent(enum QEvent::Type)
	??0QGraphicsSceneHoverEvent@@QAE@W4Type@QEvent@@@Z @ 220 NONAME ; QGraphicsSceneHoverEvent::QGraphicsSceneHoverEvent(enum QEvent::Type)
	??0QGraphicsSceneMouseEvent@@QAE@W4Type@QEvent@@@Z @ 221 NONAME ; QGraphicsSceneMouseEvent::QGraphicsSceneMouseEvent(enum QEvent::Type)
	??0QGraphicsSceneMoveEvent@@QAE@XZ @ 222 NONAME ; QGraphicsSceneMoveEvent::QGraphicsSceneMoveEvent(void)
	??0QGraphicsSceneResizeEvent@@QAE@XZ @ 223 NONAME ; QGraphicsSceneResizeEvent::QGraphicsSceneResizeEvent(void)
	??0QGraphicsSceneWheelEvent@@QAE@W4Type@QEvent@@@Z @ 224 NONAME ; QGraphicsSceneWheelEvent::QGraphicsSceneWheelEvent(enum QEvent::Type)
	??0QGraphicsSimpleTextItem@@QAE@ABVQString@@PAVQGraphicsItem@@PAVQGraphicsScene@@@Z @ 225 NONAME ; QGraphicsSimpleTextItem::QGraphicsSimpleTextItem(class QString const &, class QGraphicsItem *, class QGraphicsScene *)
	??0QGraphicsSimpleTextItem@@QAE@PAVQGraphicsItem@@PAVQGraphicsScene@@@Z @ 226 NONAME ; QGraphicsSimpleTextItem::QGraphicsSimpleTextItem(class QGraphicsItem *, class QGraphicsScene *)
	??0QGraphicsSystemPlugin@@QAE@PAVQObject@@@Z @ 227 NONAME ; QGraphicsSystemPlugin::QGraphicsSystemPlugin(class QObject *)
	??0QGraphicsTextItem@@QAE@ABVQString@@PAVQGraphicsItem@@PAVQGraphicsScene@@@Z @ 228 NONAME ; QGraphicsTextItem::QGraphicsTextItem(class QString const &, class QGraphicsItem *, class QGraphicsScene *)
	??0QGraphicsTextItem@@QAE@PAVQGraphicsItem@@PAVQGraphicsScene@@@Z @ 229 NONAME ; QGraphicsTextItem::QGraphicsTextItem(class QGraphicsItem *, class QGraphicsScene *)
	??0QGraphicsTransform@@IAE@AAVQGraphicsTransformPrivate@@PAVQObject@@@Z @ 230 NONAME ; QGraphicsTransform::QGraphicsTransform(class QGraphicsTransformPrivate &, class QObject *)
	??0QGraphicsTransform@@QAE@PAVQObject@@@Z @ 231 NONAME ; QGraphicsTransform::QGraphicsTransform(class QObject *)
	??0QGraphicsView@@IAE@AAVQGraphicsViewPrivate@@PAVQWidget@@@Z @ 232 NONAME ; QGraphicsView::QGraphicsView(class QGraphicsViewPrivate &, class QWidget *)
	??0QGraphicsView@@QAE@PAVQGraphicsScene@@PAVQWidget@@@Z @ 233 NONAME ; QGraphicsView::QGraphicsView(class QGraphicsScene *, class QWidget *)
	??0QGraphicsView@@QAE@PAVQWidget@@@Z @ 234 NONAME ; QGraphicsView::QGraphicsView(class QWidget *)
	??0QGraphicsWidget@@IAE@AAVQGraphicsWidgetPrivate@@PAVQGraphicsItem@@PAVQGraphicsScene@@V?$QFlags@W4WindowType@Qt@@@@@Z @ 235 NONAME ; QGraphicsWidget::QGraphicsWidget(class QGraphicsWidgetPrivate &, class QGraphicsItem *, class QGraphicsScene *, class QFlags<enum Qt::WindowType>)
	??0QGraphicsWidget@@QAE@PAVQGraphicsItem@@V?$QFlags@W4WindowType@Qt@@@@@Z @ 236 NONAME ; QGraphicsWidget::QGraphicsWidget(class QGraphicsItem *, class QFlags<enum Qt::WindowType>)
	??0QGridLayout@@QAE@PAVQWidget@@@Z @ 237 NONAME ; QGridLayout::QGridLayout(class QWidget *)
	??0QGridLayout@@QAE@XZ @ 238 NONAME ; QGridLayout::QGridLayout(void)
	??0QGroupBox@@QAE@ABVQString@@PAVQWidget@@@Z @ 239 NONAME ; QGroupBox::QGroupBox(class QString const &, class QWidget *)
	??0QGroupBox@@QAE@PAVQWidget@@@Z @ 240 NONAME ; QGroupBox::QGroupBox(class QWidget *)
	??0QGuiPlatformPlugin@@QAE@PAVQObject@@@Z @ 241 NONAME ; QGuiPlatformPlugin::QGuiPlatformPlugin(class QObject *)
	??0QHBoxLayout@@QAE@PAVQWidget@@@Z @ 242 NONAME ; QHBoxLayout::QHBoxLayout(class QWidget *)
	??0QHBoxLayout@@QAE@XZ @ 243 NONAME ; QHBoxLayout::QHBoxLayout(void)
	??0QHeaderView@@IAE@AAVQHeaderViewPrivate@@W4Orientation@Qt@@PAVQWidget@@@Z @ 244 NONAME ; QHeaderView::QHeaderView(class QHeaderViewPrivate &, enum Qt::Orientation, class QWidget *)
	??0QHeaderView@@QAE@W4Orientation@Qt@@PAVQWidget@@@Z @ 245 NONAME ; QHeaderView::QHeaderView(enum Qt::Orientation, class QWidget *)
	??0QHelpEvent@@QAE@W4Type@QEvent@@ABVQPoint@@1@Z @ 246 NONAME ; QHelpEvent::QHelpEvent(enum QEvent::Type, class QPoint const &, class QPoint const &)
	??0QHideEvent@@QAE@XZ @ 247 NONAME ; QHideEvent::QHideEvent(void)
	??0QHoverEvent@@QAE@W4Type@QEvent@@ABVQPoint@@1@Z @ 248 NONAME ; QHoverEvent::QHoverEvent(enum QEvent::Type, class QPoint const &, class QPoint const &)
	??0QIcon@@QAE@ABV0@@Z @ 249 NONAME ; QIcon::QIcon(class QIcon const &)
	??0QIcon@@QAE@ABVQPixmap@@@Z @ 250 NONAME ; QIcon::QIcon(class QPixmap const &)
	??0QIcon@@QAE@ABVQString@@@Z @ 251 NONAME ; QIcon::QIcon(class QString const &)
	??0QIcon@@QAE@PAVQIconEngine@@@Z @ 252 NONAME ; QIcon::QIcon(class QIconEngine *)
	??0QIcon@@QAE@PAVQIconEngineV2@@@Z @ 253 NONAME ; QIcon::QIcon(class QIconEngineV2 *)
	??0QIcon@@QAE@XZ @ 254 NONAME ; QIcon::QIcon(void)
	??0QIconDragEvent@@QAE@XZ @ 255 NONAME ; QIconDragEvent::QIconDragEvent(void)
	??0QIconEnginePlugin@@QAE@PAVQObject@@@Z @ 256 NONAME ; QIconEnginePlugin::QIconEnginePlugin(class QObject *)
	??0QIconEnginePluginV2@@QAE@PAVQObject@@@Z @ 257 NONAME ; QIconEnginePluginV2::QIconEnginePluginV2(class QObject *)
	??0QImage@@QAE@ABV0@@Z @ 258 NONAME ; QImage::QImage(class QImage const &)
	??0QImage@@QAE@ABVQSize@@W4Format@0@@Z @ 259 NONAME ; QImage::QImage(class QSize const &, enum QImage::Format)
	??0QImage@@QAE@ABVQString@@PBD@Z @ 260 NONAME ; QImage::QImage(class QString const &, char const *)
	??0QImage@@QAE@HHW4Format@0@@Z @ 261 NONAME ; QImage::QImage(int, int, enum QImage::Format)
	??0QImage@@QAE@PAEHHHW4Format@0@@Z @ 262 NONAME ; QImage::QImage(unsigned char *, int, int, int, enum QImage::Format)
	??0QImage@@QAE@PAEHHW4Format@0@@Z @ 263 NONAME ; QImage::QImage(unsigned char *, int, int, enum QImage::Format)
	??0QImage@@QAE@PBD0@Z @ 264 NONAME ; QImage::QImage(char const *, char const *)
	??0QImage@@QAE@PBEHHHW4Format@0@@Z @ 265 NONAME ; QImage::QImage(unsigned char const *, int, int, int, enum QImage::Format)
	??0QImage@@QAE@PBEHHW4Format@0@@Z @ 266 NONAME ; QImage::QImage(unsigned char const *, int, int, enum QImage::Format)
	??0QImage@@QAE@QBQBD@Z @ 267 NONAME ; QImage::QImage(char const * const * const)
	??0QImage@@QAE@XZ @ 268 NONAME ; QImage::QImage(void)
	??0QImageData@@QAE@XZ @ 269 NONAME ; QImageData::QImageData(void)
	??0QImageIOHandler@@IAE@AAVQImageIOHandlerPrivate@@@Z @ 270 NONAME ; QImageIOHandler::QImageIOHandler(class QImageIOHandlerPrivate &)
	??0QImageIOHandler@@QAE@XZ @ 271 NONAME ; QImageIOHandler::QImageIOHandler(void)
	??0QImageIOPlugin@@QAE@PAVQObject@@@Z @ 272 NONAME ; QImageIOPlugin::QImageIOPlugin(class QObject *)
	??0QImagePixmapCleanupHooks@@QAE@XZ @ 273 NONAME ABSENT ; QImagePixmapCleanupHooks::QImagePixmapCleanupHooks(void)
	??0QImageReader@@QAE@ABVQString@@ABVQByteArray@@@Z @ 274 NONAME ; QImageReader::QImageReader(class QString const &, class QByteArray const &)
	??0QImageReader@@QAE@PAVQIODevice@@ABVQByteArray@@@Z @ 275 NONAME ; QImageReader::QImageReader(class QIODevice *, class QByteArray const &)
	??0QImageReader@@QAE@XZ @ 276 NONAME ; QImageReader::QImageReader(void)
	??0QImageTextKeyLang@@QAE@ABV0@@Z @ 277 NONAME ; QImageTextKeyLang::QImageTextKeyLang(class QImageTextKeyLang const &)
	??0QImageTextKeyLang@@QAE@PBD0@Z @ 278 NONAME ; QImageTextKeyLang::QImageTextKeyLang(char const *, char const *)
	??0QImageTextKeyLang@@QAE@XZ @ 279 NONAME ; QImageTextKeyLang::QImageTextKeyLang(void)
	??0QImageWriter@@QAE@ABVQString@@ABVQByteArray@@@Z @ 280 NONAME ; QImageWriter::QImageWriter(class QString const &, class QByteArray const &)
	??0QImageWriter@@QAE@PAVQIODevice@@ABVQByteArray@@@Z @ 281 NONAME ; QImageWriter::QImageWriter(class QIODevice *, class QByteArray const &)
	??0QImageWriter@@QAE@XZ @ 282 NONAME ; QImageWriter::QImageWriter(void)
	??0QInputContext@@QAE@PAVQObject@@@Z @ 283 NONAME ; QInputContext::QInputContext(class QObject *)
	??0QInputContextPlugin@@QAE@PAVQObject@@@Z @ 284 NONAME ; QInputContextPlugin::QInputContextPlugin(class QObject *)
	??0QInputDialog@@QAE@PAVQWidget@@V?$QFlags@W4WindowType@Qt@@@@@Z @ 285 NONAME ; QInputDialog::QInputDialog(class QWidget *, class QFlags<enum Qt::WindowType>)
	??0QInputEvent@@QAE@ABV0@@Z @ 286 NONAME ; QInputEvent::QInputEvent(class QInputEvent const &)
	??0QInputEvent@@QAE@W4Type@QEvent@@V?$QFlags@W4KeyboardModifier@Qt@@@@@Z @ 287 NONAME ; QInputEvent::QInputEvent(enum QEvent::Type, class QFlags<enum Qt::KeyboardModifier>)
	??0QInputMethodEvent@@QAE@ABV0@@Z @ 288 NONAME ; QInputMethodEvent::QInputMethodEvent(class QInputMethodEvent const &)
	??0QInputMethodEvent@@QAE@ABVQString@@ABV?$QList@VAttribute@QInputMethodEvent@@@@@Z @ 289 NONAME ; QInputMethodEvent::QInputMethodEvent(class QString const &, class QList<class QInputMethodEvent::Attribute> const &)
	??0QInputMethodEvent@@QAE@XZ @ 290 NONAME ; QInputMethodEvent::QInputMethodEvent(void)
	??0QIntValidator@@QAE@HHPAVQObject@@@Z @ 291 NONAME ; QIntValidator::QIntValidator(int, int, class QObject *)
	??0QIntValidator@@QAE@PAVQObject@@@Z @ 292 NONAME ; QIntValidator::QIntValidator(class QObject *)
	??0QItemDelegate@@QAE@PAVQObject@@@Z @ 293 NONAME ; QItemDelegate::QItemDelegate(class QObject *)
	??0QItemEditorFactory@@QAE@XZ @ 294 NONAME ; QItemEditorFactory::QItemEditorFactory(void)
	??0QItemSelection@@QAE@ABVQModelIndex@@0@Z @ 295 NONAME ; QItemSelection::QItemSelection(class QModelIndex const &, class QModelIndex const &)
	??0QItemSelection@@QAE@XZ @ 296 NONAME ; QItemSelection::QItemSelection(void)
	??0QItemSelectionModel@@IAE@AAVQItemSelectionModelPrivate@@PAVQAbstractItemModel@@@Z @ 297 NONAME ; QItemSelectionModel::QItemSelectionModel(class QItemSelectionModelPrivate &, class QAbstractItemModel *)
	??0QItemSelectionModel@@QAE@PAVQAbstractItemModel@@@Z @ 298 NONAME ; QItemSelectionModel::QItemSelectionModel(class QAbstractItemModel *)
	??0QItemSelectionModel@@QAE@PAVQAbstractItemModel@@PAVQObject@@@Z @ 299 NONAME ; QItemSelectionModel::QItemSelectionModel(class QAbstractItemModel *, class QObject *)
	??0QItemSelectionRange@@QAE@ABV0@@Z @ 300 NONAME ; QItemSelectionRange::QItemSelectionRange(class QItemSelectionRange const &)
	??0QItemSelectionRange@@QAE@ABVQModelIndex@@0@Z @ 301 NONAME ; QItemSelectionRange::QItemSelectionRange(class QModelIndex const &, class QModelIndex const &)
	??0QItemSelectionRange@@QAE@ABVQModelIndex@@@Z @ 302 NONAME ; QItemSelectionRange::QItemSelectionRange(class QModelIndex const &)
	??0QItemSelectionRange@@QAE@XZ @ 303 NONAME ; QItemSelectionRange::QItemSelectionRange(void)
	??0QKeyEvent@@QAE@W4Type@QEvent@@HV?$QFlags@W4KeyboardModifier@Qt@@@@ABVQString@@_NG@Z @ 304 NONAME ; QKeyEvent::QKeyEvent(enum QEvent::Type, int, class QFlags<enum Qt::KeyboardModifier>, class QString const &, bool, unsigned short)
	??0QKeyEventTransition@@QAE@PAVQObject@@W4Type@QEvent@@HPAVQState@@@Z @ 305 NONAME ; QKeyEventTransition::QKeyEventTransition(class QObject *, enum QEvent::Type, int, class QState *)
	??0QKeyEventTransition@@QAE@PAVQState@@@Z @ 306 NONAME ; QKeyEventTransition::QKeyEventTransition(class QState *)
	??0QKeySequence@@QAE@ABV0@@Z @ 307 NONAME ; QKeySequence::QKeySequence(class QKeySequence const &)
	??0QKeySequence@@QAE@ABVQString@@@Z @ 308 NONAME ; QKeySequence::QKeySequence(class QString const &)
	??0QKeySequence@@QAE@HHHH@Z @ 309 NONAME ; QKeySequence::QKeySequence(int, int, int, int)
	??0QKeySequence@@QAE@W4StandardKey@0@@Z @ 310 NONAME ; QKeySequence::QKeySequence(enum QKeySequence::StandardKey)
	??0QKeySequence@@QAE@XZ @ 311 NONAME ; QKeySequence::QKeySequence(void)
	??0QLCDNumber@@QAE@IPAVQWidget@@@Z @ 312 NONAME ; QLCDNumber::QLCDNumber(unsigned int, class QWidget *)
	??0QLCDNumber@@QAE@PAVQWidget@@@Z @ 313 NONAME ; QLCDNumber::QLCDNumber(class QWidget *)
	??0QLabel@@QAE@ABVQString@@PAVQWidget@@V?$QFlags@W4WindowType@Qt@@@@@Z @ 314 NONAME ; QLabel::QLabel(class QString const &, class QWidget *, class QFlags<enum Qt::WindowType>)
	??0QLabel@@QAE@PAVQWidget@@V?$QFlags@W4WindowType@Qt@@@@@Z @ 315 NONAME ; QLabel::QLabel(class QWidget *, class QFlags<enum Qt::WindowType>)
	??0QLayout@@IAE@AAVQLayoutPrivate@@PAV0@PAVQWidget@@@Z @ 316 NONAME ; QLayout::QLayout(class QLayoutPrivate &, class QLayout *, class QWidget *)
	??0QLayout@@QAE@PAVQWidget@@@Z @ 317 NONAME ; QLayout::QLayout(class QWidget *)
	??0QLayout@@QAE@XZ @ 318 NONAME ; QLayout::QLayout(void)
	??0QLayoutItem@@QAE@V?$QFlags@W4AlignmentFlag@Qt@@@@@Z @ 319 NONAME ; QLayoutItem::QLayoutItem(class QFlags<enum Qt::AlignmentFlag>)
	??0QLayoutPrivate@@QAE@XZ @ 320 NONAME ; QLayoutPrivate::QLayoutPrivate(void)
	??0QLineControl@@QAE@ABVQString@@@Z @ 321 NONAME ; QLineControl::QLineControl(class QString const &)
	??0QLineEdit@@QAE@ABVQString@@PAVQWidget@@@Z @ 322 NONAME ; QLineEdit::QLineEdit(class QString const &, class QWidget *)
	??0QLineEdit@@QAE@PAVQWidget@@@Z @ 323 NONAME ; QLineEdit::QLineEdit(class QWidget *)
	??0QLinearGradient@@QAE@ABVQPointF@@0@Z @ 324 NONAME ; QLinearGradient::QLinearGradient(class QPointF const &, class QPointF const &)
	??0QLinearGradient@@QAE@MMMM@Z @ 325 NONAME ; QLinearGradient::QLinearGradient(float, float, float, float)
	??0QLinearGradient@@QAE@XZ @ 326 NONAME ; QLinearGradient::QLinearGradient(void)
	??0QListView@@IAE@AAVQListViewPrivate@@PAVQWidget@@@Z @ 327 NONAME ; QListView::QListView(class QListViewPrivate &, class QWidget *)
	??0QListView@@QAE@PAVQWidget@@@Z @ 328 NONAME ; QListView::QListView(class QWidget *)
	??0QListWidget@@QAE@PAVQWidget@@@Z @ 329 NONAME ; QListWidget::QListWidget(class QWidget *)
	??0QListWidgetItem@@QAE@ABV0@@Z @ 330 NONAME ; QListWidgetItem::QListWidgetItem(class QListWidgetItem const &)
	??0QListWidgetItem@@QAE@ABVQIcon@@ABVQString@@PAVQListWidget@@H@Z @ 331 NONAME ; QListWidgetItem::QListWidgetItem(class QIcon const &, class QString const &, class QListWidget *, int)
	??0QListWidgetItem@@QAE@ABVQString@@PAVQListWidget@@H@Z @ 332 NONAME ; QListWidgetItem::QListWidgetItem(class QString const &, class QListWidget *, int)
	??0QListWidgetItem@@QAE@PAVQListWidget@@H@Z @ 333 NONAME ; QListWidgetItem::QListWidgetItem(class QListWidget *, int)
	??0QMainWindow@@QAE@PAVQWidget@@V?$QFlags@W4WindowType@Qt@@@@@Z @ 334 NONAME ; QMainWindow::QMainWindow(class QWidget *, class QFlags<enum Qt::WindowType>)
	??0QMatrix4x4@@AAE@H@Z @ 335 NONAME ; QMatrix4x4::QMatrix4x4(int)
	??0QMatrix4x4@@QAE@ABV0@@Z @ 336 NONAME ; QMatrix4x4::QMatrix4x4(class QMatrix4x4 const &)
	??0QMatrix4x4@@QAE@ABVQMatrix@@@Z @ 337 NONAME ; QMatrix4x4::QMatrix4x4(class QMatrix const &)
	??0QMatrix4x4@@QAE@ABVQTransform@@@Z @ 338 NONAME ; QMatrix4x4::QMatrix4x4(class QTransform const &)
	??0QMatrix4x4@@QAE@MMMMMMMMMMMMMMMM@Z @ 339 NONAME ; QMatrix4x4::QMatrix4x4(float, float, float, float, float, float, float, float, float, float, float, float, float, float, float, float)
	??0QMatrix4x4@@QAE@PBM@Z @ 340 NONAME ; QMatrix4x4::QMatrix4x4(float const *)
	??0QMatrix4x4@@QAE@PBMHH@Z @ 341 NONAME ; QMatrix4x4::QMatrix4x4(float const *, int, int)
	??0QMatrix4x4@@QAE@XZ @ 342 NONAME ; QMatrix4x4::QMatrix4x4(void)
	??0QMatrix@@AAE@MMMMMM_N@Z @ 343 NONAME ; QMatrix::QMatrix(float, float, float, float, float, float, bool)
	??0QMatrix@@AAE@_N@Z @ 344 NONAME ; QMatrix::QMatrix(bool)
	??0QMatrix@@QAE@ABV0@@Z @ 345 NONAME ; QMatrix::QMatrix(class QMatrix const &)
	??0QMatrix@@QAE@MMMMMM@Z @ 346 NONAME ; QMatrix::QMatrix(float, float, float, float, float, float)
	??0QMatrix@@QAE@W4Initialization@Qt@@@Z @ 347 NONAME ; QMatrix::QMatrix(enum Qt::Initialization)
	??0QMatrix@@QAE@XZ @ 348 NONAME ; QMatrix::QMatrix(void)
	??0QMdiArea@@QAE@PAVQWidget@@@Z @ 349 NONAME ; QMdiArea::QMdiArea(class QWidget *)
	??0QMdiSubWindow@@QAE@PAVQWidget@@V?$QFlags@W4WindowType@Qt@@@@@Z @ 350 NONAME ; QMdiSubWindow::QMdiSubWindow(class QWidget *, class QFlags<enum Qt::WindowType>)
	??0QMenu@@IAE@AAVQMenuPrivate@@PAVQWidget@@@Z @ 351 NONAME ; QMenu::QMenu(class QMenuPrivate &, class QWidget *)
	??0QMenu@@QAE@ABVQString@@PAVQWidget@@@Z @ 352 NONAME ; QMenu::QMenu(class QString const &, class QWidget *)
	??0QMenu@@QAE@PAVQWidget@@@Z @ 353 NONAME ; QMenu::QMenu(class QWidget *)
	??0QMenuBar@@QAE@PAVQWidget@@@Z @ 354 NONAME ; QMenuBar::QMenuBar(class QWidget *)
	??0QMessageBox@@QAE@ABVQString@@0W4Icon@0@HHHPAVQWidget@@V?$QFlags@W4WindowType@Qt@@@@@Z @ 355 NONAME ; QMessageBox::QMessageBox(class QString const &, class QString const &, enum QMessageBox::Icon, int, int, int, class QWidget *, class QFlags<enum Qt::WindowType>)
	??0QMessageBox@@QAE@PAVQWidget@@@Z @ 356 NONAME ; QMessageBox::QMessageBox(class QWidget *)
	??0QMessageBox@@QAE@W4Icon@0@ABVQString@@1V?$QFlags@W4StandardButton@QMessageBox@@@@PAVQWidget@@V?$QFlags@W4WindowType@Qt@@@@@Z @ 357 NONAME ; QMessageBox::QMessageBox(enum QMessageBox::Icon, class QString const &, class QString const &, class QFlags<enum QMessageBox::StandardButton>, class QWidget *, class QFlags<enum Qt::WindowType>)
	??0QMimeSource@@QAE@ABV0@@Z @ 358 NONAME ; QMimeSource::QMimeSource(class QMimeSource const &)
	??0QMouseEvent@@QAE@W4Type@QEvent@@ABVQPoint@@1W4MouseButton@Qt@@V?$QFlags@W4MouseButton@Qt@@@@V?$QFlags@W4KeyboardModifier@Qt@@@@@Z @ 359 NONAME ; QMouseEvent::QMouseEvent(enum QEvent::Type, class QPoint const &, class QPoint const &, enum Qt::MouseButton, class QFlags<enum Qt::MouseButton>, class QFlags<enum Qt::KeyboardModifier>)
	??0QMouseEvent@@QAE@W4Type@QEvent@@ABVQPoint@@W4MouseButton@Qt@@V?$QFlags@W4MouseButton@Qt@@@@V?$QFlags@W4KeyboardModifier@Qt@@@@@Z @ 360 NONAME ; QMouseEvent::QMouseEvent(enum QEvent::Type, class QPoint const &, enum Qt::MouseButton, class QFlags<enum Qt::MouseButton>, class QFlags<enum Qt::KeyboardModifier>)
	??0QMouseEventTransition@@QAE@PAVQObject@@W4Type@QEvent@@W4MouseButton@Qt@@PAVQState@@@Z @ 361 NONAME ; QMouseEventTransition::QMouseEventTransition(class QObject *, enum QEvent::Type, enum Qt::MouseButton, class QState *)
	??0QMouseEventTransition@@QAE@PAVQState@@@Z @ 362 NONAME ; QMouseEventTransition::QMouseEventTransition(class QState *)
	??0QMoveEvent@@QAE@ABVQPoint@@0@Z @ 363 NONAME ; QMoveEvent::QMoveEvent(class QPoint const &, class QPoint const &)
	??0QMovie@@QAE@ABVQString@@ABVQByteArray@@PAVQObject@@@Z @ 364 NONAME ; QMovie::QMovie(class QString const &, class QByteArray const &, class QObject *)
	??0QMovie@@QAE@PAVQIODevice@@ABVQByteArray@@PAVQObject@@@Z @ 365 NONAME ; QMovie::QMovie(class QIODevice *, class QByteArray const &, class QObject *)
	??0QMovie@@QAE@PAVQObject@@@Z @ 366 NONAME ; QMovie::QMovie(class QObject *)
	??0QPaintBuffer@@QAE@ABV0@@Z @ 367 NONAME ; QPaintBuffer::QPaintBuffer(class QPaintBuffer const &)
	??0QPaintBuffer@@QAE@XZ @ 368 NONAME ; QPaintBuffer::QPaintBuffer(void)
	??0QPaintBufferResource@@QAE@P6AXPAX@ZPAVQObject@@@Z @ 369 NONAME ; QPaintBufferResource::QPaintBufferResource(void (*)(void *), class QObject *)
	??0QPaintBufferSignalProxy@@QAE@XZ @ 370 NONAME ; QPaintBufferSignalProxy::QPaintBufferSignalProxy(void)
	??0QPaintDevice@@IAE@XZ @ 371 NONAME ; QPaintDevice::QPaintDevice(void)
	??0QPaintEngine@@IAE@AAVQPaintEnginePrivate@@V?$QFlags@W4PaintEngineFeature@QPaintEngine@@@@@Z @ 372 NONAME ; QPaintEngine::QPaintEngine(class QPaintEnginePrivate &, class QFlags<enum QPaintEngine::PaintEngineFeature>)
	??0QPaintEngine@@QAE@V?$QFlags@W4PaintEngineFeature@QPaintEngine@@@@@Z @ 373 NONAME ; QPaintEngine::QPaintEngine(class QFlags<enum QPaintEngine::PaintEngineFeature>)
	??0QPaintEngineEx@@IAE@AAVQPaintEngineExPrivate@@@Z @ 374 NONAME ; QPaintEngineEx::QPaintEngineEx(class QPaintEngineExPrivate &)
	??0QPaintEngineEx@@QAE@XZ @ 375 NONAME ; QPaintEngineEx::QPaintEngineEx(void)
	??0QPaintEngineExPrivate@@QAE@XZ @ 376 NONAME ; QPaintEngineExPrivate::QPaintEngineExPrivate(void)
	??0QPaintEngineExReplayer@@QAE@XZ @ 377 NONAME ; QPaintEngineExReplayer::QPaintEngineExReplayer(void)
	??0QPaintEngineState@@QAE@ABV0@@Z @ 378 NONAME ; QPaintEngineState::QPaintEngineState(class QPaintEngineState const &)
	??0QPaintEvent@@QAE@ABVQRect@@@Z @ 379 NONAME ; QPaintEvent::QPaintEvent(class QRect const &)
	??0QPaintEvent@@QAE@ABVQRegion@@@Z @ 380 NONAME ; QPaintEvent::QPaintEvent(class QRegion const &)
	??0QPainter@@QAE@PAVQPaintDevice@@@Z @ 381 NONAME ; QPainter::QPainter(class QPaintDevice *)
	??0QPainter@@QAE@XZ @ 382 NONAME ; QPainter::QPainter(void)
	??0QPainterPath@@QAE@ABV0@@Z @ 383 NONAME ; QPainterPath::QPainterPath(class QPainterPath const &)
	??0QPainterPath@@QAE@ABVQPointF@@@Z @ 384 NONAME ; QPainterPath::QPainterPath(class QPointF const &)
	??0QPainterPath@@QAE@XZ @ 385 NONAME ; QPainterPath::QPainterPath(void)
	??0QPainterPathStroker@@QAE@XZ @ 386 NONAME ; QPainterPathStroker::QPainterPathStroker(void)
	??0QPainterReplayer@@QAE@XZ @ 387 NONAME ; QPainterReplayer::QPainterReplayer(void)
	??0QPainterState@@QAE@PBV0@@Z @ 388 NONAME ; QPainterState::QPainterState(class QPainterState const *)
	??0QPainterState@@QAE@XZ @ 389 NONAME ; QPainterState::QPainterState(void)
	??0QPalette@@QAE@ABV0@@Z @ 390 NONAME ; QPalette::QPalette(class QPalette const &)
	??0QPalette@@QAE@ABVQBrush@@00000000@Z @ 391 NONAME ; QPalette::QPalette(class QBrush const &, class QBrush const &, class QBrush const &, class QBrush const &, class QBrush const &, class QBrush const &, class QBrush const &, class QBrush const &, class QBrush const &)
	??0QPalette@@QAE@ABVQColor@@000000@Z @ 392 NONAME ; QPalette::QPalette(class QColor const &, class QColor const &, class QColor const &, class QColor const &, class QColor const &, class QColor const &, class QColor const &)
	??0QPalette@@QAE@ABVQColor@@0@Z @ 393 NONAME ; QPalette::QPalette(class QColor const &, class QColor const &)
	??0QPalette@@QAE@ABVQColor@@@Z @ 394 NONAME ; QPalette::QPalette(class QColor const &)
	??0QPalette@@QAE@W4GlobalColor@Qt@@@Z @ 395 NONAME ; QPalette::QPalette(enum Qt::GlobalColor)
	??0QPalette@@QAE@XZ @ 396 NONAME ; QPalette::QPalette(void)
	??0QPanGesture@@QAE@PAVQObject@@@Z @ 397 NONAME ; QPanGesture::QPanGesture(class QObject *)
	??0QPen@@QAE@ABV0@@Z @ 398 NONAME ; QPen::QPen(class QPen const &)
	??0QPen@@QAE@ABVQBrush@@MW4PenStyle@Qt@@W4PenCapStyle@3@W4PenJoinStyle@3@@Z @ 399 NONAME ; QPen::QPen(class QBrush const &, float, enum Qt::PenStyle, enum Qt::PenCapStyle, enum Qt::PenJoinStyle)
	??0QPen@@QAE@ABVQColor@@@Z @ 400 NONAME ; QPen::QPen(class QColor const &)
	??0QPen@@QAE@W4PenStyle@Qt@@@Z @ 401 NONAME ; QPen::QPen(enum Qt::PenStyle)
	??0QPen@@QAE@XZ @ 402 NONAME ; QPen::QPen(void)
	??0QPicture@@IAE@AAVQPicturePrivate@@@Z @ 403 NONAME ; QPicture::QPicture(class QPicturePrivate &)
	??0QPicture@@QAE@ABV0@@Z @ 404 NONAME ; QPicture::QPicture(class QPicture const &)
	??0QPicture@@QAE@H@Z @ 405 NONAME ; QPicture::QPicture(int)
	??0QPictureFormatPlugin@@QAE@PAVQObject@@@Z @ 406 NONAME ; QPictureFormatPlugin::QPictureFormatPlugin(class QObject *)
	??0QPictureIO@@QAE@ABVQString@@PBD@Z @ 407 NONAME ; QPictureIO::QPictureIO(class QString const &, char const *)
	??0QPictureIO@@QAE@PAVQIODevice@@PBD@Z @ 408 NONAME ; QPictureIO::QPictureIO(class QIODevice *, char const *)
	??0QPictureIO@@QAE@XZ @ 409 NONAME ; QPictureIO::QPictureIO(void)
	??0QPinchGesture@@QAE@PAVQObject@@@Z @ 410 NONAME ; QPinchGesture::QPinchGesture(class QObject *)
	??0QPixmap@@AAE@ABVQSize@@H@Z @ 411 NONAME ; QPixmap::QPixmap(class QSize const &, int)
	??0QPixmap@@AAE@ABVQSize@@W4Type@0@@Z @ 412 NONAME ; QPixmap::QPixmap(class QSize const &, enum QPixmap::Type)
	??0QPixmap@@QAE@ABV0@@Z @ 413 NONAME ; QPixmap::QPixmap(class QPixmap const &)
	??0QPixmap@@QAE@ABVQSize@@@Z @ 414 NONAME ; QPixmap::QPixmap(class QSize const &)
	??0QPixmap@@QAE@ABVQString@@PBDV?$QFlags@W4ImageConversionFlag@Qt@@@@@Z @ 415 NONAME ; QPixmap::QPixmap(class QString const &, char const *, class QFlags<enum Qt::ImageConversionFlag>)
	??0QPixmap@@QAE@HH@Z @ 416 NONAME ; QPixmap::QPixmap(int, int)
	??0QPixmap@@QAE@PAVQPixmapData@@@Z @ 417 NONAME ; QPixmap::QPixmap(class QPixmapData *)
	??0QPixmap@@QAE@QBQBD@Z @ 418 NONAME ; QPixmap::QPixmap(char const * const * const)
	??0QPixmap@@QAE@XZ @ 419 NONAME ; QPixmap::QPixmap(void)
	??0QPixmapBlurFilter@@QAE@PAVQObject@@@Z @ 420 NONAME ; QPixmapBlurFilter::QPixmapBlurFilter(class QObject *)
	??0QPixmapColorizeFilter@@QAE@PAVQObject@@@Z @ 421 NONAME ; QPixmapColorizeFilter::QPixmapColorizeFilter(class QObject *)
	??0QPixmapConvolutionFilter@@QAE@PAVQObject@@@Z @ 422 NONAME ; QPixmapConvolutionFilter::QPixmapConvolutionFilter(class QObject *)
	??0QPixmapData@@QAE@W4PixelType@0@H@Z @ 423 NONAME ; QPixmapData::QPixmapData(enum QPixmapData::PixelType, int)
	??0QPixmapDropShadowFilter@@QAE@PAVQObject@@@Z @ 424 NONAME ; QPixmapDropShadowFilter::QPixmapDropShadowFilter(class QObject *)
	??0QPixmapFilter@@IAE@AAVQPixmapFilterPrivate@@W4FilterType@0@PAVQObject@@@Z @ 425 NONAME ; QPixmapFilter::QPixmapFilter(class QPixmapFilterPrivate &, enum QPixmapFilter::FilterType, class QObject *)
	??0QPixmapFilter@@IAE@W4FilterType@0@PAVQObject@@@Z @ 426 NONAME ; QPixmapFilter::QPixmapFilter(enum QPixmapFilter::FilterType, class QObject *)
	??0QPlainTextDocumentLayout@@QAE@PAVQTextDocument@@@Z @ 427 NONAME ; QPlainTextDocumentLayout::QPlainTextDocumentLayout(class QTextDocument *)
	??0QPlainTextEdit@@IAE@AAVQPlainTextEditPrivate@@PAVQWidget@@@Z @ 428 NONAME ; QPlainTextEdit::QPlainTextEdit(class QPlainTextEditPrivate &, class QWidget *)
	??0QPlainTextEdit@@QAE@ABVQString@@PAVQWidget@@@Z @ 429 NONAME ; QPlainTextEdit::QPlainTextEdit(class QString const &, class QWidget *)
	??0QPlainTextEdit@@QAE@PAVQWidget@@@Z @ 430 NONAME ; QPlainTextEdit::QPlainTextEdit(class QWidget *)
	??0QPolygon@@QAE@ABV0@@Z @ 431 NONAME ; QPolygon::QPolygon(class QPolygon const &)
	??0QPolygon@@QAE@ABV?$QVector@VQPoint@@@@@Z @ 432 NONAME ; QPolygon::QPolygon(class QVector<class QPoint> const &)
	??0QPolygon@@QAE@ABVQRect@@_N@Z @ 433 NONAME ; QPolygon::QPolygon(class QRect const &, bool)
	??0QPolygon@@QAE@H@Z @ 434 NONAME ; QPolygon::QPolygon(int)
	??0QPolygon@@QAE@HPBH@Z @ 435 NONAME ; QPolygon::QPolygon(int, int const *)
	??0QPolygon@@QAE@XZ @ 436 NONAME ; QPolygon::QPolygon(void)
	??0QPolygonF@@QAE@ABV0@@Z @ 437 NONAME ; QPolygonF::QPolygonF(class QPolygonF const &)
	??0QPolygonF@@QAE@ABV?$QVector@VQPointF@@@@@Z @ 438 NONAME ; QPolygonF::QPolygonF(class QVector<class QPointF> const &)
	??0QPolygonF@@QAE@ABVQPolygon@@@Z @ 439 NONAME ; QPolygonF::QPolygonF(class QPolygon const &)
	??0QPolygonF@@QAE@ABVQRectF@@@Z @ 440 NONAME ; QPolygonF::QPolygonF(class QRectF const &)
	??0QPolygonF@@QAE@H@Z @ 441 NONAME ; QPolygonF::QPolygonF(int)
	??0QPolygonF@@QAE@XZ @ 442 NONAME ; QPolygonF::QPolygonF(void)
	??0QProgressBar@@QAE@PAVQWidget@@@Z @ 443 NONAME ; QProgressBar::QProgressBar(class QWidget *)
	??0QProgressDialog@@QAE@ABVQString@@0HHPAVQWidget@@V?$QFlags@W4WindowType@Qt@@@@@Z @ 444 NONAME ; QProgressDialog::QProgressDialog(class QString const &, class QString const &, int, int, class QWidget *, class QFlags<enum Qt::WindowType>)
	??0QProgressDialog@@QAE@PAVQWidget@@V?$QFlags@W4WindowType@Qt@@@@@Z @ 445 NONAME ; QProgressDialog::QProgressDialog(class QWidget *, class QFlags<enum Qt::WindowType>)
	??0QProxyModel@@IAE@AAVQProxyModelPrivate@@PAVQObject@@@Z @ 446 NONAME ; QProxyModel::QProxyModel(class QProxyModelPrivate &, class QObject *)
	??0QProxyModel@@QAE@PAVQObject@@@Z @ 447 NONAME ; QProxyModel::QProxyModel(class QObject *)
	??0QProxyStyle@@QAE@PAVQStyle@@@Z @ 448 NONAME ; QProxyStyle::QProxyStyle(class QStyle *)
	??0QPushButton@@IAE@AAVQPushButtonPrivate@@PAVQWidget@@@Z @ 449 NONAME ; QPushButton::QPushButton(class QPushButtonPrivate &, class QWidget *)
	??0QPushButton@@QAE@ABVQIcon@@ABVQString@@PAVQWidget@@@Z @ 450 NONAME ; QPushButton::QPushButton(class QIcon const &, class QString const &, class QWidget *)
	??0QPushButton@@QAE@ABVQString@@PAVQWidget@@@Z @ 451 NONAME ; QPushButton::QPushButton(class QString const &, class QWidget *)
	??0QPushButton@@QAE@PAVQWidget@@@Z @ 452 NONAME ; QPushButton::QPushButton(class QWidget *)
	??0QQuaternion@@QAE@ABV0@@Z @ 453 NONAME ; QQuaternion::QQuaternion(class QQuaternion const &)
	??0QQuaternion@@QAE@ABVQVector4D@@@Z @ 454 NONAME ; QQuaternion::QQuaternion(class QVector4D const &)
	??0QQuaternion@@QAE@MABVQVector3D@@@Z @ 455 NONAME ; QQuaternion::QQuaternion(float, class QVector3D const &)
	??0QQuaternion@@QAE@MMMM@Z @ 456 NONAME ; QQuaternion::QQuaternion(float, float, float, float)
	??0QQuaternion@@QAE@XZ @ 457 NONAME ; QQuaternion::QQuaternion(void)
	??0QRadialGradient@@QAE@ABVQPointF@@M0@Z @ 458 NONAME ; QRadialGradient::QRadialGradient(class QPointF const &, float, class QPointF const &)
	??0QRadialGradient@@QAE@ABVQPointF@@M@Z @ 459 NONAME ; QRadialGradient::QRadialGradient(class QPointF const &, float)
	??0QRadialGradient@@QAE@MMM@Z @ 460 NONAME ; QRadialGradient::QRadialGradient(float, float, float)
	??0QRadialGradient@@QAE@MMMMM@Z @ 461 NONAME ; QRadialGradient::QRadialGradient(float, float, float, float, float)
	??0QRadialGradient@@QAE@XZ @ 462 NONAME ; QRadialGradient::QRadialGradient(void)
	??0QRadioButton@@QAE@ABVQString@@PAVQWidget@@@Z @ 463 NONAME ; QRadioButton::QRadioButton(class QString const &, class QWidget *)
	??0QRadioButton@@QAE@PAVQWidget@@@Z @ 464 NONAME ; QRadioButton::QRadioButton(class QWidget *)
	??0QRasterPixmapData@@QAE@W4PixelType@QPixmapData@@@Z @ 465 NONAME ; QRasterPixmapData::QRasterPixmapData(enum QPixmapData::PixelType)
	??0QRasterWindowSurface@@QAE@PAVQWidget@@@Z @ 466 NONAME ABSENT ; QRasterWindowSurface::QRasterWindowSurface(class QWidget *)
	??0QRegExpValidator@@QAE@ABVQRegExp@@PAVQObject@@@Z @ 467 NONAME ; QRegExpValidator::QRegExpValidator(class QRegExp const &, class QObject *)
	??0QRegExpValidator@@QAE@PAVQObject@@@Z @ 468 NONAME ; QRegExpValidator::QRegExpValidator(class QObject *)
	??0QRegion@@QAE@ABV0@@Z @ 469 NONAME ; QRegion::QRegion(class QRegion const &)
	??0QRegion@@QAE@ABVQBitmap@@@Z @ 470 NONAME ; QRegion::QRegion(class QBitmap const &)
	??0QRegion@@QAE@ABVQPolygon@@W4FillRule@Qt@@@Z @ 471 NONAME ; QRegion::QRegion(class QPolygon const &, enum Qt::FillRule)
	??0QRegion@@QAE@ABVQRect@@W4RegionType@0@@Z @ 472 NONAME ; QRegion::QRegion(class QRect const &, enum QRegion::RegionType)
	??0QRegion@@QAE@HHHHW4RegionType@0@@Z @ 473 NONAME ; QRegion::QRegion(int, int, int, int, enum QRegion::RegionType)
	??0QRegion@@QAE@XZ @ 474 NONAME ; QRegion::QRegion(void)
	??0QResizeEvent@@QAE@ABVQSize@@0@Z @ 475 NONAME ; QResizeEvent::QResizeEvent(class QSize const &, class QSize const &)
	??0QRubberBand@@QAE@W4Shape@0@PAVQWidget@@@Z @ 476 NONAME ; QRubberBand::QRubberBand(enum QRubberBand::Shape, class QWidget *)
	??0QS60MainAppUi@@QAE@XZ @ 477 NONAME ; QS60MainAppUi::QS60MainAppUi(void)
	??0QS60MainApplication@@QAE@XZ @ 478 NONAME ; QS60MainApplication::QS60MainApplication(void)
	??0QS60MainDocument@@QAE@AAVCEikApplication@@@Z @ 479 NONAME ; QS60MainDocument::QS60MainDocument(class CEikApplication &)
	??0QS60Style@@QAE@XZ @ 480 NONAME ; QS60Style::QS60Style(void)
	??0QScrollArea@@IAE@AAVQScrollAreaPrivate@@PAVQWidget@@@Z @ 481 NONAME ; QScrollArea::QScrollArea(class QScrollAreaPrivate &, class QWidget *)
	??0QScrollArea@@QAE@PAVQWidget@@@Z @ 482 NONAME ; QScrollArea::QScrollArea(class QWidget *)
	??0QScrollBar@@QAE@PAVQWidget@@@Z @ 483 NONAME ; QScrollBar::QScrollBar(class QWidget *)
	??0QScrollBar@@QAE@W4Orientation@Qt@@PAVQWidget@@@Z @ 484 NONAME ; QScrollBar::QScrollBar(enum Qt::Orientation, class QWidget *)
	??0QSessionManager@@AAE@PAVQApplication@@AAVQString@@1@Z @ 485 NONAME ; QSessionManager::QSessionManager(class QApplication *, class QString &, class QString &)
	??0QShortcut@@QAE@ABVQKeySequence@@PAVQWidget@@PBD2W4ShortcutContext@Qt@@@Z @ 486 NONAME ; QShortcut::QShortcut(class QKeySequence const &, class QWidget *, char const *, char const *, enum Qt::ShortcutContext)
	??0QShortcut@@QAE@PAVQWidget@@@Z @ 487 NONAME ; QShortcut::QShortcut(class QWidget *)
	??0QShortcutEvent@@QAE@ABVQKeySequence@@H_N@Z @ 488 NONAME ; QShortcutEvent::QShortcutEvent(class QKeySequence const &, int, bool)
	??0QShowEvent@@QAE@XZ @ 489 NONAME ; QShowEvent::QShowEvent(void)
	??0QSizeGrip@@QAE@PAVQWidget@@@Z @ 490 NONAME ; QSizeGrip::QSizeGrip(class QWidget *)
	??0QSizePolicy@@AAE@H@Z @ 491 NONAME ; QSizePolicy::QSizePolicy(int)
	??0QSizePolicy@@QAE@W4Policy@0@0@Z @ 492 NONAME ; QSizePolicy::QSizePolicy(enum QSizePolicy::Policy, enum QSizePolicy::Policy)
	??0QSizePolicy@@QAE@W4Policy@0@0W4ControlType@0@@Z @ 493 NONAME ; QSizePolicy::QSizePolicy(enum QSizePolicy::Policy, enum QSizePolicy::Policy, enum QSizePolicy::ControlType)
	??0QSizePolicy@@QAE@XZ @ 494 NONAME ; QSizePolicy::QSizePolicy(void)
	??0QSlider@@QAE@PAVQWidget@@@Z @ 495 NONAME ; QSlider::QSlider(class QWidget *)
	??0QSlider@@QAE@W4Orientation@Qt@@PAVQWidget@@@Z @ 496 NONAME ; QSlider::QSlider(enum Qt::Orientation, class QWidget *)
	??0QSortFilterProxyModel@@QAE@PAVQObject@@@Z @ 497 NONAME ; QSortFilterProxyModel::QSortFilterProxyModel(class QObject *)
	??0QSound@@QAE@ABVQString@@PAVQObject@@@Z @ 498 NONAME ; QSound::QSound(class QString const &, class QObject *)
	??0QSpacerItem@@QAE@HHW4Policy@QSizePolicy@@0@Z @ 499 NONAME ; QSpacerItem::QSpacerItem(int, int, enum QSizePolicy::Policy, enum QSizePolicy::Policy)
	??0QSpinBox@@QAE@PAVQWidget@@@Z @ 500 NONAME ; QSpinBox::QSpinBox(class QWidget *)
	??0QSplashScreen@@QAE@ABVQPixmap@@V?$QFlags@W4WindowType@Qt@@@@@Z @ 501 NONAME ; QSplashScreen::QSplashScreen(class QPixmap const &, class QFlags<enum Qt::WindowType>)
	??0QSplashScreen@@QAE@PAVQWidget@@ABVQPixmap@@V?$QFlags@W4WindowType@Qt@@@@@Z @ 502 NONAME ; QSplashScreen::QSplashScreen(class QWidget *, class QPixmap const &, class QFlags<enum Qt::WindowType>)
	??0QSplitter@@QAE@PAVQWidget@@@Z @ 503 NONAME ; QSplitter::QSplitter(class QWidget *)
	??0QSplitter@@QAE@W4Orientation@Qt@@PAVQWidget@@@Z @ 504 NONAME ; QSplitter::QSplitter(enum Qt::Orientation, class QWidget *)
	??0QSplitterHandle@@QAE@W4Orientation@Qt@@PAVQSplitter@@@Z @ 505 NONAME ; QSplitterHandle::QSplitterHandle(enum Qt::Orientation, class QSplitter *)
	??0QStackedLayout@@QAE@PAVQLayout@@@Z @ 506 NONAME ; QStackedLayout::QStackedLayout(class QLayout *)
	??0QStackedLayout@@QAE@PAVQWidget@@@Z @ 507 NONAME ; QStackedLayout::QStackedLayout(class QWidget *)
	??0QStackedLayout@@QAE@XZ @ 508 NONAME ; QStackedLayout::QStackedLayout(void)
	??0QStackedWidget@@QAE@PAVQWidget@@@Z @ 509 NONAME ; QStackedWidget::QStackedWidget(class QWidget *)
	??0QStandardItem@@IAE@AAVQStandardItemPrivate@@@Z @ 510 NONAME ; QStandardItem::QStandardItem(class QStandardItemPrivate &)
	??0QStandardItem@@IAE@ABV0@@Z @ 511 NONAME ; QStandardItem::QStandardItem(class QStandardItem const &)
	??0QStandardItem@@QAE@ABVQIcon@@ABVQString@@@Z @ 512 NONAME ; QStandardItem::QStandardItem(class QIcon const &, class QString const &)
	??0QStandardItem@@QAE@ABVQString@@@Z @ 513 NONAME ; QStandardItem::QStandardItem(class QString const &)
	??0QStandardItem@@QAE@HH@Z @ 514 NONAME ; QStandardItem::QStandardItem(int, int)
	??0QStandardItem@@QAE@XZ @ 515 NONAME ; QStandardItem::QStandardItem(void)
	??0QStandardItemModel@@IAE@AAVQStandardItemModelPrivate@@PAVQObject@@@Z @ 516 NONAME ; QStandardItemModel::QStandardItemModel(class QStandardItemModelPrivate &, class QObject *)
	??0QStandardItemModel@@QAE@HHPAVQObject@@@Z @ 517 NONAME ; QStandardItemModel::QStandardItemModel(int, int, class QObject *)
	??0QStandardItemModel@@QAE@PAVQObject@@@Z @ 518 NONAME ; QStandardItemModel::QStandardItemModel(class QObject *)
	??0QStatusBar@@QAE@PAVQWidget@@@Z @ 519 NONAME ; QStatusBar::QStatusBar(class QWidget *)
	??0QStatusTipEvent@@QAE@ABVQString@@@Z @ 520 NONAME ; QStatusTipEvent::QStatusTipEvent(class QString const &)
	??0QStringListModel@@QAE@ABVQStringList@@PAVQObject@@@Z @ 521 NONAME ; QStringListModel::QStringListModel(class QStringList const &, class QObject *)
	??0QStringListModel@@QAE@PAVQObject@@@Z @ 522 NONAME ; QStringListModel::QStringListModel(class QObject *)
	??0QStroker@@QAE@XZ @ 523 NONAME ; QStroker::QStroker(void)
	??0QStrokerOps@@QAE@XZ @ 524 NONAME ; QStrokerOps::QStrokerOps(void)
	??0QStyle@@IAE@AAVQStylePrivate@@@Z @ 525 NONAME ; QStyle::QStyle(class QStylePrivate &)
	??0QStyle@@QAE@XZ @ 526 NONAME ; QStyle::QStyle(void)
	??0QStyleHintReturn@@QAE@HH@Z @ 527 NONAME ; QStyleHintReturn::QStyleHintReturn(int, int)
	??0QStyleHintReturnMask@@QAE@XZ @ 528 NONAME ; QStyleHintReturnMask::QStyleHintReturnMask(void)
	??0QStyleHintReturnVariant@@QAE@XZ @ 529 NONAME ; QStyleHintReturnVariant::QStyleHintReturnVariant(void)
	??0QStyleOption@@QAE@ABV0@@Z @ 530 NONAME ; QStyleOption::QStyleOption(class QStyleOption const &)
	??0QStyleOption@@QAE@HH@Z @ 531 NONAME ; QStyleOption::QStyleOption(int, int)
	??0QStyleOptionButton@@IAE@H@Z @ 532 NONAME ; QStyleOptionButton::QStyleOptionButton(int)
	??0QStyleOptionButton@@QAE@ABV0@@Z @ 533 NONAME ; QStyleOptionButton::QStyleOptionButton(class QStyleOptionButton const &)
	??0QStyleOptionButton@@QAE@XZ @ 534 NONAME ; QStyleOptionButton::QStyleOptionButton(void)
	??0QStyleOptionComboBox@@IAE@H@Z @ 535 NONAME ; QStyleOptionComboBox::QStyleOptionComboBox(int)
	??0QStyleOptionComboBox@@QAE@ABV0@@Z @ 536 NONAME ; QStyleOptionComboBox::QStyleOptionComboBox(class QStyleOptionComboBox const &)
	??0QStyleOptionComboBox@@QAE@XZ @ 537 NONAME ; QStyleOptionComboBox::QStyleOptionComboBox(void)
	??0QStyleOptionComplex@@QAE@ABV0@@Z @ 538 NONAME ; QStyleOptionComplex::QStyleOptionComplex(class QStyleOptionComplex const &)
	??0QStyleOptionComplex@@QAE@HH@Z @ 539 NONAME ; QStyleOptionComplex::QStyleOptionComplex(int, int)
	??0QStyleOptionDockWidget@@IAE@H@Z @ 540 NONAME ; QStyleOptionDockWidget::QStyleOptionDockWidget(int)
	??0QStyleOptionDockWidget@@QAE@ABV0@@Z @ 541 NONAME ; QStyleOptionDockWidget::QStyleOptionDockWidget(class QStyleOptionDockWidget const &)
	??0QStyleOptionDockWidget@@QAE@XZ @ 542 NONAME ; QStyleOptionDockWidget::QStyleOptionDockWidget(void)
	??0QStyleOptionDockWidgetV2@@IAE@H@Z @ 543 NONAME ; QStyleOptionDockWidgetV2::QStyleOptionDockWidgetV2(int)
	??0QStyleOptionDockWidgetV2@@QAE@ABV0@@Z @ 544 NONAME ; QStyleOptionDockWidgetV2::QStyleOptionDockWidgetV2(class QStyleOptionDockWidgetV2 const &)
	??0QStyleOptionDockWidgetV2@@QAE@ABVQStyleOptionDockWidget@@@Z @ 545 NONAME ; QStyleOptionDockWidgetV2::QStyleOptionDockWidgetV2(class QStyleOptionDockWidget const &)
	??0QStyleOptionDockWidgetV2@@QAE@XZ @ 546 NONAME ; QStyleOptionDockWidgetV2::QStyleOptionDockWidgetV2(void)
	??0QStyleOptionFocusRect@@IAE@H@Z @ 547 NONAME ; QStyleOptionFocusRect::QStyleOptionFocusRect(int)
	??0QStyleOptionFocusRect@@QAE@ABV0@@Z @ 548 NONAME ; QStyleOptionFocusRect::QStyleOptionFocusRect(class QStyleOptionFocusRect const &)
	??0QStyleOptionFocusRect@@QAE@XZ @ 549 NONAME ; QStyleOptionFocusRect::QStyleOptionFocusRect(void)
	??0QStyleOptionFrame@@IAE@H@Z @ 550 NONAME ; QStyleOptionFrame::QStyleOptionFrame(int)
	??0QStyleOptionFrame@@QAE@ABV0@@Z @ 551 NONAME ; QStyleOptionFrame::QStyleOptionFrame(class QStyleOptionFrame const &)
	??0QStyleOptionFrame@@QAE@XZ @ 552 NONAME ; QStyleOptionFrame::QStyleOptionFrame(void)
	??0QStyleOptionFrameV2@@IAE@H@Z @ 553 NONAME ; QStyleOptionFrameV2::QStyleOptionFrameV2(int)
	??0QStyleOptionFrameV2@@QAE@ABV0@@Z @ 554 NONAME ; QStyleOptionFrameV2::QStyleOptionFrameV2(class QStyleOptionFrameV2 const &)
	??0QStyleOptionFrameV2@@QAE@ABVQStyleOptionFrame@@@Z @ 555 NONAME ; QStyleOptionFrameV2::QStyleOptionFrameV2(class QStyleOptionFrame const &)
	??0QStyleOptionFrameV2@@QAE@XZ @ 556 NONAME ; QStyleOptionFrameV2::QStyleOptionFrameV2(void)
	??0QStyleOptionFrameV3@@IAE@H@Z @ 557 NONAME ; QStyleOptionFrameV3::QStyleOptionFrameV3(int)
	??0QStyleOptionFrameV3@@QAE@ABV0@@Z @ 558 NONAME ; QStyleOptionFrameV3::QStyleOptionFrameV3(class QStyleOptionFrameV3 const &)
	??0QStyleOptionFrameV3@@QAE@ABVQStyleOptionFrame@@@Z @ 559 NONAME ; QStyleOptionFrameV3::QStyleOptionFrameV3(class QStyleOptionFrame const &)
	??0QStyleOptionFrameV3@@QAE@XZ @ 560 NONAME ; QStyleOptionFrameV3::QStyleOptionFrameV3(void)
	??0QStyleOptionGraphicsItem@@IAE@H@Z @ 561 NONAME ; QStyleOptionGraphicsItem::QStyleOptionGraphicsItem(int)
	??0QStyleOptionGraphicsItem@@QAE@ABV0@@Z @ 562 NONAME ; QStyleOptionGraphicsItem::QStyleOptionGraphicsItem(class QStyleOptionGraphicsItem const &)
	??0QStyleOptionGraphicsItem@@QAE@XZ @ 563 NONAME ; QStyleOptionGraphicsItem::QStyleOptionGraphicsItem(void)
	??0QStyleOptionGroupBox@@IAE@H@Z @ 564 NONAME ; QStyleOptionGroupBox::QStyleOptionGroupBox(int)
	??0QStyleOptionGroupBox@@QAE@ABV0@@Z @ 565 NONAME ; QStyleOptionGroupBox::QStyleOptionGroupBox(class QStyleOptionGroupBox const &)
	??0QStyleOptionGroupBox@@QAE@XZ @ 566 NONAME ; QStyleOptionGroupBox::QStyleOptionGroupBox(void)
	??0QStyleOptionHeader@@IAE@H@Z @ 567 NONAME ; QStyleOptionHeader::QStyleOptionHeader(int)
	??0QStyleOptionHeader@@QAE@ABV0@@Z @ 568 NONAME ; QStyleOptionHeader::QStyleOptionHeader(class QStyleOptionHeader const &)
	??0QStyleOptionHeader@@QAE@XZ @ 569 NONAME ; QStyleOptionHeader::QStyleOptionHeader(void)
	??0QStyleOptionMenuItem@@IAE@H@Z @ 570 NONAME ; QStyleOptionMenuItem::QStyleOptionMenuItem(int)
	??0QStyleOptionMenuItem@@QAE@ABV0@@Z @ 571 NONAME ; QStyleOptionMenuItem::QStyleOptionMenuItem(class QStyleOptionMenuItem const &)
	??0QStyleOptionMenuItem@@QAE@XZ @ 572 NONAME ; QStyleOptionMenuItem::QStyleOptionMenuItem(void)
	??0QStyleOptionProgressBar@@IAE@H@Z @ 573 NONAME ; QStyleOptionProgressBar::QStyleOptionProgressBar(int)
	??0QStyleOptionProgressBar@@QAE@ABV0@@Z @ 574 NONAME ; QStyleOptionProgressBar::QStyleOptionProgressBar(class QStyleOptionProgressBar const &)
	??0QStyleOptionProgressBar@@QAE@XZ @ 575 NONAME ; QStyleOptionProgressBar::QStyleOptionProgressBar(void)
	??0QStyleOptionProgressBarV2@@IAE@H@Z @ 576 NONAME ; QStyleOptionProgressBarV2::QStyleOptionProgressBarV2(int)
	??0QStyleOptionProgressBarV2@@QAE@ABV0@@Z @ 577 NONAME ; QStyleOptionProgressBarV2::QStyleOptionProgressBarV2(class QStyleOptionProgressBarV2 const &)
	??0QStyleOptionProgressBarV2@@QAE@ABVQStyleOptionProgressBar@@@Z @ 578 NONAME ; QStyleOptionProgressBarV2::QStyleOptionProgressBarV2(class QStyleOptionProgressBar const &)
	??0QStyleOptionProgressBarV2@@QAE@XZ @ 579 NONAME ; QStyleOptionProgressBarV2::QStyleOptionProgressBarV2(void)
	??0QStyleOptionQ3DockWindow@@IAE@H@Z @ 580 NONAME ; QStyleOptionQ3DockWindow::QStyleOptionQ3DockWindow(int)
	??0QStyleOptionQ3DockWindow@@QAE@ABV0@@Z @ 581 NONAME ; QStyleOptionQ3DockWindow::QStyleOptionQ3DockWindow(class QStyleOptionQ3DockWindow const &)
	??0QStyleOptionQ3DockWindow@@QAE@XZ @ 582 NONAME ; QStyleOptionQ3DockWindow::QStyleOptionQ3DockWindow(void)
	??0QStyleOptionQ3ListView@@IAE@H@Z @ 583 NONAME ; QStyleOptionQ3ListView::QStyleOptionQ3ListView(int)
	??0QStyleOptionQ3ListView@@QAE@ABV0@@Z @ 584 NONAME ; QStyleOptionQ3ListView::QStyleOptionQ3ListView(class QStyleOptionQ3ListView const &)
	??0QStyleOptionQ3ListView@@QAE@XZ @ 585 NONAME ; QStyleOptionQ3ListView::QStyleOptionQ3ListView(void)
	??0QStyleOptionQ3ListViewItem@@IAE@H@Z @ 586 NONAME ; QStyleOptionQ3ListViewItem::QStyleOptionQ3ListViewItem(int)
	??0QStyleOptionQ3ListViewItem@@QAE@ABV0@@Z @ 587 NONAME ; QStyleOptionQ3ListViewItem::QStyleOptionQ3ListViewItem(class QStyleOptionQ3ListViewItem const &)
	??0QStyleOptionQ3ListViewItem@@QAE@XZ @ 588 NONAME ; QStyleOptionQ3ListViewItem::QStyleOptionQ3ListViewItem(void)
	??0QStyleOptionRubberBand@@IAE@H@Z @ 589 NONAME ; QStyleOptionRubberBand::QStyleOptionRubberBand(int)
	??0QStyleOptionRubberBand@@QAE@ABV0@@Z @ 590 NONAME ; QStyleOptionRubberBand::QStyleOptionRubberBand(class QStyleOptionRubberBand const &)
	??0QStyleOptionRubberBand@@QAE@XZ @ 591 NONAME ; QStyleOptionRubberBand::QStyleOptionRubberBand(void)
	??0QStyleOptionSizeGrip@@IAE@H@Z @ 592 NONAME ; QStyleOptionSizeGrip::QStyleOptionSizeGrip(int)
	??0QStyleOptionSizeGrip@@QAE@ABV0@@Z @ 593 NONAME ; QStyleOptionSizeGrip::QStyleOptionSizeGrip(class QStyleOptionSizeGrip const &)
	??0QStyleOptionSizeGrip@@QAE@XZ @ 594 NONAME ; QStyleOptionSizeGrip::QStyleOptionSizeGrip(void)
	??0QStyleOptionSlider@@IAE@H@Z @ 595 NONAME ; QStyleOptionSlider::QStyleOptionSlider(int)
	??0QStyleOptionSlider@@QAE@ABV0@@Z @ 596 NONAME ; QStyleOptionSlider::QStyleOptionSlider(class QStyleOptionSlider const &)
	??0QStyleOptionSlider@@QAE@XZ @ 597 NONAME ; QStyleOptionSlider::QStyleOptionSlider(void)
	??0QStyleOptionSpinBox@@IAE@H@Z @ 598 NONAME ; QStyleOptionSpinBox::QStyleOptionSpinBox(int)
	??0QStyleOptionSpinBox@@QAE@ABV0@@Z @ 599 NONAME ; QStyleOptionSpinBox::QStyleOptionSpinBox(class QStyleOptionSpinBox const &)
	??0QStyleOptionSpinBox@@QAE@XZ @ 600 NONAME ; QStyleOptionSpinBox::QStyleOptionSpinBox(void)
	??0QStyleOptionTab@@IAE@H@Z @ 601 NONAME ; QStyleOptionTab::QStyleOptionTab(int)
	??0QStyleOptionTab@@QAE@ABV0@@Z @ 602 NONAME ; QStyleOptionTab::QStyleOptionTab(class QStyleOptionTab const &)
	??0QStyleOptionTab@@QAE@XZ @ 603 NONAME ; QStyleOptionTab::QStyleOptionTab(void)
	??0QStyleOptionTabBarBase@@IAE@H@Z @ 604 NONAME ; QStyleOptionTabBarBase::QStyleOptionTabBarBase(int)
	??0QStyleOptionTabBarBase@@QAE@ABV0@@Z @ 605 NONAME ; QStyleOptionTabBarBase::QStyleOptionTabBarBase(class QStyleOptionTabBarBase const &)
	??0QStyleOptionTabBarBase@@QAE@XZ @ 606 NONAME ; QStyleOptionTabBarBase::QStyleOptionTabBarBase(void)
	??0QStyleOptionTabBarBaseV2@@IAE@H@Z @ 607 NONAME ; QStyleOptionTabBarBaseV2::QStyleOptionTabBarBaseV2(int)
	??0QStyleOptionTabBarBaseV2@@QAE@ABV0@@Z @ 608 NONAME ; QStyleOptionTabBarBaseV2::QStyleOptionTabBarBaseV2(class QStyleOptionTabBarBaseV2 const &)
	??0QStyleOptionTabBarBaseV2@@QAE@ABVQStyleOptionTabBarBase@@@Z @ 609 NONAME ; QStyleOptionTabBarBaseV2::QStyleOptionTabBarBaseV2(class QStyleOptionTabBarBase const &)
	??0QStyleOptionTabBarBaseV2@@QAE@XZ @ 610 NONAME ; QStyleOptionTabBarBaseV2::QStyleOptionTabBarBaseV2(void)
	??0QStyleOptionTabV2@@IAE@H@Z @ 611 NONAME ; QStyleOptionTabV2::QStyleOptionTabV2(int)
	??0QStyleOptionTabV2@@QAE@ABV0@@Z @ 612 NONAME ; QStyleOptionTabV2::QStyleOptionTabV2(class QStyleOptionTabV2 const &)
	??0QStyleOptionTabV2@@QAE@ABVQStyleOptionTab@@@Z @ 613 NONAME ; QStyleOptionTabV2::QStyleOptionTabV2(class QStyleOptionTab const &)
	??0QStyleOptionTabV2@@QAE@XZ @ 614 NONAME ; QStyleOptionTabV2::QStyleOptionTabV2(void)
	??0QStyleOptionTabV3@@IAE@H@Z @ 615 NONAME ; QStyleOptionTabV3::QStyleOptionTabV3(int)
	??0QStyleOptionTabV3@@QAE@ABV0@@Z @ 616 NONAME ; QStyleOptionTabV3::QStyleOptionTabV3(class QStyleOptionTabV3 const &)
	??0QStyleOptionTabV3@@QAE@ABVQStyleOptionTab@@@Z @ 617 NONAME ; QStyleOptionTabV3::QStyleOptionTabV3(class QStyleOptionTab const &)
	??0QStyleOptionTabV3@@QAE@ABVQStyleOptionTabV2@@@Z @ 618 NONAME ; QStyleOptionTabV3::QStyleOptionTabV3(class QStyleOptionTabV2 const &)
	??0QStyleOptionTabV3@@QAE@XZ @ 619 NONAME ; QStyleOptionTabV3::QStyleOptionTabV3(void)
	??0QStyleOptionTabWidgetFrame@@IAE@H@Z @ 620 NONAME ; QStyleOptionTabWidgetFrame::QStyleOptionTabWidgetFrame(int)
	??0QStyleOptionTabWidgetFrame@@QAE@ABV0@@Z @ 621 NONAME ; QStyleOptionTabWidgetFrame::QStyleOptionTabWidgetFrame(class QStyleOptionTabWidgetFrame const &)
	??0QStyleOptionTabWidgetFrame@@QAE@XZ @ 622 NONAME ; QStyleOptionTabWidgetFrame::QStyleOptionTabWidgetFrame(void)
	??0QStyleOptionTabWidgetFrameV2@@IAE@H@Z @ 623 NONAME ; QStyleOptionTabWidgetFrameV2::QStyleOptionTabWidgetFrameV2(int)
	??0QStyleOptionTabWidgetFrameV2@@QAE@ABV0@@Z @ 624 NONAME ; QStyleOptionTabWidgetFrameV2::QStyleOptionTabWidgetFrameV2(class QStyleOptionTabWidgetFrameV2 const &)
	??0QStyleOptionTabWidgetFrameV2@@QAE@ABVQStyleOptionTabWidgetFrame@@@Z @ 625 NONAME ; QStyleOptionTabWidgetFrameV2::QStyleOptionTabWidgetFrameV2(class QStyleOptionTabWidgetFrame const &)
	??0QStyleOptionTabWidgetFrameV2@@QAE@XZ @ 626 NONAME ; QStyleOptionTabWidgetFrameV2::QStyleOptionTabWidgetFrameV2(void)
	??0QStyleOptionTitleBar@@IAE@H@Z @ 627 NONAME ; QStyleOptionTitleBar::QStyleOptionTitleBar(int)
	??0QStyleOptionTitleBar@@QAE@ABV0@@Z @ 628 NONAME ; QStyleOptionTitleBar::QStyleOptionTitleBar(class QStyleOptionTitleBar const &)
	??0QStyleOptionTitleBar@@QAE@XZ @ 629 NONAME ; QStyleOptionTitleBar::QStyleOptionTitleBar(void)
	??0QStyleOptionToolBar@@IAE@H@Z @ 630 NONAME ; QStyleOptionToolBar::QStyleOptionToolBar(int)
	??0QStyleOptionToolBar@@QAE@ABV0@@Z @ 631 NONAME ; QStyleOptionToolBar::QStyleOptionToolBar(class QStyleOptionToolBar const &)
	??0QStyleOptionToolBar@@QAE@XZ @ 632 NONAME ; QStyleOptionToolBar::QStyleOptionToolBar(void)
	??0QStyleOptionToolBox@@IAE@H@Z @ 633 NONAME ; QStyleOptionToolBox::QStyleOptionToolBox(int)
	??0QStyleOptionToolBox@@QAE@ABV0@@Z @ 634 NONAME ; QStyleOptionToolBox::QStyleOptionToolBox(class QStyleOptionToolBox const &)
	??0QStyleOptionToolBox@@QAE@XZ @ 635 NONAME ; QStyleOptionToolBox::QStyleOptionToolBox(void)
	??0QStyleOptionToolBoxV2@@IAE@H@Z @ 636 NONAME ; QStyleOptionToolBoxV2::QStyleOptionToolBoxV2(int)
	??0QStyleOptionToolBoxV2@@QAE@ABV0@@Z @ 637 NONAME ; QStyleOptionToolBoxV2::QStyleOptionToolBoxV2(class QStyleOptionToolBoxV2 const &)
	??0QStyleOptionToolBoxV2@@QAE@ABVQStyleOptionToolBox@@@Z @ 638 NONAME ; QStyleOptionToolBoxV2::QStyleOptionToolBoxV2(class QStyleOptionToolBox const &)
	??0QStyleOptionToolBoxV2@@QAE@XZ @ 639 NONAME ; QStyleOptionToolBoxV2::QStyleOptionToolBoxV2(void)
	??0QStyleOptionToolButton@@IAE@H@Z @ 640 NONAME ; QStyleOptionToolButton::QStyleOptionToolButton(int)
	??0QStyleOptionToolButton@@QAE@ABV0@@Z @ 641 NONAME ; QStyleOptionToolButton::QStyleOptionToolButton(class QStyleOptionToolButton const &)
	??0QStyleOptionToolButton@@QAE@XZ @ 642 NONAME ; QStyleOptionToolButton::QStyleOptionToolButton(void)
	??0QStyleOptionViewItem@@IAE@H@Z @ 643 NONAME ; QStyleOptionViewItem::QStyleOptionViewItem(int)
	??0QStyleOptionViewItem@@QAE@ABV0@@Z @ 644 NONAME ; QStyleOptionViewItem::QStyleOptionViewItem(class QStyleOptionViewItem const &)
	??0QStyleOptionViewItem@@QAE@XZ @ 645 NONAME ; QStyleOptionViewItem::QStyleOptionViewItem(void)
	??0QStyleOptionViewItemV2@@IAE@H@Z @ 646 NONAME ; QStyleOptionViewItemV2::QStyleOptionViewItemV2(int)
	??0QStyleOptionViewItemV2@@QAE@ABV0@@Z @ 647 NONAME ; QStyleOptionViewItemV2::QStyleOptionViewItemV2(class QStyleOptionViewItemV2 const &)
	??0QStyleOptionViewItemV2@@QAE@ABVQStyleOptionViewItem@@@Z @ 648 NONAME ; QStyleOptionViewItemV2::QStyleOptionViewItemV2(class QStyleOptionViewItem const &)
	??0QStyleOptionViewItemV2@@QAE@XZ @ 649 NONAME ; QStyleOptionViewItemV2::QStyleOptionViewItemV2(void)
	??0QStyleOptionViewItemV3@@IAE@H@Z @ 650 NONAME ; QStyleOptionViewItemV3::QStyleOptionViewItemV3(int)
	??0QStyleOptionViewItemV3@@QAE@ABV0@@Z @ 651 NONAME ; QStyleOptionViewItemV3::QStyleOptionViewItemV3(class QStyleOptionViewItemV3 const &)
	??0QStyleOptionViewItemV3@@QAE@ABVQStyleOptionViewItem@@@Z @ 652 NONAME ; QStyleOptionViewItemV3::QStyleOptionViewItemV3(class QStyleOptionViewItem const &)
	??0QStyleOptionViewItemV3@@QAE@XZ @ 653 NONAME ; QStyleOptionViewItemV3::QStyleOptionViewItemV3(void)
	??0QStyleOptionViewItemV4@@IAE@H@Z @ 654 NONAME ; QStyleOptionViewItemV4::QStyleOptionViewItemV4(int)
	??0QStyleOptionViewItemV4@@QAE@ABV0@@Z @ 655 NONAME ; QStyleOptionViewItemV4::QStyleOptionViewItemV4(class QStyleOptionViewItemV4 const &)
	??0QStyleOptionViewItemV4@@QAE@ABVQStyleOptionViewItem@@@Z @ 656 NONAME ; QStyleOptionViewItemV4::QStyleOptionViewItemV4(class QStyleOptionViewItem const &)
	??0QStyleOptionViewItemV4@@QAE@XZ @ 657 NONAME ; QStyleOptionViewItemV4::QStyleOptionViewItemV4(void)
	??0QStylePlugin@@QAE@PAVQObject@@@Z @ 658 NONAME ; QStylePlugin::QStylePlugin(class QObject *)
	??0QStyledItemDelegate@@QAE@PAVQObject@@@Z @ 659 NONAME ; QStyledItemDelegate::QStyledItemDelegate(class QObject *)
	??0QSwipeGesture@@QAE@PAVQObject@@@Z @ 660 NONAME ; QSwipeGesture::QSwipeGesture(class QObject *)
	??0QSymbianEvent@@QAE@PBVTWsEvent@@@Z @ 661 NONAME ; QSymbianEvent::QSymbianEvent(class TWsEvent const *)
	??0QSymbianEvent@@QAE@W4Type@0@H@Z @ 662 NONAME ; QSymbianEvent::QSymbianEvent(enum QSymbianEvent::Type, int)
	??0QSyntaxHighlighter@@QAE@PAVQObject@@@Z @ 663 NONAME ; QSyntaxHighlighter::QSyntaxHighlighter(class QObject *)
	??0QSyntaxHighlighter@@QAE@PAVQTextDocument@@@Z @ 664 NONAME ; QSyntaxHighlighter::QSyntaxHighlighter(class QTextDocument *)
	??0QSyntaxHighlighter@@QAE@PAVQTextEdit@@@Z @ 665 NONAME ; QSyntaxHighlighter::QSyntaxHighlighter(class QTextEdit *)
	??0QTabBar@@QAE@PAVQWidget@@@Z @ 666 NONAME ; QTabBar::QTabBar(class QWidget *)
	??0QTabWidget@@QAE@PAVQWidget@@@Z @ 667 NONAME ; QTabWidget::QTabWidget(class QWidget *)
	??0QTableView@@IAE@AAVQTableViewPrivate@@PAVQWidget@@@Z @ 668 NONAME ; QTableView::QTableView(class QTableViewPrivate &, class QWidget *)
	??0QTableView@@QAE@PAVQWidget@@@Z @ 669 NONAME ; QTableView::QTableView(class QWidget *)
	??0QTableWidget@@QAE@HHPAVQWidget@@@Z @ 670 NONAME ; QTableWidget::QTableWidget(int, int, class QWidget *)
	??0QTableWidget@@QAE@PAVQWidget@@@Z @ 671 NONAME ; QTableWidget::QTableWidget(class QWidget *)
	??0QTableWidgetItem@@QAE@ABV0@@Z @ 672 NONAME ; QTableWidgetItem::QTableWidgetItem(class QTableWidgetItem const &)
	??0QTableWidgetItem@@QAE@ABVQIcon@@ABVQString@@H@Z @ 673 NONAME ; QTableWidgetItem::QTableWidgetItem(class QIcon const &, class QString const &, int)
	??0QTableWidgetItem@@QAE@ABVQString@@H@Z @ 674 NONAME ; QTableWidgetItem::QTableWidgetItem(class QString const &, int)
	??0QTableWidgetItem@@QAE@H@Z @ 675 NONAME ; QTableWidgetItem::QTableWidgetItem(int)
	??0QTableWidgetSelectionRange@@QAE@ABV0@@Z @ 676 NONAME ; QTableWidgetSelectionRange::QTableWidgetSelectionRange(class QTableWidgetSelectionRange const &)
	??0QTableWidgetSelectionRange@@QAE@HHHH@Z @ 677 NONAME ; QTableWidgetSelectionRange::QTableWidgetSelectionRange(int, int, int, int)
	??0QTableWidgetSelectionRange@@QAE@XZ @ 678 NONAME ; QTableWidgetSelectionRange::QTableWidgetSelectionRange(void)
	??0QTabletEvent@@QAE@W4Type@QEvent@@ABVQPoint@@1ABVQPointF@@HHMHHMMHV?$QFlags@W4KeyboardModifier@Qt@@@@_J@Z @ 679 NONAME ; QTabletEvent::QTabletEvent(enum QEvent::Type, class QPoint const &, class QPoint const &, class QPointF const &, int, int, float, int, int, float, float, int, class QFlags<enum Qt::KeyboardModifier>, long long)
	??0QTapAndHoldGesture@@QAE@PAVQObject@@@Z @ 680 NONAME ; QTapAndHoldGesture::QTapAndHoldGesture(class QObject *)
	??0QTapGesture@@QAE@PAVQObject@@@Z @ 681 NONAME ; QTapGesture::QTapGesture(class QObject *)
	??0QTessellator@@QAE@XZ @ 682 NONAME ; QTessellator::QTessellator(void)
	??0QTextBlock@@QAE@ABV0@@Z @ 683 NONAME ; QTextBlock::QTextBlock(class QTextBlock const &)
	??0QTextBlock@@QAE@PAVQTextDocumentPrivate@@H@Z @ 684 NONAME ; QTextBlock::QTextBlock(class QTextDocumentPrivate *, int)
	??0QTextBlock@@QAE@XZ @ 685 NONAME ; QTextBlock::QTextBlock(void)
	??0QTextBlockFormat@@IAE@ABVQTextFormat@@@Z @ 686 NONAME ; QTextBlockFormat::QTextBlockFormat(class QTextFormat const &)
	??0QTextBlockFormat@@QAE@ABV0@@Z @ 687 NONAME ; QTextBlockFormat::QTextBlockFormat(class QTextBlockFormat const &)
	??0QTextBlockFormat@@QAE@XZ @ 688 NONAME ; QTextBlockFormat::QTextBlockFormat(void)
	??0QTextBlockGroup@@IAE@AAVQTextBlockGroupPrivate@@PAVQTextDocument@@@Z @ 689 NONAME ; QTextBlockGroup::QTextBlockGroup(class QTextBlockGroupPrivate &, class QTextDocument *)
	??0QTextBlockGroup@@IAE@PAVQTextDocument@@@Z @ 690 NONAME ; QTextBlockGroup::QTextBlockGroup(class QTextDocument *)
	??0QTextBrowser@@QAE@PAVQWidget@@@Z @ 691 NONAME ; QTextBrowser::QTextBrowser(class QWidget *)
	??0QTextCharFormat@@IAE@ABVQTextFormat@@@Z @ 692 NONAME ; QTextCharFormat::QTextCharFormat(class QTextFormat const &)
	??0QTextCharFormat@@QAE@ABV0@@Z @ 693 NONAME ; QTextCharFormat::QTextCharFormat(class QTextCharFormat const &)
	??0QTextCharFormat@@QAE@XZ @ 694 NONAME ; QTextCharFormat::QTextCharFormat(void)
	??0QTextControl@@QAE@ABVQString@@PAVQObject@@@Z @ 695 NONAME ; QTextControl::QTextControl(class QString const &, class QObject *)
	??0QTextControl@@QAE@PAVQObject@@@Z @ 696 NONAME ; QTextControl::QTextControl(class QObject *)
	??0QTextControl@@QAE@PAVQTextDocument@@PAVQObject@@@Z @ 697 NONAME ; QTextControl::QTextControl(class QTextDocument *, class QObject *)
	??0QTextCursor@@QAE@ABV0@@Z @ 698 NONAME ; QTextCursor::QTextCursor(class QTextCursor const &)
	??0QTextCursor@@QAE@ABVQTextBlock@@@Z @ 699 NONAME ; QTextCursor::QTextCursor(class QTextBlock const &)
	??0QTextCursor@@QAE@PAVQTextCursorPrivate@@@Z @ 700 NONAME ; QTextCursor::QTextCursor(class QTextCursorPrivate *)
	??0QTextCursor@@QAE@PAVQTextDocument@@@Z @ 701 NONAME ; QTextCursor::QTextCursor(class QTextDocument *)
	??0QTextCursor@@QAE@PAVQTextDocumentPrivate@@H@Z @ 702 NONAME ; QTextCursor::QTextCursor(class QTextDocumentPrivate *, int)
	??0QTextCursor@@QAE@PAVQTextFrame@@@Z @ 703 NONAME ; QTextCursor::QTextCursor(class QTextFrame *)
	??0QTextCursor@@QAE@XZ @ 704 NONAME ; QTextCursor::QTextCursor(void)
	??0QTextDocument@@IAE@AAVQTextDocumentPrivate@@PAVQObject@@@Z @ 705 NONAME ; QTextDocument::QTextDocument(class QTextDocumentPrivate &, class QObject *)
	??0QTextDocument@@QAE@ABVQString@@PAVQObject@@@Z @ 706 NONAME ; QTextDocument::QTextDocument(class QString const &, class QObject *)
	??0QTextDocument@@QAE@PAVQObject@@@Z @ 707 NONAME ; QTextDocument::QTextDocument(class QObject *)
	??0QTextDocumentFragment@@QAE@ABV0@@Z @ 708 NONAME ; QTextDocumentFragment::QTextDocumentFragment(class QTextDocumentFragment const &)
	??0QTextDocumentFragment@@QAE@ABVQTextCursor@@@Z @ 709 NONAME ; QTextDocumentFragment::QTextDocumentFragment(class QTextCursor const &)
	??0QTextDocumentFragment@@QAE@PBVQTextDocument@@@Z @ 710 NONAME ; QTextDocumentFragment::QTextDocumentFragment(class QTextDocument const *)
	??0QTextDocumentFragment@@QAE@XZ @ 711 NONAME ; QTextDocumentFragment::QTextDocumentFragment(void)
	??0QTextDocumentWriter@@QAE@ABVQString@@ABVQByteArray@@@Z @ 712 NONAME ; QTextDocumentWriter::QTextDocumentWriter(class QString const &, class QByteArray const &)
	??0QTextDocumentWriter@@QAE@PAVQIODevice@@ABVQByteArray@@@Z @ 713 NONAME ; QTextDocumentWriter::QTextDocumentWriter(class QIODevice *, class QByteArray const &)
	??0QTextDocumentWriter@@QAE@XZ @ 714 NONAME ; QTextDocumentWriter::QTextDocumentWriter(void)
	??0QTextEdit@@IAE@AAVQTextEditPrivate@@PAVQWidget@@@Z @ 715 NONAME ; QTextEdit::QTextEdit(class QTextEditPrivate &, class QWidget *)
	??0QTextEdit@@QAE@ABVQString@@PAVQWidget@@@Z @ 716 NONAME ; QTextEdit::QTextEdit(class QString const &, class QWidget *)
	??0QTextEdit@@QAE@PAVQWidget@@@Z @ 717 NONAME ; QTextEdit::QTextEdit(class QWidget *)
	??0QTextEngine@@QAE@ABVQString@@ABVQFont@@@Z @ 718 NONAME ; QTextEngine::QTextEngine(class QString const &, class QFont const &)
	??0QTextEngine@@QAE@XZ @ 719 NONAME ; QTextEngine::QTextEngine(void)
	??0QTextFormat@@QAE@ABV0@@Z @ 720 NONAME ; QTextFormat::QTextFormat(class QTextFormat const &)
	??0QTextFormat@@QAE@H@Z @ 721 NONAME ; QTextFormat::QTextFormat(int)
	??0QTextFormat@@QAE@XZ @ 722 NONAME ; QTextFormat::QTextFormat(void)
	??0QTextFormatCollection@@QAE@ABV0@@Z @ 723 NONAME ; QTextFormatCollection::QTextFormatCollection(class QTextFormatCollection const &)
	??0QTextFormatCollection@@QAE@XZ @ 724 NONAME ; QTextFormatCollection::QTextFormatCollection(void)
	??0QTextFragment@@QAE@ABV0@@Z @ 725 NONAME ; QTextFragment::QTextFragment(class QTextFragment const &)
	??0QTextFragment@@QAE@PBVQTextDocumentPrivate@@HH@Z @ 726 NONAME ; QTextFragment::QTextFragment(class QTextDocumentPrivate const *, int, int)
	??0QTextFragment@@QAE@XZ @ 727 NONAME ; QTextFragment::QTextFragment(void)
	??0QTextFrame@@IAE@AAVQTextFramePrivate@@PAVQTextDocument@@@Z @ 728 NONAME ; QTextFrame::QTextFrame(class QTextFramePrivate &, class QTextDocument *)
	??0QTextFrame@@QAE@PAVQTextDocument@@@Z @ 729 NONAME ; QTextFrame::QTextFrame(class QTextDocument *)
	??0QTextFrameFormat@@IAE@ABVQTextFormat@@@Z @ 730 NONAME ; QTextFrameFormat::QTextFrameFormat(class QTextFormat const &)
	??0QTextFrameFormat@@QAE@XZ @ 731 NONAME ; QTextFrameFormat::QTextFrameFormat(void)
	??0QTextImageFormat@@IAE@ABVQTextFormat@@@Z @ 732 NONAME ; QTextImageFormat::QTextImageFormat(class QTextFormat const &)
	??0QTextImageFormat@@QAE@XZ @ 733 NONAME ; QTextImageFormat::QTextImageFormat(void)
	??0QTextInlineObject@@QAE@HPAVQTextEngine@@@Z @ 734 NONAME ; QTextInlineObject::QTextInlineObject(int, class QTextEngine *)
	??0QTextInlineObject@@QAE@XZ @ 735 NONAME ; QTextInlineObject::QTextInlineObject(void)
	??0QTextLayout@@AAE@PAVQTextEngine@@@Z @ 736 NONAME ; QTextLayout::QTextLayout(class QTextEngine *)
	??0QTextLayout@@QAE@ABVQString@@@Z @ 737 NONAME ; QTextLayout::QTextLayout(class QString const &)
	??0QTextLayout@@QAE@ABVQString@@ABVQFont@@PAVQPaintDevice@@@Z @ 738 NONAME ; QTextLayout::QTextLayout(class QString const &, class QFont const &, class QPaintDevice *)
	??0QTextLayout@@QAE@ABVQTextBlock@@@Z @ 739 NONAME ; QTextLayout::QTextLayout(class QTextBlock const &)
	??0QTextLayout@@QAE@XZ @ 740 NONAME ; QTextLayout::QTextLayout(void)
	??0QTextLength@@QAE@ABV0@@Z @ 741 NONAME ; QTextLength::QTextLength(class QTextLength const &)
	??0QTextLength@@QAE@W4Type@0@M@Z @ 742 NONAME ; QTextLength::QTextLength(enum QTextLength::Type, float)
	??0QTextLength@@QAE@XZ @ 743 NONAME ; QTextLength::QTextLength(void)
	??0QTextLine@@AAE@HPAVQTextEngine@@@Z @ 744 NONAME ; QTextLine::QTextLine(int, class QTextEngine *)
	??0QTextLine@@QAE@XZ @ 745 NONAME ; QTextLine::QTextLine(void)
	??0QTextList@@QAE@PAVQTextDocument@@@Z @ 746 NONAME ; QTextList::QTextList(class QTextDocument *)
	??0QTextListFormat@@IAE@ABVQTextFormat@@@Z @ 747 NONAME ; QTextListFormat::QTextListFormat(class QTextFormat const &)
	??0QTextListFormat@@QAE@XZ @ 748 NONAME ; QTextListFormat::QTextListFormat(void)
	??0QTextObject@@IAE@AAVQTextObjectPrivate@@PAVQTextDocument@@@Z @ 749 NONAME ; QTextObject::QTextObject(class QTextObjectPrivate &, class QTextDocument *)
	??0QTextObject@@IAE@PAVQTextDocument@@@Z @ 750 NONAME ; QTextObject::QTextObject(class QTextDocument *)
	??0QTextOption@@QAE@ABV0@@Z @ 751 NONAME ; QTextOption::QTextOption(class QTextOption const &)
	??0QTextOption@@QAE@V?$QFlags@W4AlignmentFlag@Qt@@@@@Z @ 752 NONAME ; QTextOption::QTextOption(class QFlags<enum Qt::AlignmentFlag>)
	??0QTextOption@@QAE@XZ @ 753 NONAME ; QTextOption::QTextOption(void)
	??0QTextTable@@QAE@PAVQTextDocument@@@Z @ 754 NONAME ; QTextTable::QTextTable(class QTextDocument *)
	??0QTextTableCell@@AAE@PBVQTextTable@@H@Z @ 755 NONAME ; QTextTableCell::QTextTableCell(class QTextTable const *, int)
	??0QTextTableCell@@QAE@ABV0@@Z @ 756 NONAME ; QTextTableCell::QTextTableCell(class QTextTableCell const &)
	??0QTextTableCell@@QAE@XZ @ 757 NONAME ; QTextTableCell::QTextTableCell(void)
	??0QTextTableCellFormat@@IAE@ABVQTextFormat@@@Z @ 758 NONAME ; QTextTableCellFormat::QTextTableCellFormat(class QTextFormat const &)
	??0QTextTableCellFormat@@QAE@XZ @ 759 NONAME ; QTextTableCellFormat::QTextTableCellFormat(void)
	??0QTextTableFormat@@IAE@ABVQTextFormat@@@Z @ 760 NONAME ; QTextTableFormat::QTextTableFormat(class QTextFormat const &)
	??0QTextTableFormat@@QAE@XZ @ 761 NONAME ; QTextTableFormat::QTextTableFormat(void)
	??0QTextureGlyphCache@@QAE@W4Type@QFontEngineGlyphCache@@ABVQTransform@@@Z @ 762 NONAME ; QTextureGlyphCache::QTextureGlyphCache(enum QFontEngineGlyphCache::Type, class QTransform const &)
	??0QTimeEdit@@QAE@ABVQTime@@PAVQWidget@@@Z @ 763 NONAME ; QTimeEdit::QTimeEdit(class QTime const &, class QWidget *)
	??0QTimeEdit@@QAE@PAVQWidget@@@Z @ 764 NONAME ; QTimeEdit::QTimeEdit(class QWidget *)
	??0QToolBar@@QAE@ABVQString@@PAVQWidget@@@Z @ 765 NONAME ; QToolBar::QToolBar(class QString const &, class QWidget *)
	??0QToolBar@@QAE@PAVQWidget@@@Z @ 766 NONAME ; QToolBar::QToolBar(class QWidget *)
	??0QToolBarChangeEvent@@QAE@_N@Z @ 767 NONAME ; QToolBarChangeEvent::QToolBarChangeEvent(bool)
	??0QToolBox@@QAE@PAVQWidget@@V?$QFlags@W4WindowType@Qt@@@@@Z @ 768 NONAME ; QToolBox::QToolBox(class QWidget *, class QFlags<enum Qt::WindowType>)
	??0QToolButton@@IAE@AAVQToolButtonPrivate@@PAVQWidget@@@Z @ 769 NONAME ; QToolButton::QToolButton(class QToolButtonPrivate &, class QWidget *)
	??0QToolButton@@QAE@PAVQWidget@@@Z @ 770 NONAME ; QToolButton::QToolButton(class QWidget *)
	??0QTouchEvent@@QAE@W4Type@QEvent@@W4DeviceType@0@V?$QFlags@W4KeyboardModifier@Qt@@@@V?$QFlags@W4TouchPointState@Qt@@@@ABV?$QList@VTouchPoint@QTouchEvent@@@@@Z @ 771 NONAME ; QTouchEvent::QTouchEvent(enum QEvent::Type, enum QTouchEvent::DeviceType, class QFlags<enum Qt::KeyboardModifier>, class QFlags<enum Qt::TouchPointState>, class QList<class QTouchEvent::TouchPoint> const &)
	??0QTransform@@AAE@MMMMMMMMM_N@Z @ 772 NONAME ; QTransform::QTransform(float, float, float, float, float, float, float, float, float, bool)
	??0QTransform@@AAE@_N@Z @ 773 NONAME ; QTransform::QTransform(bool)
	??0QTransform@@QAE@ABV0@@Z @ 774 NONAME ; QTransform::QTransform(class QTransform const &)
	??0QTransform@@QAE@ABVQMatrix@@@Z @ 775 NONAME ; QTransform::QTransform(class QMatrix const &)
	??0QTransform@@QAE@MMMMMM@Z @ 776 NONAME ; QTransform::QTransform(float, float, float, float, float, float)
	??0QTransform@@QAE@MMMMMMMMM@Z @ 777 NONAME ; QTransform::QTransform(float, float, float, float, float, float, float, float, float)
	??0QTransform@@QAE@W4Initialization@Qt@@@Z @ 778 NONAME ; QTransform::QTransform(enum Qt::Initialization)
	??0QTransform@@QAE@XZ @ 779 NONAME ; QTransform::QTransform(void)
	??0QTreeView@@IAE@AAVQTreeViewPrivate@@PAVQWidget@@@Z @ 780 NONAME ; QTreeView::QTreeView(class QTreeViewPrivate &, class QWidget *)
	??0QTreeView@@QAE@PAVQWidget@@@Z @ 781 NONAME ; QTreeView::QTreeView(class QWidget *)
	??0QTreeWidget@@QAE@PAVQWidget@@@Z @ 782 NONAME ; QTreeWidget::QTreeWidget(class QWidget *)
	??0QTreeWidgetItem@@QAE@ABV0@@Z @ 783 NONAME ; QTreeWidgetItem::QTreeWidgetItem(class QTreeWidgetItem const &)
	??0QTreeWidgetItem@@QAE@ABVQStringList@@H@Z @ 784 NONAME ; QTreeWidgetItem::QTreeWidgetItem(class QStringList const &, int)
	??0QTreeWidgetItem@@QAE@H@Z @ 785 NONAME ; QTreeWidgetItem::QTreeWidgetItem(int)
	??0QTreeWidgetItem@@QAE@PAV0@0H@Z @ 786 NONAME ; QTreeWidgetItem::QTreeWidgetItem(class QTreeWidgetItem *, class QTreeWidgetItem *, int)
	??0QTreeWidgetItem@@QAE@PAV0@ABVQStringList@@H@Z @ 787 NONAME ; QTreeWidgetItem::QTreeWidgetItem(class QTreeWidgetItem *, class QStringList const &, int)
	??0QTreeWidgetItem@@QAE@PAV0@H@Z @ 788 NONAME ; QTreeWidgetItem::QTreeWidgetItem(class QTreeWidgetItem *, int)
	??0QTreeWidgetItem@@QAE@PAVQTreeWidget@@ABVQStringList@@H@Z @ 789 NONAME ; QTreeWidgetItem::QTreeWidgetItem(class QTreeWidget *, class QStringList const &, int)
	??0QTreeWidgetItem@@QAE@PAVQTreeWidget@@H@Z @ 790 NONAME ; QTreeWidgetItem::QTreeWidgetItem(class QTreeWidget *, int)
	??0QTreeWidgetItem@@QAE@PAVQTreeWidget@@PAV0@H@Z @ 791 NONAME ; QTreeWidgetItem::QTreeWidgetItem(class QTreeWidget *, class QTreeWidgetItem *, int)
	??0QTreeWidgetItemIterator@@QAE@ABV0@@Z @ 792 NONAME ; QTreeWidgetItemIterator::QTreeWidgetItemIterator(class QTreeWidgetItemIterator const &)
	??0QTreeWidgetItemIterator@@QAE@PAVQTreeWidget@@V?$QFlags@W4IteratorFlag@QTreeWidgetItemIterator@@@@@Z @ 793 NONAME ; QTreeWidgetItemIterator::QTreeWidgetItemIterator(class QTreeWidget *, class QFlags<enum QTreeWidgetItemIterator::IteratorFlag>)
	??0QTreeWidgetItemIterator@@QAE@PAVQTreeWidgetItem@@V?$QFlags@W4IteratorFlag@QTreeWidgetItemIterator@@@@@Z @ 794 NONAME ; QTreeWidgetItemIterator::QTreeWidgetItemIterator(class QTreeWidgetItem *, class QFlags<enum QTreeWidgetItemIterator::IteratorFlag>)
	??0QUndoCommand@@QAE@ABVQString@@PAV0@@Z @ 795 NONAME ; QUndoCommand::QUndoCommand(class QString const &, class QUndoCommand *)
	??0QUndoCommand@@QAE@PAV0@@Z @ 796 NONAME ; QUndoCommand::QUndoCommand(class QUndoCommand *)
	??0QUndoGroup@@QAE@PAVQObject@@@Z @ 797 NONAME ; QUndoGroup::QUndoGroup(class QObject *)
	??0QUndoStack@@QAE@PAVQObject@@@Z @ 798 NONAME ; QUndoStack::QUndoStack(class QObject *)
	??0QUndoView@@QAE@PAVQUndoGroup@@PAVQWidget@@@Z @ 799 NONAME ; QUndoView::QUndoView(class QUndoGroup *, class QWidget *)
	??0QUndoView@@QAE@PAVQUndoStack@@PAVQWidget@@@Z @ 800 NONAME ; QUndoView::QUndoView(class QUndoStack *, class QWidget *)
	??0QUndoView@@QAE@PAVQWidget@@@Z @ 801 NONAME ; QUndoView::QUndoView(class QWidget *)
	??0QVBoxLayout@@QAE@PAVQWidget@@@Z @ 802 NONAME ; QVBoxLayout::QVBoxLayout(class QWidget *)
	??0QVBoxLayout@@QAE@XZ @ 803 NONAME ; QVBoxLayout::QVBoxLayout(void)
	??0QValidator@@IAE@AAVQObjectPrivate@@PAVQObject@@@Z @ 804 NONAME ; QValidator::QValidator(class QObjectPrivate &, class QObject *)
	??0QValidator@@IAE@AAVQValidatorPrivate@@PAVQObject@@@Z @ 805 NONAME ; QValidator::QValidator(class QValidatorPrivate &, class QObject *)
	??0QValidator@@QAE@PAVQObject@@@Z @ 806 NONAME ; QValidator::QValidator(class QObject *)
	??0QVector2D@@AAE@MMH@Z @ 807 NONAME ; QVector2D::QVector2D(float, float, int)
	??0QVector2D@@QAE@ABVQPoint@@@Z @ 808 NONAME ; QVector2D::QVector2D(class QPoint const &)
	??0QVector2D@@QAE@ABVQPointF@@@Z @ 809 NONAME ; QVector2D::QVector2D(class QPointF const &)
	??0QVector2D@@QAE@ABVQVector3D@@@Z @ 810 NONAME ; QVector2D::QVector2D(class QVector3D const &)
	??0QVector2D@@QAE@ABVQVector4D@@@Z @ 811 NONAME ; QVector2D::QVector2D(class QVector4D const &)
	??0QVector2D@@QAE@MM@Z @ 812 NONAME ; QVector2D::QVector2D(float, float)
	??0QVector2D@@QAE@XZ @ 813 NONAME ; QVector2D::QVector2D(void)
	??0QVector3D@@AAE@MMMH@Z @ 814 NONAME ; QVector3D::QVector3D(float, float, float, int)
	??0QVector3D@@QAE@ABV0@@Z @ 815 NONAME ; QVector3D::QVector3D(class QVector3D const &)
	??0QVector3D@@QAE@ABVQPoint@@@Z @ 816 NONAME ; QVector3D::QVector3D(class QPoint const &)
	??0QVector3D@@QAE@ABVQPointF@@@Z @ 817 NONAME ; QVector3D::QVector3D(class QPointF const &)
	??0QVector3D@@QAE@ABVQVector2D@@@Z @ 818 NONAME ; QVector3D::QVector3D(class QVector2D const &)
	??0QVector3D@@QAE@ABVQVector2D@@M@Z @ 819 NONAME ; QVector3D::QVector3D(class QVector2D const &, float)
	??0QVector3D@@QAE@ABVQVector4D@@@Z @ 820 NONAME ; QVector3D::QVector3D(class QVector4D const &)
	??0QVector3D@@QAE@MMM@Z @ 821 NONAME ; QVector3D::QVector3D(float, float, float)
	??0QVector3D@@QAE@XZ @ 822 NONAME ; QVector3D::QVector3D(void)
	??0QVector4D@@AAE@MMMMH@Z @ 823 NONAME ; QVector4D::QVector4D(float, float, float, float, int)
	??0QVector4D@@QAE@ABV0@@Z @ 824 NONAME ; QVector4D::QVector4D(class QVector4D const &)
	??0QVector4D@@QAE@ABVQPoint@@@Z @ 825 NONAME ; QVector4D::QVector4D(class QPoint const &)
	??0QVector4D@@QAE@ABVQPointF@@@Z @ 826 NONAME ; QVector4D::QVector4D(class QPointF const &)
	??0QVector4D@@QAE@ABVQVector2D@@@Z @ 827 NONAME ; QVector4D::QVector4D(class QVector2D const &)
	??0QVector4D@@QAE@ABVQVector2D@@MM@Z @ 828 NONAME ; QVector4D::QVector4D(class QVector2D const &, float, float)
	??0QVector4D@@QAE@ABVQVector3D@@@Z @ 829 NONAME ; QVector4D::QVector4D(class QVector3D const &)
	??0QVector4D@@QAE@ABVQVector3D@@M@Z @ 830 NONAME ; QVector4D::QVector4D(class QVector3D const &, float)
	??0QVector4D@@QAE@MMMM@Z @ 831 NONAME ; QVector4D::QVector4D(float, float, float, float)
	??0QVector4D@@QAE@XZ @ 832 NONAME ; QVector4D::QVector4D(void)
	??0QVectorPath@@QAE@PBMHPBW4ElementType@QPainterPath@@I@Z @ 833 NONAME ; QVectorPath::QVectorPath(float const *, int, enum QPainterPath::ElementType const *, unsigned int)
	??0QWhatsThis@@AAE@XZ @ 834 NONAME ; QWhatsThis::QWhatsThis(void)
	??0QWhatsThisClickedEvent@@QAE@ABVQString@@@Z @ 835 NONAME ; QWhatsThisClickedEvent::QWhatsThisClickedEvent(class QString const &)
	??0QWheelEvent@@QAE@ABVQPoint@@0HV?$QFlags@W4MouseButton@Qt@@@@V?$QFlags@W4KeyboardModifier@Qt@@@@W4Orientation@Qt@@@Z @ 836 NONAME ; QWheelEvent::QWheelEvent(class QPoint const &, class QPoint const &, int, class QFlags<enum Qt::MouseButton>, class QFlags<enum Qt::KeyboardModifier>, enum Qt::Orientation)
	??0QWheelEvent@@QAE@ABVQPoint@@HV?$QFlags@W4MouseButton@Qt@@@@V?$QFlags@W4KeyboardModifier@Qt@@@@W4Orientation@Qt@@@Z @ 837 NONAME ; QWheelEvent::QWheelEvent(class QPoint const &, int, class QFlags<enum Qt::MouseButton>, class QFlags<enum Qt::KeyboardModifier>, enum Qt::Orientation)
	??0QWidget@@IAE@AAVQWidgetPrivate@@PAV0@V?$QFlags@W4WindowType@Qt@@@@@Z @ 838 NONAME ; QWidget::QWidget(class QWidgetPrivate &, class QWidget *, class QFlags<enum Qt::WindowType>)
	??0QWidget@@QAE@PAV0@V?$QFlags@W4WindowType@Qt@@@@@Z @ 839 NONAME ; QWidget::QWidget(class QWidget *, class QFlags<enum Qt::WindowType>)
	??0QWidgetAction@@QAE@PAVQObject@@@Z @ 840 NONAME ; QWidgetAction::QWidgetAction(class QObject *)
	??0QWidgetItem@@QAE@PAVQWidget@@@Z @ 841 NONAME ; QWidgetItem::QWidgetItem(class QWidget *)
	??0QWidgetItemV2@@QAE@PAVQWidget@@@Z @ 842 NONAME ; QWidgetItemV2::QWidgetItemV2(class QWidget *)
	??0QWidgetPrivate@@QAE@H@Z @ 843 NONAME ; QWidgetPrivate::QWidgetPrivate(int)
	??0QWidgetResizeHandler@@QAE@PAVQWidget@@0@Z @ 844 NONAME ; QWidgetResizeHandler::QWidgetResizeHandler(class QWidget *, class QWidget *)
	??0QWindowStateChangeEvent@@QAE@V?$QFlags@W4WindowState@Qt@@@@@Z @ 845 NONAME ; QWindowStateChangeEvent::QWindowStateChangeEvent(class QFlags<enum Qt::WindowState>)
	??0QWindowStateChangeEvent@@QAE@V?$QFlags@W4WindowState@Qt@@@@_N@Z @ 846 NONAME ; QWindowStateChangeEvent::QWindowStateChangeEvent(class QFlags<enum Qt::WindowState>, bool)
	??0QWindowSurface@@QAE@PAVQWidget@@@Z @ 847 NONAME ABSENT ; QWindowSurface::QWindowSurface(class QWidget *)
	??0QWindowsStyle@@IAE@AAVQWindowsStylePrivate@@@Z @ 848 NONAME ; QWindowsStyle::QWindowsStyle(class QWindowsStylePrivate &)
	??0QWindowsStyle@@QAE@XZ @ 849 NONAME ; QWindowsStyle::QWindowsStyle(void)
	??0QWizard@@QAE@PAVQWidget@@V?$QFlags@W4WindowType@Qt@@@@@Z @ 850 NONAME ; QWizard::QWizard(class QWidget *, class QFlags<enum Qt::WindowType>)
	??0QWizardPage@@QAE@PAVQWidget@@@Z @ 851 NONAME ; QWizardPage::QWizardPage(class QWidget *)
	??0QWorkspace@@QAE@PAVQWidget@@@Z @ 852 NONAME ; QWorkspace::QWorkspace(class QWidget *)
	??0StyleSelector@QCss@@QAE@XZ @ 853 NONAME ; QCss::StyleSelector::StyleSelector(void)
	??0Symbol@QCss@@QAE@XZ @ 854 NONAME ; QCss::Symbol::Symbol(void)
	??0Tab@QTextOption@@QAE@XZ @ 855 NONAME ; QTextOption::Tab::Tab(void)
	??0TouchPoint@QTouchEvent@@QAE@ABV01@@Z @ 856 NONAME ; QTouchEvent::TouchPoint::TouchPoint(class QTouchEvent::TouchPoint const &)
	??0TouchPoint@QTouchEvent@@QAE@H@Z @ 857 NONAME ; QTouchEvent::TouchPoint::TouchPoint(int)
	??0Value@QCss@@QAE@XZ @ 858 NONAME ; QCss::Value::Value(void)
	??0iterator@QTextBlock@@AAE@PBVQTextDocumentPrivate@@HHH@Z @ 859 NONAME ; QTextBlock::iterator::iterator(class QTextDocumentPrivate const *, int, int, int)
	??0iterator@QTextBlock@@QAE@ABV01@@Z @ 860 NONAME ; QTextBlock::iterator::iterator(class QTextBlock::iterator const &)
	??0iterator@QTextBlock@@QAE@XZ @ 861 NONAME ; QTextBlock::iterator::iterator(void)
	??0iterator@QTextFrame@@AAE@PAV1@HHH@Z @ 862 NONAME ; QTextFrame::iterator::iterator(class QTextFrame *, int, int, int)
	??0iterator@QTextFrame@@QAE@ABV01@@Z @ 863 NONAME ; QTextFrame::iterator::iterator(class QTextFrame::iterator const &)
	??0iterator@QTextFrame@@QAE@XZ @ 864 NONAME ; QTextFrame::iterator::iterator(void)
	??1Key@QPixmapCache@@QAE@XZ @ 865 NONAME ; QPixmapCache::Key::~Key(void)
	??1Parser@QCss@@QAE@XZ @ 866 NONAME ; QCss::Parser::~Parser(void)
	??1QAbstractButton@@UAE@XZ @ 867 NONAME ; QAbstractButton::~QAbstractButton(void)
	??1QAbstractGraphicsShapeItem@@UAE@XZ @ 868 NONAME ; QAbstractGraphicsShapeItem::~QAbstractGraphicsShapeItem(void)
	??1QAbstractItemDelegate@@UAE@XZ @ 869 NONAME ; QAbstractItemDelegate::~QAbstractItemDelegate(void)
	??1QAbstractItemView@@UAE@XZ @ 870 NONAME ; QAbstractItemView::~QAbstractItemView(void)
	??1QAbstractProxyModel@@UAE@XZ @ 871 NONAME ; QAbstractProxyModel::~QAbstractProxyModel(void)
	??1QAbstractScrollArea@@UAE@XZ @ 872 NONAME ; QAbstractScrollArea::~QAbstractScrollArea(void)
	??1QAbstractSlider@@UAE@XZ @ 873 NONAME ; QAbstractSlider::~QAbstractSlider(void)
	??1QAbstractSpinBox@@UAE@XZ @ 874 NONAME ; QAbstractSpinBox::~QAbstractSpinBox(void)
	??1QAbstractTextDocumentLayout@@UAE@XZ @ 875 NONAME ; QAbstractTextDocumentLayout::~QAbstractTextDocumentLayout(void)
	??1QAbstractUndoItem@@UAE@XZ @ 876 NONAME ; QAbstractUndoItem::~QAbstractUndoItem(void)
	??1QAction@@UAE@XZ @ 877 NONAME ; QAction::~QAction(void)
	??1QActionEvent@@UAE@XZ @ 878 NONAME ; QActionEvent::~QActionEvent(void)
	??1QActionGroup@@UAE@XZ @ 879 NONAME ; QActionGroup::~QActionGroup(void)
	??1QApplication@@UAE@XZ @ 880 NONAME ; QApplication::~QApplication(void)
	??1QApplicationPrivate@@UAE@XZ @ 881 NONAME ; QApplicationPrivate::~QApplicationPrivate(void)
	??1QBitmap@@UAE@XZ @ 882 NONAME ; QBitmap::~QBitmap(void)
	??1QBoxLayout@@UAE@XZ @ 883 NONAME ; QBoxLayout::~QBoxLayout(void)
	??1QBrush@@QAE@XZ @ 884 NONAME ; QBrush::~QBrush(void)
	??1QButtonGroup@@UAE@XZ @ 885 NONAME ; QButtonGroup::~QButtonGroup(void)
	??1QCalendarWidget@@UAE@XZ @ 886 NONAME ; QCalendarWidget::~QCalendarWidget(void)
	??1QCheckBox@@UAE@XZ @ 887 NONAME ; QCheckBox::~QCheckBox(void)
	??1QClipboard@@EAE@XZ @ 888 NONAME ; QClipboard::~QClipboard(void)
	??1QClipboardEvent@@UAE@XZ @ 889 NONAME ; QClipboardEvent::~QClipboardEvent(void)
	??1QCloseEvent@@UAE@XZ @ 890 NONAME ; QCloseEvent::~QCloseEvent(void)
	??1QColorDialog@@UAE@XZ @ 891 NONAME ; QColorDialog::~QColorDialog(void)
	??1QColormap@@QAE@XZ @ 892 NONAME ; QColormap::~QColormap(void)
	??1QColumnView@@UAE@XZ @ 893 NONAME ; QColumnView::~QColumnView(void)
	??1QComboBox@@UAE@XZ @ 894 NONAME ; QComboBox::~QComboBox(void)
	??1QCommandLinkButton@@UAE@XZ @ 895 NONAME ; QCommandLinkButton::~QCommandLinkButton(void)
	??1QCommonStyle@@UAE@XZ @ 896 NONAME ; QCommonStyle::~QCommonStyle(void)
	??1QCompleter@@UAE@XZ @ 897 NONAME ; QCompleter::~QCompleter(void)
	??1QConicalGradient@@QAE@XZ @ 898 NONAME ; QConicalGradient::~QConicalGradient(void)
	??1QContextMenuEvent@@UAE@XZ @ 899 NONAME ; QContextMenuEvent::~QContextMenuEvent(void)
	??1QCursor@@QAE@XZ @ 900 NONAME ; QCursor::~QCursor(void)
	??1QDashStroker@@UAE@XZ @ 901 NONAME ; QDashStroker::~QDashStroker(void)
	??1QDataWidgetMapper@@UAE@XZ @ 902 NONAME ; QDataWidgetMapper::~QDataWidgetMapper(void)
	??1QDateEdit@@UAE@XZ @ 903 NONAME ; QDateEdit::~QDateEdit(void)
	??1QDateTimeEdit@@UAE@XZ @ 904 NONAME ; QDateTimeEdit::~QDateTimeEdit(void)
	??1QDesktopWidget@@UAE@XZ @ 905 NONAME ; QDesktopWidget::~QDesktopWidget(void)
	??1QDial@@UAE@XZ @ 906 NONAME ; QDial::~QDial(void)
	??1QDialog@@UAE@XZ @ 907 NONAME ; QDialog::~QDialog(void)
	??1QDialogButtonBox@@UAE@XZ @ 908 NONAME ; QDialogButtonBox::~QDialogButtonBox(void)
	??1QDirModel@@UAE@XZ @ 909 NONAME ; QDirModel::~QDirModel(void)
	??1QDockWidget@@UAE@XZ @ 910 NONAME ; QDockWidget::~QDockWidget(void)
	??1QDockWidgetLayout@@UAE@XZ @ 911 NONAME ; QDockWidgetLayout::~QDockWidgetLayout(void)
	??1QDoubleSpinBox@@UAE@XZ @ 912 NONAME ; QDoubleSpinBox::~QDoubleSpinBox(void)
	??1QDoubleValidator@@UAE@XZ @ 913 NONAME ; QDoubleValidator::~QDoubleValidator(void)
	??1QDrag@@UAE@XZ @ 914 NONAME ; QDrag::~QDrag(void)
	??1QDragEnterEvent@@UAE@XZ @ 915 NONAME ; QDragEnterEvent::~QDragEnterEvent(void)
	??1QDragLeaveEvent@@UAE@XZ @ 916 NONAME ; QDragLeaveEvent::~QDragLeaveEvent(void)
	??1QDragMoveEvent@@UAE@XZ @ 917 NONAME ; QDragMoveEvent::~QDragMoveEvent(void)
	??1QDragResponseEvent@@UAE@XZ @ 918 NONAME ; QDragResponseEvent::~QDragResponseEvent(void)
	??1QDropEvent@@UAE@XZ @ 919 NONAME ; QDropEvent::~QDropEvent(void)
	??1QErrorMessage@@UAE@XZ @ 920 NONAME ; QErrorMessage::~QErrorMessage(void)
	??1QEventDispatcherS60@@UAE@XZ @ 921 NONAME ; QEventDispatcherS60::~QEventDispatcherS60(void)
	??1QFileDialog@@UAE@XZ @ 922 NONAME ; QFileDialog::~QFileDialog(void)
	??1QFileIconProvider@@UAE@XZ @ 923 NONAME ; QFileIconProvider::~QFileIconProvider(void)
	??1QFileOpenEvent@@UAE@XZ @ 924 NONAME ; QFileOpenEvent::~QFileOpenEvent(void)
	??1QFileSystemModel@@UAE@XZ @ 925 NONAME ; QFileSystemModel::~QFileSystemModel(void)
	??1QFocusEvent@@UAE@XZ @ 926 NONAME ; QFocusEvent::~QFocusEvent(void)
	??1QFocusFrame@@UAE@XZ @ 927 NONAME ; QFocusFrame::~QFocusFrame(void)
	??1QFont@@QAE@XZ @ 928 NONAME ; QFont::~QFont(void)
	??1QFontComboBox@@UAE@XZ @ 929 NONAME ; QFontComboBox::~QFontComboBox(void)
	??1QFontDialog@@UAE@XZ @ 930 NONAME ; QFontDialog::~QFontDialog(void)
	??1QFontEngine@@UAE@XZ @ 931 NONAME ; QFontEngine::~QFontEngine(void)
	??1QFontInfo@@QAE@XZ @ 932 NONAME ; QFontInfo::~QFontInfo(void)
	??1QFontMetrics@@QAE@XZ @ 933 NONAME ; QFontMetrics::~QFontMetrics(void)
	??1QFontMetricsF@@QAE@XZ @ 934 NONAME ; QFontMetricsF::~QFontMetricsF(void)
	??1QFontPrivate@@QAE@XZ @ 935 NONAME ; QFontPrivate::~QFontPrivate(void)
	??1QFormLayout@@UAE@XZ @ 936 NONAME ; QFormLayout::~QFormLayout(void)
	??1QFrame@@UAE@XZ @ 937 NONAME ; QFrame::~QFrame(void)
	??1QGesture@@UAE@XZ @ 938 NONAME ; QGesture::~QGesture(void)
	??1QGestureEvent@@UAE@XZ @ 939 NONAME ; QGestureEvent::~QGestureEvent(void)
	??1QGestureRecognizer@@UAE@XZ @ 940 NONAME ; QGestureRecognizer::~QGestureRecognizer(void)
	??1QGradient@@QAE@XZ @ 941 NONAME ; QGradient::~QGradient(void)
	??1QGraphicsAnchor@@UAE@XZ @ 942 NONAME ; QGraphicsAnchor::~QGraphicsAnchor(void)
	??1QGraphicsAnchorLayout@@UAE@XZ @ 943 NONAME ; QGraphicsAnchorLayout::~QGraphicsAnchorLayout(void)
	??1QGraphicsBlurEffect@@UAE@XZ @ 944 NONAME ; QGraphicsBlurEffect::~QGraphicsBlurEffect(void)
	??1QGraphicsColorizeEffect@@UAE@XZ @ 945 NONAME ; QGraphicsColorizeEffect::~QGraphicsColorizeEffect(void)
	??1QGraphicsDropShadowEffect@@UAE@XZ @ 946 NONAME ; QGraphicsDropShadowEffect::~QGraphicsDropShadowEffect(void)
	??1QGraphicsEffect@@UAE@XZ @ 947 NONAME ; QGraphicsEffect::~QGraphicsEffect(void)
	??1QGraphicsEffectPrivate@@UAE@XZ @ 948 NONAME ; QGraphicsEffectPrivate::~QGraphicsEffectPrivate(void)
	??1QGraphicsEffectSource@@UAE@XZ @ 949 NONAME ; QGraphicsEffectSource::~QGraphicsEffectSource(void)
	??1QGraphicsEllipseItem@@UAE@XZ @ 950 NONAME ; QGraphicsEllipseItem::~QGraphicsEllipseItem(void)
	??1QGraphicsGridLayout@@UAE@XZ @ 951 NONAME ; QGraphicsGridLayout::~QGraphicsGridLayout(void)
	??1QGraphicsItem@@UAE@XZ @ 952 NONAME ; QGraphicsItem::~QGraphicsItem(void)
	??1QGraphicsItemAnimation@@UAE@XZ @ 953 NONAME ; QGraphicsItemAnimation::~QGraphicsItemAnimation(void)
	??1QGraphicsItemGroup@@UAE@XZ @ 954 NONAME ; QGraphicsItemGroup::~QGraphicsItemGroup(void)
	??1QGraphicsItemPrivate@@UAE@XZ @ 955 NONAME ; QGraphicsItemPrivate::~QGraphicsItemPrivate(void)
	??1QGraphicsLayout@@UAE@XZ @ 956 NONAME ; QGraphicsLayout::~QGraphicsLayout(void)
	??1QGraphicsLayoutItem@@UAE@XZ @ 957 NONAME ; QGraphicsLayoutItem::~QGraphicsLayoutItem(void)
	??1QGraphicsLineItem@@UAE@XZ @ 958 NONAME ; QGraphicsLineItem::~QGraphicsLineItem(void)
	??1QGraphicsLinearLayout@@UAE@XZ @ 959 NONAME ; QGraphicsLinearLayout::~QGraphicsLinearLayout(void)
	??1QGraphicsObject@@UAE@XZ @ 960 NONAME ; QGraphicsObject::~QGraphicsObject(void)
	??1QGraphicsOpacityEffect@@UAE@XZ @ 961 NONAME ; QGraphicsOpacityEffect::~QGraphicsOpacityEffect(void)
	??1QGraphicsPathItem@@UAE@XZ @ 962 NONAME ; QGraphicsPathItem::~QGraphicsPathItem(void)
	??1QGraphicsPixmapItem@@UAE@XZ @ 963 NONAME ; QGraphicsPixmapItem::~QGraphicsPixmapItem(void)
	??1QGraphicsPolygonItem@@UAE@XZ @ 964 NONAME ; QGraphicsPolygonItem::~QGraphicsPolygonItem(void)
	??1QGraphicsProxyWidget@@UAE@XZ @ 965 NONAME ; QGraphicsProxyWidget::~QGraphicsProxyWidget(void)
	??1QGraphicsRectItem@@UAE@XZ @ 966 NONAME ; QGraphicsRectItem::~QGraphicsRectItem(void)
	??1QGraphicsRotation@@UAE@XZ @ 967 NONAME ; QGraphicsRotation::~QGraphicsRotation(void)
	??1QGraphicsScale@@UAE@XZ @ 968 NONAME ; QGraphicsScale::~QGraphicsScale(void)
	??1QGraphicsScene@@UAE@XZ @ 969 NONAME ; QGraphicsScene::~QGraphicsScene(void)
	??1QGraphicsSceneContextMenuEvent@@UAE@XZ @ 970 NONAME ; QGraphicsSceneContextMenuEvent::~QGraphicsSceneContextMenuEvent(void)
	??1QGraphicsSceneDragDropEvent@@UAE@XZ @ 971 NONAME ; QGraphicsSceneDragDropEvent::~QGraphicsSceneDragDropEvent(void)
	??1QGraphicsSceneEvent@@UAE@XZ @ 972 NONAME ; QGraphicsSceneEvent::~QGraphicsSceneEvent(void)
	??1QGraphicsSceneHelpEvent@@UAE@XZ @ 973 NONAME ; QGraphicsSceneHelpEvent::~QGraphicsSceneHelpEvent(void)
	??1QGraphicsSceneHoverEvent@@UAE@XZ @ 974 NONAME ; QGraphicsSceneHoverEvent::~QGraphicsSceneHoverEvent(void)
	??1QGraphicsSceneMouseEvent@@UAE@XZ @ 975 NONAME ; QGraphicsSceneMouseEvent::~QGraphicsSceneMouseEvent(void)
	??1QGraphicsSceneMoveEvent@@UAE@XZ @ 976 NONAME ; QGraphicsSceneMoveEvent::~QGraphicsSceneMoveEvent(void)
	??1QGraphicsSceneResizeEvent@@UAE@XZ @ 977 NONAME ; QGraphicsSceneResizeEvent::~QGraphicsSceneResizeEvent(void)
	??1QGraphicsSceneWheelEvent@@UAE@XZ @ 978 NONAME ; QGraphicsSceneWheelEvent::~QGraphicsSceneWheelEvent(void)
	??1QGraphicsSimpleTextItem@@UAE@XZ @ 979 NONAME ; QGraphicsSimpleTextItem::~QGraphicsSimpleTextItem(void)
	??1QGraphicsSystem@@UAE@XZ @ 980 NONAME ; QGraphicsSystem::~QGraphicsSystem(void)
	??1QGraphicsSystemPlugin@@UAE@XZ @ 981 NONAME ; QGraphicsSystemPlugin::~QGraphicsSystemPlugin(void)
	??1QGraphicsTextItem@@UAE@XZ @ 982 NONAME ; QGraphicsTextItem::~QGraphicsTextItem(void)
	??1QGraphicsTransform@@UAE@XZ @ 983 NONAME ; QGraphicsTransform::~QGraphicsTransform(void)
	??1QGraphicsView@@UAE@XZ @ 984 NONAME ; QGraphicsView::~QGraphicsView(void)
	??1QGraphicsWidget@@UAE@XZ @ 985 NONAME ; QGraphicsWidget::~QGraphicsWidget(void)
	??1QGridLayout@@UAE@XZ @ 986 NONAME ; QGridLayout::~QGridLayout(void)
	??1QGroupBox@@UAE@XZ @ 987 NONAME ; QGroupBox::~QGroupBox(void)
	??1QGuiPlatformPlugin@@UAE@XZ @ 988 NONAME ; QGuiPlatformPlugin::~QGuiPlatformPlugin(void)
	??1QGuiPlatformPluginInterface@@UAE@XZ @ 989 NONAME ; QGuiPlatformPluginInterface::~QGuiPlatformPluginInterface(void)
	??1QHBoxLayout@@UAE@XZ @ 990 NONAME ; QHBoxLayout::~QHBoxLayout(void)
	??1QHeaderView@@UAE@XZ @ 991 NONAME ; QHeaderView::~QHeaderView(void)
	??1QHelpEvent@@UAE@XZ @ 992 NONAME ; QHelpEvent::~QHelpEvent(void)
	??1QHideEvent@@UAE@XZ @ 993 NONAME ; QHideEvent::~QHideEvent(void)
	??1QHoverEvent@@UAE@XZ @ 994 NONAME ; QHoverEvent::~QHoverEvent(void)
	??1QIcon@@QAE@XZ @ 995 NONAME ; QIcon::~QIcon(void)
	??1QIconDragEvent@@UAE@XZ @ 996 NONAME ; QIconDragEvent::~QIconDragEvent(void)
	??1QIconEngine@@UAE@XZ @ 997 NONAME ; QIconEngine::~QIconEngine(void)
	??1QIconEngineFactoryInterface@@UAE@XZ @ 998 NONAME ; QIconEngineFactoryInterface::~QIconEngineFactoryInterface(void)
	??1QIconEngineFactoryInterfaceV2@@UAE@XZ @ 999 NONAME ; QIconEngineFactoryInterfaceV2::~QIconEngineFactoryInterfaceV2(void)
	??1QIconEnginePlugin@@UAE@XZ @ 1000 NONAME ; QIconEnginePlugin::~QIconEnginePlugin(void)
	??1QIconEnginePluginV2@@UAE@XZ @ 1001 NONAME ; QIconEnginePluginV2::~QIconEnginePluginV2(void)
	??1QIconEngineV2@@UAE@XZ @ 1002 NONAME ; QIconEngineV2::~QIconEngineV2(void)
	??1QImage@@UAE@XZ @ 1003 NONAME ; QImage::~QImage(void)
	??1QImageData@@QAE@XZ @ 1004 NONAME ; QImageData::~QImageData(void)
	??1QImageIOHandler@@UAE@XZ @ 1005 NONAME ; QImageIOHandler::~QImageIOHandler(void)
	??1QImageIOHandlerFactoryInterface@@UAE@XZ @ 1006 NONAME ; QImageIOHandlerFactoryInterface::~QImageIOHandlerFactoryInterface(void)
	??1QImageIOPlugin@@UAE@XZ @ 1007 NONAME ; QImageIOPlugin::~QImageIOPlugin(void)
	??1QImageReader@@QAE@XZ @ 1008 NONAME ; QImageReader::~QImageReader(void)
	??1QImageTextKeyLang@@QAE@XZ @ 1009 NONAME ; QImageTextKeyLang::~QImageTextKeyLang(void)
	??1QImageWriter@@QAE@XZ @ 1010 NONAME ; QImageWriter::~QImageWriter(void)
	??1QInputContext@@UAE@XZ @ 1011 NONAME ; QInputContext::~QInputContext(void)
	??1QInputContextFactoryInterface@@UAE@XZ @ 1012 NONAME ; QInputContextFactoryInterface::~QInputContextFactoryInterface(void)
	??1QInputContextPlugin@@UAE@XZ @ 1013 NONAME ; QInputContextPlugin::~QInputContextPlugin(void)
	??1QInputDialog@@UAE@XZ @ 1014 NONAME ; QInputDialog::~QInputDialog(void)
	??1QInputEvent@@UAE@XZ @ 1015 NONAME ; QInputEvent::~QInputEvent(void)
	??1QInputMethodEvent@@UAE@XZ @ 1016 NONAME ; QInputMethodEvent::~QInputMethodEvent(void)
	??1QIntValidator@@UAE@XZ @ 1017 NONAME ; QIntValidator::~QIntValidator(void)
	??1QItemDelegate@@UAE@XZ @ 1018 NONAME ; QItemDelegate::~QItemDelegate(void)
	??1QItemEditorCreatorBase@@UAE@XZ @ 1019 NONAME ; QItemEditorCreatorBase::~QItemEditorCreatorBase(void)
	??1QItemEditorFactory@@UAE@XZ @ 1020 NONAME ; QItemEditorFactory::~QItemEditorFactory(void)
	??1QItemSelection@@QAE@XZ @ 1021 NONAME ; QItemSelection::~QItemSelection(void)
	??1QItemSelectionModel@@UAE@XZ @ 1022 NONAME ; QItemSelectionModel::~QItemSelectionModel(void)
	??1QItemSelectionRange@@QAE@XZ @ 1023 NONAME ; QItemSelectionRange::~QItemSelectionRange(void)
	??1QKeyEvent@@UAE@XZ @ 1024 NONAME ; QKeyEvent::~QKeyEvent(void)
	??1QKeyEventTransition@@UAE@XZ @ 1025 NONAME ; QKeyEventTransition::~QKeyEventTransition(void)
	??1QKeySequence@@QAE@XZ @ 1026 NONAME ; QKeySequence::~QKeySequence(void)
	??1QLCDNumber@@UAE@XZ @ 1027 NONAME ; QLCDNumber::~QLCDNumber(void)
	??1QLabel@@UAE@XZ @ 1028 NONAME ; QLabel::~QLabel(void)
	??1QLayout@@UAE@XZ @ 1029 NONAME ; QLayout::~QLayout(void)
	??1QLayoutItem@@UAE@XZ @ 1030 NONAME ; QLayoutItem::~QLayoutItem(void)
	??1QLayoutPrivate@@UAE@XZ @ 1031 NONAME ; QLayoutPrivate::~QLayoutPrivate(void)
	??1QLineControl@@UAE@XZ @ 1032 NONAME ; QLineControl::~QLineControl(void)
	??1QLineEdit@@UAE@XZ @ 1033 NONAME ; QLineEdit::~QLineEdit(void)
	??1QLinearGradient@@QAE@XZ @ 1034 NONAME ; QLinearGradient::~QLinearGradient(void)
	??1QListView@@UAE@XZ @ 1035 NONAME ; QListView::~QListView(void)
	??1QListWidget@@UAE@XZ @ 1036 NONAME ; QListWidget::~QListWidget(void)
	??1QListWidgetItem@@UAE@XZ @ 1037 NONAME ; QListWidgetItem::~QListWidgetItem(void)
	??1QMainWindow@@UAE@XZ @ 1038 NONAME ; QMainWindow::~QMainWindow(void)
	??1QMdiArea@@UAE@XZ @ 1039 NONAME ; QMdiArea::~QMdiArea(void)
	??1QMdiSubWindow@@UAE@XZ @ 1040 NONAME ; QMdiSubWindow::~QMdiSubWindow(void)
	??1QMenu@@UAE@XZ @ 1041 NONAME ; QMenu::~QMenu(void)
	??1QMenuBar@@UAE@XZ @ 1042 NONAME ; QMenuBar::~QMenuBar(void)
	??1QMessageBox@@UAE@XZ @ 1043 NONAME ; QMessageBox::~QMessageBox(void)
	??1QMimeSource@@UAE@XZ @ 1044 NONAME ; QMimeSource::~QMimeSource(void)
	??1QMouseEvent@@UAE@XZ @ 1045 NONAME ; QMouseEvent::~QMouseEvent(void)
	??1QMouseEventTransition@@UAE@XZ @ 1046 NONAME ; QMouseEventTransition::~QMouseEventTransition(void)
	??1QMoveEvent@@UAE@XZ @ 1047 NONAME ; QMoveEvent::~QMoveEvent(void)
	??1QMovie@@UAE@XZ @ 1048 NONAME ; QMovie::~QMovie(void)
	??1QPaintBuffer@@UAE@XZ @ 1049 NONAME ; QPaintBuffer::~QPaintBuffer(void)
	??1QPaintBufferResource@@UAE@XZ @ 1050 NONAME ; QPaintBufferResource::~QPaintBufferResource(void)
	??1QPaintBufferSignalProxy@@UAE@XZ @ 1051 NONAME ; QPaintBufferSignalProxy::~QPaintBufferSignalProxy(void)
	??1QPaintDevice@@UAE@XZ @ 1052 NONAME ; QPaintDevice::~QPaintDevice(void)
	??1QPaintEngine@@UAE@XZ @ 1053 NONAME ; QPaintEngine::~QPaintEngine(void)
	??1QPaintEngineEx@@UAE@XZ @ 1054 NONAME ; QPaintEngineEx::~QPaintEngineEx(void)
	??1QPaintEngineExPrivate@@UAE@XZ @ 1055 NONAME ; QPaintEngineExPrivate::~QPaintEngineExPrivate(void)
	??1QPaintEngineExReplayer@@UAE@XZ @ 1056 NONAME ; QPaintEngineExReplayer::~QPaintEngineExReplayer(void)
	??1QPaintEvent@@UAE@XZ @ 1057 NONAME ; QPaintEvent::~QPaintEvent(void)
	??1QPainter@@QAE@XZ @ 1058 NONAME ; QPainter::~QPainter(void)
	??1QPainterPath@@QAE@XZ @ 1059 NONAME ; QPainterPath::~QPainterPath(void)
	??1QPainterPathStroker@@QAE@XZ @ 1060 NONAME ; QPainterPathStroker::~QPainterPathStroker(void)
	??1QPainterReplayer@@UAE@XZ @ 1061 NONAME ; QPainterReplayer::~QPainterReplayer(void)
	??1QPainterState@@UAE@XZ @ 1062 NONAME ; QPainterState::~QPainterState(void)
	??1QPalette@@QAE@XZ @ 1063 NONAME ; QPalette::~QPalette(void)
	??1QPanGesture@@UAE@XZ @ 1064 NONAME ; QPanGesture::~QPanGesture(void)
	??1QPen@@QAE@XZ @ 1065 NONAME ; QPen::~QPen(void)
	??1QPicture@@UAE@XZ @ 1066 NONAME ; QPicture::~QPicture(void)
	??1QPictureFormatInterface@@UAE@XZ @ 1067 NONAME ; QPictureFormatInterface::~QPictureFormatInterface(void)
	??1QPictureFormatPlugin@@UAE@XZ @ 1068 NONAME ; QPictureFormatPlugin::~QPictureFormatPlugin(void)
	??1QPictureIO@@QAE@XZ @ 1069 NONAME ; QPictureIO::~QPictureIO(void)
	??1QPinchGesture@@UAE@XZ @ 1070 NONAME ; QPinchGesture::~QPinchGesture(void)
	??1QPixmap@@UAE@XZ @ 1071 NONAME ; QPixmap::~QPixmap(void)
	??1QPixmapBlurFilter@@UAE@XZ @ 1072 NONAME ; QPixmapBlurFilter::~QPixmapBlurFilter(void)
	??1QPixmapColorizeFilter@@UAE@XZ @ 1073 NONAME ; QPixmapColorizeFilter::~QPixmapColorizeFilter(void)
	??1QPixmapConvolutionFilter@@UAE@XZ @ 1074 NONAME ; QPixmapConvolutionFilter::~QPixmapConvolutionFilter(void)
	??1QPixmapData@@UAE@XZ @ 1075 NONAME ; QPixmapData::~QPixmapData(void)
	??1QPixmapDropShadowFilter@@UAE@XZ @ 1076 NONAME ; QPixmapDropShadowFilter::~QPixmapDropShadowFilter(void)
	??1QPixmapFilter@@UAE@XZ @ 1077 NONAME ; QPixmapFilter::~QPixmapFilter(void)
	??1QPlainTextDocumentLayout@@UAE@XZ @ 1078 NONAME ; QPlainTextDocumentLayout::~QPlainTextDocumentLayout(void)
	??1QPlainTextEdit@@UAE@XZ @ 1079 NONAME ; QPlainTextEdit::~QPlainTextEdit(void)
	??1QPolygon@@QAE@XZ @ 1080 NONAME ; QPolygon::~QPolygon(void)
	??1QPolygonF@@QAE@XZ @ 1081 NONAME ; QPolygonF::~QPolygonF(void)
	??1QProgressBar@@UAE@XZ @ 1082 NONAME ; QProgressBar::~QProgressBar(void)
	??1QProgressDialog@@UAE@XZ @ 1083 NONAME ; QProgressDialog::~QProgressDialog(void)
	??1QProxyModel@@UAE@XZ @ 1084 NONAME ; QProxyModel::~QProxyModel(void)
	??1QProxyStyle@@UAE@XZ @ 1085 NONAME ; QProxyStyle::~QProxyStyle(void)
	??1QPushButton@@UAE@XZ @ 1086 NONAME ; QPushButton::~QPushButton(void)
	??1QRadialGradient@@QAE@XZ @ 1087 NONAME ; QRadialGradient::~QRadialGradient(void)
	??1QRadioButton@@UAE@XZ @ 1088 NONAME ; QRadioButton::~QRadioButton(void)
	??1QRasterPixmapData@@UAE@XZ @ 1089 NONAME ; QRasterPixmapData::~QRasterPixmapData(void)
	??1QRasterWindowSurface@@UAE@XZ @ 1090 NONAME ; QRasterWindowSurface::~QRasterWindowSurface(void)
	??1QRegExpValidator@@UAE@XZ @ 1091 NONAME ; QRegExpValidator::~QRegExpValidator(void)
	??1QRegion@@QAE@XZ @ 1092 NONAME ; QRegion::~QRegion(void)
	??1QResizeEvent@@UAE@XZ @ 1093 NONAME ; QResizeEvent::~QResizeEvent(void)
	??1QRubberBand@@UAE@XZ @ 1094 NONAME ; QRubberBand::~QRubberBand(void)
	??1QS60MainAppUi@@UAE@XZ @ 1095 NONAME ; QS60MainAppUi::~QS60MainAppUi(void)
	??1QS60MainApplication@@UAE@XZ @ 1096 NONAME ; QS60MainApplication::~QS60MainApplication(void)
	??1QS60MainDocument@@UAE@XZ @ 1097 NONAME ; QS60MainDocument::~QS60MainDocument(void)
	??1QS60Style@@UAE@XZ @ 1098 NONAME ; QS60Style::~QS60Style(void)
	??1QScrollArea@@UAE@XZ @ 1099 NONAME ; QScrollArea::~QScrollArea(void)
	??1QScrollBar@@UAE@XZ @ 1100 NONAME ; QScrollBar::~QScrollBar(void)
	??1QSessionManager@@EAE@XZ @ 1101 NONAME ; QSessionManager::~QSessionManager(void)
	??1QShortcut@@UAE@XZ @ 1102 NONAME ; QShortcut::~QShortcut(void)
	??1QShortcutEvent@@UAE@XZ @ 1103 NONAME ; QShortcutEvent::~QShortcutEvent(void)
	??1QShowEvent@@UAE@XZ @ 1104 NONAME ; QShowEvent::~QShowEvent(void)
	??1QSizeGrip@@UAE@XZ @ 1105 NONAME ; QSizeGrip::~QSizeGrip(void)
	??1QSlider@@UAE@XZ @ 1106 NONAME ; QSlider::~QSlider(void)
	??1QSortFilterProxyModel@@UAE@XZ @ 1107 NONAME ; QSortFilterProxyModel::~QSortFilterProxyModel(void)
	??1QSound@@UAE@XZ @ 1108 NONAME ; QSound::~QSound(void)
	??1QSpacerItem@@UAE@XZ @ 1109 NONAME ; QSpacerItem::~QSpacerItem(void)
	??1QSpinBox@@UAE@XZ @ 1110 NONAME ; QSpinBox::~QSpinBox(void)
	??1QSplashScreen@@UAE@XZ @ 1111 NONAME ; QSplashScreen::~QSplashScreen(void)
	??1QSplitter@@UAE@XZ @ 1112 NONAME ; QSplitter::~QSplitter(void)
	??1QSplitterHandle@@UAE@XZ @ 1113 NONAME ; QSplitterHandle::~QSplitterHandle(void)
	??1QStackedLayout@@UAE@XZ @ 1114 NONAME ; QStackedLayout::~QStackedLayout(void)
	??1QStackedWidget@@UAE@XZ @ 1115 NONAME ; QStackedWidget::~QStackedWidget(void)
	??1QStandardItem@@UAE@XZ @ 1116 NONAME ; QStandardItem::~QStandardItem(void)
	??1QStandardItemModel@@UAE@XZ @ 1117 NONAME ; QStandardItemModel::~QStandardItemModel(void)
	??1QStatusBar@@UAE@XZ @ 1118 NONAME ; QStatusBar::~QStatusBar(void)
	??1QStatusTipEvent@@UAE@XZ @ 1119 NONAME ; QStatusTipEvent::~QStatusTipEvent(void)
	??1QStringListModel@@UAE@XZ @ 1120 NONAME ; QStringListModel::~QStringListModel(void)
	??1QStroker@@UAE@XZ @ 1121 NONAME ; QStroker::~QStroker(void)
	??1QStrokerOps@@UAE@XZ @ 1122 NONAME ; QStrokerOps::~QStrokerOps(void)
	??1QStyle@@UAE@XZ @ 1123 NONAME ; QStyle::~QStyle(void)
	??1QStyleFactoryInterface@@UAE@XZ @ 1124 NONAME ; QStyleFactoryInterface::~QStyleFactoryInterface(void)
	??1QStyleHintReturn@@QAE@XZ @ 1125 NONAME ; QStyleHintReturn::~QStyleHintReturn(void)
	??1QStyleHintReturnMask@@QAE@XZ @ 1126 NONAME ; QStyleHintReturnMask::~QStyleHintReturnMask(void)
	??1QStyleHintReturnVariant@@QAE@XZ @ 1127 NONAME ; QStyleHintReturnVariant::~QStyleHintReturnVariant(void)
	??1QStyleOption@@QAE@XZ @ 1128 NONAME ; QStyleOption::~QStyleOption(void)
	??1QStyleOptionButton@@QAE@XZ @ 1129 NONAME ; QStyleOptionButton::~QStyleOptionButton(void)
	??1QStyleOptionComboBox@@QAE@XZ @ 1130 NONAME ; QStyleOptionComboBox::~QStyleOptionComboBox(void)
	??1QStyleOptionComplex@@QAE@XZ @ 1131 NONAME ; QStyleOptionComplex::~QStyleOptionComplex(void)
	??1QStyleOptionDockWidget@@QAE@XZ @ 1132 NONAME ; QStyleOptionDockWidget::~QStyleOptionDockWidget(void)
	??1QStyleOptionDockWidgetV2@@QAE@XZ @ 1133 NONAME ; QStyleOptionDockWidgetV2::~QStyleOptionDockWidgetV2(void)
	??1QStyleOptionFocusRect@@QAE@XZ @ 1134 NONAME ; QStyleOptionFocusRect::~QStyleOptionFocusRect(void)
	??1QStyleOptionFrame@@QAE@XZ @ 1135 NONAME ; QStyleOptionFrame::~QStyleOptionFrame(void)
	??1QStyleOptionFrameV2@@QAE@XZ @ 1136 NONAME ; QStyleOptionFrameV2::~QStyleOptionFrameV2(void)
	??1QStyleOptionFrameV3@@QAE@XZ @ 1137 NONAME ; QStyleOptionFrameV3::~QStyleOptionFrameV3(void)
	??1QStyleOptionGraphicsItem@@QAE@XZ @ 1138 NONAME ; QStyleOptionGraphicsItem::~QStyleOptionGraphicsItem(void)
	??1QStyleOptionGroupBox@@QAE@XZ @ 1139 NONAME ; QStyleOptionGroupBox::~QStyleOptionGroupBox(void)
	??1QStyleOptionHeader@@QAE@XZ @ 1140 NONAME ; QStyleOptionHeader::~QStyleOptionHeader(void)
	??1QStyleOptionMenuItem@@QAE@XZ @ 1141 NONAME ; QStyleOptionMenuItem::~QStyleOptionMenuItem(void)
	??1QStyleOptionProgressBar@@QAE@XZ @ 1142 NONAME ; QStyleOptionProgressBar::~QStyleOptionProgressBar(void)
	??1QStyleOptionProgressBarV2@@QAE@XZ @ 1143 NONAME ; QStyleOptionProgressBarV2::~QStyleOptionProgressBarV2(void)
	??1QStyleOptionQ3ListViewItem@@QAE@XZ @ 1144 NONAME ; QStyleOptionQ3ListViewItem::~QStyleOptionQ3ListViewItem(void)
	??1QStyleOptionRubberBand@@QAE@XZ @ 1145 NONAME ; QStyleOptionRubberBand::~QStyleOptionRubberBand(void)
	??1QStyleOptionSizeGrip@@QAE@XZ @ 1146 NONAME ; QStyleOptionSizeGrip::~QStyleOptionSizeGrip(void)
	??1QStyleOptionSlider@@QAE@XZ @ 1147 NONAME ; QStyleOptionSlider::~QStyleOptionSlider(void)
	??1QStyleOptionSpinBox@@QAE@XZ @ 1148 NONAME ; QStyleOptionSpinBox::~QStyleOptionSpinBox(void)
	??1QStyleOptionTab@@QAE@XZ @ 1149 NONAME ; QStyleOptionTab::~QStyleOptionTab(void)
	??1QStyleOptionTabBarBase@@QAE@XZ @ 1150 NONAME ; QStyleOptionTabBarBase::~QStyleOptionTabBarBase(void)
	??1QStyleOptionTabBarBaseV2@@QAE@XZ @ 1151 NONAME ; QStyleOptionTabBarBaseV2::~QStyleOptionTabBarBaseV2(void)
	??1QStyleOptionTabV2@@QAE@XZ @ 1152 NONAME ; QStyleOptionTabV2::~QStyleOptionTabV2(void)
	??1QStyleOptionTabV3@@QAE@XZ @ 1153 NONAME ; QStyleOptionTabV3::~QStyleOptionTabV3(void)
	??1QStyleOptionTabWidgetFrame@@QAE@XZ @ 1154 NONAME ; QStyleOptionTabWidgetFrame::~QStyleOptionTabWidgetFrame(void)
	??1QStyleOptionTabWidgetFrameV2@@QAE@XZ @ 1155 NONAME ; QStyleOptionTabWidgetFrameV2::~QStyleOptionTabWidgetFrameV2(void)
	??1QStyleOptionTitleBar@@QAE@XZ @ 1156 NONAME ; QStyleOptionTitleBar::~QStyleOptionTitleBar(void)
	??1QStyleOptionToolBar@@QAE@XZ @ 1157 NONAME ; QStyleOptionToolBar::~QStyleOptionToolBar(void)
	??1QStyleOptionToolBox@@QAE@XZ @ 1158 NONAME ; QStyleOptionToolBox::~QStyleOptionToolBox(void)
	??1QStyleOptionToolBoxV2@@QAE@XZ @ 1159 NONAME ; QStyleOptionToolBoxV2::~QStyleOptionToolBoxV2(void)
	??1QStyleOptionToolButton@@QAE@XZ @ 1160 NONAME ; QStyleOptionToolButton::~QStyleOptionToolButton(void)
	??1QStyleOptionViewItem@@QAE@XZ @ 1161 NONAME ; QStyleOptionViewItem::~QStyleOptionViewItem(void)
	??1QStyleOptionViewItemV2@@QAE@XZ @ 1162 NONAME ; QStyleOptionViewItemV2::~QStyleOptionViewItemV2(void)
	??1QStyleOptionViewItemV3@@QAE@XZ @ 1163 NONAME ; QStyleOptionViewItemV3::~QStyleOptionViewItemV3(void)
	??1QStyleOptionViewItemV4@@QAE@XZ @ 1164 NONAME ; QStyleOptionViewItemV4::~QStyleOptionViewItemV4(void)
	??1QStylePlugin@@UAE@XZ @ 1165 NONAME ; QStylePlugin::~QStylePlugin(void)
	??1QStyledItemDelegate@@UAE@XZ @ 1166 NONAME ; QStyledItemDelegate::~QStyledItemDelegate(void)
	??1QSwipeGesture@@UAE@XZ @ 1167 NONAME ; QSwipeGesture::~QSwipeGesture(void)
	??1QSymbianEvent@@QAE@XZ @ 1168 NONAME ; QSymbianEvent::~QSymbianEvent(void)
	??1QSyntaxHighlighter@@UAE@XZ @ 1169 NONAME ; QSyntaxHighlighter::~QSyntaxHighlighter(void)
	??1QTabBar@@UAE@XZ @ 1170 NONAME ; QTabBar::~QTabBar(void)
	??1QTabWidget@@UAE@XZ @ 1171 NONAME ; QTabWidget::~QTabWidget(void)
	??1QTableView@@UAE@XZ @ 1172 NONAME ; QTableView::~QTableView(void)
	??1QTableWidget@@UAE@XZ @ 1173 NONAME ; QTableWidget::~QTableWidget(void)
	??1QTableWidgetItem@@UAE@XZ @ 1174 NONAME ; QTableWidgetItem::~QTableWidgetItem(void)
	??1QTableWidgetSelectionRange@@QAE@XZ @ 1175 NONAME ; QTableWidgetSelectionRange::~QTableWidgetSelectionRange(void)
	??1QTabletEvent@@UAE@XZ @ 1176 NONAME ; QTabletEvent::~QTabletEvent(void)
	??1QTapAndHoldGesture@@UAE@XZ @ 1177 NONAME ; QTapAndHoldGesture::~QTapAndHoldGesture(void)
	??1QTapGesture@@UAE@XZ @ 1178 NONAME ; QTapGesture::~QTapGesture(void)
	??1QTessellator@@UAE@XZ @ 1179 NONAME ; QTessellator::~QTessellator(void)
	??1QTextBlockFormat@@QAE@XZ @ 1180 NONAME ; QTextBlockFormat::~QTextBlockFormat(void)
	??1QTextBlockGroup@@MAE@XZ @ 1181 NONAME ; QTextBlockGroup::~QTextBlockGroup(void)
	??1QTextBlockUserData@@UAE@XZ @ 1182 NONAME ; QTextBlockUserData::~QTextBlockUserData(void)
	??1QTextBrowser@@UAE@XZ @ 1183 NONAME ; QTextBrowser::~QTextBrowser(void)
	??1QTextCharFormat@@QAE@XZ @ 1184 NONAME ; QTextCharFormat::~QTextCharFormat(void)
	??1QTextControl@@UAE@XZ @ 1185 NONAME ; QTextControl::~QTextControl(void)
	??1QTextCursor@@QAE@XZ @ 1186 NONAME ; QTextCursor::~QTextCursor(void)
	??1QTextDocument@@UAE@XZ @ 1187 NONAME ; QTextDocument::~QTextDocument(void)
	??1QTextDocumentFragment@@QAE@XZ @ 1188 NONAME ; QTextDocumentFragment::~QTextDocumentFragment(void)
	??1QTextDocumentWriter@@QAE@XZ @ 1189 NONAME ; QTextDocumentWriter::~QTextDocumentWriter(void)
	??1QTextEdit@@UAE@XZ @ 1190 NONAME ; QTextEdit::~QTextEdit(void)
	??1QTextEngine@@QAE@XZ @ 1191 NONAME ; QTextEngine::~QTextEngine(void)
	??1QTextFormat@@QAE@XZ @ 1192 NONAME ; QTextFormat::~QTextFormat(void)
	??1QTextFormatCollection@@QAE@XZ @ 1193 NONAME ; QTextFormatCollection::~QTextFormatCollection(void)
	??1QTextFrame@@UAE@XZ @ 1194 NONAME ; QTextFrame::~QTextFrame(void)
	??1QTextFrameFormat@@QAE@XZ @ 1195 NONAME ; QTextFrameFormat::~QTextFrameFormat(void)
	??1QTextFrameLayoutData@@UAE@XZ @ 1196 NONAME ; QTextFrameLayoutData::~QTextFrameLayoutData(void)
	??1QTextImageFormat@@QAE@XZ @ 1197 NONAME ; QTextImageFormat::~QTextImageFormat(void)
	??1QTextLayout@@QAE@XZ @ 1198 NONAME ; QTextLayout::~QTextLayout(void)
	??1QTextList@@UAE@XZ @ 1199 NONAME ; QTextList::~QTextList(void)
	??1QTextListFormat@@QAE@XZ @ 1200 NONAME ; QTextListFormat::~QTextListFormat(void)
	??1QTextObject@@MAE@XZ @ 1201 NONAME ; QTextObject::~QTextObject(void)
	??1QTextObjectInterface@@UAE@XZ @ 1202 NONAME ; QTextObjectInterface::~QTextObjectInterface(void)
	??1QTextOption@@QAE@XZ @ 1203 NONAME ; QTextOption::~QTextOption(void)
	??1QTextTable@@UAE@XZ @ 1204 NONAME ; QTextTable::~QTextTable(void)
	??1QTextTableCell@@QAE@XZ @ 1205 NONAME ; QTextTableCell::~QTextTableCell(void)
	??1QTextTableCellFormat@@QAE@XZ @ 1206 NONAME ; QTextTableCellFormat::~QTextTableCellFormat(void)
	??1QTextTableFormat@@QAE@XZ @ 1207 NONAME ; QTextTableFormat::~QTextTableFormat(void)
	??1QTextureGlyphCache@@UAE@XZ @ 1208 NONAME ; QTextureGlyphCache::~QTextureGlyphCache(void)
	??1QTimeEdit@@UAE@XZ @ 1209 NONAME ; QTimeEdit::~QTimeEdit(void)
	??1QToolBar@@UAE@XZ @ 1210 NONAME ; QToolBar::~QToolBar(void)
	??1QToolBarChangeEvent@@UAE@XZ @ 1211 NONAME ; QToolBarChangeEvent::~QToolBarChangeEvent(void)
	??1QToolBox@@UAE@XZ @ 1212 NONAME ; QToolBox::~QToolBox(void)
	??1QToolButton@@UAE@XZ @ 1213 NONAME ; QToolButton::~QToolButton(void)
	??1QTouchEvent@@UAE@XZ @ 1214 NONAME ; QTouchEvent::~QTouchEvent(void)
	??1QTreeView@@UAE@XZ @ 1215 NONAME ; QTreeView::~QTreeView(void)
	??1QTreeWidget@@UAE@XZ @ 1216 NONAME ; QTreeWidget::~QTreeWidget(void)
	??1QTreeWidgetItem@@UAE@XZ @ 1217 NONAME ; QTreeWidgetItem::~QTreeWidgetItem(void)
	??1QTreeWidgetItemIterator@@QAE@XZ @ 1218 NONAME ; QTreeWidgetItemIterator::~QTreeWidgetItemIterator(void)
	??1QUndoCommand@@UAE@XZ @ 1219 NONAME ; QUndoCommand::~QUndoCommand(void)
	??1QUndoGroup@@UAE@XZ @ 1220 NONAME ; QUndoGroup::~QUndoGroup(void)
	??1QUndoStack@@UAE@XZ @ 1221 NONAME ; QUndoStack::~QUndoStack(void)
	??1QUndoView@@UAE@XZ @ 1222 NONAME ; QUndoView::~QUndoView(void)
	??1QVBoxLayout@@UAE@XZ @ 1223 NONAME ; QVBoxLayout::~QVBoxLayout(void)
	??1QValidator@@UAE@XZ @ 1224 NONAME ; QValidator::~QValidator(void)
	??1QWhatsThisClickedEvent@@UAE@XZ @ 1225 NONAME ; QWhatsThisClickedEvent::~QWhatsThisClickedEvent(void)
	??1QWheelEvent@@UAE@XZ @ 1226 NONAME ; QWheelEvent::~QWheelEvent(void)
	??1QWidget@@UAE@XZ @ 1227 NONAME ; QWidget::~QWidget(void)
	??1QWidgetAction@@UAE@XZ @ 1228 NONAME ; QWidgetAction::~QWidgetAction(void)
	??1QWidgetItem@@UAE@XZ @ 1229 NONAME ; QWidgetItem::~QWidgetItem(void)
	??1QWidgetItemV2@@UAE@XZ @ 1230 NONAME ; QWidgetItemV2::~QWidgetItemV2(void)
	??1QWidgetPrivate@@UAE@XZ @ 1231 NONAME ; QWidgetPrivate::~QWidgetPrivate(void)
	??1QWidgetResizeHandler@@UAE@XZ @ 1232 NONAME ; QWidgetResizeHandler::~QWidgetResizeHandler(void)
	??1QWindowStateChangeEvent@@UAE@XZ @ 1233 NONAME ; QWindowStateChangeEvent::~QWindowStateChangeEvent(void)
	??1QWindowSurface@@UAE@XZ @ 1234 NONAME ; QWindowSurface::~QWindowSurface(void)
	??1QWindowsStyle@@UAE@XZ @ 1235 NONAME ; QWindowsStyle::~QWindowsStyle(void)
	??1QWizard@@UAE@XZ @ 1236 NONAME ; QWizard::~QWizard(void)
	??1QWizardPage@@UAE@XZ @ 1237 NONAME ; QWizardPage::~QWizardPage(void)
	??1QWorkspace@@UAE@XZ @ 1238 NONAME ; QWorkspace::~QWorkspace(void)
	??1StyleSelector@QCss@@UAE@XZ @ 1239 NONAME ; QCss::StyleSelector::~StyleSelector(void)
	??1Symbol@QCss@@QAE@XZ @ 1240 NONAME ; QCss::Symbol::~Symbol(void)
	??1TouchPoint@QTouchEvent@@QAE@XZ @ 1241 NONAME ; QTouchEvent::TouchPoint::~TouchPoint(void)
	??1Value@QCss@@QAE@XZ @ 1242 NONAME ; QCss::Value::~Value(void)
	??4Key@QPixmapCache@@QAEAAV01@ABV01@@Z @ 1243 NONAME ; class QPixmapCache::Key & QPixmapCache::Key::operator=(class QPixmapCache::Key const &)
	??4QBitmap@@QAEAAV0@ABVQPixmap@@@Z @ 1244 NONAME ; class QBitmap & QBitmap::operator=(class QPixmap const &)
	??4QBrush@@QAEAAV0@ABV0@@Z @ 1245 NONAME ; class QBrush & QBrush::operator=(class QBrush const &)
	??4QColor@@QAEAAV0@ABV0@@Z @ 1246 NONAME ; class QColor & QColor::operator=(class QColor const &)
	??4QColor@@QAEAAV0@W4GlobalColor@Qt@@@Z @ 1247 NONAME ; class QColor & QColor::operator=(enum Qt::GlobalColor)
	??4QColormap@@QAEAAV0@ABV0@@Z @ 1248 NONAME ; class QColormap & QColormap::operator=(class QColormap const &)
	??4QCursor@@QAEAAV0@ABV0@@Z @ 1249 NONAME ; class QCursor & QCursor::operator=(class QCursor const &)
	??4QFont@@QAEAAV0@ABV0@@Z @ 1250 NONAME ; class QFont & QFont::operator=(class QFont const &)
	??4QFontInfo@@QAEAAV0@ABV0@@Z @ 1251 NONAME ; class QFontInfo & QFontInfo::operator=(class QFontInfo const &)
	??4QFontMetrics@@QAEAAV0@ABV0@@Z @ 1252 NONAME ; class QFontMetrics & QFontMetrics::operator=(class QFontMetrics const &)
	??4QFontMetricsF@@QAEAAV0@ABV0@@Z @ 1253 NONAME ; class QFontMetricsF & QFontMetricsF::operator=(class QFontMetricsF const &)
	??4QFontMetricsF@@QAEAAV0@ABVQFontMetrics@@@Z @ 1254 NONAME ; class QFontMetricsF & QFontMetricsF::operator=(class QFontMetrics const &)
	??4QFontPrivate@@AAEAAV0@ABV0@@Z @ 1255 NONAME ; class QFontPrivate & QFontPrivate::operator=(class QFontPrivate const &)
	??4QIcon@@QAEAAV0@ABV0@@Z @ 1256 NONAME ; class QIcon & QIcon::operator=(class QIcon const &)
	??4QImage@@QAEAAV0@ABV0@@Z @ 1257 NONAME ; class QImage & QImage::operator=(class QImage const &)
	??4QKeySequence@@QAEAAV0@ABV0@@Z @ 1258 NONAME ; class QKeySequence & QKeySequence::operator=(class QKeySequence const &)
	??4QListWidgetItem@@QAEAAV0@ABV0@@Z @ 1259 NONAME ; class QListWidgetItem & QListWidgetItem::operator=(class QListWidgetItem const &)
	??4QMatrix4x4@@QAEAAV0@ABV0@@Z @ 1260 NONAME ; class QMatrix4x4 & QMatrix4x4::operator=(class QMatrix4x4 const &)
	??4QMatrix@@QAEAAV0@ABV0@@Z @ 1261 NONAME ; class QMatrix & QMatrix::operator=(class QMatrix const &)
	??4QPaintBuffer@@QAEAAV0@ABV0@@Z @ 1262 NONAME ; class QPaintBuffer & QPaintBuffer::operator=(class QPaintBuffer const &)
	??4QPainterPath@@QAEAAV0@ABV0@@Z @ 1263 NONAME ; class QPainterPath & QPainterPath::operator=(class QPainterPath const &)
	??4QPalette@@QAEAAV0@ABV0@@Z @ 1264 NONAME ; class QPalette & QPalette::operator=(class QPalette const &)
	??4QPen@@QAEAAV0@ABV0@@Z @ 1265 NONAME ; class QPen & QPen::operator=(class QPen const &)
	??4QPicture@@QAEAAV0@ABV0@@Z @ 1266 NONAME ; class QPicture & QPicture::operator=(class QPicture const &)
	??4QPixmap@@QAEAAV0@ABV0@@Z @ 1267 NONAME ; class QPixmap & QPixmap::operator=(class QPixmap const &)
	??4QPolygonF@@QAEAAV0@ABV0@@Z @ 1268 NONAME ; class QPolygonF & QPolygonF::operator=(class QPolygonF const &)
	??4QRegion@@QAEAAV0@ABV0@@Z @ 1269 NONAME ; class QRegion & QRegion::operator=(class QRegion const &)
	??4QStandardItem@@IAEAAV0@ABV0@@Z @ 1270 NONAME ; class QStandardItem & QStandardItem::operator=(class QStandardItem const &)
	??4QStyleOption@@QAEAAV0@ABV0@@Z @ 1271 NONAME ; class QStyleOption & QStyleOption::operator=(class QStyleOption const &)
	??4QStyleOptionButton@@QAEAAV0@ABV0@@Z @ 1272 NONAME ; class QStyleOptionButton & QStyleOptionButton::operator=(class QStyleOptionButton const &)
	??4QStyleOptionComboBox@@QAEAAV0@ABV0@@Z @ 1273 NONAME ; class QStyleOptionComboBox & QStyleOptionComboBox::operator=(class QStyleOptionComboBox const &)
	??4QStyleOptionDockWidgetV2@@QAEAAV0@ABV0@@Z @ 1274 NONAME ; class QStyleOptionDockWidgetV2 & QStyleOptionDockWidgetV2::operator=(class QStyleOptionDockWidgetV2 const &)
	??4QStyleOptionDockWidgetV2@@QAEAAV0@ABVQStyleOptionDockWidget@@@Z @ 1275 NONAME ; class QStyleOptionDockWidgetV2 & QStyleOptionDockWidgetV2::operator=(class QStyleOptionDockWidget const &)
	??4QStyleOptionFrameV2@@QAEAAV0@ABVQStyleOptionFrame@@@Z @ 1276 NONAME ; class QStyleOptionFrameV2 & QStyleOptionFrameV2::operator=(class QStyleOptionFrame const &)
	??4QStyleOptionFrameV3@@QAEAAV0@ABVQStyleOptionFrame@@@Z @ 1277 NONAME ; class QStyleOptionFrameV3 & QStyleOptionFrameV3::operator=(class QStyleOptionFrame const &)
	??4QStyleOptionGroupBox@@QAEAAV0@ABV0@@Z @ 1278 NONAME ; class QStyleOptionGroupBox & QStyleOptionGroupBox::operator=(class QStyleOptionGroupBox const &)
	??4QStyleOptionHeader@@QAEAAV0@ABV0@@Z @ 1279 NONAME ; class QStyleOptionHeader & QStyleOptionHeader::operator=(class QStyleOptionHeader const &)
	??4QStyleOptionMenuItem@@QAEAAV0@ABV0@@Z @ 1280 NONAME ; class QStyleOptionMenuItem & QStyleOptionMenuItem::operator=(class QStyleOptionMenuItem const &)
	??4QStyleOptionProgressBarV2@@QAEAAV0@ABVQStyleOptionProgressBar@@@Z @ 1281 NONAME ; class QStyleOptionProgressBarV2 & QStyleOptionProgressBarV2::operator=(class QStyleOptionProgressBar const &)
	??4QStyleOptionSizeGrip@@QAEAAV0@ABV0@@Z @ 1282 NONAME ; class QStyleOptionSizeGrip & QStyleOptionSizeGrip::operator=(class QStyleOptionSizeGrip const &)
	??4QStyleOptionSlider@@QAEAAV0@ABV0@@Z @ 1283 NONAME ; class QStyleOptionSlider & QStyleOptionSlider::operator=(class QStyleOptionSlider const &)
	??4QStyleOptionSpinBox@@QAEAAV0@ABV0@@Z @ 1284 NONAME ; class QStyleOptionSpinBox & QStyleOptionSpinBox::operator=(class QStyleOptionSpinBox const &)
	??4QStyleOptionTabBarBaseV2@@QAEAAV0@ABVQStyleOptionTabBarBase@@@Z @ 1285 NONAME ; class QStyleOptionTabBarBaseV2 & QStyleOptionTabBarBaseV2::operator=(class QStyleOptionTabBarBase const &)
	??4QStyleOptionTabV2@@QAEAAV0@ABVQStyleOptionTab@@@Z @ 1286 NONAME ; class QStyleOptionTabV2 & QStyleOptionTabV2::operator=(class QStyleOptionTab const &)
	??4QStyleOptionTabV3@@QAEAAV0@ABV0@@Z @ 1287 NONAME ; class QStyleOptionTabV3 & QStyleOptionTabV3::operator=(class QStyleOptionTabV3 const &)
	??4QStyleOptionTabV3@@QAEAAV0@ABVQStyleOptionTab@@@Z @ 1288 NONAME ; class QStyleOptionTabV3 & QStyleOptionTabV3::operator=(class QStyleOptionTab const &)
	??4QStyleOptionTabWidgetFrameV2@@QAEAAV0@ABVQStyleOptionTabWidgetFrame@@@Z @ 1289 NONAME ; class QStyleOptionTabWidgetFrameV2 & QStyleOptionTabWidgetFrameV2::operator=(class QStyleOptionTabWidgetFrame const &)
	??4QStyleOptionToolBar@@QAEAAV0@ABV0@@Z @ 1290 NONAME ; class QStyleOptionToolBar & QStyleOptionToolBar::operator=(class QStyleOptionToolBar const &)
	??4QStyleOptionToolBox@@QAEAAV0@ABV0@@Z @ 1291 NONAME ; class QStyleOptionToolBox & QStyleOptionToolBox::operator=(class QStyleOptionToolBox const &)
	??4QStyleOptionToolBoxV2@@QAEAAV0@ABVQStyleOptionToolBox@@@Z @ 1292 NONAME ; class QStyleOptionToolBoxV2 & QStyleOptionToolBoxV2::operator=(class QStyleOptionToolBox const &)
	??4QStyleOptionToolButton@@QAEAAV0@ABV0@@Z @ 1293 NONAME ; class QStyleOptionToolButton & QStyleOptionToolButton::operator=(class QStyleOptionToolButton const &)
	??4QStyleOptionViewItemV2@@QAEAAV0@ABVQStyleOptionViewItem@@@Z @ 1294 NONAME ; class QStyleOptionViewItemV2 & QStyleOptionViewItemV2::operator=(class QStyleOptionViewItem const &)
	??4QStyleOptionViewItemV3@@QAEAAV0@ABV0@@Z @ 1295 NONAME ; class QStyleOptionViewItemV3 & QStyleOptionViewItemV3::operator=(class QStyleOptionViewItemV3 const &)
	??4QStyleOptionViewItemV3@@QAEAAV0@ABVQStyleOptionViewItem@@@Z @ 1296 NONAME ; class QStyleOptionViewItemV3 & QStyleOptionViewItemV3::operator=(class QStyleOptionViewItem const &)
	??4QStyleOptionViewItemV4@@QAEAAV0@ABV0@@Z @ 1297 NONAME ; class QStyleOptionViewItemV4 & QStyleOptionViewItemV4::operator=(class QStyleOptionViewItemV4 const &)
	??4QStyleOptionViewItemV4@@QAEAAV0@ABVQStyleOptionViewItem@@@Z @ 1298 NONAME ; class QStyleOptionViewItemV4 & QStyleOptionViewItemV4::operator=(class QStyleOptionViewItem const &)
	??4QTableWidgetItem@@QAEAAV0@ABV0@@Z @ 1299 NONAME ; class QTableWidgetItem & QTableWidgetItem::operator=(class QTableWidgetItem const &)
	??4QTextBlock@@QAEAAV0@ABV0@@Z @ 1300 NONAME ; class QTextBlock & QTextBlock::operator=(class QTextBlock const &)
	??4QTextBlockFormat@@QAEAAV0@ABV0@@Z @ 1301 NONAME ; class QTextBlockFormat & QTextBlockFormat::operator=(class QTextBlockFormat const &)
	??4QTextCharFormat@@QAEAAV0@ABV0@@Z @ 1302 NONAME ; class QTextCharFormat & QTextCharFormat::operator=(class QTextCharFormat const &)
	??4QTextCursor@@QAEAAV0@ABV0@@Z @ 1303 NONAME ; class QTextCursor & QTextCursor::operator=(class QTextCursor const &)
	??4QTextDocumentFragment@@QAEAAV0@ABV0@@Z @ 1304 NONAME ; class QTextDocumentFragment & QTextDocumentFragment::operator=(class QTextDocumentFragment const &)
	??4QTextFormat@@QAEAAV0@ABV0@@Z @ 1305 NONAME ; class QTextFormat & QTextFormat::operator=(class QTextFormat const &)
	??4QTextFormatCollection@@QAEAAV0@ABV0@@Z @ 1306 NONAME ; class QTextFormatCollection & QTextFormatCollection::operator=(class QTextFormatCollection const &)
	??4QTextFragment@@QAEAAV0@ABV0@@Z @ 1307 NONAME ; class QTextFragment & QTextFragment::operator=(class QTextFragment const &)
	??4QTextOption@@QAEAAV0@ABV0@@Z @ 1308 NONAME ; class QTextOption & QTextOption::operator=(class QTextOption const &)
	??4QTextTableCell@@QAEAAV0@ABV0@@Z @ 1309 NONAME ; class QTextTableCell & QTextTableCell::operator=(class QTextTableCell const &)
	??4QTransform@@QAEAAV0@ABV0@@Z @ 1310 NONAME ; class QTransform & QTransform::operator=(class QTransform const &)
	??4QTreeWidgetItem@@QAEAAV0@ABV0@@Z @ 1311 NONAME ; class QTreeWidgetItem & QTreeWidgetItem::operator=(class QTreeWidgetItem const &)
	??4QTreeWidgetItemIterator@@QAEAAV0@ABV0@@Z @ 1312 NONAME ; class QTreeWidgetItemIterator & QTreeWidgetItemIterator::operator=(class QTreeWidgetItemIterator const &)
	??4TouchPoint@QTouchEvent@@QAEAAV01@ABV01@@Z @ 1313 NONAME ; class QTouchEvent::TouchPoint & QTouchEvent::TouchPoint::operator=(class QTouchEvent::TouchPoint const &)
	??4iterator@QTextFrame@@QAEAAV01@ABV01@@Z @ 1314 NONAME ; class QTextFrame::iterator & QTextFrame::iterator::operator=(class QTextFrame::iterator const &)
	??5@YAAAVQDataStream@@AAV0@AAVQBrush@@@Z @ 1315 NONAME ; class QDataStream & operator>>(class QDataStream &, class QBrush &)
	??5@YAAAVQDataStream@@AAV0@AAVQColor@@@Z @ 1316 NONAME ; class QDataStream & operator>>(class QDataStream &, class QColor &)
	??5@YAAAVQDataStream@@AAV0@AAVQCursor@@@Z @ 1317 NONAME ; class QDataStream & operator>>(class QDataStream &, class QCursor &)
	??5@YAAAVQDataStream@@AAV0@AAVQFont@@@Z @ 1318 NONAME ; class QDataStream & operator>>(class QDataStream &, class QFont &)
	??5@YAAAVQDataStream@@AAV0@AAVQIcon@@@Z @ 1319 NONAME ; class QDataStream & operator>>(class QDataStream &, class QIcon &)
	??5@YAAAVQDataStream@@AAV0@AAVQImage@@@Z @ 1320 NONAME ; class QDataStream & operator>>(class QDataStream &, class QImage &)
	??5@YAAAVQDataStream@@AAV0@AAVQKeySequence@@@Z @ 1321 NONAME ; class QDataStream & operator>>(class QDataStream &, class QKeySequence &)
	??5@YAAAVQDataStream@@AAV0@AAVQListWidgetItem@@@Z @ 1322 NONAME ; class QDataStream & operator>>(class QDataStream &, class QListWidgetItem &)
	??5@YAAAVQDataStream@@AAV0@AAVQMatrix4x4@@@Z @ 1323 NONAME ; class QDataStream & operator>>(class QDataStream &, class QMatrix4x4 &)
	??5@YAAAVQDataStream@@AAV0@AAVQMatrix@@@Z @ 1324 NONAME ; class QDataStream & operator>>(class QDataStream &, class QMatrix &)
	??5@YAAAVQDataStream@@AAV0@AAVQPaintBuffer@@@Z @ 1325 NONAME ; class QDataStream & operator>>(class QDataStream &, class QPaintBuffer &)
	??5@YAAAVQDataStream@@AAV0@AAVQPainterPath@@@Z @ 1326 NONAME ; class QDataStream & operator>>(class QDataStream &, class QPainterPath &)
	??5@YAAAVQDataStream@@AAV0@AAVQPalette@@@Z @ 1327 NONAME ; class QDataStream & operator>>(class QDataStream &, class QPalette &)
	??5@YAAAVQDataStream@@AAV0@AAVQPen@@@Z @ 1328 NONAME ; class QDataStream & operator>>(class QDataStream &, class QPen &)
	??5@YAAAVQDataStream@@AAV0@AAVQPicture@@@Z @ 1329 NONAME ; class QDataStream & operator>>(class QDataStream &, class QPicture &)
	??5@YAAAVQDataStream@@AAV0@AAVQPixmap@@@Z @ 1330 NONAME ; class QDataStream & operator>>(class QDataStream &, class QPixmap &)
	??5@YAAAVQDataStream@@AAV0@AAVQPolygon@@@Z @ 1331 NONAME ; class QDataStream & operator>>(class QDataStream &, class QPolygon &)
	??5@YAAAVQDataStream@@AAV0@AAVQPolygonF@@@Z @ 1332 NONAME ; class QDataStream & operator>>(class QDataStream &, class QPolygonF &)
	??5@YAAAVQDataStream@@AAV0@AAVQQuaternion@@@Z @ 1333 NONAME ; class QDataStream & operator>>(class QDataStream &, class QQuaternion &)
	??5@YAAAVQDataStream@@AAV0@AAVQRegion@@@Z @ 1334 NONAME ; class QDataStream & operator>>(class QDataStream &, class QRegion &)
	??5@YAAAVQDataStream@@AAV0@AAVQSizePolicy@@@Z @ 1335 NONAME ; class QDataStream & operator>>(class QDataStream &, class QSizePolicy &)
	??5@YAAAVQDataStream@@AAV0@AAVQStandardItem@@@Z @ 1336 NONAME ; class QDataStream & operator>>(class QDataStream &, class QStandardItem &)
	??5@YAAAVQDataStream@@AAV0@AAVQTableWidgetItem@@@Z @ 1337 NONAME ; class QDataStream & operator>>(class QDataStream &, class QTableWidgetItem &)
	??5@YAAAVQDataStream@@AAV0@AAVQTextFormat@@@Z @ 1338 NONAME ; class QDataStream & operator>>(class QDataStream &, class QTextFormat &)
	??5@YAAAVQDataStream@@AAV0@AAVQTextLength@@@Z @ 1339 NONAME ; class QDataStream & operator>>(class QDataStream &, class QTextLength &)
	??5@YAAAVQDataStream@@AAV0@AAVQTransform@@@Z @ 1340 NONAME ; class QDataStream & operator>>(class QDataStream &, class QTransform &)
	??5@YAAAVQDataStream@@AAV0@AAVQTreeWidgetItem@@@Z @ 1341 NONAME ; class QDataStream & operator>>(class QDataStream &, class QTreeWidgetItem &)
	??5@YAAAVQDataStream@@AAV0@AAVQVector2D@@@Z @ 1342 NONAME ; class QDataStream & operator>>(class QDataStream &, class QVector2D &)
	??5@YAAAVQDataStream@@AAV0@AAVQVector3D@@@Z @ 1343 NONAME ; class QDataStream & operator>>(class QDataStream &, class QVector3D &)
	??5@YAAAVQDataStream@@AAV0@AAVQVector4D@@@Z @ 1344 NONAME ; class QDataStream & operator>>(class QDataStream &, class QVector4D &)
	??5@YAAAVQTextStream@@AAV0@AAVQSplitter@@@Z @ 1345 NONAME ; class QTextStream & operator>>(class QTextStream &, class QSplitter &)
	??6@YA?AVQDebug@@V0@ABVQBrush@@@Z @ 1346 NONAME ; class QDebug operator<<(class QDebug, class QBrush const &)
	??6@YA?AVQDebug@@V0@ABVQColor@@@Z @ 1347 NONAME ; class QDebug operator<<(class QDebug, class QColor const &)
	??6@YA?AVQDebug@@V0@ABVQFont@@@Z @ 1348 NONAME ; class QDebug operator<<(class QDebug, class QFont const &)
	??6@YA?AVQDebug@@V0@ABVQItemSelectionRange@@@Z @ 1349 NONAME ; class QDebug operator<<(class QDebug, class QItemSelectionRange const &)
	??6@YA?AVQDebug@@V0@ABVQKeySequence@@@Z @ 1350 NONAME ; class QDebug operator<<(class QDebug, class QKeySequence const &)
	??6@YA?AVQDebug@@V0@ABVQMatrix4x4@@@Z @ 1351 NONAME ; class QDebug operator<<(class QDebug, class QMatrix4x4 const &)
	??6@YA?AVQDebug@@V0@ABVQMatrix@@@Z @ 1352 NONAME ; class QDebug operator<<(class QDebug, class QMatrix const &)
	??6@YA?AVQDebug@@V0@ABVQPainterPath@@@Z @ 1353 NONAME ; class QDebug operator<<(class QDebug, class QPainterPath const &)
	??6@YA?AVQDebug@@V0@ABVQPen@@@Z @ 1354 NONAME ; class QDebug operator<<(class QDebug, class QPen const &)
	??6@YA?AVQDebug@@V0@ABVQPolygon@@@Z @ 1355 NONAME ; class QDebug operator<<(class QDebug, class QPolygon const &)
	??6@YA?AVQDebug@@V0@ABVQPolygonF@@@Z @ 1356 NONAME ; class QDebug operator<<(class QDebug, class QPolygonF const &)
	??6@YA?AVQDebug@@V0@ABVQQuaternion@@@Z @ 1357 NONAME ; class QDebug operator<<(class QDebug, class QQuaternion const &)
	??6@YA?AVQDebug@@V0@ABVQRegion@@@Z @ 1358 NONAME ; class QDebug operator<<(class QDebug, class QRegion const &)
	??6@YA?AVQDebug@@V0@ABVQStyleOption@@@Z @ 1359 NONAME ; class QDebug operator<<(class QDebug, class QStyleOption const &)
	??6@YA?AVQDebug@@V0@ABVQTransform@@@Z @ 1360 NONAME ; class QDebug operator<<(class QDebug, class QTransform const &)
	??6@YA?AVQDebug@@V0@ABVQVector2D@@@Z @ 1361 NONAME ; class QDebug operator<<(class QDebug, class QVector2D const &)
	??6@YA?AVQDebug@@V0@ABVQVector3D@@@Z @ 1362 NONAME ; class QDebug operator<<(class QDebug, class QVector3D const &)
	??6@YA?AVQDebug@@V0@ABVQVector4D@@@Z @ 1363 NONAME ; class QDebug operator<<(class QDebug, class QVector4D const &)
	??6@YA?AVQDebug@@V0@ABW4OptionType@QStyleOption@@@Z @ 1364 NONAME ; class QDebug operator<<(class QDebug, enum QStyleOption::OptionType const &)
	??6@YA?AVQDebug@@V0@PAVQGraphicsItem@@@Z @ 1365 NONAME ; class QDebug operator<<(class QDebug, class QGraphicsItem *)
	??6@YA?AVQDebug@@V0@PAVQGraphicsObject@@@Z @ 1366 NONAME ; class QDebug operator<<(class QDebug, class QGraphicsObject *)
	??6@YA?AVQDebug@@V0@PBVQEvent@@@Z @ 1367 NONAME ; class QDebug operator<<(class QDebug, class QEvent const *)
	??6@YA?AVQDebug@@V0@V?$QFlags@W4GraphicsItemFlag@QGraphicsItem@@@@@Z @ 1368 NONAME ; class QDebug operator<<(class QDebug, class QFlags<enum QGraphicsItem::GraphicsItemFlag>)
	??6@YA?AVQDebug@@V0@V?$QFlags@W4StateFlag@QStyle@@@@@Z @ 1369 NONAME ; class QDebug operator<<(class QDebug, class QFlags<enum QStyle::StateFlag>)
	??6@YA?AVQDebug@@V0@W4GraphicsItemChange@QGraphicsItem@@@Z @ 1370 NONAME ; class QDebug operator<<(class QDebug, enum QGraphicsItem::GraphicsItemChange)
	??6@YA?AVQDebug@@V0@W4GraphicsItemFlag@QGraphicsItem@@@Z @ 1371 NONAME ; class QDebug operator<<(class QDebug, enum QGraphicsItem::GraphicsItemFlag)
	??6@YAAAVQDataStream@@AAV0@ABVQBrush@@@Z @ 1372 NONAME ; class QDataStream & operator<<(class QDataStream &, class QBrush const &)
	??6@YAAAVQDataStream@@AAV0@ABVQColor@@@Z @ 1373 NONAME ; class QDataStream & operator<<(class QDataStream &, class QColor const &)
	??6@YAAAVQDataStream@@AAV0@ABVQCursor@@@Z @ 1374 NONAME ; class QDataStream & operator<<(class QDataStream &, class QCursor const &)
	??6@YAAAVQDataStream@@AAV0@ABVQFont@@@Z @ 1375 NONAME ; class QDataStream & operator<<(class QDataStream &, class QFont const &)
	??6@YAAAVQDataStream@@AAV0@ABVQIcon@@@Z @ 1376 NONAME ; class QDataStream & operator<<(class QDataStream &, class QIcon const &)
	??6@YAAAVQDataStream@@AAV0@ABVQImage@@@Z @ 1377 NONAME ; class QDataStream & operator<<(class QDataStream &, class QImage const &)
	??6@YAAAVQDataStream@@AAV0@ABVQKeySequence@@@Z @ 1378 NONAME ; class QDataStream & operator<<(class QDataStream &, class QKeySequence const &)
	??6@YAAAVQDataStream@@AAV0@ABVQListWidgetItem@@@Z @ 1379 NONAME ; class QDataStream & operator<<(class QDataStream &, class QListWidgetItem const &)
	??6@YAAAVQDataStream@@AAV0@ABVQMatrix4x4@@@Z @ 1380 NONAME ; class QDataStream & operator<<(class QDataStream &, class QMatrix4x4 const &)
	??6@YAAAVQDataStream@@AAV0@ABVQMatrix@@@Z @ 1381 NONAME ; class QDataStream & operator<<(class QDataStream &, class QMatrix const &)
	??6@YAAAVQDataStream@@AAV0@ABVQPaintBuffer@@@Z @ 1382 NONAME ; class QDataStream & operator<<(class QDataStream &, class QPaintBuffer const &)
	??6@YAAAVQDataStream@@AAV0@ABVQPainterPath@@@Z @ 1383 NONAME ; class QDataStream & operator<<(class QDataStream &, class QPainterPath const &)
	??6@YAAAVQDataStream@@AAV0@ABVQPalette@@@Z @ 1384 NONAME ; class QDataStream & operator<<(class QDataStream &, class QPalette const &)
	??6@YAAAVQDataStream@@AAV0@ABVQPen@@@Z @ 1385 NONAME ; class QDataStream & operator<<(class QDataStream &, class QPen const &)
	??6@YAAAVQDataStream@@AAV0@ABVQPicture@@@Z @ 1386 NONAME ; class QDataStream & operator<<(class QDataStream &, class QPicture const &)
	??6@YAAAVQDataStream@@AAV0@ABVQPixmap@@@Z @ 1387 NONAME ; class QDataStream & operator<<(class QDataStream &, class QPixmap const &)
	??6@YAAAVQDataStream@@AAV0@ABVQPolygon@@@Z @ 1388 NONAME ; class QDataStream & operator<<(class QDataStream &, class QPolygon const &)
	??6@YAAAVQDataStream@@AAV0@ABVQPolygonF@@@Z @ 1389 NONAME ; class QDataStream & operator<<(class QDataStream &, class QPolygonF const &)
	??6@YAAAVQDataStream@@AAV0@ABVQQuaternion@@@Z @ 1390 NONAME ; class QDataStream & operator<<(class QDataStream &, class QQuaternion const &)
	??6@YAAAVQDataStream@@AAV0@ABVQRegion@@@Z @ 1391 NONAME ; class QDataStream & operator<<(class QDataStream &, class QRegion const &)
	??6@YAAAVQDataStream@@AAV0@ABVQSizePolicy@@@Z @ 1392 NONAME ; class QDataStream & operator<<(class QDataStream &, class QSizePolicy const &)
	??6@YAAAVQDataStream@@AAV0@ABVQStandardItem@@@Z @ 1393 NONAME ; class QDataStream & operator<<(class QDataStream &, class QStandardItem const &)
	??6@YAAAVQDataStream@@AAV0@ABVQTableWidgetItem@@@Z @ 1394 NONAME ; class QDataStream & operator<<(class QDataStream &, class QTableWidgetItem const &)
	??6@YAAAVQDataStream@@AAV0@ABVQTextFormat@@@Z @ 1395 NONAME ; class QDataStream & operator<<(class QDataStream &, class QTextFormat const &)
	??6@YAAAVQDataStream@@AAV0@ABVQTextLength@@@Z @ 1396 NONAME ; class QDataStream & operator<<(class QDataStream &, class QTextLength const &)
	??6@YAAAVQDataStream@@AAV0@ABVQTransform@@@Z @ 1397 NONAME ; class QDataStream & operator<<(class QDataStream &, class QTransform const &)
	??6@YAAAVQDataStream@@AAV0@ABVQTreeWidgetItem@@@Z @ 1398 NONAME ; class QDataStream & operator<<(class QDataStream &, class QTreeWidgetItem const &)
	??6@YAAAVQDataStream@@AAV0@ABVQVector2D@@@Z @ 1399 NONAME ; class QDataStream & operator<<(class QDataStream &, class QVector2D const &)
	??6@YAAAVQDataStream@@AAV0@ABVQVector3D@@@Z @ 1400 NONAME ; class QDataStream & operator<<(class QDataStream &, class QVector3D const &)
	??6@YAAAVQDataStream@@AAV0@ABVQVector4D@@@Z @ 1401 NONAME ; class QDataStream & operator<<(class QDataStream &, class QVector4D const &)
	??6@YAAAVQDebug@@AAV0@ABVQVectorPath@@@Z @ 1402 NONAME ; class QDebug & operator<<(class QDebug &, class QVectorPath const &)
	??6@YAAAVQTextStream@@AAV0@ABVQSplitter@@@Z @ 1403 NONAME ; class QTextStream & operator<<(class QTextStream &, class QSplitter const &)
	??7QPixmap@@QBE_NXZ @ 1404 NONAME ; bool QPixmap::operator!(void) const
	??8Key@QPixmapCache@@QBE_NABV01@@Z @ 1405 NONAME ; bool QPixmapCache::Key::operator==(class QPixmapCache::Key const &) const
	??8QBrush@@QBE_NABV0@@Z @ 1406 NONAME ; bool QBrush::operator==(class QBrush const &) const
	??8QColor@@QBE_NABV0@@Z @ 1407 NONAME ; bool QColor::operator==(class QColor const &) const
	??8QFont@@QBE_NABV0@@Z @ 1408 NONAME ; bool QFont::operator==(class QFont const &) const
	??8QFontMetrics@@QAE_NABV0@@Z @ 1409 NONAME ; bool QFontMetrics::operator==(class QFontMetrics const &)
	??8QFontMetrics@@QBE_NABV0@@Z @ 1410 NONAME ; bool QFontMetrics::operator==(class QFontMetrics const &) const
	??8QFontMetricsF@@QAE_NABV0@@Z @ 1411 NONAME ; bool QFontMetricsF::operator==(class QFontMetricsF const &)
	??8QFontMetricsF@@QBE_NABV0@@Z @ 1412 NONAME ; bool QFontMetricsF::operator==(class QFontMetricsF const &) const
	??8QGradient@@QAE_NABV0@@Z @ 1413 NONAME ; bool QGradient::operator==(class QGradient const &)
	??8QGradient@@QBE_NABV0@@Z @ 1414 NONAME ; bool QGradient::operator==(class QGradient const &) const
	??8QImage@@QBE_NABV0@@Z @ 1415 NONAME ; bool QImage::operator==(class QImage const &) const
	??8QImageTextKeyLang@@QBE_NABV0@@Z @ 1416 NONAME ; bool QImageTextKeyLang::operator==(class QImageTextKeyLang const &) const
	??8QItemSelectionRange@@QBE_NABV0@@Z @ 1417 NONAME ; bool QItemSelectionRange::operator==(class QItemSelectionRange const &) const
	??8QKeySequence@@QBE_NABV0@@Z @ 1418 NONAME ; bool QKeySequence::operator==(class QKeySequence const &) const
	??8QMatrix4x4@@QBE_NABV0@@Z @ 1419 NONAME ; bool QMatrix4x4::operator==(class QMatrix4x4 const &) const
	??8QMatrix@@QBE_NABV0@@Z @ 1420 NONAME ; bool QMatrix::operator==(class QMatrix const &) const
	??8QPainterPath@@QBE_NABV0@@Z @ 1421 NONAME ; bool QPainterPath::operator==(class QPainterPath const &) const
	??8QPalette@@QBE_NABV0@@Z @ 1422 NONAME ; bool QPalette::operator==(class QPalette const &) const
	??8QPen@@QBE_NABV0@@Z @ 1423 NONAME ; bool QPen::operator==(class QPen const &) const
	??8QRegion@@QBE_NABV0@@Z @ 1424 NONAME ; bool QRegion::operator==(class QRegion const &) const
	??8QSizePolicy@@QBE_NABV0@@Z @ 1425 NONAME ; bool QSizePolicy::operator==(class QSizePolicy const &) const
	??8QTextBlock@@QBE_NABV0@@Z @ 1426 NONAME ; bool QTextBlock::operator==(class QTextBlock const &) const
	??8QTextCursor@@QBE_NABV0@@Z @ 1427 NONAME ; bool QTextCursor::operator==(class QTextCursor const &) const
	??8QTextFormat@@QBE_NABV0@@Z @ 1428 NONAME ; bool QTextFormat::operator==(class QTextFormat const &) const
	??8QTextFragment@@QBE_NABV0@@Z @ 1429 NONAME ; bool QTextFragment::operator==(class QTextFragment const &) const
	??8QTextLength@@QBE_NABV0@@Z @ 1430 NONAME ; bool QTextLength::operator==(class QTextLength const &) const
	??8QTextTableCell@@QBE_NABV0@@Z @ 1431 NONAME ; bool QTextTableCell::operator==(class QTextTableCell const &) const
	??8QTransform@@QBE_NABV0@@Z @ 1432 NONAME ; bool QTransform::operator==(class QTransform const &) const
	??8Tab@QTextOption@@QBE_NABU01@@Z @ 1433 NONAME ; bool QTextOption::Tab::operator==(struct QTextOption::Tab const &) const
	??8iterator@QTextBlock@@QBE_NABV01@@Z @ 1434 NONAME ; bool QTextBlock::iterator::operator==(class QTextBlock::iterator const &) const
	??8iterator@QTextFrame@@QBE_NABV01@@Z @ 1435 NONAME ; bool QTextFrame::iterator::operator==(class QTextFrame::iterator const &) const
	??9Key@QPixmapCache@@QBE_NABV01@@Z @ 1436 NONAME ; bool QPixmapCache::Key::operator!=(class QPixmapCache::Key const &) const
	??9QBrush@@QBE_NABV0@@Z @ 1437 NONAME ; bool QBrush::operator!=(class QBrush const &) const
	??9QColor@@QBE_NABV0@@Z @ 1438 NONAME ; bool QColor::operator!=(class QColor const &) const
	??9QFont@@QBE_NABV0@@Z @ 1439 NONAME ; bool QFont::operator!=(class QFont const &) const
	??9QFontMetrics@@QAE_NABV0@@Z @ 1440 NONAME ; bool QFontMetrics::operator!=(class QFontMetrics const &)
	??9QFontMetrics@@QBE_NABV0@@Z @ 1441 NONAME ; bool QFontMetrics::operator!=(class QFontMetrics const &) const
	??9QFontMetricsF@@QAE_NABV0@@Z @ 1442 NONAME ; bool QFontMetricsF::operator!=(class QFontMetricsF const &)
	??9QFontMetricsF@@QBE_NABV0@@Z @ 1443 NONAME ; bool QFontMetricsF::operator!=(class QFontMetricsF const &) const
	??9QGradient@@QBE_NABV0@@Z @ 1444 NONAME ; bool QGradient::operator!=(class QGradient const &) const
	??9QImage@@QBE_NABV0@@Z @ 1445 NONAME ; bool QImage::operator!=(class QImage const &) const
	??9QImageTextKeyLang@@QBE_NABV0@@Z @ 1446 NONAME ; bool QImageTextKeyLang::operator!=(class QImageTextKeyLang const &) const
	??9QItemSelectionRange@@QBE_NABV0@@Z @ 1447 NONAME ; bool QItemSelectionRange::operator!=(class QItemSelectionRange const &) const
	??9QKeySequence@@QBE_NABV0@@Z @ 1448 NONAME ; bool QKeySequence::operator!=(class QKeySequence const &) const
	??9QMatrix4x4@@QBE_NABV0@@Z @ 1449 NONAME ; bool QMatrix4x4::operator!=(class QMatrix4x4 const &) const
	??9QMatrix@@QBE_NABV0@@Z @ 1450 NONAME ; bool QMatrix::operator!=(class QMatrix const &) const
	??9QPainterPath@@QBE_NABV0@@Z @ 1451 NONAME ; bool QPainterPath::operator!=(class QPainterPath const &) const
	??9QPalette@@QBE_NABV0@@Z @ 1452 NONAME ; bool QPalette::operator!=(class QPalette const &) const
	??9QPen@@QBE_NABV0@@Z @ 1453 NONAME ; bool QPen::operator!=(class QPen const &) const
	??9QRegion@@QBE_NABV0@@Z @ 1454 NONAME ; bool QRegion::operator!=(class QRegion const &) const
	??9QSizePolicy@@QBE_NABV0@@Z @ 1455 NONAME ; bool QSizePolicy::operator!=(class QSizePolicy const &) const
	??9QTextBlock@@QBE_NABV0@@Z @ 1456 NONAME ; bool QTextBlock::operator!=(class QTextBlock const &) const
	??9QTextCursor@@QBE_NABV0@@Z @ 1457 NONAME ; bool QTextCursor::operator!=(class QTextCursor const &) const
	??9QTextFormat@@QBE_NABV0@@Z @ 1458 NONAME ; bool QTextFormat::operator!=(class QTextFormat const &) const
	??9QTextFragment@@QBE_NABV0@@Z @ 1459 NONAME ; bool QTextFragment::operator!=(class QTextFragment const &) const
	??9QTextLength@@QBE_NABV0@@Z @ 1460 NONAME ; bool QTextLength::operator!=(class QTextLength const &) const
	??9QTextTableCell@@QBE_NABV0@@Z @ 1461 NONAME ; bool QTextTableCell::operator!=(class QTextTableCell const &) const
	??9QTransform@@QBE_NABV0@@Z @ 1462 NONAME ; bool QTransform::operator!=(class QTransform const &) const
	??9Tab@QTextOption@@QBE_NABU01@@Z @ 1463 NONAME ; bool QTextOption::Tab::operator!=(struct QTextOption::Tab const &) const
	??9iterator@QTextBlock@@QBE_NABV01@@Z @ 1464 NONAME ; bool QTextBlock::iterator::operator!=(class QTextBlock::iterator const &) const
	??9iterator@QTextFrame@@QBE_NABV01@@Z @ 1465 NONAME ; bool QTextFrame::iterator::operator!=(class QTextFrame::iterator const &) const
	??AQKeySequence@@QBEHI@Z @ 1466 NONAME ; int QKeySequence::operator[](unsigned int) const
	??BQBitmap@@QBE?AVQVariant@@XZ @ 1467 NONAME ; QBitmap::operator class QVariant(void) const
	??BQBrush@@QBE?AVQVariant@@XZ @ 1468 NONAME ; QBrush::operator class QVariant(void) const
	??BQColor@@QBE?AVQVariant@@XZ @ 1469 NONAME ; QColor::operator class QVariant(void) const
	??BQCursor@@QBE?AVQVariant@@XZ @ 1470 NONAME ; QCursor::operator class QVariant(void) const
	??BQFont@@QBE?AVQVariant@@XZ @ 1471 NONAME ; QFont::operator class QVariant(void) const
	??BQIcon@@QBE?AVQVariant@@XZ @ 1472 NONAME ; QIcon::operator class QVariant(void) const
	??BQImage@@QBE?AVQVariant@@XZ @ 1473 NONAME ; QImage::operator class QVariant(void) const
	??BQKeySequence@@QBE?AVQString@@XZ @ 1474 NONAME ; QKeySequence::operator class QString(void) const
	??BQKeySequence@@QBE?AVQVariant@@XZ @ 1475 NONAME ; QKeySequence::operator class QVariant(void) const
	??BQKeySequence@@QBEHXZ @ 1476 NONAME ; QKeySequence::operator int(void) const
	??BQMatrix4x4@@QBE?AVQVariant@@XZ @ 1477 NONAME ; QMatrix4x4::operator class QVariant(void) const
	??BQMatrix@@QBE?AVQVariant@@XZ @ 1478 NONAME ; QMatrix::operator class QVariant(void) const
	??BQPalette@@QBE?AVQVariant@@XZ @ 1479 NONAME ; QPalette::operator class QVariant(void) const
	??BQPen@@QBE?AVQVariant@@XZ @ 1480 NONAME ; QPen::operator class QVariant(void) const
	??BQPixmap@@QBE?AVQVariant@@XZ @ 1481 NONAME ; QPixmap::operator class QVariant(void) const
	??BQPolygon@@QBE?AVQVariant@@XZ @ 1482 NONAME ; QPolygon::operator class QVariant(void) const
	??BQQuaternion@@QBE?AVQVariant@@XZ @ 1483 NONAME ; QQuaternion::operator class QVariant(void) const
	??BQRegion@@QBE?AVQVariant@@XZ @ 1484 NONAME ; QRegion::operator class QVariant(void) const
	??BQSizePolicy@@QBE?AVQVariant@@XZ @ 1485 NONAME ; QSizePolicy::operator class QVariant(void) const
	??BQTextFormat@@QBE?AVQVariant@@XZ @ 1486 NONAME ; QTextFormat::operator class QVariant(void) const
	??BQTextLength@@QBE?AVQVariant@@XZ @ 1487 NONAME ; QTextLength::operator class QVariant(void) const
	??BQTransform@@QBE?AVQVariant@@XZ @ 1488 NONAME ; QTransform::operator class QVariant(void) const
	??BQVector2D@@QBE?AVQVariant@@XZ @ 1489 NONAME ; QVector2D::operator class QVariant(void) const
	??BQVector3D@@QBE?AVQVariant@@XZ @ 1490 NONAME ; QVector3D::operator class QVariant(void) const
	??BQVector4D@@QBE?AVQVariant@@XZ @ 1491 NONAME ; QVector4D::operator class QVariant(void) const
	??D@YA?AVQLine@@ABV0@ABVQMatrix@@@Z @ 1492 NONAME ; class QLine operator*(class QLine const &, class QMatrix const &)
	??D@YA?AVQLine@@ABV0@ABVQTransform@@@Z @ 1493 NONAME ; class QLine operator*(class QLine const &, class QTransform const &)
	??D@YA?AVQLineF@@ABV0@ABVQMatrix@@@Z @ 1494 NONAME ; class QLineF operator*(class QLineF const &, class QMatrix const &)
	??D@YA?AVQLineF@@ABV0@ABVQTransform@@@Z @ 1495 NONAME ; class QLineF operator*(class QLineF const &, class QTransform const &)
	??D@YA?AVQPainterPath@@ABV0@ABVQMatrix@@@Z @ 1496 NONAME ; class QPainterPath operator*(class QPainterPath const &, class QMatrix const &)
	??D@YA?AVQPainterPath@@ABV0@ABVQTransform@@@Z @ 1497 NONAME ; class QPainterPath operator*(class QPainterPath const &, class QTransform const &)
	??D@YA?AVQPoint@@ABV0@ABVQMatrix@@@Z @ 1498 NONAME ; class QPoint operator*(class QPoint const &, class QMatrix const &)
	??D@YA?AVQPoint@@ABV0@ABVQTransform@@@Z @ 1499 NONAME ; class QPoint operator*(class QPoint const &, class QTransform const &)
	??D@YA?AVQPointF@@ABV0@ABVQMatrix@@@Z @ 1500 NONAME ; class QPointF operator*(class QPointF const &, class QMatrix const &)
	??D@YA?AVQPointF@@ABV0@ABVQTransform@@@Z @ 1501 NONAME ; class QPointF operator*(class QPointF const &, class QTransform const &)
	??D@YA?AVQPolygon@@ABV0@ABVQMatrix@@@Z @ 1502 NONAME ; class QPolygon operator*(class QPolygon const &, class QMatrix const &)
	??D@YA?AVQPolygon@@ABV0@ABVQTransform@@@Z @ 1503 NONAME ; class QPolygon operator*(class QPolygon const &, class QTransform const &)
	??D@YA?AVQPolygonF@@ABV0@ABVQMatrix@@@Z @ 1504 NONAME ; class QPolygonF operator*(class QPolygonF const &, class QMatrix const &)
	??D@YA?AVQPolygonF@@ABV0@ABVQTransform@@@Z @ 1505 NONAME ; class QPolygonF operator*(class QPolygonF const &, class QTransform const &)
	??D@YA?AVQRegion@@ABV0@ABVQMatrix@@@Z @ 1506 NONAME ; class QRegion operator*(class QRegion const &, class QMatrix const &)
	??D@YA?AVQRegion@@ABV0@ABVQTransform@@@Z @ 1507 NONAME ; class QRegion operator*(class QRegion const &, class QTransform const &)
	??D@YA?AVQTransform@@ABV0@M@Z @ 1508 NONAME ; class QTransform operator*(class QTransform const &, float)
	??DQMatrix@@QBE?AV0@ABV0@@Z @ 1509 NONAME ; class QMatrix QMatrix::operator*(class QMatrix const &) const
	??DQTransform@@QBE?AV0@ABV0@@Z @ 1510 NONAME ; class QTransform QTransform::operator*(class QTransform const &) const
	??DQTreeWidgetItemIterator@@QBEPAVQTreeWidgetItem@@XZ @ 1511 NONAME ; class QTreeWidgetItem * QTreeWidgetItemIterator::operator*(void) const
	??EQTreeWidgetItemIterator@@QAE?BV0@H@Z @ 1512 NONAME ; class QTreeWidgetItemIterator const QTreeWidgetItemIterator::operator++(int)
	??EQTreeWidgetItemIterator@@QAEAAV0@XZ @ 1513 NONAME ; class QTreeWidgetItemIterator & QTreeWidgetItemIterator::operator++(void)
	??Eiterator@QTextBlock@@QAE?AV01@H@Z @ 1514 NONAME ; class QTextBlock::iterator QTextBlock::iterator::operator++(int)
	??Eiterator@QTextBlock@@QAEAAV01@XZ @ 1515 NONAME ; class QTextBlock::iterator & QTextBlock::iterator::operator++(void)
	??Eiterator@QTextFrame@@QAE?AV01@H@Z @ 1516 NONAME ; class QTextFrame::iterator QTextFrame::iterator::operator++(int)
	??Eiterator@QTextFrame@@QAEAAV01@XZ @ 1517 NONAME ; class QTextFrame::iterator & QTextFrame::iterator::operator++(void)
	??FQTreeWidgetItemIterator@@QAE?BV0@H@Z @ 1518 NONAME ; class QTreeWidgetItemIterator const QTreeWidgetItemIterator::operator--(int)
	??FQTreeWidgetItemIterator@@QAEAAV0@XZ @ 1519 NONAME ; class QTreeWidgetItemIterator & QTreeWidgetItemIterator::operator--(void)
	??Fiterator@QTextBlock@@QAE?AV01@H@Z @ 1520 NONAME ; class QTextBlock::iterator QTextBlock::iterator::operator--(int)
	??Fiterator@QTextBlock@@QAEAAV01@XZ @ 1521 NONAME ; class QTextBlock::iterator & QTextBlock::iterator::operator--(void)
	??Fiterator@QTextFrame@@QAE?AV01@H@Z @ 1522 NONAME ; class QTextFrame::iterator QTextFrame::iterator::operator--(int)
	??Fiterator@QTextFrame@@QAEAAV01@XZ @ 1523 NONAME ; class QTextFrame::iterator & QTextFrame::iterator::operator--(void)
	??G@YA?AVQTransform@@ABV0@M@Z @ 1524 NONAME ; class QTransform operator-(class QTransform const &, float)
	??GQPainterPath@@QBE?AV0@ABV0@@Z @ 1525 NONAME ; class QPainterPath QPainterPath::operator-(class QPainterPath const &) const
	??GQRegion@@QBE?BV0@ABV0@@Z @ 1526 NONAME ; class QRegion const QRegion::operator-(class QRegion const &) const
	??H@YA?AVQTransform@@ABV0@M@Z @ 1527 NONAME ; class QTransform operator+(class QTransform const &, float)
	??HQPainterPath@@QBE?AV0@ABV0@@Z @ 1528 NONAME ; class QPainterPath QPainterPath::operator+(class QPainterPath const &) const
	??HQRegion@@QBE?BV0@ABV0@@Z @ 1529 NONAME ; class QRegion const QRegion::operator+(class QRegion const &) const
	??HQRegion@@QBE?BV0@ABVQRect@@@Z @ 1530 NONAME ; class QRegion const QRegion::operator+(class QRect const &) const
	??IQPainterPath@@QBE?AV0@ABV0@@Z @ 1531 NONAME ; class QPainterPath QPainterPath::operator&(class QPainterPath const &) const
	??IQRegion@@QBE?BV0@ABV0@@Z @ 1532 NONAME ; class QRegion const QRegion::operator&(class QRegion const &) const
	??IQRegion@@QBE?BV0@ABVQRect@@@Z @ 1533 NONAME ; class QRegion const QRegion::operator&(class QRect const &) const
	??K@YA?AVQMatrix4x4@@ABV0@M@Z @ 1534 NONAME ; class QMatrix4x4 operator/(class QMatrix4x4 const &, float)
	??K@YA?AVQTransform@@ABV0@M@Z @ 1535 NONAME ; class QTransform operator/(class QTransform const &, float)
	??MQFont@@QBE_NABV0@@Z @ 1536 NONAME ; bool QFont::operator<(class QFont const &) const
	??MQImageTextKeyLang@@QBE_NABV0@@Z @ 1537 NONAME ; bool QImageTextKeyLang::operator<(class QImageTextKeyLang const &) const
	??MQKeySequence@@QBE_NABV0@@Z @ 1538 NONAME ; bool QKeySequence::operator<(class QKeySequence const &) const
	??MQListWidgetItem@@UBE_NABV0@@Z @ 1539 NONAME ; bool QListWidgetItem::operator<(class QListWidgetItem const &) const
	??MQStandardItem@@UBE_NABV0@@Z @ 1540 NONAME ; bool QStandardItem::operator<(class QStandardItem const &) const
	??MQTableWidgetItem@@UBE_NABV0@@Z @ 1541 NONAME ; bool QTableWidgetItem::operator<(class QTableWidgetItem const &) const
	??MQTextBlock@@QBE_NABV0@@Z @ 1542 NONAME ; bool QTextBlock::operator<(class QTextBlock const &) const
	??MQTextCursor@@QBE_NABV0@@Z @ 1543 NONAME ; bool QTextCursor::operator<(class QTextCursor const &) const
	??MQTextFragment@@QBE_NABV0@@Z @ 1544 NONAME ; bool QTextFragment::operator<(class QTextFragment const &) const
	??MQTreeWidgetItem@@UBE_NABV0@@Z @ 1545 NONAME ; bool QTreeWidgetItem::operator<(class QTreeWidgetItem const &) const
	??NQKeySequence@@QBE_NABV0@@Z @ 1546 NONAME ; bool QKeySequence::operator<=(class QKeySequence const &) const
	??NQTextCursor@@QBE_NABV0@@Z @ 1547 NONAME ; bool QTextCursor::operator<=(class QTextCursor const &) const
	??OQKeySequence@@QBE_NABV0@@Z @ 1548 NONAME ; bool QKeySequence::operator>(class QKeySequence const &) const
	??OQTextCursor@@QBE_NABV0@@Z @ 1549 NONAME ; bool QTextCursor::operator>(class QTextCursor const &) const
	??PQKeySequence@@QBE_NABV0@@Z @ 1550 NONAME ; bool QKeySequence::operator>=(class QKeySequence const &) const
	??PQTextCursor@@QBE_NABV0@@Z @ 1551 NONAME ; bool QTextCursor::operator>=(class QTextCursor const &) const
	??RQMatrix4x4@@QAEAAMHH@Z @ 1552 NONAME ; float & QMatrix4x4::operator()(int, int)
	??RQMatrix4x4@@QBEABMHH@Z @ 1553 NONAME ; float const & QMatrix4x4::operator()(int, int) const
	??TQRegion@@QBE?BV0@ABV0@@Z @ 1554 NONAME ; class QRegion const QRegion::operator^(class QRegion const &) const
	??UQPainterPath@@QBE?AV0@ABV0@@Z @ 1555 NONAME ; class QPainterPath QPainterPath::operator|(class QPainterPath const &) const
	??UQRegion@@QBE?BV0@ABV0@@Z @ 1556 NONAME ; class QRegion const QRegion::operator|(class QRegion const &) const
	??XQMatrix4x4@@QAEAAV0@ABV0@@Z @ 1557 NONAME ; class QMatrix4x4 & QMatrix4x4::operator*=(class QMatrix4x4 const &)
	??XQMatrix4x4@@QAEAAV0@M@Z @ 1558 NONAME ; class QMatrix4x4 & QMatrix4x4::operator*=(float)
	??XQMatrix@@QAEAAV0@ABV0@@Z @ 1559 NONAME ; class QMatrix & QMatrix::operator*=(class QMatrix const &)
	??XQQuaternion@@QAEAAV0@ABV0@@Z @ 1560 NONAME ; class QQuaternion & QQuaternion::operator*=(class QQuaternion const &)
	??XQQuaternion@@QAEAAV0@M@Z @ 1561 NONAME ; class QQuaternion & QQuaternion::operator*=(float)
	??XQTransform@@QAEAAV0@ABV0@@Z @ 1562 NONAME ; class QTransform & QTransform::operator*=(class QTransform const &)
	??XQTransform@@QAEAAV0@M@Z @ 1563 NONAME ; class QTransform & QTransform::operator*=(float)
	??XQVector2D@@QAEAAV0@ABV0@@Z @ 1564 NONAME ; class QVector2D & QVector2D::operator*=(class QVector2D const &)
	??XQVector2D@@QAEAAV0@M@Z @ 1565 NONAME ; class QVector2D & QVector2D::operator*=(float)
	??XQVector3D@@QAEAAV0@ABV0@@Z @ 1566 NONAME ; class QVector3D & QVector3D::operator*=(class QVector3D const &)
	??XQVector3D@@QAEAAV0@M@Z @ 1567 NONAME ; class QVector3D & QVector3D::operator*=(float)
	??XQVector4D@@QAEAAV0@ABV0@@Z @ 1568 NONAME ; class QVector4D & QVector4D::operator*=(class QVector4D const &)
	??XQVector4D@@QAEAAV0@M@Z @ 1569 NONAME ; class QVector4D & QVector4D::operator*=(float)
	??YQMatrix4x4@@QAEAAV0@ABV0@@Z @ 1570 NONAME ; class QMatrix4x4 & QMatrix4x4::operator+=(class QMatrix4x4 const &)
	??YQPainterPath@@QAEAAV0@ABV0@@Z @ 1571 NONAME ; class QPainterPath & QPainterPath::operator+=(class QPainterPath const &)
	??YQQuaternion@@QAEAAV0@ABV0@@Z @ 1572 NONAME ; class QQuaternion & QQuaternion::operator+=(class QQuaternion const &)
	??YQRegion@@QAEAAV0@ABV0@@Z @ 1573 NONAME ; class QRegion & QRegion::operator+=(class QRegion const &)
	??YQRegion@@QAEAAV0@ABVQRect@@@Z @ 1574 NONAME ; class QRegion & QRegion::operator+=(class QRect const &)
	??YQTransform@@QAEAAV0@M@Z @ 1575 NONAME ; class QTransform & QTransform::operator+=(float)
	??YQTreeWidgetItemIterator@@QAEAAV0@H@Z @ 1576 NONAME ; class QTreeWidgetItemIterator & QTreeWidgetItemIterator::operator+=(int)
	??YQVector2D@@QAEAAV0@ABV0@@Z @ 1577 NONAME ; class QVector2D & QVector2D::operator+=(class QVector2D const &)
	??YQVector3D@@QAEAAV0@ABV0@@Z @ 1578 NONAME ; class QVector3D & QVector3D::operator+=(class QVector3D const &)
	??YQVector4D@@QAEAAV0@ABV0@@Z @ 1579 NONAME ; class QVector4D & QVector4D::operator+=(class QVector4D const &)
	??ZQMatrix4x4@@QAEAAV0@ABV0@@Z @ 1580 NONAME ; class QMatrix4x4 & QMatrix4x4::operator-=(class QMatrix4x4 const &)
	??ZQPainterPath@@QAEAAV0@ABV0@@Z @ 1581 NONAME ; class QPainterPath & QPainterPath::operator-=(class QPainterPath const &)
	??ZQQuaternion@@QAEAAV0@ABV0@@Z @ 1582 NONAME ; class QQuaternion & QQuaternion::operator-=(class QQuaternion const &)
	??ZQRegion@@QAEAAV0@ABV0@@Z @ 1583 NONAME ; class QRegion & QRegion::operator-=(class QRegion const &)
	??ZQTransform@@QAEAAV0@M@Z @ 1584 NONAME ; class QTransform & QTransform::operator-=(float)
	??ZQTreeWidgetItemIterator@@QAEAAV0@H@Z @ 1585 NONAME ; class QTreeWidgetItemIterator & QTreeWidgetItemIterator::operator-=(int)
	??ZQVector2D@@QAEAAV0@ABV0@@Z @ 1586 NONAME ; class QVector2D & QVector2D::operator-=(class QVector2D const &)
	??ZQVector3D@@QAEAAV0@ABV0@@Z @ 1587 NONAME ; class QVector3D & QVector3D::operator-=(class QVector3D const &)
	??ZQVector4D@@QAEAAV0@ABV0@@Z @ 1588 NONAME ; class QVector4D & QVector4D::operator-=(class QVector4D const &)
	??_0QMatrix4x4@@QAEAAV0@M@Z @ 1589 NONAME ; class QMatrix4x4 & QMatrix4x4::operator/=(float)
	??_0QQuaternion@@QAEAAV0@M@Z @ 1590 NONAME ; class QQuaternion & QQuaternion::operator/=(float)
	??_0QTransform@@QAEAAV0@M@Z @ 1591 NONAME ; class QTransform & QTransform::operator/=(float)
	??_0QVector2D@@QAEAAV0@M@Z @ 1592 NONAME ; class QVector2D & QVector2D::operator/=(float)
	??_0QVector3D@@QAEAAV0@M@Z @ 1593 NONAME ; class QVector3D & QVector3D::operator/=(float)
	??_0QVector4D@@QAEAAV0@M@Z @ 1594 NONAME ; class QVector4D & QVector4D::operator/=(float)
	??_4QPainterPath@@QAEAAV0@ABV0@@Z @ 1595 NONAME ; class QPainterPath & QPainterPath::operator&=(class QPainterPath const &)
	??_4QRegion@@QAEAAV0@ABV0@@Z @ 1596 NONAME ; class QRegion & QRegion::operator&=(class QRegion const &)
	??_4QRegion@@QAEAAV0@ABVQRect@@@Z @ 1597 NONAME ; class QRegion & QRegion::operator&=(class QRect const &)
	??_5QPainterPath@@QAEAAV0@ABV0@@Z @ 1598 NONAME ; class QPainterPath & QPainterPath::operator|=(class QPainterPath const &)
	??_5QRegion@@QAEAAV0@ABV0@@Z @ 1599 NONAME ; class QRegion & QRegion::operator|=(class QRegion const &)
	??_6QRegion@@QAEAAV0@ABV0@@Z @ 1600 NONAME ; class QRegion & QRegion::operator^=(class QRegion const &)
	??_EQAbstractButton@@UAE@I@Z @ 1601 NONAME ; QAbstractButton::~QAbstractButton(unsigned int)
	??_EQAbstractGraphicsShapeItem@@UAE@I@Z @ 1602 NONAME ; QAbstractGraphicsShapeItem::~QAbstractGraphicsShapeItem(unsigned int)
	??_EQAbstractItemDelegate@@UAE@I@Z @ 1603 NONAME ; QAbstractItemDelegate::~QAbstractItemDelegate(unsigned int)
	??_EQAbstractItemView@@UAE@I@Z @ 1604 NONAME ; QAbstractItemView::~QAbstractItemView(unsigned int)
	??_EQAbstractProxyModel@@UAE@I@Z @ 1605 NONAME ; QAbstractProxyModel::~QAbstractProxyModel(unsigned int)
	??_EQAbstractScrollArea@@UAE@I@Z @ 1606 NONAME ; QAbstractScrollArea::~QAbstractScrollArea(unsigned int)
	??_EQAbstractSlider@@UAE@I@Z @ 1607 NONAME ; QAbstractSlider::~QAbstractSlider(unsigned int)
	??_EQAbstractSpinBox@@UAE@I@Z @ 1608 NONAME ; QAbstractSpinBox::~QAbstractSpinBox(unsigned int)
	??_EQAbstractTextDocumentLayout@@UAE@I@Z @ 1609 NONAME ; QAbstractTextDocumentLayout::~QAbstractTextDocumentLayout(unsigned int)
	??_EQAbstractUndoItem@@UAE@I@Z @ 1610 NONAME ; QAbstractUndoItem::~QAbstractUndoItem(unsigned int)
	??_EQAction@@UAE@I@Z @ 1611 NONAME ; QAction::~QAction(unsigned int)
	??_EQActionEvent@@UAE@I@Z @ 1612 NONAME ; QActionEvent::~QActionEvent(unsigned int)
	??_EQActionGroup@@UAE@I@Z @ 1613 NONAME ; QActionGroup::~QActionGroup(unsigned int)
	??_EQApplication@@UAE@I@Z @ 1614 NONAME ; QApplication::~QApplication(unsigned int)
	??_EQApplicationPrivate@@UAE@I@Z @ 1615 NONAME ; QApplicationPrivate::~QApplicationPrivate(unsigned int)
	??_EQBitmap@@UAE@I@Z @ 1616 NONAME ; QBitmap::~QBitmap(unsigned int)
	??_EQBoxLayout@@UAE@I@Z @ 1617 NONAME ; QBoxLayout::~QBoxLayout(unsigned int)
	??_EQButtonGroup@@UAE@I@Z @ 1618 NONAME ; QButtonGroup::~QButtonGroup(unsigned int)
	??_EQCalendarWidget@@UAE@I@Z @ 1619 NONAME ; QCalendarWidget::~QCalendarWidget(unsigned int)
	??_EQCheckBox@@UAE@I@Z @ 1620 NONAME ; QCheckBox::~QCheckBox(unsigned int)
	??_EQClipboard@@UAE@I@Z @ 1621 NONAME ; QClipboard::~QClipboard(unsigned int)
	??_EQClipboardEvent@@UAE@I@Z @ 1622 NONAME ; QClipboardEvent::~QClipboardEvent(unsigned int)
	??_EQCloseEvent@@UAE@I@Z @ 1623 NONAME ; QCloseEvent::~QCloseEvent(unsigned int)
	??_EQColorDialog@@UAE@I@Z @ 1624 NONAME ; QColorDialog::~QColorDialog(unsigned int)
	??_EQColumnView@@UAE@I@Z @ 1625 NONAME ; QColumnView::~QColumnView(unsigned int)
	??_EQComboBox@@UAE@I@Z @ 1626 NONAME ; QComboBox::~QComboBox(unsigned int)
	??_EQCommandLinkButton@@UAE@I@Z @ 1627 NONAME ; QCommandLinkButton::~QCommandLinkButton(unsigned int)
	??_EQCommonStyle@@UAE@I@Z @ 1628 NONAME ; QCommonStyle::~QCommonStyle(unsigned int)
	??_EQCompleter@@UAE@I@Z @ 1629 NONAME ; QCompleter::~QCompleter(unsigned int)
	??_EQContextMenuEvent@@UAE@I@Z @ 1630 NONAME ; QContextMenuEvent::~QContextMenuEvent(unsigned int)
	??_EQDashStroker@@UAE@I@Z @ 1631 NONAME ; QDashStroker::~QDashStroker(unsigned int)
	??_EQDataWidgetMapper@@UAE@I@Z @ 1632 NONAME ; QDataWidgetMapper::~QDataWidgetMapper(unsigned int)
	??_EQDateEdit@@UAE@I@Z @ 1633 NONAME ; QDateEdit::~QDateEdit(unsigned int)
	??_EQDateTimeEdit@@UAE@I@Z @ 1634 NONAME ; QDateTimeEdit::~QDateTimeEdit(unsigned int)
	??_EQDesktopWidget@@UAE@I@Z @ 1635 NONAME ; QDesktopWidget::~QDesktopWidget(unsigned int)
	??_EQDial@@UAE@I@Z @ 1636 NONAME ; QDial::~QDial(unsigned int)
	??_EQDialog@@UAE@I@Z @ 1637 NONAME ; QDialog::~QDialog(unsigned int)
	??_EQDialogButtonBox@@UAE@I@Z @ 1638 NONAME ; QDialogButtonBox::~QDialogButtonBox(unsigned int)
	??_EQDirModel@@UAE@I@Z @ 1639 NONAME ; QDirModel::~QDirModel(unsigned int)
	??_EQDockWidget@@UAE@I@Z @ 1640 NONAME ; QDockWidget::~QDockWidget(unsigned int)
	??_EQDockWidgetLayout@@UAE@I@Z @ 1641 NONAME ; QDockWidgetLayout::~QDockWidgetLayout(unsigned int)
	??_EQDoubleSpinBox@@UAE@I@Z @ 1642 NONAME ; QDoubleSpinBox::~QDoubleSpinBox(unsigned int)
	??_EQDoubleValidator@@UAE@I@Z @ 1643 NONAME ; QDoubleValidator::~QDoubleValidator(unsigned int)
	??_EQDrag@@UAE@I@Z @ 1644 NONAME ; QDrag::~QDrag(unsigned int)
	??_EQDragEnterEvent@@UAE@I@Z @ 1645 NONAME ; QDragEnterEvent::~QDragEnterEvent(unsigned int)
	??_EQDragLeaveEvent@@UAE@I@Z @ 1646 NONAME ; QDragLeaveEvent::~QDragLeaveEvent(unsigned int)
	??_EQDragMoveEvent@@UAE@I@Z @ 1647 NONAME ; QDragMoveEvent::~QDragMoveEvent(unsigned int)
	??_EQDragResponseEvent@@UAE@I@Z @ 1648 NONAME ; QDragResponseEvent::~QDragResponseEvent(unsigned int)
	??_EQDropEvent@@UAE@I@Z @ 1649 NONAME ; QDropEvent::~QDropEvent(unsigned int)
	??_EQErrorMessage@@UAE@I@Z @ 1650 NONAME ; QErrorMessage::~QErrorMessage(unsigned int)
	??_EQEventDispatcherS60@@UAE@I@Z @ 1651 NONAME ; QEventDispatcherS60::~QEventDispatcherS60(unsigned int)
	??_EQFileDialog@@UAE@I@Z @ 1652 NONAME ; QFileDialog::~QFileDialog(unsigned int)
	??_EQFileIconProvider@@UAE@I@Z @ 1653 NONAME ; QFileIconProvider::~QFileIconProvider(unsigned int)
	??_EQFileOpenEvent@@UAE@I@Z @ 1654 NONAME ; QFileOpenEvent::~QFileOpenEvent(unsigned int)
	??_EQFileSystemModel@@UAE@I@Z @ 1655 NONAME ; QFileSystemModel::~QFileSystemModel(unsigned int)
	??_EQFocusEvent@@UAE@I@Z @ 1656 NONAME ; QFocusEvent::~QFocusEvent(unsigned int)
	??_EQFocusFrame@@UAE@I@Z @ 1657 NONAME ; QFocusFrame::~QFocusFrame(unsigned int)
	??_EQFontComboBox@@UAE@I@Z @ 1658 NONAME ; QFontComboBox::~QFontComboBox(unsigned int)
	??_EQFontDialog@@UAE@I@Z @ 1659 NONAME ; QFontDialog::~QFontDialog(unsigned int)
	??_EQFontEngine@@UAE@I@Z @ 1660 NONAME ; QFontEngine::~QFontEngine(unsigned int)
	??_EQFormLayout@@UAE@I@Z @ 1661 NONAME ; QFormLayout::~QFormLayout(unsigned int)
	??_EQFrame@@UAE@I@Z @ 1662 NONAME ; QFrame::~QFrame(unsigned int)
	??_EQGesture@@UAE@I@Z @ 1663 NONAME ; QGesture::~QGesture(unsigned int)
	??_EQGestureEvent@@UAE@I@Z @ 1664 NONAME ; QGestureEvent::~QGestureEvent(unsigned int)
	??_EQGestureRecognizer@@UAE@I@Z @ 1665 NONAME ; QGestureRecognizer::~QGestureRecognizer(unsigned int)
	??_EQGraphicsAnchor@@UAE@I@Z @ 1666 NONAME ; QGraphicsAnchor::~QGraphicsAnchor(unsigned int)
	??_EQGraphicsAnchorLayout@@UAE@I@Z @ 1667 NONAME ; QGraphicsAnchorLayout::~QGraphicsAnchorLayout(unsigned int)
	??_EQGraphicsBlurEffect@@UAE@I@Z @ 1668 NONAME ; QGraphicsBlurEffect::~QGraphicsBlurEffect(unsigned int)
	??_EQGraphicsColorizeEffect@@UAE@I@Z @ 1669 NONAME ; QGraphicsColorizeEffect::~QGraphicsColorizeEffect(unsigned int)
	??_EQGraphicsDropShadowEffect@@UAE@I@Z @ 1670 NONAME ; QGraphicsDropShadowEffect::~QGraphicsDropShadowEffect(unsigned int)
	??_EQGraphicsEffect@@UAE@I@Z @ 1671 NONAME ; QGraphicsEffect::~QGraphicsEffect(unsigned int)
	??_EQGraphicsEffectPrivate@@UAE@I@Z @ 1672 NONAME ; QGraphicsEffectPrivate::~QGraphicsEffectPrivate(unsigned int)
	??_EQGraphicsEffectSource@@UAE@I@Z @ 1673 NONAME ; QGraphicsEffectSource::~QGraphicsEffectSource(unsigned int)
	??_EQGraphicsEllipseItem@@UAE@I@Z @ 1674 NONAME ; QGraphicsEllipseItem::~QGraphicsEllipseItem(unsigned int)
	??_EQGraphicsGridLayout@@UAE@I@Z @ 1675 NONAME ; QGraphicsGridLayout::~QGraphicsGridLayout(unsigned int)
	??_EQGraphicsItem@@UAE@I@Z @ 1676 NONAME ; QGraphicsItem::~QGraphicsItem(unsigned int)
	??_EQGraphicsItemAnimation@@UAE@I@Z @ 1677 NONAME ; QGraphicsItemAnimation::~QGraphicsItemAnimation(unsigned int)
	??_EQGraphicsItemGroup@@UAE@I@Z @ 1678 NONAME ; QGraphicsItemGroup::~QGraphicsItemGroup(unsigned int)
	??_EQGraphicsItemPrivate@@UAE@I@Z @ 1679 NONAME ; QGraphicsItemPrivate::~QGraphicsItemPrivate(unsigned int)
	??_EQGraphicsLayout@@UAE@I@Z @ 1680 NONAME ; QGraphicsLayout::~QGraphicsLayout(unsigned int)
	??_EQGraphicsLayoutItem@@UAE@I@Z @ 1681 NONAME ; QGraphicsLayoutItem::~QGraphicsLayoutItem(unsigned int)
	??_EQGraphicsLineItem@@UAE@I@Z @ 1682 NONAME ; QGraphicsLineItem::~QGraphicsLineItem(unsigned int)
	??_EQGraphicsLinearLayout@@UAE@I@Z @ 1683 NONAME ; QGraphicsLinearLayout::~QGraphicsLinearLayout(unsigned int)
	??_EQGraphicsObject@@UAE@I@Z @ 1684 NONAME ; QGraphicsObject::~QGraphicsObject(unsigned int)
	??_EQGraphicsOpacityEffect@@UAE@I@Z @ 1685 NONAME ; QGraphicsOpacityEffect::~QGraphicsOpacityEffect(unsigned int)
	??_EQGraphicsPathItem@@UAE@I@Z @ 1686 NONAME ; QGraphicsPathItem::~QGraphicsPathItem(unsigned int)
	??_EQGraphicsPixmapItem@@UAE@I@Z @ 1687 NONAME ; QGraphicsPixmapItem::~QGraphicsPixmapItem(unsigned int)
	??_EQGraphicsPolygonItem@@UAE@I@Z @ 1688 NONAME ; QGraphicsPolygonItem::~QGraphicsPolygonItem(unsigned int)
	??_EQGraphicsProxyWidget@@UAE@I@Z @ 1689 NONAME ; QGraphicsProxyWidget::~QGraphicsProxyWidget(unsigned int)
	??_EQGraphicsRectItem@@UAE@I@Z @ 1690 NONAME ; QGraphicsRectItem::~QGraphicsRectItem(unsigned int)
	??_EQGraphicsRotation@@UAE@I@Z @ 1691 NONAME ; QGraphicsRotation::~QGraphicsRotation(unsigned int)
	??_EQGraphicsScale@@UAE@I@Z @ 1692 NONAME ; QGraphicsScale::~QGraphicsScale(unsigned int)
	??_EQGraphicsScene@@UAE@I@Z @ 1693 NONAME ; QGraphicsScene::~QGraphicsScene(unsigned int)
	??_EQGraphicsSceneContextMenuEvent@@UAE@I@Z @ 1694 NONAME ; QGraphicsSceneContextMenuEvent::~QGraphicsSceneContextMenuEvent(unsigned int)
	??_EQGraphicsSceneDragDropEvent@@UAE@I@Z @ 1695 NONAME ; QGraphicsSceneDragDropEvent::~QGraphicsSceneDragDropEvent(unsigned int)
	??_EQGraphicsSceneEvent@@UAE@I@Z @ 1696 NONAME ; QGraphicsSceneEvent::~QGraphicsSceneEvent(unsigned int)
	??_EQGraphicsSceneHelpEvent@@UAE@I@Z @ 1697 NONAME ; QGraphicsSceneHelpEvent::~QGraphicsSceneHelpEvent(unsigned int)
	??_EQGraphicsSceneHoverEvent@@UAE@I@Z @ 1698 NONAME ; QGraphicsSceneHoverEvent::~QGraphicsSceneHoverEvent(unsigned int)
	??_EQGraphicsSceneMouseEvent@@UAE@I@Z @ 1699 NONAME ; QGraphicsSceneMouseEvent::~QGraphicsSceneMouseEvent(unsigned int)
	??_EQGraphicsSceneMoveEvent@@UAE@I@Z @ 1700 NONAME ; QGraphicsSceneMoveEvent::~QGraphicsSceneMoveEvent(unsigned int)
	??_EQGraphicsSceneResizeEvent@@UAE@I@Z @ 1701 NONAME ; QGraphicsSceneResizeEvent::~QGraphicsSceneResizeEvent(unsigned int)
	??_EQGraphicsSceneWheelEvent@@UAE@I@Z @ 1702 NONAME ; QGraphicsSceneWheelEvent::~QGraphicsSceneWheelEvent(unsigned int)
	??_EQGraphicsSimpleTextItem@@UAE@I@Z @ 1703 NONAME ; QGraphicsSimpleTextItem::~QGraphicsSimpleTextItem(unsigned int)
	??_EQGraphicsSystem@@UAE@I@Z @ 1704 NONAME ; QGraphicsSystem::~QGraphicsSystem(unsigned int)
	??_EQGraphicsSystemPlugin@@UAE@I@Z @ 1705 NONAME ; QGraphicsSystemPlugin::~QGraphicsSystemPlugin(unsigned int)
	??_EQGraphicsTextItem@@UAE@I@Z @ 1706 NONAME ; QGraphicsTextItem::~QGraphicsTextItem(unsigned int)
	??_EQGraphicsTransform@@UAE@I@Z @ 1707 NONAME ; QGraphicsTransform::~QGraphicsTransform(unsigned int)
	??_EQGraphicsView@@UAE@I@Z @ 1708 NONAME ; QGraphicsView::~QGraphicsView(unsigned int)
	??_EQGraphicsWidget@@UAE@I@Z @ 1709 NONAME ; QGraphicsWidget::~QGraphicsWidget(unsigned int)
	??_EQGridLayout@@UAE@I@Z @ 1710 NONAME ; QGridLayout::~QGridLayout(unsigned int)
	??_EQGroupBox@@UAE@I@Z @ 1711 NONAME ; QGroupBox::~QGroupBox(unsigned int)
	??_EQGuiPlatformPlugin@@UAE@I@Z @ 1712 NONAME ; QGuiPlatformPlugin::~QGuiPlatformPlugin(unsigned int)
	??_EQGuiPlatformPluginInterface@@UAE@I@Z @ 1713 NONAME ; QGuiPlatformPluginInterface::~QGuiPlatformPluginInterface(unsigned int)
	??_EQHBoxLayout@@UAE@I@Z @ 1714 NONAME ; QHBoxLayout::~QHBoxLayout(unsigned int)
	??_EQHeaderView@@UAE@I@Z @ 1715 NONAME ; QHeaderView::~QHeaderView(unsigned int)
	??_EQHelpEvent@@UAE@I@Z @ 1716 NONAME ; QHelpEvent::~QHelpEvent(unsigned int)
	??_EQHideEvent@@UAE@I@Z @ 1717 NONAME ; QHideEvent::~QHideEvent(unsigned int)
	??_EQHoverEvent@@UAE@I@Z @ 1718 NONAME ; QHoverEvent::~QHoverEvent(unsigned int)
	??_EQIconDragEvent@@UAE@I@Z @ 1719 NONAME ; QIconDragEvent::~QIconDragEvent(unsigned int)
	??_EQIconEngine@@UAE@I@Z @ 1720 NONAME ; QIconEngine::~QIconEngine(unsigned int)
	??_EQIconEngineFactoryInterface@@UAE@I@Z @ 1721 NONAME ; QIconEngineFactoryInterface::~QIconEngineFactoryInterface(unsigned int)
	??_EQIconEngineFactoryInterfaceV2@@UAE@I@Z @ 1722 NONAME ; QIconEngineFactoryInterfaceV2::~QIconEngineFactoryInterfaceV2(unsigned int)
	??_EQIconEnginePlugin@@UAE@I@Z @ 1723 NONAME ; QIconEnginePlugin::~QIconEnginePlugin(unsigned int)
	??_EQIconEnginePluginV2@@UAE@I@Z @ 1724 NONAME ; QIconEnginePluginV2::~QIconEnginePluginV2(unsigned int)
	??_EQIconEngineV2@@UAE@I@Z @ 1725 NONAME ; QIconEngineV2::~QIconEngineV2(unsigned int)
	??_EQImage@@UAE@I@Z @ 1726 NONAME ; QImage::~QImage(unsigned int)
	??_EQImageIOHandler@@UAE@I@Z @ 1727 NONAME ; QImageIOHandler::~QImageIOHandler(unsigned int)
	??_EQImageIOHandlerFactoryInterface@@UAE@I@Z @ 1728 NONAME ; QImageIOHandlerFactoryInterface::~QImageIOHandlerFactoryInterface(unsigned int)
	??_EQImageIOPlugin@@UAE@I@Z @ 1729 NONAME ; QImageIOPlugin::~QImageIOPlugin(unsigned int)
	??_EQImageTextKeyLang@@QAE@I@Z @ 1730 NONAME ; QImageTextKeyLang::~QImageTextKeyLang(unsigned int)
	??_EQInputContext@@UAE@I@Z @ 1731 NONAME ; QInputContext::~QInputContext(unsigned int)
	??_EQInputContextFactoryInterface@@UAE@I@Z @ 1732 NONAME ; QInputContextFactoryInterface::~QInputContextFactoryInterface(unsigned int)
	??_EQInputContextPlugin@@UAE@I@Z @ 1733 NONAME ; QInputContextPlugin::~QInputContextPlugin(unsigned int)
	??_EQInputDialog@@UAE@I@Z @ 1734 NONAME ; QInputDialog::~QInputDialog(unsigned int)
	??_EQInputEvent@@UAE@I@Z @ 1735 NONAME ; QInputEvent::~QInputEvent(unsigned int)
	??_EQInputMethodEvent@@UAE@I@Z @ 1736 NONAME ; QInputMethodEvent::~QInputMethodEvent(unsigned int)
	??_EQIntValidator@@UAE@I@Z @ 1737 NONAME ; QIntValidator::~QIntValidator(unsigned int)
	??_EQItemDelegate@@UAE@I@Z @ 1738 NONAME ; QItemDelegate::~QItemDelegate(unsigned int)
	??_EQItemEditorCreatorBase@@UAE@I@Z @ 1739 NONAME ; QItemEditorCreatorBase::~QItemEditorCreatorBase(unsigned int)
	??_EQItemEditorFactory@@UAE@I@Z @ 1740 NONAME ; QItemEditorFactory::~QItemEditorFactory(unsigned int)
	??_EQItemSelectionModel@@UAE@I@Z @ 1741 NONAME ; QItemSelectionModel::~QItemSelectionModel(unsigned int)
	??_EQItemSelectionRange@@QAE@I@Z @ 1742 NONAME ; QItemSelectionRange::~QItemSelectionRange(unsigned int)
	??_EQKeyEvent@@UAE@I@Z @ 1743 NONAME ; QKeyEvent::~QKeyEvent(unsigned int)
	??_EQKeyEventTransition@@UAE@I@Z @ 1744 NONAME ; QKeyEventTransition::~QKeyEventTransition(unsigned int)
	??_EQLCDNumber@@UAE@I@Z @ 1745 NONAME ; QLCDNumber::~QLCDNumber(unsigned int)
	??_EQLabel@@UAE@I@Z @ 1746 NONAME ; QLabel::~QLabel(unsigned int)
	??_EQLayout@@UAE@I@Z @ 1747 NONAME ; QLayout::~QLayout(unsigned int)
	??_EQLayoutItem@@UAE@I@Z @ 1748 NONAME ; QLayoutItem::~QLayoutItem(unsigned int)
	??_EQLayoutPrivate@@UAE@I@Z @ 1749 NONAME ; QLayoutPrivate::~QLayoutPrivate(unsigned int)
	??_EQLineControl@@UAE@I@Z @ 1750 NONAME ; QLineControl::~QLineControl(unsigned int)
	??_EQLineEdit@@UAE@I@Z @ 1751 NONAME ; QLineEdit::~QLineEdit(unsigned int)
	??_EQListView@@UAE@I@Z @ 1752 NONAME ; QListView::~QListView(unsigned int)
	??_EQListWidget@@UAE@I@Z @ 1753 NONAME ; QListWidget::~QListWidget(unsigned int)
	??_EQListWidgetItem@@UAE@I@Z @ 1754 NONAME ; QListWidgetItem::~QListWidgetItem(unsigned int)
	??_EQMainWindow@@UAE@I@Z @ 1755 NONAME ; QMainWindow::~QMainWindow(unsigned int)
	??_EQMdiArea@@UAE@I@Z @ 1756 NONAME ; QMdiArea::~QMdiArea(unsigned int)
	??_EQMdiSubWindow@@UAE@I@Z @ 1757 NONAME ; QMdiSubWindow::~QMdiSubWindow(unsigned int)
	??_EQMenu@@UAE@I@Z @ 1758 NONAME ; QMenu::~QMenu(unsigned int)
	??_EQMenuBar@@UAE@I@Z @ 1759 NONAME ; QMenuBar::~QMenuBar(unsigned int)
	??_EQMessageBox@@UAE@I@Z @ 1760 NONAME ; QMessageBox::~QMessageBox(unsigned int)
	??_EQMimeSource@@UAE@I@Z @ 1761 NONAME ; QMimeSource::~QMimeSource(unsigned int)
	??_EQMouseEvent@@UAE@I@Z @ 1762 NONAME ; QMouseEvent::~QMouseEvent(unsigned int)
	??_EQMouseEventTransition@@UAE@I@Z @ 1763 NONAME ; QMouseEventTransition::~QMouseEventTransition(unsigned int)
	??_EQMoveEvent@@UAE@I@Z @ 1764 NONAME ; QMoveEvent::~QMoveEvent(unsigned int)
	??_EQMovie@@UAE@I@Z @ 1765 NONAME ; QMovie::~QMovie(unsigned int)
	??_EQPaintBuffer@@UAE@I@Z @ 1766 NONAME ; QPaintBuffer::~QPaintBuffer(unsigned int)
	??_EQPaintBufferResource@@UAE@I@Z @ 1767 NONAME ; QPaintBufferResource::~QPaintBufferResource(unsigned int)
	??_EQPaintBufferSignalProxy@@UAE@I@Z @ 1768 NONAME ; QPaintBufferSignalProxy::~QPaintBufferSignalProxy(unsigned int)
	??_EQPaintDevice@@UAE@I@Z @ 1769 NONAME ; QPaintDevice::~QPaintDevice(unsigned int)
	??_EQPaintEngine@@UAE@I@Z @ 1770 NONAME ; QPaintEngine::~QPaintEngine(unsigned int)
	??_EQPaintEngineEx@@UAE@I@Z @ 1771 NONAME ; QPaintEngineEx::~QPaintEngineEx(unsigned int)
	??_EQPaintEngineExPrivate@@UAE@I@Z @ 1772 NONAME ; QPaintEngineExPrivate::~QPaintEngineExPrivate(unsigned int)
	??_EQPaintEngineExReplayer@@UAE@I@Z @ 1773 NONAME ; QPaintEngineExReplayer::~QPaintEngineExReplayer(unsigned int)
	??_EQPaintEvent@@UAE@I@Z @ 1774 NONAME ; QPaintEvent::~QPaintEvent(unsigned int)
	??_EQPainterReplayer@@UAE@I@Z @ 1775 NONAME ; QPainterReplayer::~QPainterReplayer(unsigned int)
	??_EQPainterState@@UAE@I@Z @ 1776 NONAME ; QPainterState::~QPainterState(unsigned int)
	??_EQPanGesture@@UAE@I@Z @ 1777 NONAME ; QPanGesture::~QPanGesture(unsigned int)
	??_EQPicture@@UAE@I@Z @ 1778 NONAME ; QPicture::~QPicture(unsigned int)
	??_EQPictureFormatInterface@@UAE@I@Z @ 1779 NONAME ; QPictureFormatInterface::~QPictureFormatInterface(unsigned int)
	??_EQPictureFormatPlugin@@UAE@I@Z @ 1780 NONAME ; QPictureFormatPlugin::~QPictureFormatPlugin(unsigned int)
	??_EQPinchGesture@@UAE@I@Z @ 1781 NONAME ; QPinchGesture::~QPinchGesture(unsigned int)
	??_EQPixmap@@UAE@I@Z @ 1782 NONAME ; QPixmap::~QPixmap(unsigned int)
	??_EQPixmapBlurFilter@@UAE@I@Z @ 1783 NONAME ; QPixmapBlurFilter::~QPixmapBlurFilter(unsigned int)
	??_EQPixmapColorizeFilter@@UAE@I@Z @ 1784 NONAME ; QPixmapColorizeFilter::~QPixmapColorizeFilter(unsigned int)
	??_EQPixmapConvolutionFilter@@UAE@I@Z @ 1785 NONAME ; QPixmapConvolutionFilter::~QPixmapConvolutionFilter(unsigned int)
	??_EQPixmapData@@UAE@I@Z @ 1786 NONAME ; QPixmapData::~QPixmapData(unsigned int)
	??_EQPixmapDropShadowFilter@@UAE@I@Z @ 1787 NONAME ; QPixmapDropShadowFilter::~QPixmapDropShadowFilter(unsigned int)
	??_EQPixmapFilter@@UAE@I@Z @ 1788 NONAME ; QPixmapFilter::~QPixmapFilter(unsigned int)
	??_EQPlainTextDocumentLayout@@UAE@I@Z @ 1789 NONAME ; QPlainTextDocumentLayout::~QPlainTextDocumentLayout(unsigned int)
	??_EQPlainTextEdit@@UAE@I@Z @ 1790 NONAME ; QPlainTextEdit::~QPlainTextEdit(unsigned int)
	??_EQPolygonF@@QAE@I@Z @ 1791 NONAME ; QPolygonF::~QPolygonF(unsigned int)
	??_EQProgressBar@@UAE@I@Z @ 1792 NONAME ; QProgressBar::~QProgressBar(unsigned int)
	??_EQProgressDialog@@UAE@I@Z @ 1793 NONAME ; QProgressDialog::~QProgressDialog(unsigned int)
	??_EQProxyModel@@UAE@I@Z @ 1794 NONAME ; QProxyModel::~QProxyModel(unsigned int)
	??_EQProxyStyle@@UAE@I@Z @ 1795 NONAME ; QProxyStyle::~QProxyStyle(unsigned int)
	??_EQPushButton@@UAE@I@Z @ 1796 NONAME ; QPushButton::~QPushButton(unsigned int)
	??_EQRadioButton@@UAE@I@Z @ 1797 NONAME ; QRadioButton::~QRadioButton(unsigned int)
	??_EQRasterPixmapData@@UAE@I@Z @ 1798 NONAME ; QRasterPixmapData::~QRasterPixmapData(unsigned int)
	??_EQRasterWindowSurface@@UAE@I@Z @ 1799 NONAME ; QRasterWindowSurface::~QRasterWindowSurface(unsigned int)
	??_EQRegExpValidator@@UAE@I@Z @ 1800 NONAME ; QRegExpValidator::~QRegExpValidator(unsigned int)
	??_EQResizeEvent@@UAE@I@Z @ 1801 NONAME ; QResizeEvent::~QResizeEvent(unsigned int)
	??_EQRubberBand@@UAE@I@Z @ 1802 NONAME ; QRubberBand::~QRubberBand(unsigned int)
	??_EQS60MainAppUi@@UAE@I@Z @ 1803 NONAME ; QS60MainAppUi::~QS60MainAppUi(unsigned int)
	??_EQS60MainApplication@@UAE@I@Z @ 1804 NONAME ; QS60MainApplication::~QS60MainApplication(unsigned int)
	??_EQS60MainDocument@@UAE@I@Z @ 1805 NONAME ; QS60MainDocument::~QS60MainDocument(unsigned int)
	??_EQS60Style@@UAE@I@Z @ 1806 NONAME ; QS60Style::~QS60Style(unsigned int)
	??_EQScrollArea@@UAE@I@Z @ 1807 NONAME ; QScrollArea::~QScrollArea(unsigned int)
	??_EQScrollBar@@UAE@I@Z @ 1808 NONAME ; QScrollBar::~QScrollBar(unsigned int)
	??_EQSessionManager@@UAE@I@Z @ 1809 NONAME ; QSessionManager::~QSessionManager(unsigned int)
	??_EQShortcut@@UAE@I@Z @ 1810 NONAME ; QShortcut::~QShortcut(unsigned int)
	??_EQShortcutEvent@@UAE@I@Z @ 1811 NONAME ; QShortcutEvent::~QShortcutEvent(unsigned int)
	??_EQShowEvent@@UAE@I@Z @ 1812 NONAME ; QShowEvent::~QShowEvent(unsigned int)
	??_EQSizeGrip@@UAE@I@Z @ 1813 NONAME ; QSizeGrip::~QSizeGrip(unsigned int)
	??_EQSlider@@UAE@I@Z @ 1814 NONAME ; QSlider::~QSlider(unsigned int)
	??_EQSortFilterProxyModel@@UAE@I@Z @ 1815 NONAME ; QSortFilterProxyModel::~QSortFilterProxyModel(unsigned int)
	??_EQSound@@UAE@I@Z @ 1816 NONAME ; QSound::~QSound(unsigned int)
	??_EQSpacerItem@@UAE@I@Z @ 1817 NONAME ; QSpacerItem::~QSpacerItem(unsigned int)
	??_EQSpinBox@@UAE@I@Z @ 1818 NONAME ; QSpinBox::~QSpinBox(unsigned int)
	??_EQSplashScreen@@UAE@I@Z @ 1819 NONAME ; QSplashScreen::~QSplashScreen(unsigned int)
	??_EQSplitter@@UAE@I@Z @ 1820 NONAME ; QSplitter::~QSplitter(unsigned int)
	??_EQSplitterHandle@@UAE@I@Z @ 1821 NONAME ; QSplitterHandle::~QSplitterHandle(unsigned int)
	??_EQStackedLayout@@UAE@I@Z @ 1822 NONAME ; QStackedLayout::~QStackedLayout(unsigned int)
	??_EQStackedWidget@@UAE@I@Z @ 1823 NONAME ; QStackedWidget::~QStackedWidget(unsigned int)
	??_EQStandardItem@@UAE@I@Z @ 1824 NONAME ; QStandardItem::~QStandardItem(unsigned int)
	??_EQStandardItemModel@@UAE@I@Z @ 1825 NONAME ; QStandardItemModel::~QStandardItemModel(unsigned int)
	??_EQStatusBar@@UAE@I@Z @ 1826 NONAME ; QStatusBar::~QStatusBar(unsigned int)
	??_EQStatusTipEvent@@UAE@I@Z @ 1827 NONAME ; QStatusTipEvent::~QStatusTipEvent(unsigned int)
	??_EQStringListModel@@UAE@I@Z @ 1828 NONAME ; QStringListModel::~QStringListModel(unsigned int)
	??_EQStroker@@UAE@I@Z @ 1829 NONAME ; QStroker::~QStroker(unsigned int)
	??_EQStrokerOps@@UAE@I@Z @ 1830 NONAME ; QStrokerOps::~QStrokerOps(unsigned int)
	??_EQStyle@@UAE@I@Z @ 1831 NONAME ; QStyle::~QStyle(unsigned int)
	??_EQStyleFactoryInterface@@UAE@I@Z @ 1832 NONAME ; QStyleFactoryInterface::~QStyleFactoryInterface(unsigned int)
	??_EQStyleOptionQ3ListViewItem@@QAE@I@Z @ 1833 NONAME ; QStyleOptionQ3ListViewItem::~QStyleOptionQ3ListViewItem(unsigned int)
	??_EQStylePlugin@@UAE@I@Z @ 1834 NONAME ; QStylePlugin::~QStylePlugin(unsigned int)
	??_EQStyledItemDelegate@@UAE@I@Z @ 1835 NONAME ; QStyledItemDelegate::~QStyledItemDelegate(unsigned int)
	??_EQSwipeGesture@@UAE@I@Z @ 1836 NONAME ; QSwipeGesture::~QSwipeGesture(unsigned int)
	??_EQSyntaxHighlighter@@UAE@I@Z @ 1837 NONAME ; QSyntaxHighlighter::~QSyntaxHighlighter(unsigned int)
	??_EQTabBar@@UAE@I@Z @ 1838 NONAME ; QTabBar::~QTabBar(unsigned int)
	??_EQTabWidget@@UAE@I@Z @ 1839 NONAME ; QTabWidget::~QTabWidget(unsigned int)
	??_EQTableView@@UAE@I@Z @ 1840 NONAME ; QTableView::~QTableView(unsigned int)
	??_EQTableWidget@@UAE@I@Z @ 1841 NONAME ; QTableWidget::~QTableWidget(unsigned int)
	??_EQTableWidgetItem@@UAE@I@Z @ 1842 NONAME ; QTableWidgetItem::~QTableWidgetItem(unsigned int)
	??_EQTabletEvent@@UAE@I@Z @ 1843 NONAME ; QTabletEvent::~QTabletEvent(unsigned int)
	??_EQTapAndHoldGesture@@UAE@I@Z @ 1844 NONAME ; QTapAndHoldGesture::~QTapAndHoldGesture(unsigned int)
	??_EQTapGesture@@UAE@I@Z @ 1845 NONAME ; QTapGesture::~QTapGesture(unsigned int)
	??_EQTessellator@@UAE@I@Z @ 1846 NONAME ; QTessellator::~QTessellator(unsigned int)
	??_EQTextBlockGroup@@UAE@I@Z @ 1847 NONAME ; QTextBlockGroup::~QTextBlockGroup(unsigned int)
	??_EQTextBlockUserData@@UAE@I@Z @ 1848 NONAME ; QTextBlockUserData::~QTextBlockUserData(unsigned int)
	??_EQTextBrowser@@UAE@I@Z @ 1849 NONAME ; QTextBrowser::~QTextBrowser(unsigned int)
	??_EQTextControl@@UAE@I@Z @ 1850 NONAME ; QTextControl::~QTextControl(unsigned int)
	??_EQTextDocument@@UAE@I@Z @ 1851 NONAME ; QTextDocument::~QTextDocument(unsigned int)
	??_EQTextEdit@@UAE@I@Z @ 1852 NONAME ; QTextEdit::~QTextEdit(unsigned int)
	??_EQTextFrame@@UAE@I@Z @ 1853 NONAME ; QTextFrame::~QTextFrame(unsigned int)
	??_EQTextFrameLayoutData@@UAE@I@Z @ 1854 NONAME ; QTextFrameLayoutData::~QTextFrameLayoutData(unsigned int)
	??_EQTextList@@UAE@I@Z @ 1855 NONAME ; QTextList::~QTextList(unsigned int)
	??_EQTextObject@@UAE@I@Z @ 1856 NONAME ; QTextObject::~QTextObject(unsigned int)
	??_EQTextObjectInterface@@UAE@I@Z @ 1857 NONAME ; QTextObjectInterface::~QTextObjectInterface(unsigned int)
	??_EQTextTable@@UAE@I@Z @ 1858 NONAME ; QTextTable::~QTextTable(unsigned int)
	??_EQTextureGlyphCache@@UAE@I@Z @ 1859 NONAME ; QTextureGlyphCache::~QTextureGlyphCache(unsigned int)
	??_EQTimeEdit@@UAE@I@Z @ 1860 NONAME ; QTimeEdit::~QTimeEdit(unsigned int)
	??_EQToolBar@@UAE@I@Z @ 1861 NONAME ; QToolBar::~QToolBar(unsigned int)
	??_EQToolBarChangeEvent@@UAE@I@Z @ 1862 NONAME ; QToolBarChangeEvent::~QToolBarChangeEvent(unsigned int)
	??_EQToolBox@@UAE@I@Z @ 1863 NONAME ; QToolBox::~QToolBox(unsigned int)
	??_EQToolButton@@UAE@I@Z @ 1864 NONAME ; QToolButton::~QToolButton(unsigned int)
	??_EQTouchEvent@@UAE@I@Z @ 1865 NONAME ; QTouchEvent::~QTouchEvent(unsigned int)
	??_EQTreeView@@UAE@I@Z @ 1866 NONAME ; QTreeView::~QTreeView(unsigned int)
	??_EQTreeWidget@@UAE@I@Z @ 1867 NONAME ; QTreeWidget::~QTreeWidget(unsigned int)
	??_EQTreeWidgetItem@@UAE@I@Z @ 1868 NONAME ; QTreeWidgetItem::~QTreeWidgetItem(unsigned int)
	??_EQUndoCommand@@UAE@I@Z @ 1869 NONAME ; QUndoCommand::~QUndoCommand(unsigned int)
	??_EQUndoGroup@@UAE@I@Z @ 1870 NONAME ; QUndoGroup::~QUndoGroup(unsigned int)
	??_EQUndoStack@@UAE@I@Z @ 1871 NONAME ; QUndoStack::~QUndoStack(unsigned int)
	??_EQUndoView@@UAE@I@Z @ 1872 NONAME ; QUndoView::~QUndoView(unsigned int)
	??_EQVBoxLayout@@UAE@I@Z @ 1873 NONAME ; QVBoxLayout::~QVBoxLayout(unsigned int)
	??_EQValidator@@UAE@I@Z @ 1874 NONAME ; QValidator::~QValidator(unsigned int)
	??_EQWhatsThisClickedEvent@@UAE@I@Z @ 1875 NONAME ; QWhatsThisClickedEvent::~QWhatsThisClickedEvent(unsigned int)
	??_EQWheelEvent@@UAE@I@Z @ 1876 NONAME ; QWheelEvent::~QWheelEvent(unsigned int)
	??_EQWidget@@UAE@I@Z @ 1877 NONAME ; QWidget::~QWidget(unsigned int)
	??_EQWidgetAction@@UAE@I@Z @ 1878 NONAME ; QWidgetAction::~QWidgetAction(unsigned int)
	??_EQWidgetItem@@UAE@I@Z @ 1879 NONAME ; QWidgetItem::~QWidgetItem(unsigned int)
	??_EQWidgetItemV2@@UAE@I@Z @ 1880 NONAME ; QWidgetItemV2::~QWidgetItemV2(unsigned int)
	??_EQWidgetPrivate@@UAE@I@Z @ 1881 NONAME ; QWidgetPrivate::~QWidgetPrivate(unsigned int)
	??_EQWidgetResizeHandler@@UAE@I@Z @ 1882 NONAME ; QWidgetResizeHandler::~QWidgetResizeHandler(unsigned int)
	??_EQWindowStateChangeEvent@@UAE@I@Z @ 1883 NONAME ; QWindowStateChangeEvent::~QWindowStateChangeEvent(unsigned int)
	??_EQWindowSurface@@UAE@I@Z @ 1884 NONAME ; QWindowSurface::~QWindowSurface(unsigned int)
	??_EQWindowsStyle@@UAE@I@Z @ 1885 NONAME ; QWindowsStyle::~QWindowsStyle(unsigned int)
	??_EQWizard@@UAE@I@Z @ 1886 NONAME ; QWizard::~QWizard(unsigned int)
	??_EQWizardPage@@UAE@I@Z @ 1887 NONAME ; QWizardPage::~QWizardPage(unsigned int)
	??_EQWorkspace@@UAE@I@Z @ 1888 NONAME ; QWorkspace::~QWorkspace(unsigned int)
	??_EStyleSelector@QCss@@UAE@I@Z @ 1889 NONAME ; QCss::StyleSelector::~StyleSelector(unsigned int)
	?AppDllUid@QS60MainApplication@@UBE?AVTUid@@XZ @ 1890 NONAME ; class TUid QS60MainApplication::AppDllUid(void) const
	?ConstructL@QS60MainAppUi@@UAEXXZ @ 1891 NONAME ; void QS60MainAppUi::ConstructL(void)
	?CreateAppUiL@QS60MainDocument@@UAEPAVCEikAppUi@@XZ @ 1892 NONAME ; class CEikAppUi * QS60MainDocument::CreateAppUiL(void)
	?CreateDocumentL@QS60MainApplication@@MAEPAVCApaDocument@@XZ @ 1893 NONAME ; class CApaDocument * QS60MainApplication::CreateDocumentL(void)
	?DynInitMenuBarL@QS60MainAppUi@@UAEXHPAVCEikMenuBar@@@Z @ 1894 NONAME ; void QS60MainAppUi::DynInitMenuBarL(int, class CEikMenuBar *)
	?DynInitMenuPaneL@QS60MainAppUi@@UAEXHPAVCEikMenuPane@@@Z @ 1895 NONAME ; void QS60MainAppUi::DynInitMenuPaneL(int, class CEikMenuPane *)
	?HandleCommandL@QS60MainAppUi@@UAEXH@Z @ 1896 NONAME ; void QS60MainAppUi::HandleCommandL(int)
	?HandleResourceChangeL@QS60MainAppUi@@UAEXH@Z @ 1897 NONAME ; void QS60MainAppUi::HandleResourceChangeL(int)
	?HandleStatusPaneSizeChange@QS60MainAppUi@@UAEXXZ @ 1898 NONAME ; void QS60MainAppUi::HandleStatusPaneSizeChange(void)
	?HandleWsEventL@QS60MainAppUi@@MAEXABVTWsEvent@@PAVCCoeControl@@@Z @ 1899 NONAME ; void QS60MainAppUi::HandleWsEventL(class TWsEvent const &, class CCoeControl *)
	?ResourceFileName@QS60MainApplication@@UBE?AV?$TBuf@$0BAA@@@XZ @ 1900 NONAME ; class TBuf<256> QS60MainApplication::ResourceFileName(void) const
	?RestoreMenuL@QS60MainAppUi@@UAEXPAVCCoeControl@@HW4TMenuType@MEikMenuObserver@@@Z @ 1901 NONAME ; void QS60MainAppUi::RestoreMenuL(class CCoeControl *, int, enum MEikMenuObserver::TMenuType)
	?_q_clipboardChanged@QLineControl@@AAEXXZ @ 1902 NONAME ; void QLineControl::_q_clipboardChanged(void)
	?_q_delayedDestroy@QWidgetPrivate@@QAEXPAVCCoeControl@@@Z @ 1903 NONAME ; void QWidgetPrivate::_q_delayedDestroy(class CCoeControl *)
	?_q_deleteSelected@QLineControl@@AAEXXZ @ 1904 NONAME ; void QLineControl::_q_deleteSelected(void)
	?_q_showIfNotHidden@QWidgetPrivate@@QAEXXZ @ 1905 NONAME ; void QWidgetPrivate::_q_showIfNotHidden(void)
	?about@QMessageBox@@SAXPAVQWidget@@ABVQString@@1@Z @ 1906 NONAME ; void QMessageBox::about(class QWidget *, class QString const &, class QString const &)
	?aboutQt@QApplication@@SAXXZ @ 1907 NONAME ; void QApplication::aboutQt(void)
	?aboutQt@QMessageBox@@SAXPAVQWidget@@ABVQString@@@Z @ 1908 NONAME ; void QMessageBox::aboutQt(class QWidget *, class QString const &)
	?aboutToActivate@QMdiSubWindow@@IAEXXZ @ 1909 NONAME ; void QMdiSubWindow::aboutToActivate(void)
	?aboutToDestroy@QPaintBufferSignalProxy@@IAEXPBVQPaintBufferPrivate@@@Z @ 1910 NONAME ; void QPaintBufferSignalProxy::aboutToDestroy(class QPaintBufferPrivate const *)
	?aboutToHide@QMenu@@IAEXXZ @ 1911 NONAME ; void QMenu::aboutToHide(void)
	?aboutToShow@QMenu@@IAEXXZ @ 1912 NONAME ; void QMenu::aboutToShow(void)
	?acceleration@QPanGesture@@QBEMXZ @ 1913 NONAME ; float QPanGesture::acceleration(void) const
	?accept@QDialog@@UAEXXZ @ 1914 NONAME ; void QDialog::accept(void)
	?accept@QDragMoveEvent@@QAEXABVQRect@@@Z @ 1915 NONAME ; void QDragMoveEvent::accept(class QRect const &)
	?accept@QDragMoveEvent@@QAEXXZ @ 1916 NONAME ; void QDragMoveEvent::accept(void)
	?accept@QFileDialog@@MAEXXZ @ 1917 NONAME ; void QFileDialog::accept(void)
	?accept@QGestureEvent@@QAEXPAVQGesture@@@Z @ 1918 NONAME ; void QGestureEvent::accept(class QGesture *)
	?accept@QGestureEvent@@QAEXW4GestureType@Qt@@@Z @ 1919 NONAME ; void QGestureEvent::accept(enum Qt::GestureType)
	?acceptDrops@QGraphicsItem@@QBE_NXZ @ 1920 NONAME ; bool QGraphicsItem::acceptDrops(void) const
	?acceptDrops@QWidget@@QBE_NXZ @ 1921 NONAME ; bool QWidget::acceptDrops(void) const
	?acceptHoverEvents@QGraphicsItem@@QBE_NXZ @ 1922 NONAME ; bool QGraphicsItem::acceptHoverEvents(void) const
	?acceptMode@QFileDialog@@QBE?AW4AcceptMode@1@XZ @ 1923 NONAME ; enum QFileDialog::AcceptMode QFileDialog::acceptMode(void) const
	?acceptProposedAction@QDropEvent@@QAEXXZ @ 1924 NONAME ; void QDropEvent::acceptProposedAction(void)
	?acceptProposedAction@QGraphicsSceneDragDropEvent@@QAEXXZ @ 1925 NONAME ; void QGraphicsSceneDragDropEvent::acceptProposedAction(void)
	?acceptRichText@QTextControl@@QBE_NXZ @ 1926 NONAME ; bool QTextControl::acceptRichText(void) const
	?acceptRichText@QTextEdit@@QBE_NXZ @ 1927 NONAME ; bool QTextEdit::acceptRichText(void) const
	?acceptTouchEvents@QGraphicsItem@@QBE_NXZ @ 1928 NONAME ; bool QGraphicsItem::acceptTouchEvents(void) const
	?accepted@QDialog@@IAEXXZ @ 1929 NONAME ; void QDialog::accepted(void)
	?accepted@QDialogButtonBox@@IAEXXZ @ 1930 NONAME ; void QDialogButtonBox::accepted(void)
	?accepted@QLineControl@@IAEXXZ @ 1931 NONAME ; void QLineControl::accepted(void)
	?acceptedMouseButtons@QGraphicsItem@@QBE?AV?$QFlags@W4MouseButton@Qt@@@@XZ @ 1932 NONAME ; class QFlags<enum Qt::MouseButton> QGraphicsItem::acceptedMouseButtons(void) const
	?acceptsHoverEvents@QGraphicsItem@@QBE_NXZ @ 1933 NONAME ; bool QGraphicsItem::acceptsHoverEvents(void) const
	?accessibleDescription@QStandardItem@@QBE?AVQString@@XZ @ 1934 NONAME ; class QString QStandardItem::accessibleDescription(void) const
	?accessibleText@QStandardItem@@QBE?AVQString@@XZ @ 1935 NONAME ; class QString QStandardItem::accessibleText(void) const
	?action@QActionEvent@@QBEPAVQAction@@XZ @ 1936 NONAME ; class QAction * QActionEvent::action(void) const
	?actionAt@QMenu@@QBEPAVQAction@@ABVQPoint@@@Z @ 1937 NONAME ; class QAction * QMenu::actionAt(class QPoint const &) const
	?actionAt@QMenuBar@@QBEPAVQAction@@ABVQPoint@@@Z @ 1938 NONAME ; class QAction * QMenuBar::actionAt(class QPoint const &) const
	?actionAt@QToolBar@@QBEPAVQAction@@ABVQPoint@@@Z @ 1939 NONAME ; class QAction * QToolBar::actionAt(class QPoint const &) const
	?actionAt@QToolBar@@QBEPAVQAction@@HH@Z @ 1940 NONAME ; class QAction * QToolBar::actionAt(int, int) const
	?actionChanged@QDrag@@IAEXW4DropAction@Qt@@@Z @ 1941 NONAME ; void QDrag::actionChanged(enum Qt::DropAction)
	?actionEvent@QMenu@@MAEXPAVQActionEvent@@@Z @ 1942 NONAME ; void QMenu::actionEvent(class QActionEvent *)
	?actionEvent@QMenuBar@@MAEXPAVQActionEvent@@@Z @ 1943 NONAME ; void QMenuBar::actionEvent(class QActionEvent *)
	?actionEvent@QToolBar@@MAEXPAVQActionEvent@@@Z @ 1944 NONAME ; void QToolBar::actionEvent(class QActionEvent *)
	?actionEvent@QToolButton@@MAEXPAVQActionEvent@@@Z @ 1945 NONAME ; void QToolButton::actionEvent(class QActionEvent *)
	?actionEvent@QWidget@@MAEXPAVQActionEvent@@@Z @ 1946 NONAME ; void QWidget::actionEvent(class QActionEvent *)
	?actionGeometry@QMenu@@QBE?AVQRect@@PAVQAction@@@Z @ 1947 NONAME ; class QRect QMenu::actionGeometry(class QAction *) const
	?actionGeometry@QMenuBar@@QBE?AVQRect@@PAVQAction@@@Z @ 1948 NONAME ; class QRect QMenuBar::actionGeometry(class QAction *) const
	?actionGeometry@QToolBar@@QBE?AVQRect@@PAVQAction@@@Z @ 1949 NONAME ; class QRect QToolBar::actionGeometry(class QAction *) const
	?actionGroup@QAction@@QBEPAVQActionGroup@@XZ @ 1950 NONAME ; class QActionGroup * QAction::actionGroup(void) const
	?actionTriggered@QAbstractSlider@@IAEXH@Z @ 1951 NONAME ; void QAbstractSlider::actionTriggered(int)
	?actionTriggered@QToolBar@@IAEXPAVQAction@@@Z @ 1952 NONAME ; void QToolBar::actionTriggered(class QAction *)
	?actions@QActionGroup@@QBE?AV?$QList@PAVQAction@@@@XZ @ 1953 NONAME ; class QList<class QAction *> QActionGroup::actions(void) const
	?actions@QGraphicsWidget@@QBE?AV?$QList@PAVQAction@@@@XZ @ 1954 NONAME ; class QList<class QAction *> QGraphicsWidget::actions(void) const
	?actions@QInputContext@@UAE?AV?$QList@PAVQAction@@@@XZ @ 1955 NONAME ; class QList<class QAction *> QInputContext::actions(void)
	?actions@QWidget@@QBE?AV?$QList@PAVQAction@@@@XZ @ 1956 NONAME ; class QList<class QAction *> QWidget::actions(void) const
	?activate@QAction@@QAEXW4ActionEvent@1@@Z @ 1957 NONAME ; void QAction::activate(enum QAction::ActionEvent)
	?activate@QGraphicsLayout@@QAEXXZ @ 1958 NONAME ; void QGraphicsLayout::activate(void)
	?activate@QLayout@@QAE_NXZ @ 1959 NONAME ; bool QLayout::activate(void)
	?activate@QWidgetResizeHandler@@IAEXXZ @ 1960 NONAME ; void QWidgetResizeHandler::activate(void)
	?activateChildLayoutsRecursively@QWidgetPrivate@@QAEXXZ @ 1961 NONAME ; void QWidgetPrivate::activateChildLayoutsRecursively(void)
	?activateNextSubWindow@QMdiArea@@QAEXXZ @ 1962 NONAME ; void QMdiArea::activateNextSubWindow(void)
	?activateNextWindow@QWorkspace@@QAEXXZ @ 1963 NONAME ; void QWorkspace::activateNextWindow(void)
	?activatePreviousSubWindow@QMdiArea@@QAEXXZ @ 1964 NONAME ; void QMdiArea::activatePreviousSubWindow(void)
	?activatePreviousWindow@QWorkspace@@QAEXXZ @ 1965 NONAME ; void QWorkspace::activatePreviousWindow(void)
	?activateRecursiveHelper@QLayout@@CAXPAVQLayoutItem@@@Z @ 1966 NONAME ; void QLayout::activateRecursiveHelper(class QLayoutItem *)
	?activateSymbianWindow@QWidgetPrivate@@QAEXPAVCCoeControl@@@Z @ 1967 NONAME ; void QWidgetPrivate::activateSymbianWindow(class CCoeControl *)
	?activateWindow@QWidget@@QAEXXZ @ 1968 NONAME ; void QWidget::activateWindow(void)
	?activated@QAbstractItemView@@IAEXABVQModelIndex@@@Z @ 1969 NONAME ; void QAbstractItemView::activated(class QModelIndex const &)
	?activated@QCalendarWidget@@IAEXABVQDate@@@Z @ 1970 NONAME ; void QCalendarWidget::activated(class QDate const &)
	?activated@QComboBox@@IAEXABVQString@@@Z @ 1971 NONAME ; void QComboBox::activated(class QString const &)
	?activated@QComboBox@@IAEXH@Z @ 1972 NONAME ; void QComboBox::activated(int)
	?activated@QCompleter@@IAEXABVQModelIndex@@@Z @ 1973 NONAME ; void QCompleter::activated(class QModelIndex const &)
	?activated@QCompleter@@IAEXABVQString@@@Z @ 1974 NONAME ; void QCompleter::activated(class QString const &)
	?activated@QShortcut@@IAEXXZ @ 1975 NONAME ; void QShortcut::activated(void)
	?activatedAmbiguously@QShortcut@@IAEXXZ @ 1976 NONAME ; void QShortcut::activatedAmbiguously(void)
	?activationOrder@QMdiArea@@QBE?AW4WindowOrder@1@XZ @ 1977 NONAME ; enum QMdiArea::WindowOrder QMdiArea::activationOrder(void) const
	?activeAction@QMenu@@QBEPAVQAction@@XZ @ 1978 NONAME ; class QAction * QMenu::activeAction(void) const
	?activeAction@QMenuBar@@QBEPAVQAction@@XZ @ 1979 NONAME ; class QAction * QMenuBar::activeAction(void) const
	?activeGestures@QGestureEvent@@QBE?AV?$QList@PAVQGesture@@@@XZ @ 1980 NONAME ; class QList<class QGesture *> QGestureEvent::activeGestures(void) const
	?activeModalWidget@QApplication@@SAPAVQWidget@@XZ @ 1981 NONAME ; class QWidget * QApplication::activeModalWidget(void)
	?activePanel@QGraphicsScene@@QBEPAVQGraphicsItem@@XZ @ 1982 NONAME ; class QGraphicsItem * QGraphicsScene::activePanel(void) const
	?activePopupWidget@QApplication@@SAPAVQWidget@@XZ @ 1983 NONAME ; class QWidget * QApplication::activePopupWidget(void)
	?activeStack@QUndoGroup@@QBEPAVQUndoStack@@XZ @ 1984 NONAME ; class QUndoStack * QUndoGroup::activeStack(void) const
	?activeStackChanged@QUndoGroup@@IAEXPAVQUndoStack@@@Z @ 1985 NONAME ; void QUndoGroup::activeStackChanged(class QUndoStack *)
	?activeSubWindow@QMdiArea@@QBEPAVQMdiSubWindow@@XZ @ 1986 NONAME ; class QMdiSubWindow * QMdiArea::activeSubWindow(void) const
	?activeWindow@QApplication@@SAPAVQWidget@@XZ @ 1987 NONAME ; class QWidget * QApplication::activeWindow(void)
	?activeWindow@QGraphicsScene@@QBEPAVQGraphicsWidget@@XZ @ 1988 NONAME ; class QGraphicsWidget * QGraphicsScene::activeWindow(void) const
	?activeWindow@QWorkspace@@QBEPAVQWidget@@XZ @ 1989 NONAME ; class QWidget * QWorkspace::activeWindow(void) const
	?actualSize@QIcon@@QBE?AVQSize@@ABV2@W4Mode@1@W4State@1@@Z @ 1990 NONAME ; class QSize QIcon::actualSize(class QSize const &, enum QIcon::Mode, enum QIcon::State) const
	?actualSize@QIconEngine@@UAE?AVQSize@@ABV2@W4Mode@QIcon@@W4State@4@@Z @ 1991 NONAME ; class QSize QIconEngine::actualSize(class QSize const &, enum QIcon::Mode, enum QIcon::State)
	?add@QTextList@@QAEXABVQTextBlock@@@Z @ 1992 NONAME ; void QTextList::add(class QTextBlock const &)
	?addAction@QActionGroup@@QAEPAVQAction@@ABVQIcon@@ABVQString@@@Z @ 1993 NONAME ; class QAction * QActionGroup::addAction(class QIcon const &, class QString const &)
	?addAction@QActionGroup@@QAEPAVQAction@@ABVQString@@@Z @ 1994 NONAME ; class QAction * QActionGroup::addAction(class QString const &)
	?addAction@QActionGroup@@QAEPAVQAction@@PAV2@@Z @ 1995 NONAME ; class QAction * QActionGroup::addAction(class QAction *)
	?addAction@QGraphicsWidget@@QAEXPAVQAction@@@Z @ 1996 NONAME ; void QGraphicsWidget::addAction(class QAction *)
	?addAction@QMenu@@QAEPAVQAction@@ABVQIcon@@ABVQString@@@Z @ 1997 NONAME ; class QAction * QMenu::addAction(class QIcon const &, class QString const &)
	?addAction@QMenu@@QAEPAVQAction@@ABVQIcon@@ABVQString@@PBVQObject@@PBDABVQKeySequence@@@Z @ 1998 NONAME ; class QAction * QMenu::addAction(class QIcon const &, class QString const &, class QObject const *, char const *, class QKeySequence const &)
	?addAction@QMenu@@QAEPAVQAction@@ABVQString@@@Z @ 1999 NONAME ; class QAction * QMenu::addAction(class QString const &)
	?addAction@QMenu@@QAEPAVQAction@@ABVQString@@PBVQObject@@PBDABVQKeySequence@@@Z @ 2000 NONAME ; class QAction * QMenu::addAction(class QString const &, class QObject const *, char const *, class QKeySequence const &)
	?addAction@QMenuBar@@QAEPAVQAction@@ABVQString@@@Z @ 2001 NONAME ; class QAction * QMenuBar::addAction(class QString const &)
	?addAction@QMenuBar@@QAEPAVQAction@@ABVQString@@PBVQObject@@PBD@Z @ 2002 NONAME ; class QAction * QMenuBar::addAction(class QString const &, class QObject const *, char const *)
	?addAction@QToolBar@@QAEPAVQAction@@ABVQIcon@@ABVQString@@@Z @ 2003 NONAME ; class QAction * QToolBar::addAction(class QIcon const &, class QString const &)
	?addAction@QToolBar@@QAEPAVQAction@@ABVQIcon@@ABVQString@@PBVQObject@@PBD@Z @ 2004 NONAME ; class QAction * QToolBar::addAction(class QIcon const &, class QString const &, class QObject const *, char const *)
	?addAction@QToolBar@@QAEPAVQAction@@ABVQString@@@Z @ 2005 NONAME ; class QAction * QToolBar::addAction(class QString const &)
	?addAction@QToolBar@@QAEPAVQAction@@ABVQString@@PBVQObject@@PBD@Z @ 2006 NONAME ; class QAction * QToolBar::addAction(class QString const &, class QObject const *, char const *)
	?addAction@QWidget@@QAEXPAVQAction@@@Z @ 2007 NONAME ; void QWidget::addAction(class QAction *)
	?addActions@QGraphicsWidget@@QAEXV?$QList@PAVQAction@@@@@Z @ 2008 NONAME ; void QGraphicsWidget::addActions(class QList<class QAction *>)
	?addActions@QWidget@@QAEXV?$QList@PAVQAction@@@@@Z @ 2009 NONAME ; void QWidget::addActions(class QList<class QAction *>)
	?addAnchor@QGraphicsAnchorLayout@@QAEPAVQGraphicsAnchor@@PAVQGraphicsLayoutItem@@W4AnchorPoint@Qt@@01@Z @ 2010 NONAME ; class QGraphicsAnchor * QGraphicsAnchorLayout::addAnchor(class QGraphicsLayoutItem *, enum Qt::AnchorPoint, class QGraphicsLayoutItem *, enum Qt::AnchorPoint)
	?addAnchors@QGraphicsAnchorLayout@@QAEXPAVQGraphicsLayoutItem@@0V?$QFlags@W4Orientation@Qt@@@@@Z @ 2011 NONAME ; void QGraphicsAnchorLayout::addAnchors(class QGraphicsLayoutItem *, class QGraphicsLayoutItem *, class QFlags<enum Qt::Orientation>)
	?addApplicationFont@QFontDatabase@@SAHABVQString@@@Z @ 2012 NONAME ; int QFontDatabase::addApplicationFont(class QString const &)
	?addApplicationFontFromData@QFontDatabase@@SAHABVQByteArray@@@Z @ 2013 NONAME ; int QFontDatabase::addApplicationFontFromData(class QByteArray const &)
	?addBitmapFontToPath@QFontEngine@@QAEXMMABUQGlyphLayout@@PAVQPainterPath@@V?$QFlags@W4RenderFlag@QTextItem@@@@@Z @ 2014 NONAME ; void QFontEngine::addBitmapFontToPath(float, float, struct QGlyphLayout const &, class QPainterPath *, class QFlags<enum QTextItem::RenderFlag>)
	?addButton@QButtonGroup@@QAEXPAVQAbstractButton@@@Z @ 2015 NONAME ; void QButtonGroup::addButton(class QAbstractButton *)
	?addButton@QButtonGroup@@QAEXPAVQAbstractButton@@H@Z @ 2016 NONAME ; void QButtonGroup::addButton(class QAbstractButton *, int)
	?addButton@QDialogButtonBox@@QAEPAVQPushButton@@ABVQString@@W4ButtonRole@1@@Z @ 2017 NONAME ; class QPushButton * QDialogButtonBox::addButton(class QString const &, enum QDialogButtonBox::ButtonRole)
	?addButton@QDialogButtonBox@@QAEPAVQPushButton@@W4StandardButton@1@@Z @ 2018 NONAME ; class QPushButton * QDialogButtonBox::addButton(enum QDialogButtonBox::StandardButton)
	?addButton@QDialogButtonBox@@QAEXPAVQAbstractButton@@W4ButtonRole@1@@Z @ 2019 NONAME ; void QDialogButtonBox::addButton(class QAbstractButton *, enum QDialogButtonBox::ButtonRole)
	?addButton@QMessageBox@@QAEPAVQPushButton@@ABVQString@@W4ButtonRole@1@@Z @ 2020 NONAME ; class QPushButton * QMessageBox::addButton(class QString const &, enum QMessageBox::ButtonRole)
	?addButton@QMessageBox@@QAEPAVQPushButton@@W4StandardButton@1@@Z @ 2021 NONAME ; class QPushButton * QMessageBox::addButton(enum QMessageBox::StandardButton)
	?addButton@QMessageBox@@QAEXPAVQAbstractButton@@W4ButtonRole@1@@Z @ 2022 NONAME ; void QMessageBox::addButton(class QAbstractButton *, enum QMessageBox::ButtonRole)
	?addCacheData@QVectorPath@@QAEPAUCacheEntry@1@PAVQPaintEngineEx@@PAXP6AX1@Z@Z @ 2023 NONAME ABSENT ; struct QVectorPath::CacheEntry * QVectorPath::addCacheData(class QPaintEngineEx *, void *, void (*)(void *))
	?addChild@QGraphicsItemPrivate@@QAEXPAVQGraphicsItem@@@Z @ 2024 NONAME ; void QGraphicsItemPrivate::addChild(class QGraphicsItem *)
	?addChild@QTreeWidgetItem@@QAEXPAV1@@Z @ 2025 NONAME ; void QTreeWidgetItem::addChild(class QTreeWidgetItem *)
	?addChildLayout@QLayout@@IAEXPAV1@@Z @ 2026 NONAME ; void QLayout::addChildLayout(class QLayout *)
	?addChildLayoutItem@QGraphicsLayout@@IAEXPAVQGraphicsLayoutItem@@@Z @ 2027 NONAME ; void QGraphicsLayout::addChildLayoutItem(class QGraphicsLayoutItem *)
	?addChildWidget@QLayout@@IAEXPAVQWidget@@@Z @ 2028 NONAME ; void QLayout::addChildWidget(class QWidget *)
	?addChildren@QTreeWidgetItem@@QAEXABV?$QList@PAVQTreeWidgetItem@@@@@Z @ 2029 NONAME ; void QTreeWidgetItem::addChildren(class QList<class QTreeWidgetItem *> const &)
	?addCommand@QLineControl@@AAEXABUCommand@1@@Z @ 2030 NONAME ; void QLineControl::addCommand(struct QLineControl::Command const &)
	?addCornerAnchors@QGraphicsAnchorLayout@@QAEXPAVQGraphicsLayoutItem@@W4Corner@Qt@@01@Z @ 2031 NONAME ; void QGraphicsAnchorLayout::addCornerAnchors(class QGraphicsLayoutItem *, enum Qt::Corner, class QGraphicsLayoutItem *, enum Qt::Corner)
	?addDockWidget@QMainWindow@@QAEXW4DockWidgetArea@Qt@@PAVQDockWidget@@@Z @ 2032 NONAME ; void QMainWindow::addDockWidget(enum Qt::DockWidgetArea, class QDockWidget *)
	?addDockWidget@QMainWindow@@QAEXW4DockWidgetArea@Qt@@PAVQDockWidget@@W4Orientation@3@@Z @ 2033 NONAME ; void QMainWindow::addDockWidget(enum Qt::DockWidgetArea, class QDockWidget *, enum Qt::Orientation)
	?addEllipse@QGraphicsScene@@QAEPAVQGraphicsEllipseItem@@ABVQRectF@@ABVQPen@@ABVQBrush@@@Z @ 2034 NONAME ; class QGraphicsEllipseItem * QGraphicsScene::addEllipse(class QRectF const &, class QPen const &, class QBrush const &)
	?addEllipse@QGraphicsScene@@QAEPAVQGraphicsEllipseItem@@MMMMABVQPen@@ABVQBrush@@@Z @ 2035 NONAME ; class QGraphicsEllipseItem * QGraphicsScene::addEllipse(float, float, float, float, class QPen const &, class QBrush const &)
	?addEllipse@QPainterPath@@QAEXABVQPointF@@MM@Z @ 2036 NONAME ; void QPainterPath::addEllipse(class QPointF const &, float, float)
	?addEllipse@QPainterPath@@QAEXABVQRectF@@@Z @ 2037 NONAME ; void QPainterPath::addEllipse(class QRectF const &)
	?addEllipse@QPainterPath@@QAEXMMMM@Z @ 2038 NONAME ; void QPainterPath::addEllipse(float, float, float, float)
	?addFile@QIcon@@QAEXABVQString@@ABVQSize@@W4Mode@1@W4State@1@@Z @ 2039 NONAME ; void QIcon::addFile(class QString const &, class QSize const &, enum QIcon::Mode, enum QIcon::State)
	?addFile@QIconEngine@@UAEXABVQString@@ABVQSize@@W4Mode@QIcon@@W4State@5@@Z @ 2040 NONAME ; void QIconEngine::addFile(class QString const &, class QSize const &, enum QIcon::Mode, enum QIcon::State)
	?addGlyphsToPath@QFontEngine@@UAEXPAIPAUQFixedPoint@@HPAVQPainterPath@@V?$QFlags@W4RenderFlag@QTextItem@@@@@Z @ 2041 NONAME ; void QFontEngine::addGlyphsToPath(unsigned int *, struct QFixedPoint *, int, class QPainterPath *, class QFlags<enum QTextItem::RenderFlag>)
	?addIfClose@QBezier@@QBEXPAMM@Z @ 2042 NONAME ; void QBezier::addIfClose(float *, float) const
	?addImageHook@QImagePixmapCleanupHooks@@QAEXP6AX_J@Z@Z @ 2043 NONAME ; void QImagePixmapCleanupHooks::addImageHook(void (*)(long long))
	?addItem@QBoxLayout@@UAEXPAVQLayoutItem@@@Z @ 2044 NONAME ; void QBoxLayout::addItem(class QLayoutItem *)
	?addItem@QComboBox@@QAEXABVQIcon@@ABVQString@@ABVQVariant@@@Z @ 2045 NONAME ; void QComboBox::addItem(class QIcon const &, class QString const &, class QVariant const &)
	?addItem@QComboBox@@QAEXABVQString@@ABVQVariant@@@Z @ 2046 NONAME ; void QComboBox::addItem(class QString const &, class QVariant const &)
	?addItem@QDockWidgetLayout@@UAEXPAVQLayoutItem@@@Z @ 2047 NONAME ; void QDockWidgetLayout::addItem(class QLayoutItem *)
	?addItem@QFormLayout@@UAEXPAVQLayoutItem@@@Z @ 2048 NONAME ; void QFormLayout::addItem(class QLayoutItem *)
	?addItem@QGraphicsGridLayout@@QAEXPAVQGraphicsLayoutItem@@HHHHV?$QFlags@W4AlignmentFlag@Qt@@@@@Z @ 2049 NONAME ; void QGraphicsGridLayout::addItem(class QGraphicsLayoutItem *, int, int, int, int, class QFlags<enum Qt::AlignmentFlag>)
	?addItem@QGraphicsGridLayout@@QAEXPAVQGraphicsLayoutItem@@HHV?$QFlags@W4AlignmentFlag@Qt@@@@@Z @ 2050 NONAME ; void QGraphicsGridLayout::addItem(class QGraphicsLayoutItem *, int, int, class QFlags<enum Qt::AlignmentFlag>)
	?addItem@QGraphicsLinearLayout@@QAEXPAVQGraphicsLayoutItem@@@Z @ 2051 NONAME ; void QGraphicsLinearLayout::addItem(class QGraphicsLayoutItem *)
	?addItem@QGraphicsScene@@QAEXPAVQGraphicsItem@@@Z @ 2052 NONAME ; void QGraphicsScene::addItem(class QGraphicsItem *)
	?addItem@QGridLayout@@MAEXPAVQLayoutItem@@@Z @ 2053 NONAME ; void QGridLayout::addItem(class QLayoutItem *)
	?addItem@QGridLayout@@QAEXPAVQLayoutItem@@HHHHV?$QFlags@W4AlignmentFlag@Qt@@@@@Z @ 2054 NONAME ; void QGridLayout::addItem(class QLayoutItem *, int, int, int, int, class QFlags<enum Qt::AlignmentFlag>)
	?addItem@QListWidget@@QAEXABVQString@@@Z @ 2055 NONAME ; void QListWidget::addItem(class QString const &)
	?addItem@QListWidget@@QAEXPAVQListWidgetItem@@@Z @ 2056 NONAME ; void QListWidget::addItem(class QListWidgetItem *)
	?addItem@QStackedLayout@@UAEXPAVQLayoutItem@@@Z @ 2057 NONAME ; void QStackedLayout::addItem(class QLayoutItem *)
	?addItem@QToolBox@@QAEHPAVQWidget@@ABVQIcon@@ABVQString@@@Z @ 2058 NONAME ; int QToolBox::addItem(class QWidget *, class QIcon const &, class QString const &)
	?addItem@QToolBox@@QAEHPAVQWidget@@ABVQString@@@Z @ 2059 NONAME ; int QToolBox::addItem(class QWidget *, class QString const &)
	?addItems@QComboBox@@QAEXABVQStringList@@@Z @ 2060 NONAME ; void QComboBox::addItems(class QStringList const &)
	?addItems@QListWidget@@QAEXABVQStringList@@@Z @ 2061 NONAME ; void QListWidget::addItems(class QStringList const &)
	?addLayout@QBoxLayout@@QAEXPAVQLayout@@H@Z @ 2062 NONAME ; void QBoxLayout::addLayout(class QLayout *, int)
	?addLayout@QGridLayout@@QAEXPAVQLayout@@HHHHV?$QFlags@W4AlignmentFlag@Qt@@@@@Z @ 2063 NONAME ; void QGridLayout::addLayout(class QLayout *, int, int, int, int, class QFlags<enum Qt::AlignmentFlag>)
	?addLayout@QGridLayout@@QAEXPAVQLayout@@HHV?$QFlags@W4AlignmentFlag@Qt@@@@@Z @ 2064 NONAME ; void QGridLayout::addLayout(class QLayout *, int, int, class QFlags<enum Qt::AlignmentFlag>)
	?addLine@QGraphicsScene@@QAEPAVQGraphicsLineItem@@ABVQLineF@@ABVQPen@@@Z @ 2065 NONAME ; class QGraphicsLineItem * QGraphicsScene::addLine(class QLineF const &, class QPen const &)
	?addLine@QGraphicsScene@@QAEPAVQGraphicsLineItem@@MMMMABVQPen@@@Z @ 2066 NONAME ; class QGraphicsLineItem * QGraphicsScene::addLine(float, float, float, float, class QPen const &)
	?addMapping@QDataWidgetMapper@@QAEXPAVQWidget@@H@Z @ 2067 NONAME ; void QDataWidgetMapper::addMapping(class QWidget *, int)
	?addMapping@QDataWidgetMapper@@QAEXPAVQWidget@@HABVQByteArray@@@Z @ 2068 NONAME ; void QDataWidgetMapper::addMapping(class QWidget *, int, class QByteArray const &)
	?addMenu@QMenu@@QAEPAV1@ABVQIcon@@ABVQString@@@Z @ 2069 NONAME ; class QMenu * QMenu::addMenu(class QIcon const &, class QString const &)
	?addMenu@QMenu@@QAEPAV1@ABVQString@@@Z @ 2070 NONAME ; class QMenu * QMenu::addMenu(class QString const &)
	?addMenu@QMenu@@QAEPAVQAction@@PAV1@@Z @ 2071 NONAME ; class QAction * QMenu::addMenu(class QMenu *)
	?addMenu@QMenuBar@@QAEPAVQAction@@PAVQMenu@@@Z @ 2072 NONAME ; class QAction * QMenuBar::addMenu(class QMenu *)
	?addMenu@QMenuBar@@QAEPAVQMenu@@ABVQIcon@@ABVQString@@@Z @ 2073 NONAME ; class QMenu * QMenuBar::addMenu(class QIcon const &, class QString const &)
	?addMenu@QMenuBar@@QAEPAVQMenu@@ABVQString@@@Z @ 2074 NONAME ; class QMenu * QMenuBar::addMenu(class QString const &)
	?addOutlineToPath@QFontEngine@@UAEXMMABUQGlyphLayout@@PAVQPainterPath@@V?$QFlags@W4RenderFlag@QTextItem@@@@@Z @ 2075 NONAME ; void QFontEngine::addOutlineToPath(float, float, struct QGlyphLayout const &, class QPainterPath *, class QFlags<enum QTextItem::RenderFlag>)
	?addPage@QWizard@@QAEHPAVQWizardPage@@@Z @ 2076 NONAME ; int QWizard::addPage(class QWizardPage *)
	?addPath@QGraphicsScene@@QAEPAVQGraphicsPathItem@@ABVQPainterPath@@ABVQPen@@ABVQBrush@@@Z @ 2077 NONAME ; class QGraphicsPathItem * QGraphicsScene::addPath(class QPainterPath const &, class QPen const &, class QBrush const &)
	?addPath@QPainterPath@@QAEXABV1@@Z @ 2078 NONAME ; void QPainterPath::addPath(class QPainterPath const &)
	?addPermanentWidget@QStatusBar@@QAEXPAVQWidget@@H@Z @ 2079 NONAME ; void QStatusBar::addPermanentWidget(class QWidget *, int)
	?addPixmap@QGraphicsScene@@QAEPAVQGraphicsPixmapItem@@ABVQPixmap@@@Z @ 2080 NONAME ; class QGraphicsPixmapItem * QGraphicsScene::addPixmap(class QPixmap const &)
	?addPixmap@QIcon@@QAEXABVQPixmap@@W4Mode@1@W4State@1@@Z @ 2081 NONAME ; void QIcon::addPixmap(class QPixmap const &, enum QIcon::Mode, enum QIcon::State)
	?addPixmap@QIconEngine@@UAEXABVQPixmap@@W4Mode@QIcon@@W4State@4@@Z @ 2082 NONAME ; void QIconEngine::addPixmap(class QPixmap const &, enum QIcon::Mode, enum QIcon::State)
	?addPixmapDestructionHook@QImagePixmapCleanupHooks@@QAEXP6AXPAVQPixmap@@@Z@Z @ 2083 NONAME ABSENT ; void QImagePixmapCleanupHooks::addPixmapDestructionHook(void (*)(class QPixmap *))
	?addPixmapModificationHook@QImagePixmapCleanupHooks@@QAEXP6AXPAVQPixmap@@@Z@Z @ 2084 NONAME ABSENT ; void QImagePixmapCleanupHooks::addPixmapModificationHook(void (*)(class QPixmap *))
	?addPolygon@QGraphicsScene@@QAEPAVQGraphicsPolygonItem@@ABVQPolygonF@@ABVQPen@@ABVQBrush@@@Z @ 2085 NONAME ; class QGraphicsPolygonItem * QGraphicsScene::addPolygon(class QPolygonF const &, class QPen const &, class QBrush const &)
	?addPolygon@QPainterPath@@QAEXABVQPolygonF@@@Z @ 2086 NONAME ; void QPainterPath::addPolygon(class QPolygonF const &)
	?addRect@QGraphicsScene@@QAEPAVQGraphicsRectItem@@ABVQRectF@@ABVQPen@@ABVQBrush@@@Z @ 2087 NONAME ; class QGraphicsRectItem * QGraphicsScene::addRect(class QRectF const &, class QPen const &, class QBrush const &)
	?addRect@QGraphicsScene@@QAEPAVQGraphicsRectItem@@MMMMABVQPen@@ABVQBrush@@@Z @ 2088 NONAME ; class QGraphicsRectItem * QGraphicsScene::addRect(float, float, float, float, class QPen const &, class QBrush const &)
	?addRect@QPainterPath@@QAEXABVQRectF@@@Z @ 2089 NONAME ; void QPainterPath::addRect(class QRectF const &)
	?addRect@QPainterPath@@QAEXMMMM@Z @ 2090 NONAME ; void QPainterPath::addRect(float, float, float, float)
	?addRegion@QPainterPath@@QAEXABVQRegion@@@Z @ 2091 NONAME ; void QPainterPath::addRegion(class QRegion const &)
	?addRequiredBoundaries@QTextEngine@@ABEXXZ @ 2092 NONAME ; void QTextEngine::addRequiredBoundaries(void) const
	?addResource@QTextDocument@@QAEXHABVQUrl@@ABVQVariant@@@Z @ 2093 NONAME ; void QTextDocument::addResource(int, class QUrl const &, class QVariant const &)
	?addRoundRect@QPainterPath@@QAEXABVQRectF@@H@Z @ 2094 NONAME ; void QPainterPath::addRoundRect(class QRectF const &, int)
	?addRoundRect@QPainterPath@@QAEXABVQRectF@@HH@Z @ 2095 NONAME ; void QPainterPath::addRoundRect(class QRectF const &, int, int)
	?addRoundRect@QPainterPath@@QAEXMMMMH@Z @ 2096 NONAME ; void QPainterPath::addRoundRect(float, float, float, float, int)
	?addRoundRect@QPainterPath@@QAEXMMMMHH@Z @ 2097 NONAME ; void QPainterPath::addRoundRect(float, float, float, float, int, int)
	?addRoundedRect@QPainterPath@@QAEXABVQRectF@@MMW4SizeMode@Qt@@@Z @ 2098 NONAME ; void QPainterPath::addRoundedRect(class QRectF const &, float, float, enum Qt::SizeMode)
	?addRoundedRect@QPainterPath@@QAEXMMMMMMW4SizeMode@Qt@@@Z @ 2099 NONAME ; void QPainterPath::addRoundedRect(float, float, float, float, float, float, enum Qt::SizeMode)
	?addRow@QFormLayout@@QAEXABVQString@@PAVQLayout@@@Z @ 2100 NONAME ; void QFormLayout::addRow(class QString const &, class QLayout *)
	?addRow@QFormLayout@@QAEXABVQString@@PAVQWidget@@@Z @ 2101 NONAME ; void QFormLayout::addRow(class QString const &, class QWidget *)
	?addRow@QFormLayout@@QAEXPAVQLayout@@@Z @ 2102 NONAME ; void QFormLayout::addRow(class QLayout *)
	?addRow@QFormLayout@@QAEXPAVQWidget@@0@Z @ 2103 NONAME ; void QFormLayout::addRow(class QWidget *, class QWidget *)
	?addRow@QFormLayout@@QAEXPAVQWidget@@@Z @ 2104 NONAME ; void QFormLayout::addRow(class QWidget *)
	?addRow@QFormLayout@@QAEXPAVQWidget@@PAVQLayout@@@Z @ 2105 NONAME ; void QFormLayout::addRow(class QWidget *, class QLayout *)
	?addScrollBarWidget@QAbstractScrollArea@@QAEXPAVQWidget@@V?$QFlags@W4AlignmentFlag@Qt@@@@@Z @ 2106 NONAME ; void QAbstractScrollArea::addScrollBarWidget(class QWidget *, class QFlags<enum Qt::AlignmentFlag>)
	?addSeparator@QMenu@@QAEPAVQAction@@XZ @ 2107 NONAME ; class QAction * QMenu::addSeparator(void)
	?addSeparator@QMenuBar@@QAEPAVQAction@@XZ @ 2108 NONAME ; class QAction * QMenuBar::addSeparator(void)
	?addSeparator@QToolBar@@QAEPAVQAction@@XZ @ 2109 NONAME ; class QAction * QToolBar::addSeparator(void)
	?addSimpleText@QGraphicsScene@@QAEPAVQGraphicsSimpleTextItem@@ABVQString@@ABVQFont@@@Z @ 2110 NONAME ; class QGraphicsSimpleTextItem * QGraphicsScene::addSimpleText(class QString const &, class QFont const &)
	?addSpacerItem@QBoxLayout@@QAEXPAVQSpacerItem@@@Z @ 2111 NONAME ; void QBoxLayout::addSpacerItem(class QSpacerItem *)
	?addSpacing@QBoxLayout@@QAEXH@Z @ 2112 NONAME ; void QBoxLayout::addSpacing(int)
	?addStack@QUndoGroup@@QAEXPAVQUndoStack@@@Z @ 2113 NONAME ; void QUndoGroup::addStack(class QUndoStack *)
	?addStretch@QBoxLayout@@QAEXH@Z @ 2114 NONAME ; void QBoxLayout::addStretch(int)
	?addStretch@QGraphicsLinearLayout@@QAEXH@Z @ 2115 NONAME ; void QGraphicsLinearLayout::addStretch(int)
	?addStrut@QBoxLayout@@QAEXH@Z @ 2116 NONAME ; void QBoxLayout::addStrut(int)
	?addSubWindow@QMdiArea@@QAEPAVQMdiSubWindow@@PAVQWidget@@V?$QFlags@W4WindowType@Qt@@@@@Z @ 2117 NONAME ; class QMdiSubWindow * QMdiArea::addSubWindow(class QWidget *, class QFlags<enum Qt::WindowType>)
	?addTab@QTabBar@@QAEHABVQIcon@@ABVQString@@@Z @ 2118 NONAME ; int QTabBar::addTab(class QIcon const &, class QString const &)
	?addTab@QTabBar@@QAEHABVQString@@@Z @ 2119 NONAME ; int QTabBar::addTab(class QString const &)
	?addTab@QTabWidget@@QAEHPAVQWidget@@ABVQIcon@@ABVQString@@@Z @ 2120 NONAME ; int QTabWidget::addTab(class QWidget *, class QIcon const &, class QString const &)
	?addTab@QTabWidget@@QAEHPAVQWidget@@ABVQString@@@Z @ 2121 NONAME ; int QTabWidget::addTab(class QWidget *, class QString const &)
	?addText@QGraphicsScene@@QAEPAVQGraphicsTextItem@@ABVQString@@ABVQFont@@@Z @ 2122 NONAME ; class QGraphicsTextItem * QGraphicsScene::addText(class QString const &, class QFont const &)
	?addText@QPainterPath@@QAEXABVQPointF@@ABVQFont@@ABVQString@@@Z @ 2123 NONAME ; void QPainterPath::addText(class QPointF const &, class QFont const &, class QString const &)
	?addText@QPainterPath@@QAEXMMABVQFont@@ABVQString@@@Z @ 2124 NONAME ; void QPainterPath::addText(float, float, class QFont const &, class QString const &)
	?addToGroup@QGraphicsItemGroup@@QAEXPAVQGraphicsItem@@@Z @ 2125 NONAME ; void QGraphicsItemGroup::addToGroup(class QGraphicsItem *)
	?addToIndex@QGraphicsItem@@IAEXXZ @ 2126 NONAME ; void QGraphicsItem::addToIndex(void)
	?addToPolygon@QBezier@@QBEXPAVQPolygonF@@@Z @ 2127 NONAME ABSENT ; void QBezier::addToPolygon(class QPolygonF *) const
	?addToPolygonIterative@QBezier@@QBEXPAVQPolygonF@@@Z @ 2128 NONAME ABSENT ; void QBezier::addToPolygonIterative(class QPolygonF *) const
	?addToPolygonMixed@QBezier@@QBEXPAVQPolygonF@@@Z @ 2129 NONAME ABSENT ; void QBezier::addToPolygonMixed(class QPolygonF *) const
	?addToolBar@QMainWindow@@QAEPAVQToolBar@@ABVQString@@@Z @ 2130 NONAME ; class QToolBar * QMainWindow::addToolBar(class QString const &)
	?addToolBar@QMainWindow@@QAEXPAVQToolBar@@@Z @ 2131 NONAME ; void QMainWindow::addToolBar(class QToolBar *)
	?addToolBar@QMainWindow@@QAEXW4ToolBarArea@Qt@@PAVQToolBar@@@Z @ 2132 NONAME ; void QMainWindow::addToolBar(enum Qt::ToolBarArea, class QToolBar *)
	?addToolBarBreak@QMainWindow@@QAEXW4ToolBarArea@Qt@@@Z @ 2133 NONAME ; void QMainWindow::addToolBarBreak(enum Qt::ToolBarArea)
	?addTopLevelItem@QTreeWidget@@QAEXPAVQTreeWidgetItem@@@Z @ 2134 NONAME ; void QTreeWidget::addTopLevelItem(class QTreeWidgetItem *)
	?addTopLevelItems@QTreeWidget@@QAEXABV?$QList@PAVQTreeWidgetItem@@@@@Z @ 2135 NONAME ; void QTreeWidget::addTopLevelItems(class QList<class QTreeWidgetItem *> const &)
	?addWidget@QBoxLayout@@QAEXPAVQWidget@@HV?$QFlags@W4AlignmentFlag@Qt@@@@@Z @ 2136 NONAME ; void QBoxLayout::addWidget(class QWidget *, int, class QFlags<enum Qt::AlignmentFlag>)
	?addWidget@QGraphicsScene@@QAEPAVQGraphicsProxyWidget@@PAVQWidget@@V?$QFlags@W4WindowType@Qt@@@@@Z @ 2137 NONAME ; class QGraphicsProxyWidget * QGraphicsScene::addWidget(class QWidget *, class QFlags<enum Qt::WindowType>)
	?addWidget@QGridLayout@@QAEXPAVQWidget@@@Z @ 2138 NONAME ; void QGridLayout::addWidget(class QWidget *)
	?addWidget@QGridLayout@@QAEXPAVQWidget@@HHHHV?$QFlags@W4AlignmentFlag@Qt@@@@@Z @ 2139 NONAME ; void QGridLayout::addWidget(class QWidget *, int, int, int, int, class QFlags<enum Qt::AlignmentFlag>)
	?addWidget@QGridLayout@@QAEXPAVQWidget@@HHV?$QFlags@W4AlignmentFlag@Qt@@@@@Z @ 2140 NONAME ; void QGridLayout::addWidget(class QWidget *, int, int, class QFlags<enum Qt::AlignmentFlag>)
	?addWidget@QLayout@@QAEXPAVQWidget@@@Z @ 2141 NONAME ; void QLayout::addWidget(class QWidget *)
	?addWidget@QSplitter@@QAEXPAVQWidget@@@Z @ 2142 NONAME ; void QSplitter::addWidget(class QWidget *)
	?addWidget@QStackedLayout@@QAEHPAVQWidget@@@Z @ 2143 NONAME ; int QStackedLayout::addWidget(class QWidget *)
	?addWidget@QStackedWidget@@QAEHPAVQWidget@@@Z @ 2144 NONAME ; int QStackedWidget::addWidget(class QWidget *)
	?addWidget@QStatusBar@@QAEXPAVQWidget@@H@Z @ 2145 NONAME ; void QStatusBar::addWidget(class QWidget *, int)
	?addWidget@QToolBar@@QAEPAVQAction@@PAVQWidget@@@Z @ 2146 NONAME ; class QAction * QToolBar::addWidget(class QWidget *)
	?addWindow@QWorkspace@@QAEPAVQWidget@@PAV2@V?$QFlags@W4WindowType@Qt@@@@@Z @ 2147 NONAME ; class QWidget * QWorkspace::addWindow(class QWidget *, class QFlags<enum Qt::WindowType>)
	?additionalFormats@QTextLayout@@QBE?AV?$QList@UFormatRange@QTextLayout@@@@XZ @ 2148 NONAME ; class QList<struct QTextLayout::FormatRange> QTextLayout::additionalFormats(void) const
	?adjoint@QTransform@@QBE?AV1@XZ @ 2149 NONAME ; class QTransform QTransform::adjoint(void) const
	?adjustFlags@QWidgetPrivate@@SAXAAV?$QFlags@W4WindowType@Qt@@@@PAVQWidget@@@Z @ 2150 NONAME ; void QWidgetPrivate::adjustFlags(class QFlags<enum Qt::WindowType> &, class QWidget *)
	?adjustPosition@QDialog@@IAEXPAVQWidget@@@Z @ 2151 NONAME ; void QDialog::adjustPosition(class QWidget *)
	?adjustQuitOnCloseAttribute@QWidgetPrivate@@QAEXXZ @ 2152 NONAME ; void QWidgetPrivate::adjustQuitOnCloseAttribute(void)
	?adjustSize@QGraphicsTextItem@@QAEXXZ @ 2153 NONAME ; void QGraphicsTextItem::adjustSize(void)
	?adjustSize@QGraphicsWidget@@QAEXXZ @ 2154 NONAME ; void QGraphicsWidget::adjustSize(void)
	?adjustSize@QTextControl@@QAEXXZ @ 2155 NONAME ; void QTextControl::adjustSize(void)
	?adjustSize@QTextDocument@@QAEXXZ @ 2156 NONAME ; void QTextDocument::adjustSize(void)
	?adjustSize@QWidget@@QAEXXZ @ 2157 NONAME ; void QWidget::adjustSize(void)
	?adjustedSize@QWidgetPrivate@@QBE?AVQSize@@XZ @ 2158 NONAME ; class QSize QWidgetPrivate::adjustedSize(void) const
	?advance@QGraphicsItem@@UAEXH@Z @ 2159 NONAME ; void QGraphicsItem::advance(int)
	?advance@QGraphicsScene@@QAEXXZ @ 2160 NONAME ; void QGraphicsScene::advance(void)
	?advanceToEnabledItem@QLineControl@@AAE_NH@Z @ 2161 NONAME ; bool QLineControl::advanceToEnabledItem(int)
	?afterAnimationStep@QGraphicsItemAnimation@@MAEXM@Z @ 2162 NONAME ; void QGraphicsItemAnimation::afterAnimationStep(float)
	?alert@QApplication@@SAXPAVQWidget@@H@Z @ 2163 NONAME ; void QApplication::alert(class QWidget *, int)
	?alignedRect@QStyle@@SA?AVQRect@@W4LayoutDirection@Qt@@V?$QFlags@W4AlignmentFlag@Qt@@@@ABVQSize@@ABV2@@Z @ 2164 NONAME ; class QRect QStyle::alignedRect(enum Qt::LayoutDirection, class QFlags<enum Qt::AlignmentFlag>, class QSize const &, class QRect const &)
	?alignment@QAbstractSpinBox@@QBE?AV?$QFlags@W4AlignmentFlag@Qt@@@@XZ @ 2165 NONAME ; class QFlags<enum Qt::AlignmentFlag> QAbstractSpinBox::alignment(void) const
	?alignment@QGraphicsGridLayout@@QBE?AV?$QFlags@W4AlignmentFlag@Qt@@@@PAVQGraphicsLayoutItem@@@Z @ 2166 NONAME ; class QFlags<enum Qt::AlignmentFlag> QGraphicsGridLayout::alignment(class QGraphicsLayoutItem *) const
	?alignment@QGraphicsLinearLayout@@QBE?AV?$QFlags@W4AlignmentFlag@Qt@@@@PAVQGraphicsLayoutItem@@@Z @ 2167 NONAME ; class QFlags<enum Qt::AlignmentFlag> QGraphicsLinearLayout::alignment(class QGraphicsLayoutItem *) const
	?alignment@QGraphicsView@@QBE?AV?$QFlags@W4AlignmentFlag@Qt@@@@XZ @ 2168 NONAME ; class QFlags<enum Qt::AlignmentFlag> QGraphicsView::alignment(void) const
	?alignment@QGroupBox@@QBE?AV?$QFlags@W4AlignmentFlag@Qt@@@@XZ @ 2169 NONAME ; class QFlags<enum Qt::AlignmentFlag> QGroupBox::alignment(void) const
	?alignment@QLabel@@QBE?AV?$QFlags@W4AlignmentFlag@Qt@@@@XZ @ 2170 NONAME ; class QFlags<enum Qt::AlignmentFlag> QLabel::alignment(void) const
	?alignment@QLayoutItem@@QBE?AV?$QFlags@W4AlignmentFlag@Qt@@@@XZ @ 2171 NONAME ; class QFlags<enum Qt::AlignmentFlag> QLayoutItem::alignment(void) const
	?alignment@QLineEdit@@QBE?AV?$QFlags@W4AlignmentFlag@Qt@@@@XZ @ 2172 NONAME ; class QFlags<enum Qt::AlignmentFlag> QLineEdit::alignment(void) const
	?alignment@QProgressBar@@QBE?AV?$QFlags@W4AlignmentFlag@Qt@@@@XZ @ 2173 NONAME ; class QFlags<enum Qt::AlignmentFlag> QProgressBar::alignment(void) const
	?alignment@QScrollArea@@QBE?AV?$QFlags@W4AlignmentFlag@Qt@@@@XZ @ 2174 NONAME ; class QFlags<enum Qt::AlignmentFlag> QScrollArea::alignment(void) const
	?alignment@QTextBlockFormat@@QBE?AV?$QFlags@W4AlignmentFlag@Qt@@@@XZ @ 2175 NONAME ; class QFlags<enum Qt::AlignmentFlag> QTextBlockFormat::alignment(void) const
	?alignment@QTextEdit@@QBE?AV?$QFlags@W4AlignmentFlag@Qt@@@@XZ @ 2176 NONAME ; class QFlags<enum Qt::AlignmentFlag> QTextEdit::alignment(void) const
	?alignment@QTextOption@@QBE?AV?$QFlags@W4AlignmentFlag@Qt@@@@XZ @ 2177 NONAME ; class QFlags<enum Qt::AlignmentFlag> QTextOption::alignment(void) const
	?alignment@QTextTableFormat@@QBE?AV?$QFlags@W4AlignmentFlag@Qt@@@@XZ @ 2178 NONAME ; class QFlags<enum Qt::AlignmentFlag> QTextTableFormat::alignment(void) const
	?alignmentRect@QLayout@@IBE?AVQRect@@ABV2@@Z @ 2179 NONAME ; class QRect QLayout::alignmentRect(class QRect const &) const
	?allColumnsShowFocus@QTreeView@@QBE_NXZ @ 2180 NONAME ; bool QTreeView::allColumnsShowFocus(void) const
	?allFormats@QTextDocument@@QBE?AV?$QVector@VQTextFormat@@@@XZ @ 2181 NONAME ; class QVector<class QTextFormat> QTextDocument::allFormats(void) const
	?allGray@QImage@@QBE_NXZ @ 2182 NONAME ; bool QImage::allGray(void) const
	?allSelected@QLineControl@@QBE_NXZ @ 2183 NONAME ; bool QLineControl::allSelected(void) const
	?allWidgets@QApplication@@SA?AV?$QList@PAVQWidget@@@@XZ @ 2184 NONAME ; class QList<class QWidget *> QApplication::allWidgets(void)
	?allowedAreas@QDockWidget@@QBE?AV?$QFlags@W4DockWidgetArea@Qt@@@@XZ @ 2185 NONAME ; class QFlags<enum Qt::DockWidgetArea> QDockWidget::allowedAreas(void) const
	?allowedAreas@QToolBar@@QBE?AV?$QFlags@W4ToolBarArea@Qt@@@@XZ @ 2186 NONAME ; class QFlags<enum Qt::ToolBarArea> QToolBar::allowedAreas(void) const
	?allowedAreasChanged@QDockWidget@@IAEXV?$QFlags@W4DockWidgetArea@Qt@@@@@Z @ 2187 NONAME ; void QDockWidget::allowedAreasChanged(class QFlags<enum Qt::DockWidgetArea>)
	?allowedAreasChanged@QToolBar@@IAEXV?$QFlags@W4ToolBarArea@Qt@@@@@Z @ 2188 NONAME ; void QToolBar::allowedAreasChanged(class QFlags<enum Qt::ToolBarArea>)
	?allowsInteraction@QSessionManager@@QAE_NXZ @ 2189 NONAME ; bool QSessionManager::allowsInteraction(void)
	?alpha@QColor@@QBEHXZ @ 2190 NONAME ; int QColor::alpha(void) const
	?alphaChannel@QImage@@QBE?AV1@XZ @ 2191 NONAME ; class QImage QImage::alphaChannel(void) const
	?alphaChannel@QPixmap@@QBE?AV1@XZ @ 2192 NONAME ; class QPixmap QPixmap::alphaChannel(void) const
	?alphaChannel@QPixmapData@@UBE?AVQPixmap@@XZ @ 2193 NONAME ; class QPixmap QPixmapData::alphaChannel(void) const
	?alphaF@QColor@@QBEMXZ @ 2194 NONAME ; float QColor::alphaF(void) const
	?alphaMapForGlyph@QFontEngine@@UAE?AVQImage@@I@Z @ 2195 NONAME ; class QImage QFontEngine::alphaMapForGlyph(unsigned int)
	?alphaMapForGlyph@QFontEngine@@UAE?AVQImage@@IABVQTransform@@@Z @ 2196 NONAME ; class QImage QFontEngine::alphaMapForGlyph(unsigned int, class QTransform const &)
	?alphaRGBMapForGlyph@QFontEngine@@UAE?AVQImage@@IHABVQTransform@@@Z @ 2197 NONAME ABSENT ; class QImage QFontEngine::alphaRGBMapForGlyph(unsigned int, int, class QTransform const &)
	?alterCharForCapitalization@QFontPrivate@@QBEXAAVQChar@@@Z @ 2198 NONAME ; void QFontPrivate::alterCharForCapitalization(class QChar &) const
	?alternateBase@QPalette@@QBEABVQBrush@@XZ @ 2199 NONAME ; class QBrush const & QPalette::alternateBase(void) const
	?alternatingRowColors@QAbstractItemView@@QBE_NXZ @ 2200 NONAME ; bool QAbstractItemView::alternatingRowColors(void) const
	?anchor@QGraphicsAnchorLayout@@QAEPAVQGraphicsAnchor@@PAVQGraphicsLayoutItem@@W4AnchorPoint@Qt@@01@Z @ 2201 NONAME ; class QGraphicsAnchor * QGraphicsAnchorLayout::anchor(class QGraphicsLayoutItem *, enum Qt::AnchorPoint, class QGraphicsLayoutItem *, enum Qt::AnchorPoint)
	?anchor@QTextCursor@@QBEHXZ @ 2202 NONAME ; int QTextCursor::anchor(void) const
	?anchorAt@QAbstractTextDocumentLayout@@QBE?AVQString@@ABVQPointF@@@Z @ 2203 NONAME ; class QString QAbstractTextDocumentLayout::anchorAt(class QPointF const &) const
	?anchorAt@QTextControl@@QBE?AVQString@@ABVQPointF@@@Z @ 2204 NONAME ; class QString QTextControl::anchorAt(class QPointF const &) const
	?anchorAt@QTextEdit@@QBE?AVQString@@ABVQPoint@@@Z @ 2205 NONAME ; class QString QTextEdit::anchorAt(class QPoint const &) const
	?anchorAtCursor@QTextControl@@QBE?AVQString@@XZ @ 2206 NONAME ; class QString QTextControl::anchorAtCursor(void) const
	?anchorClicked@QTextBrowser@@IAEXABVQUrl@@@Z @ 2207 NONAME ; void QTextBrowser::anchorClicked(class QUrl const &)
	?anchorHref@QTextCharFormat@@QBE?AVQString@@XZ @ 2208 NONAME ; class QString QTextCharFormat::anchorHref(void) const
	?anchorName@QTextCharFormat@@QBE?AVQString@@XZ @ 2209 NONAME ; class QString QTextCharFormat::anchorName(void) const
	?anchorNames@QTextCharFormat@@QBE?AVQStringList@@XZ @ 2210 NONAME ; class QStringList QTextCharFormat::anchorNames(void) const
	?anchorPosition@QTextControl@@QBE?AVQPointF@@ABVQString@@@Z @ 2211 NONAME ; class QPointF QTextControl::anchorPosition(class QString const &) const
	?angle@QConicalGradient@@QBEMXZ @ 2212 NONAME ; float QConicalGradient::angle(void) const
	?angle@QGraphicsRotation@@QBEMXZ @ 2213 NONAME ; float QGraphicsRotation::angle(void) const
	?angleAtPercent@QPainterPath@@QBEMM@Z @ 2214 NONAME ; float QPainterPath::angleAtPercent(float) const
	?angleChanged@QGraphicsRotation@@IAEXXZ @ 2215 NONAME ; void QGraphicsRotation::angleChanged(void)
	?animateClick@QAbstractButton@@QAEXH@Z @ 2216 NONAME ; void QAbstractButton::animateClick(int)
	?answerRect@QDragMoveEvent@@QBE?AVQRect@@XZ @ 2217 NONAME ; class QRect QDragMoveEvent::answerRect(void) const
	?appName@QApplicationPrivate@@UBE?AVQString@@XZ @ 2218 NONAME ; class QString QApplicationPrivate::appName(void) const
	?append@QTextControl@@QAEXABVQString@@@Z @ 2219 NONAME ; void QTextControl::append(class QString const &)
	?append@QTextEdit@@QAEXABVQString@@@Z @ 2220 NONAME ; void QTextEdit::append(class QString const &)
	?appendColumn@QStandardItem@@QAEXABV?$QList@PAVQStandardItem@@@@@Z @ 2221 NONAME ; void QStandardItem::appendColumn(class QList<class QStandardItem *> const &)
	?appendColumn@QStandardItemModel@@QAEXABV?$QList@PAVQStandardItem@@@@@Z @ 2222 NONAME ; void QStandardItemModel::appendColumn(class QList<class QStandardItem *> const &)
	?appendColumns@QTextTable@@QAEXH@Z @ 2223 NONAME ; void QTextTable::appendColumns(int)
	?appendGraphicsTransform@QGraphicsItemPrivate@@QAEXPAVQGraphicsTransform@@@Z @ 2224 NONAME ; void QGraphicsItemPrivate::appendGraphicsTransform(class QGraphicsTransform *)
	?appendHtml@QPlainTextEdit@@QAEXABVQString@@@Z @ 2225 NONAME ; void QPlainTextEdit::appendHtml(class QString const &)
	?appendHtml@QTextControl@@QAEXABVQString@@@Z @ 2226 NONAME ; void QTextControl::appendHtml(class QString const &)
	?appendPlainText@QPlainTextEdit@@QAEXABVQString@@@Z @ 2227 NONAME ; void QPlainTextEdit::appendPlainText(class QString const &)
	?appendPlainText@QTextControl@@QAEXABVQString@@@Z @ 2228 NONAME ; void QTextControl::appendPlainText(class QString const &)
	?appendRow@QStandardItem@@QAEXABV?$QList@PAVQStandardItem@@@@@Z @ 2229 NONAME ; void QStandardItem::appendRow(class QList<class QStandardItem *> const &)
	?appendRow@QStandardItem@@QAEXPAV1@@Z @ 2230 NONAME ; void QStandardItem::appendRow(class QStandardItem *)
	?appendRow@QStandardItemModel@@QAEXABV?$QList@PAVQStandardItem@@@@@Z @ 2231 NONAME ; void QStandardItemModel::appendRow(class QList<class QStandardItem *> const &)
	?appendRow@QStandardItemModel@@QAEXPAVQStandardItem@@@Z @ 2232 NONAME ; void QStandardItemModel::appendRow(class QStandardItem *)
	?appendRows@QStandardItem@@QAEXABV?$QList@PAVQStandardItem@@@@@Z @ 2233 NONAME ; void QStandardItem::appendRows(class QList<class QStandardItem *> const &)
	?appendRows@QTextTable@@QAEXH@Z @ 2234 NONAME ; void QTextTable::appendRows(int)
	?appendUndoItem@QTextDocument@@QAEXPAVQAbstractUndoItem@@@Z @ 2235 NONAME ; void QTextDocument::appendUndoItem(class QAbstractUndoItem *)
	?applicationFontFamilies@QFontDatabase@@SA?AVQStringList@@H@Z @ 2236 NONAME ; class QStringList QFontDatabase::applicationFontFamilies(int)
	?applyTo@QGraphicsRotation@@UBEXPAVQMatrix4x4@@@Z @ 2237 NONAME ; void QGraphicsRotation::applyTo(class QMatrix4x4 *) const
	?applyTo@QGraphicsScale@@UBEXPAVQMatrix4x4@@@Z @ 2238 NONAME ; void QGraphicsScale::applyTo(class QMatrix4x4 *) const
	?arcMoveTo@QPainterPath@@QAEXABVQRectF@@M@Z @ 2239 NONAME ; void QPainterPath::arcMoveTo(class QRectF const &, float)
	?arcMoveTo@QPainterPath@@QAEXMMMMM@Z @ 2240 NONAME ; void QPainterPath::arcMoveTo(float, float, float, float, float)
	?arcTo@QPainterPath@@QAEXABVQRectF@@MM@Z @ 2241 NONAME ; void QPainterPath::arcTo(class QRectF const &, float, float)
	?arcTo@QPainterPath@@QAEXMMMMMM@Z @ 2242 NONAME ; void QPainterPath::arcTo(float, float, float, float, float, float)
	?arrangeIcons@QWorkspace@@QAEXXZ @ 2243 NONAME ; void QWorkspace::arrangeIcons(void)
	?arrowType@QToolButton@@QBE?AW4ArrowType@Qt@@XZ @ 2244 NONAME ; enum Qt::ArrowType QToolButton::arrowType(void) const
	?ascent@QFontMetrics@@QBEHXZ @ 2245 NONAME ; int QFontMetrics::ascent(void) const
	?ascent@QFontMetricsF@@QBEMXZ @ 2246 NONAME ; float QFontMetricsF::ascent(void) const
	?ascent@QLineControl@@QBEHXZ @ 2247 NONAME ; int QLineControl::ascent(void) const
	?ascent@QTextInlineObject@@QBEMXZ @ 2248 NONAME ; float QTextInlineObject::ascent(void) const
	?ascent@QTextItem@@QBEMXZ @ 2249 NONAME ; float QTextItem::ascent(void) const
	?ascent@QTextLine@@QBEMXZ @ 2250 NONAME ; float QTextLine::ascent(void) const
	?assign@QKeySequence@@AAEHABVQString@@@Z @ 2251 NONAME ; int QKeySequence::assign(class QString const &)
	?associatedGraphicsWidgets@QAction@@QBE?AV?$QList@PAVQGraphicsWidget@@@@XZ @ 2252 NONAME ; class QList<class QGraphicsWidget *> QAction::associatedGraphicsWidgets(void) const
	?associatedWidgets@QAction@@QBE?AV?$QList@PAVQWidget@@@@XZ @ 2253 NONAME ; class QList<class QWidget *> QAction::associatedWidgets(void) const
	?atBlockEnd@QTextCursor@@QBE_NXZ @ 2254 NONAME ; bool QTextCursor::atBlockEnd(void) const
	?atBlockStart@QTextCursor@@QBE_NXZ @ 2255 NONAME ; bool QTextCursor::atBlockStart(void) const
	?atEnd@QTextCursor@@QBE_NXZ @ 2256 NONAME ; bool QTextCursor::atEnd(void) const
	?atEnd@iterator@QTextBlock@@QBE_NXZ @ 2257 NONAME ; bool QTextBlock::iterator::atEnd(void) const
	?atEnd@iterator@QTextFrame@@QBE_NXZ @ 2258 NONAME ; bool QTextFrame::iterator::atEnd(void) const
	?atSpace@QTextEngine@@QBE_NH@Z @ 2259 NONAME ; bool QTextEngine::atSpace(int) const
	?atStart@QTextCursor@@QBE_NXZ @ 2260 NONAME ; bool QTextCursor::atStart(void) const
	?atWordSeparator@QTextEngine@@QBE_NH@Z @ 2261 NONAME ; bool QTextEngine::atWordSeparator(int) const
	?attributes@QInputMethodEvent@@QBEABV?$QList@VAttribute@QInputMethodEvent@@@@XZ @ 2262 NONAME ; class QList<class QInputMethodEvent::Attribute> const & QInputMethodEvent::attributes(void) const
	?attributes@QTextEngine@@QBEPBUHB_CharAttributes@@XZ @ 2263 NONAME ; struct HB_CharAttributes const * QTextEngine::attributes(void) const
	?autoClose@QProgressDialog@@QBE_NXZ @ 2264 NONAME ; bool QProgressDialog::autoClose(void) const
	?autoCompletion@QComboBox@@QBE_NXZ @ 2265 NONAME ; bool QComboBox::autoCompletion(void) const
	?autoCompletionCaseSensitivity@QComboBox@@QBE?AW4CaseSensitivity@Qt@@XZ @ 2266 NONAME ; enum Qt::CaseSensitivity QComboBox::autoCompletionCaseSensitivity(void) const
	?autoDefault@QPushButton@@QBE_NXZ @ 2267 NONAME ; bool QPushButton::autoDefault(void) const
	?autoDestruct@QPaintEngine@@ABE_NXZ @ 2268 NONAME ; bool QPaintEngine::autoDestruct(void) const
	?autoDetectImageFormat@QImageReader@@QBE_NXZ @ 2269 NONAME ; bool QImageReader::autoDetectImageFormat(void) const
	?autoExclusive@QAbstractButton@@QBE_NXZ @ 2270 NONAME ; bool QAbstractButton::autoExclusive(void) const
	?autoExpandDelay@QTreeView@@QBEHXZ @ 2271 NONAME ; int QTreeView::autoExpandDelay(void) const
	?autoFillBackground@QWidget@@QBE_NXZ @ 2272 NONAME ; bool QWidget::autoFillBackground(void) const
	?autoFormatting@QTextEdit@@QBE?AV?$QFlags@W4AutoFormattingFlag@QTextEdit@@@@XZ @ 2273 NONAME ; class QFlags<enum QTextEdit::AutoFormattingFlag> QTextEdit::autoFormatting(void) const
	?autoRaise@QToolButton@@QBE_NXZ @ 2274 NONAME ; bool QToolButton::autoRaise(void) const
	?autoRepeat@QAbstractButton@@QBE_NXZ @ 2275 NONAME ; bool QAbstractButton::autoRepeat(void) const
	?autoRepeat@QAction@@QBE_NXZ @ 2276 NONAME ; bool QAction::autoRepeat(void) const
	?autoRepeat@QShortcut@@QBE_NXZ @ 2277 NONAME ; bool QShortcut::autoRepeat(void) const
	?autoRepeatDelay@QAbstractButton@@QBEHXZ @ 2278 NONAME ; int QAbstractButton::autoRepeatDelay(void) const
	?autoRepeatInterval@QAbstractButton@@QBEHXZ @ 2279 NONAME ; int QAbstractButton::autoRepeatInterval(void) const
	?autoReset@QProgressDialog@@QBE_NXZ @ 2280 NONAME ; bool QProgressDialog::autoReset(void) const
	?autoScrollMargin@QAbstractItemView@@QBEHXZ @ 2281 NONAME ; int QAbstractItemView::autoScrollMargin(void) const
	?autoSipEnabled@QApplication@@QBE_NXZ @ 2282 NONAME ; bool QApplication::autoSipEnabled(void) const
	?availableGeometry@QDesktopWidget@@QBE?BVQRect@@ABVQPoint@@@Z @ 2283 NONAME ; class QRect const QDesktopWidget::availableGeometry(class QPoint const &) const
	?availableGeometry@QDesktopWidget@@QBE?BVQRect@@H@Z @ 2284 NONAME ; class QRect const QDesktopWidget::availableGeometry(int) const
	?availableGeometry@QDesktopWidget@@QBE?BVQRect@@PBVQWidget@@@Z @ 2285 NONAME ; class QRect const QDesktopWidget::availableGeometry(class QWidget const *) const
	?availableGlyphs@QTextEngine@@QBE?AUQGlyphLayout@@PBUQScriptItem@@@Z @ 2286 NONAME ; struct QGlyphLayout QTextEngine::availableGlyphs(struct QScriptItem const *) const
	?availableRedoSteps@QTextDocument@@QBEHXZ @ 2287 NONAME ; int QTextDocument::availableRedoSteps(void) const
	?availableSizes@QIcon@@QBE?AV?$QList@VQSize@@@@W4Mode@1@W4State@1@@Z @ 2288 NONAME ; class QList<class QSize> QIcon::availableSizes(enum QIcon::Mode, enum QIcon::State) const
	?availableSizes@QIconEngineV2@@QAE?AV?$QList@VQSize@@@@W4Mode@QIcon@@W4State@4@@Z @ 2289 NONAME ; class QList<class QSize> QIconEngineV2::availableSizes(enum QIcon::Mode, enum QIcon::State)
	?availableUndoSteps@QTextDocument@@QBEHXZ @ 2290 NONAME ; int QTextDocument::availableUndoSteps(void) const
	?averageCharWidth@QFontEngine@@UBE?AUQFixed@@XZ @ 2291 NONAME ; struct QFixed QFontEngine::averageCharWidth(void) const
	?averageCharWidth@QFontMetrics@@QBEHXZ @ 2292 NONAME ; int QFontMetrics::averageCharWidth(void) const
	?averageCharWidth@QFontMetricsF@@QBEMXZ @ 2293 NONAME ; float QFontMetricsF::averageCharWidth(void) const
	?axis@QGraphicsRotation@@QBE?AVQVector3D@@XZ @ 2294 NONAME ; class QVector3D QGraphicsRotation::axis(void) const
	?axisChanged@QGraphicsRotation@@IAEXXZ @ 2295 NONAME ; void QGraphicsRotation::axisChanged(void)
	?back@QWizard@@QAEXXZ @ 2296 NONAME ; void QWizard::back(void)
	?background@QListWidgetItem@@QBE?AVQBrush@@XZ @ 2297 NONAME ; class QBrush QListWidgetItem::background(void) const
	?background@QMdiArea@@QBE?AVQBrush@@XZ @ 2298 NONAME ; class QBrush QMdiArea::background(void) const
	?background@QPainter@@QBEABVQBrush@@XZ @ 2299 NONAME ; class QBrush const & QPainter::background(void) const
	?background@QPalette@@QBEABVQBrush@@XZ @ 2300 NONAME ; class QBrush const & QPalette::background(void) const
	?background@QStandardItem@@QBE?AVQBrush@@XZ @ 2301 NONAME ; class QBrush QStandardItem::background(void) const
	?background@QTableWidgetItem@@QBE?AVQBrush@@XZ @ 2302 NONAME ; class QBrush QTableWidgetItem::background(void) const
	?background@QTextFormat@@QBE?AVQBrush@@XZ @ 2303 NONAME ; class QBrush QTextFormat::background(void) const
	?background@QTreeWidgetItem@@QBE?AVQBrush@@H@Z @ 2304 NONAME ; class QBrush QTreeWidgetItem::background(int) const
	?background@QWorkspace@@QBE?AVQBrush@@XZ @ 2305 NONAME ; class QBrush QWorkspace::background(void) const
	?backgroundBrush@QGraphicsScene@@QBE?AVQBrush@@XZ @ 2306 NONAME ; class QBrush QGraphicsScene::backgroundBrush(void) const
	?backgroundBrush@QGraphicsView@@QBE?AVQBrush@@XZ @ 2307 NONAME ; class QBrush QGraphicsView::backgroundBrush(void) const
	?backgroundBrush@QPaintEngineState@@QBE?AVQBrush@@XZ @ 2308 NONAME ; class QBrush QPaintEngineState::backgroundBrush(void) const
	?backgroundColor@QImageReader@@QBE?AVQColor@@XZ @ 2309 NONAME ; class QColor QImageReader::backgroundColor(void) const
	?backgroundColor@QListWidgetItem@@QBE?AVQColor@@XZ @ 2310 NONAME ; class QColor QListWidgetItem::backgroundColor(void) const
	?backgroundColor@QMovie@@QBE?AVQColor@@XZ @ 2311 NONAME ; class QColor QMovie::backgroundColor(void) const
	?backgroundColor@QTableWidgetItem@@QBE?AVQColor@@XZ @ 2312 NONAME ; class QColor QTableWidgetItem::backgroundColor(void) const
	?backgroundColor@QTreeWidgetItem@@QBE?AVQColor@@H@Z @ 2313 NONAME ; class QColor QTreeWidgetItem::backgroundColor(int) const
	?backgroundMode@QPaintEngineState@@QBE?AW4BGMode@Qt@@XZ @ 2314 NONAME ; enum Qt::BGMode QPaintEngineState::backgroundMode(void) const
	?backgroundMode@QPainter@@QBE?AW4BGMode@Qt@@XZ @ 2315 NONAME ; enum Qt::BGMode QPainter::backgroundMode(void) const
	?backgroundRole@QWidget@@QBE?AW4ColorRole@QPalette@@XZ @ 2316 NONAME ; enum QPalette::ColorRole QWidget::backgroundRole(void) const
	?backgroundVisible@QPlainTextEdit@@QBE_NXZ @ 2317 NONAME ; bool QPlainTextEdit::backgroundVisible(void) const
	?backspace@QLineControl@@QAEXXZ @ 2318 NONAME ; void QLineControl::backspace(void)
	?backspace@QLineEdit@@QAEXXZ @ 2319 NONAME ; void QLineEdit::backspace(void)
	?backward@QTextBrowser@@UAEXXZ @ 2320 NONAME ; void QTextBrowser::backward(void)
	?backwardAvailable@QTextBrowser@@IAEX_N@Z @ 2321 NONAME ; void QTextBrowser::backwardAvailable(bool)
	?backwardHistoryCount@QTextBrowser@@QBEHXZ @ 2322 NONAME ; int QTextBrowser::backwardHistoryCount(void) const
	?base@QPalette@@QBEABVQBrush@@XZ @ 2323 NONAME ; class QBrush const & QPalette::base(void) const
	?baseSize@QWidget@@QBE?AVQSize@@XZ @ 2324 NONAME ; class QSize QWidget::baseSize(void) const
	?baseStyle@QProxyStyle@@QBEPAVQStyle@@XZ @ 2325 NONAME ; class QStyle * QProxyStyle::baseStyle(void) const
	?basicSelectorMatches@StyleSelector@QCss@@AAE_NABUBasicSelector@2@TNodePtr@12@@Z @ 2326 NONAME ; bool QCss::StyleSelector::basicSelectorMatches(struct QCss::BasicSelector const &, union QCss::StyleSelector::NodePtr)
	?batchSize@QListView@@QBEHXZ @ 2327 NONAME ; int QListView::batchSize(void) const
	?beep@QApplication@@SAXXZ @ 2328 NONAME ; void QApplication::beep(void)
	?before@QActionEvent@@QBEPAVQAction@@XZ @ 2329 NONAME ; class QAction * QActionEvent::before(void) const
	?beforeAnimationStep@QGraphicsItemAnimation@@MAEXM@Z @ 2330 NONAME ; void QGraphicsItemAnimation::beforeAnimationStep(float)
	?begin@QDashStroker@@UAEXPAX@Z @ 2331 NONAME ; void QDashStroker::begin(void *)
	?begin@QPainter@@QAE_NPAVQPaintDevice@@@Z @ 2332 NONAME ; bool QPainter::begin(class QPaintDevice *)
	?begin@QStrokerOps@@UAEXPAX@Z @ 2333 NONAME ; void QStrokerOps::begin(void *)
	?begin@QTextBlock@@QBE?AViterator@1@XZ @ 2334 NONAME ; class QTextBlock::iterator QTextBlock::begin(void) const
	?begin@QTextDocument@@QBE?AVQTextBlock@@XZ @ 2335 NONAME ; class QTextBlock QTextDocument::begin(void) const
	?begin@QTextFrame@@QBE?AViterator@1@XZ @ 2336 NONAME ; class QTextFrame::iterator QTextFrame::begin(void) const
	?begin@QTextTableCell@@QBE?AViterator@QTextFrame@@XZ @ 2337 NONAME ; class QTextFrame::iterator QTextTableCell::begin(void) const
	?beginEditBlock@QTextCursor@@QAEXXZ @ 2338 NONAME ; void QTextCursor::beginEditBlock(void)
	?beginLayout@QTextLayout@@QAEXXZ @ 2339 NONAME ; void QTextLayout::beginLayout(void)
	?beginMacro@QUndoStack@@QAEXABVQString@@@Z @ 2340 NONAME ; void QUndoStack::beginMacro(class QString const &)
	?beginNativePainting@QPaintEngineEx@@UAEXXZ @ 2341 NONAME ; void QPaintEngineEx::beginNativePainting(void)
	?beginNativePainting@QPainter@@QAEXXZ @ 2342 NONAME ; void QPainter::beginNativePainting(void)
	?beginNewFrame@QPaintBuffer@@QAEXXZ @ 2343 NONAME ; void QPaintBuffer::beginNewFrame(void)
	?beginPaint@QRasterWindowSurface@@UAEXABVQRegion@@@Z @ 2344 NONAME ; void QRasterWindowSurface::beginPaint(class QRegion const &)
	?beginPaint@QWindowSurface@@UAEXABVQRegion@@@Z @ 2345 NONAME ; void QWindowSurface::beginPaint(class QRegion const &)
	?bezierOnInterval@QBezier@@QBE?AV1@MM@Z @ 2346 NONAME ; class QBezier QBezier::bezierOnInterval(float, float) const
	?bidiReorder@QTextEngine@@SAXHPBEPAH@Z @ 2347 NONAME ; void QTextEngine::bidiReorder(int, unsigned char const *, int *)
	?bitmap@QCursor@@QBEPBVQBitmap@@XZ @ 2348 NONAME ; class QBitmap const * QCursor::bitmap(void) const
	?bits@QImage@@QAEPAEXZ @ 2349 NONAME ; unsigned char * QImage::bits(void)
	?bits@QImage@@QBEPBEXZ @ 2350 NONAME ; unsigned char const * QImage::bits(void) const
	?black@QColor@@QBEHXZ @ 2351 NONAME ; int QColor::black(void) const
	?blackF@QColor@@QBEMXZ @ 2352 NONAME ; float QColor::blackF(void) const
	?block@QTextCursor@@QBE?AVQTextBlock@@XZ @ 2353 NONAME ; class QTextBlock QTextCursor::block(void) const
	?blockBoundingGeometry@QPlainTextEdit@@IBE?AVQRectF@@ABVQTextBlock@@@Z @ 2354 NONAME ; class QRectF QPlainTextEdit::blockBoundingGeometry(class QTextBlock const &) const
	?blockBoundingRect@QPlainTextDocumentLayout@@UBE?AVQRectF@@ABVQTextBlock@@@Z @ 2355 NONAME ; class QRectF QPlainTextDocumentLayout::blockBoundingRect(class QTextBlock const &) const
	?blockBoundingRect@QPlainTextEdit@@IBE?AVQRectF@@ABVQTextBlock@@@Z @ 2356 NONAME ; class QRectF QPlainTextEdit::blockBoundingRect(class QTextBlock const &) const
	?blockBoundingRect@QTextControl@@UBE?AVQRectF@@ABVQTextBlock@@@Z @ 2357 NONAME ; class QRectF QTextControl::blockBoundingRect(class QTextBlock const &) const
	?blockCharFormat@QTextCursor@@QBE?AVQTextCharFormat@@XZ @ 2358 NONAME ; class QTextCharFormat QTextCursor::blockCharFormat(void) const
	?blockCount@QPlainTextEdit@@QBEHXZ @ 2359 NONAME ; int QPlainTextEdit::blockCount(void) const
	?blockCount@QTextDocument@@QBEHXZ @ 2360 NONAME ; int QTextDocument::blockCount(void) const
	?blockCountChanged@QPlainTextEdit@@IAEXH@Z @ 2361 NONAME ; void QPlainTextEdit::blockCountChanged(int)
	?blockCountChanged@QTextControl@@IAEXH@Z @ 2362 NONAME ; void QTextControl::blockCountChanged(int)
	?blockCountChanged@QTextDocument@@IAEXH@Z @ 2363 NONAME ; void QTextDocument::blockCountChanged(int)
	?blockFormat@QTextBlock@@QBE?AVQTextBlockFormat@@XZ @ 2364 NONAME ; class QTextBlockFormat QTextBlock::blockFormat(void) const
	?blockFormat@QTextCursor@@QBE?AVQTextBlockFormat@@XZ @ 2365 NONAME ; class QTextBlockFormat QTextCursor::blockFormat(void) const
	?blockFormat@QTextFormatCollection@@QBE?AVQTextBlockFormat@@H@Z @ 2366 NONAME ; class QTextBlockFormat QTextFormatCollection::blockFormat(int) const
	?blockFormatChanged@QTextBlockGroup@@MAEXABVQTextBlock@@@Z @ 2367 NONAME ; void QTextBlockGroup::blockFormatChanged(class QTextBlock const &)
	?blockFormatIndex@QTextBlock@@QBEHXZ @ 2368 NONAME ; int QTextBlock::blockFormatIndex(void) const
	?blockInserted@QTextBlockGroup@@MAEXABVQTextBlock@@@Z @ 2369 NONAME ; void QTextBlockGroup::blockInserted(class QTextBlock const &)
	?blockList@QTextBlockGroup@@IBE?AV?$QList@VQTextBlock@@@@XZ @ 2370 NONAME ; class QList<class QTextBlock> QTextBlockGroup::blockList(void) const
	?blockNumber@QTextBlock@@QBEHXZ @ 2371 NONAME ; int QTextBlock::blockNumber(void) const
	?blockNumber@QTextCursor@@QBEHXZ @ 2372 NONAME ; int QTextCursor::blockNumber(void) const
	?blockRemoved@QTextBlockGroup@@MAEXABVQTextBlock@@@Z @ 2373 NONAME ; void QTextBlockGroup::blockRemoved(class QTextBlock const &)
	?blockWidth@QPlainTextDocumentLayout@@AAEMABVQTextBlock@@@Z @ 2374 NONAME ; float QPlainTextDocumentLayout::blockWidth(class QTextBlock const &)
	?blue@QColor@@QBEHXZ @ 2375 NONAME ; int QColor::blue(void) const
	?blueF@QColor@@QBEMXZ @ 2376 NONAME ; float QColor::blueF(void) const
	?blurHints@QGraphicsBlurEffect@@QBE?AV?$QFlags@W4BlurHint@QGraphicsBlurEffect@@@@XZ @ 2377 NONAME ; class QFlags<enum QGraphicsBlurEffect::BlurHint> QGraphicsBlurEffect::blurHints(void) const
	?blurHints@QPixmapBlurFilter@@QBE?AV?$QFlags@W4BlurHint@QGraphicsBlurEffect@@@@XZ @ 2378 NONAME ; class QFlags<enum QGraphicsBlurEffect::BlurHint> QPixmapBlurFilter::blurHints(void) const
	?blurHintsChanged@QGraphicsBlurEffect@@IAEXV?$QFlags@W4BlurHint@QGraphicsBlurEffect@@@@@Z @ 2379 NONAME ; void QGraphicsBlurEffect::blurHintsChanged(class QFlags<enum QGraphicsBlurEffect::BlurHint>)
	?blurRadius@QGraphicsBlurEffect@@QBEMXZ @ 2380 NONAME ; float QGraphicsBlurEffect::blurRadius(void) const
	?blurRadius@QGraphicsDropShadowEffect@@QBEMXZ @ 2381 NONAME ; float QGraphicsDropShadowEffect::blurRadius(void) const
	?blurRadius@QPixmapDropShadowFilter@@QBEMXZ @ 2382 NONAME ; float QPixmapDropShadowFilter::blurRadius(void) const
	?blurRadiusChanged@QGraphicsBlurEffect@@IAEXM@Z @ 2383 NONAME ; void QGraphicsBlurEffect::blurRadiusChanged(float)
	?blurRadiusChanged@QGraphicsDropShadowEffect@@IAEXM@Z @ 2384 NONAME ; void QGraphicsDropShadowEffect::blurRadiusChanged(float)
	?bold@QFont@@QBE_NXZ @ 2385 NONAME ; bool QFont::bold(void) const
	?bold@QFontDatabase@@QBE_NABVQString@@0@Z @ 2386 NONAME ; bool QFontDatabase::bold(class QString const &, class QString const &) const
	?bold@QFontInfo@@QBE_NXZ @ 2387 NONAME ; bool QFontInfo::bold(void) const
	?boolProperty@QTextFormat@@QBE_NH@Z @ 2388 NONAME ; bool QTextFormat::boolProperty(int) const
	?border@QTextFrameFormat@@QBEMXZ @ 2389 NONAME ; float QTextFrameFormat::border(void) const
	?borderBrush@QTextFrameFormat@@QBE?AVQBrush@@XZ @ 2390 NONAME ; class QBrush QTextFrameFormat::borderBrush(void) const
	?borderStyle@QTextFrameFormat@@QBE?AW4BorderStyle@1@XZ @ 2391 NONAME ; enum QTextFrameFormat::BorderStyle QTextFrameFormat::borderStyle(void) const
	?bottom@QDoubleValidator@@QBENXZ @ 2392 NONAME ; double QDoubleValidator::bottom(void) const
	?bottom@QIntValidator@@QBEHXZ @ 2393 NONAME ; int QIntValidator::bottom(void) const
	?bottom@QItemSelectionRange@@QBEHXZ @ 2394 NONAME ; int QItemSelectionRange::bottom(void) const
	?bottomMargin@QTextBlockFormat@@QBEMXZ @ 2395 NONAME ; float QTextBlockFormat::bottomMargin(void) const
	?bottomMargin@QTextFrameFormat@@QBEMXZ @ 2396 NONAME ; float QTextFrameFormat::bottomMargin(void) const
	?bottomPadding@QTextTableCellFormat@@QBEMXZ @ 2397 NONAME ; float QTextTableCellFormat::bottomPadding(void) const
	?bottomRight@QItemSelectionRange@@QBE?AVQModelIndex@@XZ @ 2398 NONAME ; class QModelIndex QItemSelectionRange::bottomRight(void) const
	?bottomRow@QTableWidgetSelectionRange@@QBEHXZ @ 2399 NONAME ; int QTableWidgetSelectionRange::bottomRow(void) const
	?boundingBox@QFontEngine@@UAE?AUglyph_metrics_t@@IABVQTransform@@@Z @ 2400 NONAME ; struct glyph_metrics_t QFontEngine::boundingBox(unsigned int, class QTransform const &)
	?boundingBox@QTextEngine@@QBE?AUglyph_metrics_t@@HH@Z @ 2401 NONAME ; struct glyph_metrics_t QTextEngine::boundingBox(int, int) const
	?boundingRect@QFontMetrics@@QBE?AVQRect@@ABV2@HABVQString@@HPAH@Z @ 2402 NONAME ; class QRect QFontMetrics::boundingRect(class QRect const &, int, class QString const &, int, int *) const
	?boundingRect@QFontMetrics@@QBE?AVQRect@@ABVQString@@@Z @ 2403 NONAME ; class QRect QFontMetrics::boundingRect(class QString const &) const
	?boundingRect@QFontMetrics@@QBE?AVQRect@@HHHHHABVQString@@HPAH@Z @ 2404 NONAME ; class QRect QFontMetrics::boundingRect(int, int, int, int, int, class QString const &, int, int *) const
	?boundingRect@QFontMetrics@@QBE?AVQRect@@VQChar@@@Z @ 2405 NONAME ; class QRect QFontMetrics::boundingRect(class QChar) const
	?boundingRect@QFontMetricsF@@QBE?AVQRectF@@ABV2@HABVQString@@HPAH@Z @ 2406 NONAME ; class QRectF QFontMetricsF::boundingRect(class QRectF const &, int, class QString const &, int, int *) const
	?boundingRect@QFontMetricsF@@QBE?AVQRectF@@ABVQString@@@Z @ 2407 NONAME ; class QRectF QFontMetricsF::boundingRect(class QString const &) const
	?boundingRect@QFontMetricsF@@QBE?AVQRectF@@VQChar@@@Z @ 2408 NONAME ; class QRectF QFontMetricsF::boundingRect(class QChar) const
	?boundingRect@QGraphicsEffect@@QBE?AVQRectF@@XZ @ 2409 NONAME ; class QRectF QGraphicsEffect::boundingRect(void) const
	?boundingRect@QGraphicsEffectSource@@QBE?AVQRectF@@W4CoordinateSystem@Qt@@@Z @ 2410 NONAME ; class QRectF QGraphicsEffectSource::boundingRect(enum Qt::CoordinateSystem) const
	?boundingRect@QGraphicsEllipseItem@@UBE?AVQRectF@@XZ @ 2411 NONAME ; class QRectF QGraphicsEllipseItem::boundingRect(void) const
	?boundingRect@QGraphicsItemGroup@@UBE?AVQRectF@@XZ @ 2412 NONAME ; class QRectF QGraphicsItemGroup::boundingRect(void) const
	?boundingRect@QGraphicsLineItem@@UBE?AVQRectF@@XZ @ 2413 NONAME ; class QRectF QGraphicsLineItem::boundingRect(void) const
	?boundingRect@QGraphicsPathItem@@UBE?AVQRectF@@XZ @ 2414 NONAME ; class QRectF QGraphicsPathItem::boundingRect(void) const
	?boundingRect@QGraphicsPixmapItem@@UBE?AVQRectF@@XZ @ 2415 NONAME ; class QRectF QGraphicsPixmapItem::boundingRect(void) const
	?boundingRect@QGraphicsPolygonItem@@UBE?AVQRectF@@XZ @ 2416 NONAME ; class QRectF QGraphicsPolygonItem::boundingRect(void) const
	?boundingRect@QGraphicsRectItem@@UBE?AVQRectF@@XZ @ 2417 NONAME ; class QRectF QGraphicsRectItem::boundingRect(void) const
	?boundingRect@QGraphicsSimpleTextItem@@UBE?AVQRectF@@XZ @ 2418 NONAME ; class QRectF QGraphicsSimpleTextItem::boundingRect(void) const
	?boundingRect@QGraphicsTextItem@@UBE?AVQRectF@@XZ @ 2419 NONAME ; class QRectF QGraphicsTextItem::boundingRect(void) const
	?boundingRect@QGraphicsWidget@@UBE?AVQRectF@@XZ @ 2420 NONAME ; class QRectF QGraphicsWidget::boundingRect(void) const
	?boundingRect@QPaintBuffer@@QBE?AVQRectF@@XZ @ 2421 NONAME ; class QRectF QPaintBuffer::boundingRect(void) const
	?boundingRect@QPainter@@QAE?AVQRect@@ABV2@HABVQString@@@Z @ 2422 NONAME ; class QRect QPainter::boundingRect(class QRect const &, int, class QString const &)
	?boundingRect@QPainter@@QAE?AVQRect@@HHHHHABVQString@@@Z @ 2423 NONAME ; class QRect QPainter::boundingRect(int, int, int, int, int, class QString const &)
	?boundingRect@QPainter@@QAE?AVQRectF@@ABV2@ABVQString@@ABVQTextOption@@@Z @ 2424 NONAME ; class QRectF QPainter::boundingRect(class QRectF const &, class QString const &, class QTextOption const &)
	?boundingRect@QPainter@@QAE?AVQRectF@@ABV2@HABVQString@@@Z @ 2425 NONAME ; class QRectF QPainter::boundingRect(class QRectF const &, int, class QString const &)
	?boundingRect@QPainterPath@@QBE?AVQRectF@@XZ @ 2426 NONAME ; class QRectF QPainterPath::boundingRect(void) const
	?boundingRect@QPicture@@QBE?AVQRect@@XZ @ 2427 NONAME ; class QRect QPicture::boundingRect(void) const
	?boundingRect@QPolygon@@QBE?AVQRect@@XZ @ 2428 NONAME ; class QRect QPolygon::boundingRect(void) const
	?boundingRect@QPolygonF@@QBE?AVQRectF@@XZ @ 2429 NONAME ; class QRectF QPolygonF::boundingRect(void) const
	?boundingRect@QRegion@@QBE?AVQRect@@XZ @ 2430 NONAME ; class QRect QRegion::boundingRect(void) const
	?boundingRect@QTextLayout@@QBE?AVQRectF@@XZ @ 2431 NONAME ; class QRectF QTextLayout::boundingRect(void) const
	?boundingRectFor@QGraphicsBlurEffect@@UBE?AVQRectF@@ABV2@@Z @ 2432 NONAME ; class QRectF QGraphicsBlurEffect::boundingRectFor(class QRectF const &) const
	?boundingRectFor@QGraphicsDropShadowEffect@@UBE?AVQRectF@@ABV2@@Z @ 2433 NONAME ; class QRectF QGraphicsDropShadowEffect::boundingRectFor(class QRectF const &) const
	?boundingRectFor@QGraphicsEffect@@UBE?AVQRectF@@ABV2@@Z @ 2434 NONAME ; class QRectF QGraphicsEffect::boundingRectFor(class QRectF const &) const
	?boundingRectFor@QPixmapBlurFilter@@UBE?AVQRectF@@ABV2@@Z @ 2435 NONAME ; class QRectF QPixmapBlurFilter::boundingRectFor(class QRectF const &) const
	?boundingRectFor@QPixmapConvolutionFilter@@UBE?AVQRectF@@ABV2@@Z @ 2436 NONAME ; class QRectF QPixmapConvolutionFilter::boundingRectFor(class QRectF const &) const
	?boundingRectFor@QPixmapDropShadowFilter@@UBE?AVQRectF@@ABV2@@Z @ 2437 NONAME ; class QRectF QPixmapDropShadowFilter::boundingRectFor(class QRectF const &) const
	?boundingRectFor@QPixmapFilter@@UBE?AVQRectF@@ABV2@@Z @ 2438 NONAME ; class QRectF QPixmapFilter::boundingRectFor(class QRectF const &) const
	?boundingRegion@QGraphicsItem@@QBE?AVQRegion@@ABVQTransform@@@Z @ 2439 NONAME ; class QRegion QGraphicsItem::boundingRegion(class QTransform const &) const
	?boundingRegionGranularity@QGraphicsItem@@QBEMXZ @ 2440 NONAME ; float QGraphicsItem::boundingRegionGranularity(void) const
	?bounds@QBezier@@QBE?AVQRectF@@XZ @ 2441 NONAME ; class QRectF QBezier::bounds(void) const
	?brightText@QPalette@@QBEABVQBrush@@XZ @ 2442 NONAME ; class QBrush const & QPalette::brightText(void) const
	?brush@QAbstractGraphicsShapeItem@@QBE?AVQBrush@@XZ @ 2443 NONAME ; class QBrush QAbstractGraphicsShapeItem::brush(void) const
	?brush@QPaintEngineState@@QBE?AVQBrush@@XZ @ 2444 NONAME ; class QBrush QPaintEngineState::brush(void) const
	?brush@QPainter@@QBEABVQBrush@@XZ @ 2445 NONAME ; class QBrush const & QPainter::brush(void) const
	?brush@QPalette@@QBEABVQBrush@@W4ColorGroup@1@W4ColorRole@1@@Z @ 2446 NONAME ; class QBrush const & QPalette::brush(enum QPalette::ColorGroup, enum QPalette::ColorRole) const
	?brush@QPalette@@QBEABVQBrush@@W4ColorRole@1@@Z @ 2447 NONAME ; class QBrush const & QPalette::brush(enum QPalette::ColorRole) const
	?brush@QPen@@QBE?AVQBrush@@XZ @ 2448 NONAME ; class QBrush QPen::brush(void) const
	?brushNeedsResolving@QPaintEngineState@@QBE_NXZ @ 2449 NONAME ; bool QPaintEngineState::brushNeedsResolving(void) const
	?brushOrigin@QPaintEngineState@@QBE?AVQPointF@@XZ @ 2450 NONAME ; class QPointF QPaintEngineState::brushOrigin(void) const
	?brushOrigin@QPainter@@QBE?AVQPoint@@XZ @ 2451 NONAME ; class QPoint QPainter::brushOrigin(void) const
	?brushProperty@QTextFormat@@QBE?AVQBrush@@H@Z @ 2452 NONAME ; class QBrush QTextFormat::brushProperty(int) const
	?bspTreeDepth@QGraphicsScene@@QBEHXZ @ 2453 NONAME ; int QGraphicsScene::bspTreeDepth(void) const
	?buddy@QLabel@@QBEPAVQWidget@@XZ @ 2454 NONAME ; class QWidget * QLabel::buddy(void) const
	?buddy@QSortFilterProxyModel@@UBE?AVQModelIndex@@ABV2@@Z @ 2455 NONAME ; class QModelIndex QSortFilterProxyModel::buddy(class QModelIndex const &) const
	?buffer@QPixmapData@@UAEPAVQImage@@XZ @ 2456 NONAME ; class QImage * QPixmapData::buffer(void)
	?buffer@QRasterPixmapData@@UAEPAVQImage@@XZ @ 2457 NONAME ; class QImage * QRasterPixmapData::buffer(void)
	?buffer@QWindowSurface@@UAEPAVQImage@@PBVQWidget@@@Z @ 2458 NONAME ; class QImage * QWindowSurface::buffer(class QWidget const *)
	?button@QButtonGroup@@QBEPAVQAbstractButton@@H@Z @ 2459 NONAME ; class QAbstractButton * QButtonGroup::button(int) const
	?button@QDialogButtonBox@@QBEPAVQPushButton@@W4StandardButton@1@@Z @ 2460 NONAME ; class QPushButton * QDialogButtonBox::button(enum QDialogButtonBox::StandardButton) const
	?button@QGraphicsSceneMouseEvent@@QBE?AW4MouseButton@Qt@@XZ @ 2461 NONAME ; enum Qt::MouseButton QGraphicsSceneMouseEvent::button(void) const
	?button@QMessageBox@@QBEPAVQAbstractButton@@W4StandardButton@1@@Z @ 2462 NONAME ; class QAbstractButton * QMessageBox::button(enum QMessageBox::StandardButton) const
	?button@QMouseEvent@@QBE?AW4MouseButton@Qt@@XZ @ 2463 NONAME ; enum Qt::MouseButton QMouseEvent::button(void) const
	?button@QMouseEventTransition@@QBE?AW4MouseButton@Qt@@XZ @ 2464 NONAME ; enum Qt::MouseButton QMouseEventTransition::button(void) const
	?button@QPalette@@QBEABVQBrush@@XZ @ 2465 NONAME ; class QBrush const & QPalette::button(void) const
	?button@QWizard@@QBEPAVQAbstractButton@@W4WizardButton@1@@Z @ 2466 NONAME ; class QAbstractButton * QWizard::button(enum QWizard::WizardButton) const
	?buttonClicked@QButtonGroup@@IAEXH@Z @ 2467 NONAME ; void QButtonGroup::buttonClicked(int)
	?buttonClicked@QButtonGroup@@IAEXPAVQAbstractButton@@@Z @ 2468 NONAME ; void QButtonGroup::buttonClicked(class QAbstractButton *)
	?buttonClicked@QMessageBox@@IAEXPAVQAbstractButton@@@Z @ 2469 NONAME ; void QMessageBox::buttonClicked(class QAbstractButton *)
	?buttonDownPos@QGraphicsSceneMouseEvent@@QBE?AVQPointF@@W4MouseButton@Qt@@@Z @ 2470 NONAME ; class QPointF QGraphicsSceneMouseEvent::buttonDownPos(enum Qt::MouseButton) const
	?buttonDownScenePos@QGraphicsSceneMouseEvent@@QBE?AVQPointF@@W4MouseButton@Qt@@@Z @ 2471 NONAME ; class QPointF QGraphicsSceneMouseEvent::buttonDownScenePos(enum Qt::MouseButton) const
	?buttonDownScreenPos@QGraphicsSceneMouseEvent@@QBE?AVQPoint@@W4MouseButton@Qt@@@Z @ 2472 NONAME ; class QPoint QGraphicsSceneMouseEvent::buttonDownScreenPos(enum Qt::MouseButton) const
	?buttonPressed@QButtonGroup@@IAEXH@Z @ 2473 NONAME ; void QButtonGroup::buttonPressed(int)
	?buttonPressed@QButtonGroup@@IAEXPAVQAbstractButton@@@Z @ 2474 NONAME ; void QButtonGroup::buttonPressed(class QAbstractButton *)
	?buttonReleased@QButtonGroup@@IAEXH@Z @ 2475 NONAME ; void QButtonGroup::buttonReleased(int)
	?buttonReleased@QButtonGroup@@IAEXPAVQAbstractButton@@@Z @ 2476 NONAME ; void QButtonGroup::buttonReleased(class QAbstractButton *)
	?buttonRole@QDialogButtonBox@@QBE?AW4ButtonRole@1@PAVQAbstractButton@@@Z @ 2477 NONAME ; enum QDialogButtonBox::ButtonRole QDialogButtonBox::buttonRole(class QAbstractButton *) const
	?buttonRole@QMessageBox@@QBE?AW4ButtonRole@1@PAVQAbstractButton@@@Z @ 2478 NONAME ; enum QMessageBox::ButtonRole QMessageBox::buttonRole(class QAbstractButton *) const
	?buttonSymbols@QAbstractSpinBox@@QBE?AW4ButtonSymbols@1@XZ @ 2479 NONAME ; enum QAbstractSpinBox::ButtonSymbols QAbstractSpinBox::buttonSymbols(void) const
	?buttonText@QMessageBox@@QBE?AVQString@@H@Z @ 2480 NONAME ; class QString QMessageBox::buttonText(int) const
	?buttonText@QPalette@@QBEABVQBrush@@XZ @ 2481 NONAME ; class QBrush const & QPalette::buttonText(void) const
	?buttonText@QWizard@@QBE?AVQString@@W4WizardButton@1@@Z @ 2482 NONAME ; class QString QWizard::buttonText(enum QWizard::WizardButton) const
	?buttonText@QWizardPage@@QBE?AVQString@@W4WizardButton@QWizard@@@Z @ 2483 NONAME ; class QString QWizardPage::buttonText(enum QWizard::WizardButton) const
	?buttons@QButtonGroup@@QBE?AV?$QList@PAVQAbstractButton@@@@XZ @ 2484 NONAME ; class QList<class QAbstractButton *> QButtonGroup::buttons(void) const
	?buttons@QDialogButtonBox@@QBE?AV?$QList@PAVQAbstractButton@@@@XZ @ 2485 NONAME ; class QList<class QAbstractButton *> QDialogButtonBox::buttons(void) const
	?buttons@QGraphicsSceneDragDropEvent@@QBE?AV?$QFlags@W4MouseButton@Qt@@@@XZ @ 2486 NONAME ; class QFlags<enum Qt::MouseButton> QGraphicsSceneDragDropEvent::buttons(void) const
	?buttons@QGraphicsSceneMouseEvent@@QBE?AV?$QFlags@W4MouseButton@Qt@@@@XZ @ 2487 NONAME ; class QFlags<enum Qt::MouseButton> QGraphicsSceneMouseEvent::buttons(void) const
	?buttons@QGraphicsSceneWheelEvent@@QBE?AV?$QFlags@W4MouseButton@Qt@@@@XZ @ 2488 NONAME ; class QFlags<enum Qt::MouseButton> QGraphicsSceneWheelEvent::buttons(void) const
	?buttons@QMessageBox@@QBE?AV?$QList@PAVQAbstractButton@@@@XZ @ 2489 NONAME ; class QList<class QAbstractButton *> QMessageBox::buttons(void) const
	?buttons@QMouseEvent@@QBE?AV?$QFlags@W4MouseButton@Qt@@@@XZ @ 2490 NONAME ; class QFlags<enum Qt::MouseButton> QMouseEvent::buttons(void) const
	?buttons@QWheelEvent@@QBE?AV?$QFlags@W4MouseButton@Qt@@@@XZ @ 2491 NONAME ; class QFlags<enum Qt::MouseButton> QWheelEvent::buttons(void) const
	?byteCount@QImage@@QBEHXZ @ 2492 NONAME ; int QImage::byteCount(void) const
	?bytesPerLine@QImage@@QBEHXZ @ 2493 NONAME ; int QImage::bytesPerLine(void) const
	?cacheEnabled@QTextLayout@@QBE_NXZ @ 2494 NONAME ; bool QTextLayout::cacheEnabled(void) const
	?cacheKey@QIcon@@QBE_JXZ @ 2495 NONAME ; long long QIcon::cacheKey(void) const
	?cacheKey@QImage@@QBE_JXZ @ 2496 NONAME ; long long QImage::cacheKey(void) const
	?cacheKey@QPalette@@QBE_JXZ @ 2497 NONAME ; long long QPalette::cacheKey(void) const
	?cacheKey@QPixmap@@QBE_JXZ @ 2498 NONAME ; long long QPixmap::cacheKey(void) const
	?cacheLimit@QPixmapCache@@SAHXZ @ 2499 NONAME ; int QPixmapCache::cacheLimit(void)
	?cacheMode@QGraphicsItem@@QBE?AW4CacheMode@1@XZ @ 2500 NONAME ; enum QGraphicsItem::CacheMode QGraphicsItem::cacheMode(void) const
	?cacheMode@QGraphicsView@@QBE?AV?$QFlags@W4CacheModeFlag@QGraphicsView@@@@XZ @ 2501 NONAME ; class QFlags<enum QGraphicsView::CacheModeFlag> QGraphicsView::cacheMode(void) const
	?cacheMode@QMovie@@QAE?AW4CacheMode@1@XZ @ 2502 NONAME ; enum QMovie::CacheMode QMovie::cacheMode(void)
	?cacheMode@QMovie@@QBE?AW4CacheMode@1@XZ @ 2503 NONAME ; enum QMovie::CacheMode QMovie::cacheMode(void) const
	?cacheStatistics@QFont@@SAXXZ @ 2504 NONAME ; void QFont::cacheStatistics(void)
	?cacheType@QTextureGlyphCache@@QBE?AW4Type@QFontEngineGlyphCache@@XZ @ 2505 NONAME ABSENT ; enum QFontEngineGlyphCache::Type QTextureGlyphCache::cacheType(void) const
	?calcEffectiveOpacity@QGraphicsItemPrivate@@QBEMXZ @ 2506 NONAME ; float QGraphicsItemPrivate::calcEffectiveOpacity(void) const
	?calculateTabWidth@QTextEngine@@QBE?AUQFixed@@HU2@@Z @ 2507 NONAME ; struct QFixed QTextEngine::calculateTabWidth(int, struct QFixed) const
	?calendarPopup@QDateTimeEdit@@QBE_NXZ @ 2508 NONAME ; bool QDateTimeEdit::calendarPopup(void) const
	?calendarWidget@QDateTimeEdit@@QBEPAVQCalendarWidget@@XZ @ 2509 NONAME ; class QCalendarWidget * QDateTimeEdit::calendarWidget(void) const
	?canFetchMore@QFileSystemModel@@UBE_NABVQModelIndex@@@Z @ 2510 NONAME ; bool QFileSystemModel::canFetchMore(class QModelIndex const &) const
	?canFetchMore@QSortFilterProxyModel@@UBE_NABVQModelIndex@@@Z @ 2511 NONAME ; bool QSortFilterProxyModel::canFetchMore(class QModelIndex const &) const
	?canInsertFromMimeData@QPlainTextEdit@@MBE_NPBVQMimeData@@@Z @ 2512 NONAME ; bool QPlainTextEdit::canInsertFromMimeData(class QMimeData const *) const
	?canInsertFromMimeData@QTextControl@@UBE_NPBVQMimeData@@@Z @ 2513 NONAME ; bool QTextControl::canInsertFromMimeData(class QMimeData const *) const
	?canInsertFromMimeData@QTextEdit@@MBE_NPBVQMimeData@@@Z @ 2514 NONAME ; bool QTextEdit::canInsertFromMimeData(class QMimeData const *) const
	?canPaste@QPlainTextEdit@@QBE_NXZ @ 2515 NONAME ; bool QPlainTextEdit::canPaste(void) const
	?canPaste@QTextControl@@QBE_NXZ @ 2516 NONAME ; bool QTextControl::canPaste(void) const
	?canPaste@QTextEdit@@QBE_NXZ @ 2517 NONAME ; bool QTextEdit::canPaste(void) const
	?canRead@QImageReader@@QBE_NXZ @ 2518 NONAME ; bool QImageReader::canRead(void) const
	?canRedo@QUndoGroup@@QBE_NXZ @ 2519 NONAME ; bool QUndoGroup::canRedo(void) const
	?canRedo@QUndoStack@@QBE_NXZ @ 2520 NONAME ; bool QUndoStack::canRedo(void) const
	?canRedoChanged@QUndoGroup@@IAEX_N@Z @ 2521 NONAME ; void QUndoGroup::canRedoChanged(bool)
	?canRedoChanged@QUndoStack@@IAEX_N@Z @ 2522 NONAME ; void QUndoStack::canRedoChanged(bool)
	?canUndo@QUndoGroup@@QBE_NXZ @ 2523 NONAME ; bool QUndoGroup::canUndo(void) const
	?canUndo@QUndoStack@@QBE_NXZ @ 2524 NONAME ; bool QUndoStack::canUndo(void) const
	?canUndoChanged@QUndoGroup@@IAEX_N@Z @ 2525 NONAME ; void QUndoGroup::canUndoChanged(bool)
	?canUndoChanged@QUndoStack@@IAEX_N@Z @ 2526 NONAME ; void QUndoStack::canUndoChanged(bool)
	?canWrite@QImageWriter@@QBE_NXZ @ 2527 NONAME ; bool QImageWriter::canWrite(void) const
	?cancel@QProgressDialog@@QAEXXZ @ 2528 NONAME ; void QProgressDialog::cancel(void)
	?cancel@QSessionManager@@QAEXXZ @ 2529 NONAME ; void QSessionManager::cancel(void)
	?cancelButtonText@QInputDialog@@QBE?AVQString@@XZ @ 2530 NONAME ; class QString QInputDialog::cancelButtonText(void) const
	?cancelText@QLineControl@@QBE?AVQString@@XZ @ 2531 NONAME ; class QString QLineControl::cancelText(void) const
	?canceled@QProgressDialog@@IAEXXZ @ 2532 NONAME ; void QProgressDialog::canceled(void)
	?canceledGestures@QGestureEvent@@QBE?AV?$QList@PAVQGesture@@@@XZ @ 2533 NONAME ; class QList<class QGesture *> QGestureEvent::canceledGestures(void) const
	?capForJoinMode@QStroker@@KA?AW4PenCapStyle@Qt@@W4LineJoinMode@1@@Z @ 2534 NONAME ; enum Qt::PenCapStyle QStroker::capForJoinMode(enum QStroker::LineJoinMode)
	?capStyle@QPainterPathStroker@@QBE?AW4PenCapStyle@Qt@@XZ @ 2535 NONAME ; enum Qt::PenCapStyle QPainterPathStroker::capStyle(void) const
	?capStyle@QPen@@QBE?AW4PenCapStyle@Qt@@XZ @ 2536 NONAME ; enum Qt::PenCapStyle QPen::capStyle(void) const
	?capStyle@QStroker@@QBE?AW4PenCapStyle@Qt@@XZ @ 2537 NONAME ; enum Qt::PenCapStyle QStroker::capStyle(void) const
	?capStyleMode@QStroker@@QBE?AW4LineJoinMode@1@XZ @ 2538 NONAME ; enum QStroker::LineJoinMode QStroker::capStyleMode(void) const
	?capitalization@QFont@@QBE?AW4Capitalization@1@XZ @ 2539 NONAME ; enum QFont::Capitalization QFont::capitalization(void) const
	?cascade@QWorkspace@@QAEXXZ @ 2540 NONAME ; void QWorkspace::cascade(void)
	?cascadeSubWindows@QMdiArea@@QAEXXZ @ 2541 NONAME ; void QMdiArea::cascadeSubWindows(void)
	?cascadingSectionResizes@QHeaderView@@QBE_NXZ @ 2542 NONAME ; bool QHeaderView::cascadingSectionResizes(void) const
	?caseSensitivity@QCompleter@@QBE?AW4CaseSensitivity@Qt@@XZ @ 2543 NONAME ; enum Qt::CaseSensitivity QCompleter::caseSensitivity(void) const
	?cellActivated@QTableWidget@@IAEXHH@Z @ 2544 NONAME ; void QTableWidget::cellActivated(int, int)
	?cellAt@QTextTable@@QBE?AVQTextTableCell@@ABVQTextCursor@@@Z @ 2545 NONAME ; class QTextTableCell QTextTable::cellAt(class QTextCursor const &) const
	?cellAt@QTextTable@@QBE?AVQTextTableCell@@H@Z @ 2546 NONAME ; class QTextTableCell QTextTable::cellAt(int) const
	?cellAt@QTextTable@@QBE?AVQTextTableCell@@HH@Z @ 2547 NONAME ; class QTextTableCell QTextTable::cellAt(int, int) const
	?cellChanged@QTableWidget@@IAEXHH@Z @ 2548 NONAME ; void QTableWidget::cellChanged(int, int)
	?cellClicked@QTableWidget@@IAEXHH@Z @ 2549 NONAME ; void QTableWidget::cellClicked(int, int)
	?cellDoubleClicked@QTableWidget@@IAEXHH@Z @ 2550 NONAME ; void QTableWidget::cellDoubleClicked(int, int)
	?cellEntered@QTableWidget@@IAEXHH@Z @ 2551 NONAME ; void QTableWidget::cellEntered(int, int)
	?cellPadding@QTextTableFormat@@QBEMXZ @ 2552 NONAME ; float QTextTableFormat::cellPadding(void) const
	?cellPressed@QTableWidget@@IAEXHH@Z @ 2553 NONAME ; void QTableWidget::cellPressed(int, int)
	?cellRect@QGridLayout@@QBE?AVQRect@@HH@Z @ 2554 NONAME ; class QRect QGridLayout::cellRect(int, int) const
	?cellSpacing@QTextTableFormat@@QBEMXZ @ 2555 NONAME ; float QTextTableFormat::cellSpacing(void) const
	?cellWidget@QTableWidget@@QBEPAVQWidget@@HH@Z @ 2556 NONAME ; class QWidget * QTableWidget::cellWidget(int, int) const
	?center@QConicalGradient@@QBE?AVQPointF@@XZ @ 2557 NONAME ; class QPointF QConicalGradient::center(void) const
	?center@QRadialGradient@@QBE?AVQPointF@@XZ @ 2558 NONAME ; class QPointF QRadialGradient::center(void) const
	?centerButtons@QDialogButtonBox@@QBE_NXZ @ 2559 NONAME ; bool QDialogButtonBox::centerButtons(void) const
	?centerCursor@QPlainTextEdit@@QAEXXZ @ 2560 NONAME ; void QPlainTextEdit::centerCursor(void)
	?centerOn@QGraphicsView@@QAEXABVQPointF@@@Z @ 2561 NONAME ; void QGraphicsView::centerOn(class QPointF const &)
	?centerOn@QGraphicsView@@QAEXMM@Z @ 2562 NONAME ; void QGraphicsView::centerOn(float, float)
	?centerOn@QGraphicsView@@QAEXPBVQGraphicsItem@@@Z @ 2563 NONAME ; void QGraphicsView::centerOn(class QGraphicsItem const *)
	?centerOnScroll@QPlainTextEdit@@QBE_NXZ @ 2564 NONAME ; bool QPlainTextEdit::centerOnScroll(void) const
	?centerPoint@QPinchGesture@@QBE?AVQPointF@@XZ @ 2565 NONAME ; class QPointF QPinchGesture::centerPoint(void) const
	?centralWidget@QMainWindow@@QBEPAVQWidget@@XZ @ 2566 NONAME ; class QWidget * QMainWindow::centralWidget(void) const
	?changeEvent@QAbstractButton@@MAEXPAVQEvent@@@Z @ 2567 NONAME ; void QAbstractButton::changeEvent(class QEvent *)
	?changeEvent@QAbstractSlider@@MAEXPAVQEvent@@@Z @ 2568 NONAME ; void QAbstractSlider::changeEvent(class QEvent *)
	?changeEvent@QAbstractSpinBox@@MAEXPAVQEvent@@@Z @ 2569 NONAME ; void QAbstractSpinBox::changeEvent(class QEvent *)
	?changeEvent@QColorDialog@@MAEXPAVQEvent@@@Z @ 2570 NONAME ; void QColorDialog::changeEvent(class QEvent *)
	?changeEvent@QComboBox@@MAEXPAVQEvent@@@Z @ 2571 NONAME ; void QComboBox::changeEvent(class QEvent *)
	?changeEvent@QDialogButtonBox@@MAEXPAVQEvent@@@Z @ 2572 NONAME ; void QDialogButtonBox::changeEvent(class QEvent *)
	?changeEvent@QDockWidget@@MAEXPAVQEvent@@@Z @ 2573 NONAME ; void QDockWidget::changeEvent(class QEvent *)
	?changeEvent@QErrorMessage@@MAEXPAVQEvent@@@Z @ 2574 NONAME ; void QErrorMessage::changeEvent(class QEvent *)
	?changeEvent@QFileDialog@@MAEXPAVQEvent@@@Z @ 2575 NONAME ; void QFileDialog::changeEvent(class QEvent *)
	?changeEvent@QFontDialog@@MAEXPAVQEvent@@@Z @ 2576 NONAME ; void QFontDialog::changeEvent(class QEvent *)
	?changeEvent@QFrame@@MAEXPAVQEvent@@@Z @ 2577 NONAME ; void QFrame::changeEvent(class QEvent *)
	?changeEvent@QGraphicsWidget@@MAEXPAVQEvent@@@Z @ 2578 NONAME ; void QGraphicsWidget::changeEvent(class QEvent *)
	?changeEvent@QGroupBox@@MAEXPAVQEvent@@@Z @ 2579 NONAME ; void QGroupBox::changeEvent(class QEvent *)
	?changeEvent@QLabel@@MAEXPAVQEvent@@@Z @ 2580 NONAME ; void QLabel::changeEvent(class QEvent *)
	?changeEvent@QLineEdit@@MAEXPAVQEvent@@@Z @ 2581 NONAME ; void QLineEdit::changeEvent(class QEvent *)
	?changeEvent@QMdiSubWindow@@MAEXPAVQEvent@@@Z @ 2582 NONAME ; void QMdiSubWindow::changeEvent(class QEvent *)
	?changeEvent@QMenu@@MAEXPAVQEvent@@@Z @ 2583 NONAME ; void QMenu::changeEvent(class QEvent *)
	?changeEvent@QMenuBar@@MAEXPAVQEvent@@@Z @ 2584 NONAME ; void QMenuBar::changeEvent(class QEvent *)
	?changeEvent@QMessageBox@@MAEXPAVQEvent@@@Z @ 2585 NONAME ; void QMessageBox::changeEvent(class QEvent *)
	?changeEvent@QPlainTextEdit@@MAEXPAVQEvent@@@Z @ 2586 NONAME ; void QPlainTextEdit::changeEvent(class QEvent *)
	?changeEvent@QProgressDialog@@MAEXPAVQEvent@@@Z @ 2587 NONAME ; void QProgressDialog::changeEvent(class QEvent *)
	?changeEvent@QRubberBand@@MAEXPAVQEvent@@@Z @ 2588 NONAME ; void QRubberBand::changeEvent(class QEvent *)
	?changeEvent@QSplitter@@MAEXPAVQEvent@@@Z @ 2589 NONAME ; void QSplitter::changeEvent(class QEvent *)
	?changeEvent@QTabBar@@MAEXPAVQEvent@@@Z @ 2590 NONAME ; void QTabBar::changeEvent(class QEvent *)
	?changeEvent@QTabWidget@@MAEXPAVQEvent@@@Z @ 2591 NONAME ; void QTabWidget::changeEvent(class QEvent *)
	?changeEvent@QTextEdit@@MAEXPAVQEvent@@@Z @ 2592 NONAME ; void QTextEdit::changeEvent(class QEvent *)
	?changeEvent@QToolBar@@MAEXPAVQEvent@@@Z @ 2593 NONAME ; void QToolBar::changeEvent(class QEvent *)
	?changeEvent@QToolBox@@MAEXPAVQEvent@@@Z @ 2594 NONAME ; void QToolBox::changeEvent(class QEvent *)
	?changeEvent@QToolButton@@MAEXPAVQEvent@@@Z @ 2595 NONAME ; void QToolButton::changeEvent(class QEvent *)
	?changeEvent@QWidget@@MAEXPAVQEvent@@@Z @ 2596 NONAME ; void QWidget::changeEvent(class QEvent *)
	?changeEvent@QWorkspace@@MAEXPAVQEvent@@@Z @ 2597 NONAME ; void QWorkspace::changeEvent(class QEvent *)
	?changeFlags@QPinchGesture@@QBE?AV?$QFlags@W4ChangeFlag@QPinchGesture@@@@XZ @ 2598 NONAME ; class QFlags<enum QPinchGesture::ChangeFlag> QPinchGesture::changeFlags(void) const
	?changeOverrideCursor@QApplication@@SAXABVQCursor@@@Z @ 2599 NONAME ; void QApplication::changeOverrideCursor(class QCursor const &)
	?changeSize@QSpacerItem@@QAEXHHW4Policy@QSizePolicy@@0@Z @ 2600 NONAME ; void QSpacerItem::changeSize(int, int, enum QSizePolicy::Policy, enum QSizePolicy::Policy)
	?changed@QAction@@IAEXXZ @ 2601 NONAME ; void QAction::changed(void)
	?changed@QClipboard@@IAEXW4Mode@1@@Z @ 2602 NONAME ; void QClipboard::changed(enum QClipboard::Mode)
	?changed@QGraphicsScene@@IAEXABV?$QList@VQRectF@@@@@Z @ 2603 NONAME ; void QGraphicsScene::changed(class QList<class QRectF> const &)
	?charFormat@QTextBlock@@QBE?AVQTextCharFormat@@XZ @ 2604 NONAME ; class QTextCharFormat QTextBlock::charFormat(void) const
	?charFormat@QTextCursor@@QBE?AVQTextCharFormat@@XZ @ 2605 NONAME ; class QTextCharFormat QTextCursor::charFormat(void) const
	?charFormat@QTextFormatCollection@@QBE?AVQTextCharFormat@@H@Z @ 2606 NONAME ; class QTextCharFormat QTextFormatCollection::charFormat(int) const
	?charFormat@QTextFragment@@QBE?AVQTextCharFormat@@XZ @ 2607 NONAME ; class QTextCharFormat QTextFragment::charFormat(void) const
	?charFormatIndex@QTextBlock@@QBEHXZ @ 2608 NONAME ; int QTextBlock::charFormatIndex(void) const
	?charFormatIndex@QTextFragment@@QBEHXZ @ 2609 NONAME ; int QTextFragment::charFormatIndex(void) const
	?charWidth@QFontMetrics@@QBEHABVQString@@H@Z @ 2610 NONAME ; int QFontMetrics::charWidth(class QString const &, int) const
	?characterAt@QTextDocument@@QBE?AVQChar@@H@Z @ 2611 NONAME ; class QChar QTextDocument::characterAt(int) const
	?characterCount@QTextDocument@@QBEHXZ @ 2612 NONAME ; int QTextDocument::characterCount(void) const
	?check@QItemDelegate@@IBE?AVQRect@@ABVQStyleOptionViewItem@@ABV2@ABVQVariant@@@Z @ 2613 NONAME ; class QRect QItemDelegate::check(class QStyleOptionViewItem const &, class QRect const &, class QVariant const &) const
	?checkForAlphaPixels@QImageData@@QBE_NXZ @ 2614 NONAME ; bool QImageData::checkForAlphaPixels(void) const
	?checkOverflow@QLCDNumber@@QBE_NH@Z @ 2615 NONAME ; bool QLCDNumber::checkOverflow(int) const
	?checkOverflow@QLCDNumber@@QBE_NN@Z @ 2616 NONAME ; bool QLCDNumber::checkOverflow(double) const
	?checkState@QCheckBox@@QBE?AW4CheckState@Qt@@XZ @ 2617 NONAME ; enum Qt::CheckState QCheckBox::checkState(void) const
	?checkState@QListWidgetItem@@QBE?AW4CheckState@Qt@@XZ @ 2618 NONAME ; enum Qt::CheckState QListWidgetItem::checkState(void) const
	?checkState@QStandardItem@@QBE?AW4CheckState@Qt@@XZ @ 2619 NONAME ; enum Qt::CheckState QStandardItem::checkState(void) const
	?checkState@QTableWidgetItem@@QBE?AW4CheckState@Qt@@XZ @ 2620 NONAME ; enum Qt::CheckState QTableWidgetItem::checkState(void) const
	?checkState@QTreeWidgetItem@@QBE?AW4CheckState@Qt@@H@Z @ 2621 NONAME ; enum Qt::CheckState QTreeWidgetItem::checkState(int) const
	?checkStateSet@QAbstractButton@@MAEXXZ @ 2622 NONAME ; void QAbstractButton::checkStateSet(void)
	?checkStateSet@QCheckBox@@MAEXXZ @ 2623 NONAME ; void QCheckBox::checkStateSet(void)
	?checkedAction@QActionGroup@@QBEPAVQAction@@XZ @ 2624 NONAME ; class QAction * QActionGroup::checkedAction(void) const
	?checkedButton@QButtonGroup@@QBEPAVQAbstractButton@@XZ @ 2625 NONAME ; class QAbstractButton * QButtonGroup::checkedButton(void) const
	?checkedId@QButtonGroup@@QBEHXZ @ 2626 NONAME ; int QButtonGroup::checkedId(void) const
	?child@QStandardItem@@QBEPAV1@HH@Z @ 2627 NONAME ; class QStandardItem * QStandardItem::child(int, int) const
	?child@QTreeWidgetItem@@QBEPAV1@H@Z @ 2628 NONAME ; class QTreeWidgetItem * QTreeWidgetItem::child(int) const
	?child@QUndoCommand@@QBEPBV1@H@Z @ 2629 NONAME ; class QUndoCommand const * QUndoCommand::child(int) const
	?childAt@QWidget@@QBEPAV1@ABVQPoint@@@Z @ 2630 NONAME ; class QWidget * QWidget::childAt(class QPoint const &) const
	?childAt@QWidget@@QBEPAV1@HH@Z @ 2631 NONAME ; class QWidget * QWidget::childAt(int, int) const
	?childAt_helper@QWidgetPrivate@@QBEPAVQWidget@@ABVQPoint@@_N@Z @ 2632 NONAME ; class QWidget * QWidgetPrivate::childAt_helper(class QPoint const &, bool) const
	?childCount@QTreeWidgetItem@@QBEHXZ @ 2633 NONAME ; int QTreeWidgetItem::childCount(void) const
	?childCount@QUndoCommand@@QBEHXZ @ 2634 NONAME ; int QUndoCommand::childCount(void) const
	?childEvent@QGroupBox@@MAEXPAVQChildEvent@@@Z @ 2635 NONAME ; void QGroupBox::childEvent(class QChildEvent *)
	?childEvent@QLayout@@MAEXPAVQChildEvent@@@Z @ 2636 NONAME ; void QLayout::childEvent(class QChildEvent *)
	?childEvent@QMdiArea@@MAEXPAVQChildEvent@@@Z @ 2637 NONAME ; void QMdiArea::childEvent(class QChildEvent *)
	?childEvent@QMdiSubWindow@@MAEXPAVQChildEvent@@@Z @ 2638 NONAME ; void QMdiSubWindow::childEvent(class QChildEvent *)
	?childEvent@QSplitter@@MAEXPAVQChildEvent@@@Z @ 2639 NONAME ; void QSplitter::childEvent(class QChildEvent *)
	?childEvent@QToolBar@@MAEXPAVQChildEvent@@@Z @ 2640 NONAME ; void QToolBar::childEvent(class QChildEvent *)
	?childEvent@QWorkspace@@MAEXPAVQChildEvent@@@Z @ 2641 NONAME ; void QWorkspace::childEvent(class QChildEvent *)
	?childFrames@QTextFrame@@QBE?AV?$QList@PAVQTextFrame@@@@XZ @ 2642 NONAME ; class QList<class QTextFrame *> QTextFrame::childFrames(void) const
	?childIndicatorPolicy@QTreeWidgetItem@@QBE?AW4ChildIndicatorPolicy@1@XZ @ 2643 NONAME ; enum QTreeWidgetItem::ChildIndicatorPolicy QTreeWidgetItem::childIndicatorPolicy(void) const
	?childItems@QGraphicsItem@@QBE?AV?$QList@PAVQGraphicsItem@@@@XZ @ 2644 NONAME ; class QList<class QGraphicsItem *> QGraphicsItem::childItems(void) const
	?children@QGraphicsItem@@QBE?AV?$QList@PAVQGraphicsItem@@@@XZ @ 2645 NONAME ; class QList<class QGraphicsItem *> QGraphicsItem::children(void) const
	?childrenBoundingRect@QGraphicsItem@@QBE?AVQRectF@@XZ @ 2646 NONAME ; class QRectF QGraphicsItem::childrenBoundingRect(void) const
	?childrenBoundingRectHelper@QGraphicsItemPrivate@@QAEXPAVQTransform@@PAVQRectF@@@Z @ 2647 NONAME ABSENT ; void QGraphicsItemPrivate::childrenBoundingRectHelper(class QTransform *, class QRectF *)
	?childrenCheckState@QTreeWidgetItem@@ABE?AVQVariant@@H@Z @ 2648 NONAME ; class QVariant QTreeWidgetItem::childrenCheckState(int) const
	?childrenClippedToShape@QGraphicsItemPrivate@@QBE_NXZ @ 2649 NONAME ; bool QGraphicsItemPrivate::childrenClippedToShape(void) const
	?childrenCollapsible@QSplitter@@QBE_NXZ @ 2650 NONAME ; bool QSplitter::childrenCollapsible(void) const
	?childrenCombineOpacity@QGraphicsItemPrivate@@QBE_NXZ @ 2651 NONAME ; bool QGraphicsItemPrivate::childrenCombineOpacity(void) const
	?childrenRect@QWidget@@QBE?AVQRect@@XZ @ 2652 NONAME ; class QRect QWidget::childrenRect(void) const
	?childrenRegion@QWidget@@QBE?AVQRegion@@XZ @ 2653 NONAME ; class QRegion QWidget::childrenRegion(void) const
	?classId@QPixmapData@@QBE?AW4ClassId@1@XZ @ 2654 NONAME ; enum QPixmapData::ClassId QPixmapData::classId(void) const
	?cleanChanged@QUndoGroup@@IAEX_N@Z @ 2655 NONAME ; void QUndoGroup::cleanChanged(bool)
	?cleanChanged@QUndoStack@@IAEX_N@Z @ 2656 NONAME ; void QUndoStack::cleanChanged(bool)
	?cleanIcon@QUndoView@@QBE?AVQIcon@@XZ @ 2657 NONAME ; class QIcon QUndoView::cleanIcon(void) const
	?cleanIndex@QUndoStack@@QBEHXZ @ 2658 NONAME ; int QUndoStack::cleanIndex(void) const
	?cleanText@QDoubleSpinBox@@QBE?AVQString@@XZ @ 2659 NONAME ; class QString QDoubleSpinBox::cleanText(void) const
	?cleanText@QSpinBox@@QBE?AVQString@@XZ @ 2660 NONAME ; class QString QSpinBox::cleanText(void) const
	?cleanUp@QBrush@@AAEXPAUQBrushData@@@Z @ 2661 NONAME ; void QBrush::cleanUp(struct QBrushData *)
	?cleanUp@QRegion@@CAXPAUQRegionData@1@@Z @ 2662 NONAME ; void QRegion::cleanUp(struct QRegion::QRegionData *)
	?cleanup@QColormap@@SAXXZ @ 2663 NONAME ; void QColormap::cleanup(void)
	?cleanupMultitouch@QApplicationPrivate@@QAEXXZ @ 2664 NONAME ; void QApplicationPrivate::cleanupMultitouch(void)
	?cleanupMultitouch_sys@QApplicationPrivate@@QAEXXZ @ 2665 NONAME ; void QApplicationPrivate::cleanupMultitouch_sys(void)
	?cleanupPage@QWizard@@MAEXH@Z @ 2666 NONAME ; void QWizard::cleanupPage(int)
	?cleanupPage@QWizardPage@@UAEXXZ @ 2667 NONAME ; void QWizardPage::cleanupPage(void)
	?clear@QAbstractSpinBox@@UAEXXZ @ 2668 NONAME ; void QAbstractSpinBox::clear(void)
	?clear@QBitmap@@QAEXXZ @ 2669 NONAME ; void QBitmap::clear(void)
	?clear@QClipboard@@QAEXW4Mode@1@@Z @ 2670 NONAME ; void QClipboard::clear(enum QClipboard::Mode)
	?clear@QComboBox@@QAEXXZ @ 2671 NONAME ; void QComboBox::clear(void)
	?clear@QDateTimeEdit@@UAEXXZ @ 2672 NONAME ; void QDateTimeEdit::clear(void)
	?clear@QDialogButtonBox@@QAEXXZ @ 2673 NONAME ; void QDialogButtonBox::clear(void)
	?clear@QGraphicsItemAnimation@@QAEXXZ @ 2674 NONAME ; void QGraphicsItemAnimation::clear(void)
	?clear@QGraphicsScene@@QAEXXZ @ 2675 NONAME ; void QGraphicsScene::clear(void)
	?clear@QItemSelectionModel@@UAEXXZ @ 2676 NONAME ; void QItemSelectionModel::clear(void)
	?clear@QLabel@@QAEXXZ @ 2677 NONAME ; void QLabel::clear(void)
	?clear@QLineControl@@QAEXXZ @ 2678 NONAME ; void QLineControl::clear(void)
	?clear@QLineEdit@@QAEXXZ @ 2679 NONAME ; void QLineEdit::clear(void)
	?clear@QListWidget@@QAEXXZ @ 2680 NONAME ; void QListWidget::clear(void)
	?clear@QMenu@@QAEXXZ @ 2681 NONAME ; void QMenu::clear(void)
	?clear@QMenuBar@@QAEXXZ @ 2682 NONAME ; void QMenuBar::clear(void)
	?clear@QPixmapCache@@SAXXZ @ 2683 NONAME ; void QPixmapCache::clear(void)
	?clear@QPlainTextEdit@@QAEXXZ @ 2684 NONAME ; void QPlainTextEdit::clear(void)
	?clear@QSortFilterProxyModel@@QAEXXZ @ 2685 NONAME ; void QSortFilterProxyModel::clear(void)
	?clear@QStandardItemModel@@QAEXXZ @ 2686 NONAME ; void QStandardItemModel::clear(void)
	?clear@QTabWidget@@QAEXXZ @ 2687 NONAME ; void QTabWidget::clear(void)
	?clear@QTableWidget@@QAEXXZ @ 2688 NONAME ; void QTableWidget::clear(void)
	?clear@QTextControl@@QAEXXZ @ 2689 NONAME ; void QTextControl::clear(void)
	?clear@QTextDocument@@UAEXXZ @ 2690 NONAME ; void QTextDocument::clear(void)
	?clear@QTextEdit@@QAEXXZ @ 2691 NONAME ; void QTextEdit::clear(void)
	?clear@QToolBar@@QAEXXZ @ 2692 NONAME ; void QToolBar::clear(void)
	?clear@QTreeWidget@@QAEXXZ @ 2693 NONAME ; void QTreeWidget::clear(void)
	?clear@QUndoStack@@QAEXXZ @ 2694 NONAME ; void QUndoStack::clear(void)
	?clearAdditionalFormats@QTextLayout@@QAEXXZ @ 2695 NONAME ; void QTextLayout::clearAdditionalFormats(void)
	?clearBackground@QTextFormat@@QAEXXZ @ 2696 NONAME ; void QTextFormat::clearBackground(void)
	?clearColumnWidthConstraints@QTextTableFormat@@QAEXXZ @ 2697 NONAME ; void QTextTableFormat::clearColumnWidthConstraints(void)
	?clearContents@QTableWidget@@QAEXXZ @ 2698 NONAME ; void QTableWidget::clearContents(void)
	?clearDirty@QPaintEngine@@QAEXV?$QFlags@W4DirtyFlag@QPaintEngine@@@@@Z @ 2699 NONAME ; void QPaintEngine::clearDirty(class QFlags<enum QPaintEngine::DirtyFlag>)
	?clearEditText@QComboBox@@QAEXXZ @ 2700 NONAME ; void QComboBox::clearEditText(void)
	?clearFocus@QGraphicsItem@@QAEXXZ @ 2701 NONAME ; void QGraphicsItem::clearFocus(void)
	?clearFocus@QGraphicsScene@@QAEXXZ @ 2702 NONAME ; void QGraphicsScene::clearFocus(void)
	?clearFocus@QWidget@@QAEXXZ @ 2703 NONAME ; void QWidget::clearFocus(void)
	?clearForeground@QTextFormat@@QAEXXZ @ 2704 NONAME ; void QTextFormat::clearForeground(void)
	?clearHistory@QTextBrowser@@QAEXXZ @ 2705 NONAME ; void QTextBrowser::clearHistory(void)
	?clearLayout@QTextBlock@@QAEXXZ @ 2706 NONAME ; void QTextBlock::clearLayout(void)
	?clearLayout@QTextLayout@@QAEXXZ @ 2707 NONAME ; void QTextLayout::clearLayout(void)
	?clearLineData@QTextEngine@@QAEXXZ @ 2708 NONAME ; void QTextEngine::clearLineData(void)
	?clearMapping@QDataWidgetMapper@@QAEXXZ @ 2709 NONAME ; void QDataWidgetMapper::clearMapping(void)
	?clearMask@QWidget@@QAEXXZ @ 2710 NONAME ; void QWidget::clearMask(void)
	?clearMaximumDate@QDateTimeEdit@@QAEXXZ @ 2711 NONAME ; void QDateTimeEdit::clearMaximumDate(void)
	?clearMaximumDateTime@QDateTimeEdit@@QAEXXZ @ 2712 NONAME ; void QDateTimeEdit::clearMaximumDateTime(void)
	?clearMaximumTime@QDateTimeEdit@@QAEXXZ @ 2713 NONAME ; void QDateTimeEdit::clearMaximumTime(void)
	?clearMessage@QSplashScreen@@QAEXXZ @ 2714 NONAME ; void QSplashScreen::clearMessage(void)
	?clearMessage@QStatusBar@@QAEXXZ @ 2715 NONAME ; void QStatusBar::clearMessage(void)
	?clearMinimumDate@QDateTimeEdit@@QAEXXZ @ 2716 NONAME ; void QDateTimeEdit::clearMinimumDate(void)
	?clearMinimumDateTime@QDateTimeEdit@@QAEXXZ @ 2717 NONAME ; void QDateTimeEdit::clearMinimumDateTime(void)
	?clearMinimumTime@QDateTimeEdit@@QAEXXZ @ 2718 NONAME ; void QDateTimeEdit::clearMinimumTime(void)
	?clearProperty@QTextFormat@@QAEXH@Z @ 2719 NONAME ; void QTextFormat::clearProperty(int)
	?clearPropertyFlags@QListView@@QAEXXZ @ 2720 NONAME ; void QListView::clearPropertyFlags(void)
	?clearSelection@QAbstractItemView@@QAEXXZ @ 2721 NONAME ; void QAbstractItemView::clearSelection(void)
	?clearSelection@QGraphicsScene@@QAEXXZ @ 2722 NONAME ; void QGraphicsScene::clearSelection(void)
	?clearSelection@QItemSelectionModel@@QAEXXZ @ 2723 NONAME ; void QItemSelectionModel::clearSelection(void)
	?clearSelection@QTextCursor@@QAEXXZ @ 2724 NONAME ; void QTextCursor::clearSelection(void)
	?clearSpans@QTableView@@QAEXXZ @ 2725 NONAME ; void QTableView::clearSpans(void)
	?clearString@QLineControl@@ABE?AVQString@@II@Z @ 2726 NONAME ; class QString QLineControl::clearString(unsigned int, unsigned int) const
	?clearSubFocus@QGraphicsItemPrivate@@QAEXPAVQGraphicsItem@@@Z @ 2727 NONAME ABSENT ; void QGraphicsItemPrivate::clearSubFocus(class QGraphicsItem *)
	?clearUndo@QLineControl@@QAEXXZ @ 2728 NONAME ; void QLineControl::clearUndo(void)
	?click@QAbstractButton@@QAEXXZ @ 2729 NONAME ; void QAbstractButton::click(void)
	?clicked@QAbstractButton@@IAEX_N@Z @ 2730 NONAME ; void QAbstractButton::clicked(bool)
	?clicked@QAbstractItemView@@IAEXABVQModelIndex@@@Z @ 2731 NONAME ; void QAbstractItemView::clicked(class QModelIndex const &)
	?clicked@QCalendarWidget@@IAEXABVQDate@@@Z @ 2732 NONAME ; void QCalendarWidget::clicked(class QDate const &)
	?clicked@QDialogButtonBox@@IAEXPAVQAbstractButton@@@Z @ 2733 NONAME ; void QDialogButtonBox::clicked(class QAbstractButton *)
	?clicked@QGroupBox@@IAEX_N@Z @ 2734 NONAME ; void QGroupBox::clicked(bool)
	?clickedButton@QMessageBox@@QBEPAVQAbstractButton@@XZ @ 2735 NONAME ; class QAbstractButton * QMessageBox::clickedButton(void) const
	?clip@QPaintEngineEx@@UAEXABVQPainterPath@@W4ClipOperation@Qt@@@Z @ 2736 NONAME ; void QPaintEngineEx::clip(class QPainterPath const &, enum Qt::ClipOperation)
	?clip@QPaintEngineEx@@UAEXABVQRect@@W4ClipOperation@Qt@@@Z @ 2737 NONAME ; void QPaintEngineEx::clip(class QRect const &, enum Qt::ClipOperation)
	?clip@QPaintEngineEx@@UAEXABVQRegion@@W4ClipOperation@Qt@@@Z @ 2738 NONAME ; void QPaintEngineEx::clip(class QRegion const &, enum Qt::ClipOperation)
	?clipOperation@QPaintEngineState@@QBE?AW4ClipOperation@Qt@@XZ @ 2739 NONAME ; enum Qt::ClipOperation QPaintEngineState::clipOperation(void) const
	?clipPath@QGraphicsItem@@QBE?AVQPainterPath@@XZ @ 2740 NONAME ; class QPainterPath QGraphicsItem::clipPath(void) const
	?clipPath@QPaintEngineState@@QBE?AVQPainterPath@@XZ @ 2741 NONAME ; class QPainterPath QPaintEngineState::clipPath(void) const
	?clipPath@QPainter@@QBE?AVQPainterPath@@XZ @ 2742 NONAME ; class QPainterPath QPainter::clipPath(void) const
	?clipRect@QImageReader@@QBE?AVQRect@@XZ @ 2743 NONAME ; class QRect QImageReader::clipRect(void) const
	?clipRect@QStrokerOps@@QBE?AVQRectF@@XZ @ 2744 NONAME ; class QRectF QStrokerOps::clipRect(void) const
	?clipRect@QWidgetPrivate@@QBE?AVQRect@@XZ @ 2745 NONAME ; class QRect QWidgetPrivate::clipRect(void) const
	?clipRegion@QPaintEngineState@@QBE?AVQRegion@@XZ @ 2746 NONAME ; class QRegion QPaintEngineState::clipRegion(void) const
	?clipRegion@QPainter@@QBE?AVQRegion@@XZ @ 2747 NONAME ; class QRegion QPainter::clipRegion(void) const
	?clipRegion@QWidgetPrivate@@QBE?AVQRegion@@XZ @ 2748 NONAME ; class QRegion QWidgetPrivate::clipRegion(void) const
	?clipToEffectiveMask@QWidgetPrivate@@QBEXAAVQRegion@@@Z @ 2749 NONAME ; void QWidgetPrivate::clipToEffectiveMask(class QRegion &) const
	?clipboard@QApplication@@SAPAVQClipboard@@XZ @ 2750 NONAME ; class QClipboard * QApplication::clipboard(void)
	?clone@QIconEngineV2@@UBEPAV1@XZ @ 2751 NONAME ; class QIconEngineV2 * QIconEngineV2::clone(void) const
	?clone@QListWidgetItem@@UBEPAV1@XZ @ 2752 NONAME ; class QListWidgetItem * QListWidgetItem::clone(void) const
	?clone@QStandardItem@@UBEPAV1@XZ @ 2753 NONAME ; class QStandardItem * QStandardItem::clone(void) const
	?clone@QTableWidgetItem@@UBEPAV1@XZ @ 2754 NONAME ; class QTableWidgetItem * QTableWidgetItem::clone(void) const
	?clone@QTextDocument@@QBEPAV1@PAVQObject@@@Z @ 2755 NONAME ; class QTextDocument * QTextDocument::clone(class QObject *) const
	?clone@QTreeWidgetItem@@UBEPAV1@XZ @ 2756 NONAME ; class QTreeWidgetItem * QTreeWidgetItem::clone(void) const
	?close@QGraphicsWidget@@QAE_NXZ @ 2757 NONAME ; bool QGraphicsWidget::close(void)
	?close@QWidget@@QAE_NXZ @ 2758 NONAME ; bool QWidget::close(void)
	?closeActiveSubWindow@QMdiArea@@QAEXXZ @ 2759 NONAME ; void QMdiArea::closeActiveSubWindow(void)
	?closeActiveWindow@QWorkspace@@QAEXXZ @ 2760 NONAME ; void QWorkspace::closeActiveWindow(void)
	?closeAllSubWindows@QMdiArea@@QAEXXZ @ 2761 NONAME ; void QMdiArea::closeAllSubWindows(void)
	?closeAllWindows@QApplication@@SAXXZ @ 2762 NONAME ; void QApplication::closeAllWindows(void)
	?closeAllWindows@QWorkspace@@QAEXXZ @ 2763 NONAME ; void QWorkspace::closeAllWindows(void)
	?closeEditor@QAbstractItemDelegate@@IAEXPAVQWidget@@W4EndEditHint@1@@Z @ 2764 NONAME ; void QAbstractItemDelegate::closeEditor(class QWidget *, enum QAbstractItemDelegate::EndEditHint)
	?closeEditor@QAbstractItemView@@MAEXPAVQWidget@@W4EndEditHint@QAbstractItemDelegate@@@Z @ 2765 NONAME ; void QAbstractItemView::closeEditor(class QWidget *, enum QAbstractItemDelegate::EndEditHint)
	?closeEvent@QAbstractSpinBox@@MAEXPAVQCloseEvent@@@Z @ 2766 NONAME ; void QAbstractSpinBox::closeEvent(class QCloseEvent *)
	?closeEvent@QDialog@@MAEXPAVQCloseEvent@@@Z @ 2767 NONAME ; void QDialog::closeEvent(class QCloseEvent *)
	?closeEvent@QDockWidget@@MAEXPAVQCloseEvent@@@Z @ 2768 NONAME ; void QDockWidget::closeEvent(class QCloseEvent *)
	?closeEvent@QGraphicsWidget@@MAEXPAVQCloseEvent@@@Z @ 2769 NONAME ; void QGraphicsWidget::closeEvent(class QCloseEvent *)
	?closeEvent@QMdiSubWindow@@MAEXPAVQCloseEvent@@@Z @ 2770 NONAME ; void QMdiSubWindow::closeEvent(class QCloseEvent *)
	?closeEvent@QMessageBox@@MAEXPAVQCloseEvent@@@Z @ 2771 NONAME ; void QMessageBox::closeEvent(class QCloseEvent *)
	?closeEvent@QProgressDialog@@MAEXPAVQCloseEvent@@@Z @ 2772 NONAME ; void QProgressDialog::closeEvent(class QCloseEvent *)
	?closeEvent@QWidget@@MAEXPAVQCloseEvent@@@Z @ 2773 NONAME ; void QWidget::closeEvent(class QCloseEvent *)
	?closePersistentEditor@QAbstractItemView@@QAEXABVQModelIndex@@@Z @ 2774 NONAME ; void QAbstractItemView::closePersistentEditor(class QModelIndex const &)
	?closePersistentEditor@QListWidget@@QAEXPAVQListWidgetItem@@@Z @ 2775 NONAME ; void QListWidget::closePersistentEditor(class QListWidgetItem *)
	?closePersistentEditor@QTableWidget@@QAEXPAVQTableWidgetItem@@@Z @ 2776 NONAME ; void QTableWidget::closePersistentEditor(class QTableWidgetItem *)
	?closePersistentEditor@QTreeWidget@@QAEXPAVQTreeWidgetItem@@H@Z @ 2777 NONAME ; void QTreeWidget::closePersistentEditor(class QTreeWidgetItem *, int)
	?closePopup@QApplicationPrivate@@QAEXPAVQWidget@@@Z @ 2778 NONAME ; void QApplicationPrivate::closePopup(class QWidget *)
	?closeSubpath@QPainterPath@@QAEXXZ @ 2779 NONAME ; void QPainterPath::closeSubpath(void)
	?close_helper@QWidgetPrivate@@QAE_NW4CloseMode@1@@Z @ 2780 NONAME ; bool QWidgetPrivate::close_helper(enum QWidgetPrivate::CloseMode)
	?closestAcceptableSize@QLayout@@SA?AVQSize@@PBVQWidget@@ABV2@@Z @ 2781 NONAME ; class QSize QLayout::closestAcceptableSize(class QWidget const *, class QSize const &)
	?closestLegalPosition@QSplitter@@IAEHHH@Z @ 2782 NONAME ; int QSplitter::closestLegalPosition(int, int)
	?closestLegalPosition@QSplitterHandle@@IAEHH@Z @ 2783 NONAME ; int QSplitterHandle::closestLegalPosition(int)
	?codec@QTextDocumentWriter@@QBEPAVQTextCodec@@XZ @ 2784 NONAME ; class QTextCodec * QTextDocumentWriter::codec(void) const
	?codecForHtml@Qt@@YAPAVQTextCodec@@ABVQByteArray@@@Z @ 2785 NONAME ; class QTextCodec * Qt::codecForHtml(class QByteArray const &)
	?coefficients@QBezier@@SAXMAAM000@Z @ 2786 NONAME ; void QBezier::coefficients(float, float &, float &, float &, float &)
	?collapse@QTreeView@@QAEXABVQModelIndex@@@Z @ 2787 NONAME ; void QTreeView::collapse(class QModelIndex const &)
	?collapseAll@QTreeView@@QAEXXZ @ 2788 NONAME ; void QTreeView::collapseAll(void)
	?collapseItem@QTreeWidget@@QAEXPBVQTreeWidgetItem@@@Z @ 2789 NONAME ; void QTreeWidget::collapseItem(class QTreeWidgetItem const *)
	?collapsed@QTreeView@@IAEXABVQModelIndex@@@Z @ 2790 NONAME ; void QTreeView::collapsed(class QModelIndex const &)
	?collidesWithItem@QGraphicsItem@@UBE_NPBV1@W4ItemSelectionMode@Qt@@@Z @ 2791 NONAME ; bool QGraphicsItem::collidesWithItem(class QGraphicsItem const *, enum Qt::ItemSelectionMode) const
	?collidesWithPath@QGraphicsItem@@UBE_NABVQPainterPath@@W4ItemSelectionMode@Qt@@@Z @ 2792 NONAME ; bool QGraphicsItem::collidesWithPath(class QPainterPath const &, enum Qt::ItemSelectionMode) const
	?collidingItems@QGraphicsItem@@QBE?AV?$QList@PAVQGraphicsItem@@@@W4ItemSelectionMode@Qt@@@Z @ 2793 NONAME ; class QList<class QGraphicsItem *> QGraphicsItem::collidingItems(enum Qt::ItemSelectionMode) const
	?collidingItems@QGraphicsScene@@QBE?AV?$QList@PAVQGraphicsItem@@@@PBVQGraphicsItem@@W4ItemSelectionMode@Qt@@@Z @ 2794 NONAME ; class QList<class QGraphicsItem *> QGraphicsScene::collidingItems(class QGraphicsItem const *, enum Qt::ItemSelectionMode) const
	?color@QBrush@@QBEABVQColor@@XZ @ 2795 NONAME ; class QColor const & QBrush::color(void) const
	?color@QGraphicsColorizeEffect@@QBE?AVQColor@@XZ @ 2796 NONAME ; class QColor QGraphicsColorizeEffect::color(void) const
	?color@QGraphicsDropShadowEffect@@QBE?AVQColor@@XZ @ 2797 NONAME ; class QColor QGraphicsDropShadowEffect::color(void) const
	?color@QImage@@QBEIH@Z @ 2798 NONAME ; unsigned int QImage::color(int) const
	?color@QPalette@@QBEABVQColor@@W4ColorGroup@1@W4ColorRole@1@@Z @ 2799 NONAME ; class QColor const & QPalette::color(enum QPalette::ColorGroup, enum QPalette::ColorRole) const
	?color@QPalette@@QBEABVQColor@@W4ColorRole@1@@Z @ 2800 NONAME ; class QColor const & QPalette::color(enum QPalette::ColorRole) const
	?color@QPen@@QBE?AVQColor@@XZ @ 2801 NONAME ; class QColor QPen::color(void) const
	?color@QPixmapColorizeFilter@@QBE?AVQColor@@XZ @ 2802 NONAME ; class QColor QPixmapColorizeFilter::color(void) const
	?color@QPixmapDropShadowFilter@@QBE?AVQColor@@XZ @ 2803 NONAME ; class QColor QPixmapDropShadowFilter::color(void) const
	?colorAt@QColormap@@QBE?BVQColor@@I@Z @ 2804 NONAME ; class QColor const QColormap::colorAt(unsigned int) const
	?colorChanged@QGraphicsColorizeEffect@@IAEXABVQColor@@@Z @ 2805 NONAME ; void QGraphicsColorizeEffect::colorChanged(class QColor const &)
	?colorChanged@QGraphicsDropShadowEffect@@IAEXABVQColor@@@Z @ 2806 NONAME ; void QGraphicsDropShadowEffect::colorChanged(class QColor const &)
	?colorCount@QImage@@QBEHXZ @ 2807 NONAME ; int QImage::colorCount(void) const
	?colorCount@QPaintDevice@@QBEHXZ @ 2808 NONAME ; int QPaintDevice::colorCount(void) const
	?colorCount@QPixmapData@@QBEHXZ @ 2809 NONAME ; int QPixmapData::colorCount(void) const
	?colorDialogDelete@QGuiPlatformPlugin@@UAEXPAVQColorDialog@@@Z @ 2810 NONAME ; void QGuiPlatformPlugin::colorDialogDelete(class QColorDialog *)
	?colorDialogSetCurrentColor@QGuiPlatformPlugin@@UAEXPAVQColorDialog@@ABVQColor@@@Z @ 2811 NONAME ; void QGuiPlatformPlugin::colorDialogSetCurrentColor(class QColorDialog *, class QColor const &)
	?colorDialogSetVisible@QGuiPlatformPlugin@@UAE_NPAVQColorDialog@@_N@Z @ 2812 NONAME ; bool QGuiPlatformPlugin::colorDialogSetVisible(class QColorDialog *, bool)
	?colorNames@QColor@@SA?AVQStringList@@XZ @ 2813 NONAME ; class QStringList QColor::colorNames(void)
	?colorProperty@QTextFormat@@QBE?AVQColor@@H@Z @ 2814 NONAME ; class QColor QTextFormat::colorProperty(int) const
	?colorSelected@QColorDialog@@IAEXABVQColor@@@Z @ 2815 NONAME ; void QColorDialog::colorSelected(class QColor const &)
	?colorSpec@QApplication@@SAHXZ @ 2816 NONAME ; int QApplication::colorSpec(void)
	?colorTable@QImage@@QBE?AV?$QVector@I@@XZ @ 2817 NONAME ; class QVector<unsigned int> QImage::colorTable(void) const
	?colormap@QColormap@@QBE?BV?$QVector@VQColor@@@@XZ @ 2818 NONAME ; class QVector<class QColor> const QColormap::colormap(void) const
	?column@QMatrix4x4@@QBE?AVQVector4D@@H@Z @ 2819 NONAME ; class QVector4D QMatrix4x4::column(int) const
	?column@QStandardItem@@QBEHXZ @ 2820 NONAME ; int QStandardItem::column(void) const
	?column@QTableWidget@@QBEHPBVQTableWidgetItem@@@Z @ 2821 NONAME ; int QTableWidget::column(class QTableWidgetItem const *) const
	?column@QTableWidgetItem@@QBEHXZ @ 2822 NONAME ; int QTableWidgetItem::column(void) const
	?column@QTextTableCell@@QBEHXZ @ 2823 NONAME ; int QTextTableCell::column(void) const
	?columnAlignment@QGraphicsGridLayout@@QBE?AV?$QFlags@W4AlignmentFlag@Qt@@@@H@Z @ 2824 NONAME ; class QFlags<enum Qt::AlignmentFlag> QGraphicsGridLayout::columnAlignment(int) const
	?columnAt@QTableView@@QBEHH@Z @ 2825 NONAME ; int QTableView::columnAt(int) const
	?columnAt@QTreeView@@QBEHH@Z @ 2826 NONAME ; int QTreeView::columnAt(int) const
	?columnCount@QDirModel@@UBEHABVQModelIndex@@@Z @ 2827 NONAME ; int QDirModel::columnCount(class QModelIndex const &) const
	?columnCount@QFileSystemModel@@UBEHABVQModelIndex@@@Z @ 2828 NONAME ; int QFileSystemModel::columnCount(class QModelIndex const &) const
	?columnCount@QGraphicsGridLayout@@QBEHXZ @ 2829 NONAME ; int QGraphicsGridLayout::columnCount(void) const
	?columnCount@QGridLayout@@QBEHXZ @ 2830 NONAME ; int QGridLayout::columnCount(void) const
	?columnCount@QMenu@@IBEHXZ @ 2831 NONAME ; int QMenu::columnCount(void) const
	?columnCount@QProxyModel@@UBEHABVQModelIndex@@@Z @ 2832 NONAME ; int QProxyModel::columnCount(class QModelIndex const &) const
	?columnCount@QSortFilterProxyModel@@UBEHABVQModelIndex@@@Z @ 2833 NONAME ; int QSortFilterProxyModel::columnCount(class QModelIndex const &) const
	?columnCount@QStandardItem@@QBEHXZ @ 2834 NONAME ; int QStandardItem::columnCount(void) const
	?columnCount@QStandardItemModel@@UBEHABVQModelIndex@@@Z @ 2835 NONAME ; int QStandardItemModel::columnCount(class QModelIndex const &) const
	?columnCount@QTableWidget@@QBEHXZ @ 2836 NONAME ; int QTableWidget::columnCount(void) const
	?columnCount@QTableWidgetSelectionRange@@QBEHXZ @ 2837 NONAME ; int QTableWidgetSelectionRange::columnCount(void) const
	?columnCount@QTreeWidget@@QBEHXZ @ 2838 NONAME ; int QTreeWidget::columnCount(void) const
	?columnCount@QTreeWidgetItem@@QBEHXZ @ 2839 NONAME ; int QTreeWidgetItem::columnCount(void) const
	?columnCountChanged@QTableView@@IAEXHH@Z @ 2840 NONAME ; void QTableView::columnCountChanged(int, int)
	?columnCountChanged@QTreeView@@IAEXHH@Z @ 2841 NONAME ; void QTreeView::columnCountChanged(int, int)
	?columnIntersectsSelection@QItemSelectionModel@@QBE_NHABVQModelIndex@@@Z @ 2842 NONAME ; bool QItemSelectionModel::columnIntersectsSelection(int, class QModelIndex const &) const
	?columnMaximumWidth@QGraphicsGridLayout@@QBEMH@Z @ 2843 NONAME ; float QGraphicsGridLayout::columnMaximumWidth(int) const
	?columnMinimumWidth@QGraphicsGridLayout@@QBEMH@Z @ 2844 NONAME ; float QGraphicsGridLayout::columnMinimumWidth(int) const
	?columnMinimumWidth@QGridLayout@@QBEHH@Z @ 2845 NONAME ; int QGridLayout::columnMinimumWidth(int) const
	?columnMoved@QTableView@@IAEXHHH@Z @ 2846 NONAME ; void QTableView::columnMoved(int, int, int)
	?columnMoved@QTreeView@@IAEXXZ @ 2847 NONAME ; void QTreeView::columnMoved(void)
	?columnNumber@QTextCursor@@QBEHXZ @ 2848 NONAME ; int QTextCursor::columnNumber(void) const
	?columnPreferredWidth@QGraphicsGridLayout@@QBEMH@Z @ 2849 NONAME ; float QGraphicsGridLayout::columnPreferredWidth(int) const
	?columnResized@QTableView@@IAEXHHH@Z @ 2850 NONAME ; void QTableView::columnResized(int, int, int)
	?columnResized@QTreeView@@IAEXHHH@Z @ 2851 NONAME ; void QTreeView::columnResized(int, int, int)
	?columnSpacing@QGraphicsGridLayout@@QBEMH@Z @ 2852 NONAME ; float QGraphicsGridLayout::columnSpacing(int) const
	?columnSpan@QTableView@@QBEHHH@Z @ 2853 NONAME ; int QTableView::columnSpan(int, int) const
	?columnSpan@QTextTableCell@@QBEHXZ @ 2854 NONAME ; int QTextTableCell::columnSpan(void) const
	?columnStretch@QGridLayout@@QBEHH@Z @ 2855 NONAME ; int QGridLayout::columnStretch(int) const
	?columnStretchFactor@QGraphicsGridLayout@@QBEHH@Z @ 2856 NONAME ; int QGraphicsGridLayout::columnStretchFactor(int) const
	?columnViewportPosition@QTableView@@QBEHH@Z @ 2857 NONAME ; int QTableView::columnViewportPosition(int) const
	?columnViewportPosition@QTreeView@@QBEHH@Z @ 2858 NONAME ; int QTreeView::columnViewportPosition(int) const
	?columnWidth@QTableView@@QBEHH@Z @ 2859 NONAME ; int QTableView::columnWidth(int) const
	?columnWidth@QTreeView@@QBEHH@Z @ 2860 NONAME ; int QTreeView::columnWidth(int) const
	?columnWidthConstraints@QTextTableFormat@@QBE?AV?$QVector@VQTextLength@@@@XZ @ 2861 NONAME ; class QVector<class QTextLength> QTextTableFormat::columnWidthConstraints(void) const
	?columnWidths@QColumnView@@QBE?AV?$QList@H@@XZ @ 2862 NONAME ; class QList<int> QColumnView::columnWidths(void) const
	?columns@QPixmapConvolutionFilter@@ABEHXZ @ 2863 NONAME ; int QPixmapConvolutionFilter::columns(void) const
	?columns@QTextTable@@QBEHXZ @ 2864 NONAME ; int QTextTable::columns(void) const
	?columns@QTextTableFormat@@QBEHXZ @ 2865 NONAME ; int QTextTableFormat::columns(void) const
	?combineOpacityFromParent@QGraphicsItemPrivate@@QBEMM@Z @ 2866 NONAME ; float QGraphicsItemPrivate::combineOpacityFromParent(float) const
	?combineTransformFromParent@QGraphicsItemPrivate@@QBEXPAVQTransform@@PBV2@@Z @ 2867 NONAME ; void QGraphicsItemPrivate::combineTransformFromParent(class QTransform *, class QTransform const *) const
	?combineTransformToParent@QGraphicsItemPrivate@@QBEXPAVQTransform@@PBV2@@Z @ 2868 NONAME ; void QGraphicsItemPrivate::combineTransformToParent(class QTransform *, class QTransform const *) const
	?combinedLayoutSpacing@QStyle@@QBEHV?$QFlags@W4ControlType@QSizePolicy@@@@0W4Orientation@Qt@@PAVQStyleOption@@PAVQWidget@@@Z @ 2869 NONAME ; int QStyle::combinedLayoutSpacing(class QFlags<enum QSizePolicy::ControlType>, class QFlags<enum QSizePolicy::ControlType>, enum Qt::Orientation, class QStyleOption *, class QWidget *) const
	?combinedMatrix@QPainter@@QBE?AVQMatrix@@XZ @ 2870 NONAME ; class QMatrix QPainter::combinedMatrix(void) const
	?combinedTransform@QPainter@@QBE?AVQTransform@@XZ @ 2871 NONAME ; class QTransform QPainter::combinedTransform(void) const
	?comboBoxItems@QInputDialog@@QBE?AVQStringList@@XZ @ 2872 NONAME ; class QStringList QInputDialog::comboBoxItems(void) const
	?command@QSymbianEvent@@QBEHXZ @ 2873 NONAME ; int QSymbianEvent::command(void) const
	?command@QUndoStack@@QBEPBVQUndoCommand@@H@Z @ 2874 NONAME ; class QUndoCommand const * QUndoStack::command(int) const
	?commitData@QAbstractItemDelegate@@IAEXPAVQWidget@@@Z @ 2875 NONAME ; void QAbstractItemDelegate::commitData(class QWidget *)
	?commitData@QAbstractItemView@@MAEXPAVQWidget@@@Z @ 2876 NONAME ; void QAbstractItemView::commitData(class QWidget *)
	?commitData@QApplication@@UAEXAAVQSessionManager@@@Z @ 2877 NONAME ; void QApplication::commitData(class QSessionManager &)
	?commitDataRequest@QApplication@@IAEXAAVQSessionManager@@@Z @ 2878 NONAME ; void QApplication::commitDataRequest(class QSessionManager &)
	?commitString@QInputMethodEvent@@QBEABVQString@@XZ @ 2879 NONAME ; class QString const & QInputMethodEvent::commitString(void) const
	?commonAncestorItem@QGraphicsItem@@QBEPAV1@PBV1@@Z @ 2880 NONAME ; class QGraphicsItem * QGraphicsItem::commonAncestorItem(class QGraphicsItem const *) const
	?complete@QCompleter@@QAEXABVQRect@@@Z @ 2881 NONAME ; void QCompleter::complete(class QRect const &)
	?complete@QLineControl@@QAEXH@Z @ 2882 NONAME ; void QLineControl::complete(int)
	?completeChanged@QWizardPage@@IAEXXZ @ 2883 NONAME ; void QWizardPage::completeChanged(void)
	?completer@QComboBox@@QBEPAVQCompleter@@XZ @ 2884 NONAME ; class QCompleter * QComboBox::completer(void) const
	?completer@QLineControl@@QBEPAVQCompleter@@XZ @ 2885 NONAME ; class QCompleter * QLineControl::completer(void) const
	?completer@QLineEdit@@QBEPAVQCompleter@@XZ @ 2886 NONAME ; class QCompleter * QLineEdit::completer(void) const
	?completionColumn@QCompleter@@QBEHXZ @ 2887 NONAME ; int QCompleter::completionColumn(void) const
	?completionCount@QCompleter@@QBEHXZ @ 2888 NONAME ; int QCompleter::completionCount(void) const
	?completionMode@QCompleter@@QBE?AW4CompletionMode@1@XZ @ 2889 NONAME ; enum QCompleter::CompletionMode QCompleter::completionMode(void) const
	?completionModel@QCompleter@@QBEPAVQAbstractItemModel@@XZ @ 2890 NONAME ; class QAbstractItemModel * QCompleter::completionModel(void) const
	?completionPrefix@QCompleter@@QBE?AVQString@@XZ @ 2891 NONAME ; class QString QCompleter::completionPrefix(void) const
	?completionRole@QCompleter@@QBEHXZ @ 2892 NONAME ; int QCompleter::completionRole(void) const
	?composeMode@QLineControl@@QBE_NXZ @ 2893 NONAME ; bool QLineControl::composeMode(void) const
	?compositionMode@QPaintEngineState@@QBE?AW4CompositionMode@QPainter@@XZ @ 2894 NONAME ; enum QPainter::CompositionMode QPaintEngineState::compositionMode(void) const
	?compositionMode@QPainter@@QBE?AW4CompositionMode@1@XZ @ 2895 NONAME ; enum QPainter::CompositionMode QPainter::compositionMode(void) const
	?compressEvent@QApplication@@MAE_NPAVQEvent@@PAVQObject@@PAVQPostEventList@@@Z @ 2896 NONAME ; bool QApplication::compressEvent(class QEvent *, class QObject *, class QPostEventList *)
	?compression@QImageWriter@@QBEHXZ @ 2897 NONAME ; int QImageWriter::compression(void) const
	?computeBoundingRect@QPainterPath@@ABEXXZ @ 2898 NONAME ; void QPainterPath::computeBoundingRect(void) const
	?computeControlPointRect@QPainterPath@@ABEXXZ @ 2899 NONAME ; void QPainterPath::computeControlPointRect(void) const
	?confirmOverwrite@QFileDialog@@QBE_NXZ @ 2900 NONAME ; bool QFileDialog::confirmOverwrite(void) const
	?conjugate@QQuaternion@@QBE?AV1@XZ @ 2901 NONAME ; class QQuaternion QQuaternion::conjugate(void) const
	?connectNotify@QClipboard@@MAEXPBD@Z @ 2902 NONAME ; void QClipboard::connectNotify(char const *)
	?connectPath@QPainterPath@@QAEXABV1@@Z @ 2903 NONAME ; void QPainterPath::connectPath(class QPainterPath const &)
	?connectToModel@QProxyModel@@IBEXPBVQAbstractItemModel@@@Z @ 2904 NONAME ; void QProxyModel::connectToModel(class QAbstractItemModel const *) const
	?constData@QMatrix4x4@@QBEPBMXZ @ 2905 NONAME ; float const * QMatrix4x4::constData(void) const
	?construct@QApplicationPrivate@@QAEXXZ @ 2906 NONAME ; void QApplicationPrivate::construct(void)
	?contains@QGraphicsEllipseItem@@UBE_NABVQPointF@@@Z @ 2907 NONAME ; bool QGraphicsEllipseItem::contains(class QPointF const &) const
	?contains@QGraphicsItem@@UBE_NABVQPointF@@@Z @ 2908 NONAME ; bool QGraphicsItem::contains(class QPointF const &) const
	?contains@QGraphicsLineItem@@UBE_NABVQPointF@@@Z @ 2909 NONAME ; bool QGraphicsLineItem::contains(class QPointF const &) const
	?contains@QGraphicsPathItem@@UBE_NABVQPointF@@@Z @ 2910 NONAME ; bool QGraphicsPathItem::contains(class QPointF const &) const
	?contains@QGraphicsPixmapItem@@UBE_NABVQPointF@@@Z @ 2911 NONAME ; bool QGraphicsPixmapItem::contains(class QPointF const &) const
	?contains@QGraphicsPolygonItem@@UBE_NABVQPointF@@@Z @ 2912 NONAME ; bool QGraphicsPolygonItem::contains(class QPointF const &) const
	?contains@QGraphicsRectItem@@UBE_NABVQPointF@@@Z @ 2913 NONAME ; bool QGraphicsRectItem::contains(class QPointF const &) const
	?contains@QGraphicsSimpleTextItem@@UBE_NABVQPointF@@@Z @ 2914 NONAME ; bool QGraphicsSimpleTextItem::contains(class QPointF const &) const
	?contains@QGraphicsTextItem@@UBE_NABVQPointF@@@Z @ 2915 NONAME ; bool QGraphicsTextItem::contains(class QPointF const &) const
	?contains@QItemSelection@@QBE_NABVQModelIndex@@@Z @ 2916 NONAME ; bool QItemSelection::contains(class QModelIndex const &) const
	?contains@QItemSelectionRange@@QBE_NABVQModelIndex@@@Z @ 2917 NONAME ; bool QItemSelectionRange::contains(class QModelIndex const &) const
	?contains@QItemSelectionRange@@QBE_NHHABVQModelIndex@@@Z @ 2918 NONAME ; bool QItemSelectionRange::contains(int, int, class QModelIndex const &) const
	?contains@QPainterPath@@QBE_NABV1@@Z @ 2919 NONAME ; bool QPainterPath::contains(class QPainterPath const &) const
	?contains@QPainterPath@@QBE_NABVQPointF@@@Z @ 2920 NONAME ; bool QPainterPath::contains(class QPointF const &) const
	?contains@QPainterPath@@QBE_NABVQRectF@@@Z @ 2921 NONAME ; bool QPainterPath::contains(class QRectF const &) const
	?contains@QRegion@@QBE_NABVQPoint@@@Z @ 2922 NONAME ; bool QRegion::contains(class QPoint const &) const
	?contains@QRegion@@QBE_NABVQRect@@@Z @ 2923 NONAME ; bool QRegion::contains(class QRect const &) const
	?contains@QTextBlock@@QBE_NH@Z @ 2924 NONAME ; bool QTextBlock::contains(int) const
	?contains@QTextFragment@@QBE_NH@Z @ 2925 NONAME ; bool QTextFragment::contains(int) const
	?containsPoint@QPolygon@@QBE_NABVQPoint@@W4FillRule@Qt@@@Z @ 2926 NONAME ; bool QPolygon::containsPoint(class QPoint const &, enum Qt::FillRule) const
	?containsPoint@QPolygonF@@QBE_NABVQPointF@@W4FillRule@Qt@@@Z @ 2927 NONAME ; bool QPolygonF::containsPoint(class QPointF const &, enum Qt::FillRule) const
	?contentOffset@QPlainTextEdit@@IBE?AVQPointF@@XZ @ 2928 NONAME ; class QPointF QPlainTextEdit::contentOffset(void) const
	?contentsChange@QTextDocument@@IAEXHHH@Z @ 2929 NONAME ; void QTextDocument::contentsChange(int, int, int)
	?contentsChanged@QTextDocument@@IAEXXZ @ 2930 NONAME ; void QTextDocument::contentsChanged(void)
	?contentsMargins@QLayout@@QBE?AVQMargins@@XZ @ 2931 NONAME ; class QMargins QLayout::contentsMargins(void) const
	?contentsMargins@QWidget@@QBE?AVQMargins@@XZ @ 2932 NONAME ; class QMargins QWidget::contentsMargins(void) const
	?contentsRect@QGraphicsLayoutItem@@QBE?AVQRectF@@XZ @ 2933 NONAME ; class QRectF QGraphicsLayoutItem::contentsRect(void) const
	?contentsRect@QLayout@@QBE?AVQRect@@XZ @ 2934 NONAME ; class QRect QLayout::contentsRect(void) const
	?contentsRect@QWidget@@QBE?AVQRect@@XZ @ 2935 NONAME ; class QRect QWidget::contentsRect(void) const
	?contentsSize@QListView@@IBE?AVQSize@@XZ @ 2936 NONAME ; class QSize QListView::contentsSize(void) const
	?context@QShortcut@@QAE?AW4ShortcutContext@Qt@@XZ @ 2937 NONAME ; enum Qt::ShortcutContext QShortcut::context(void)
	?contextMenuEvent@QAbstractScrollArea@@MAEXPAVQContextMenuEvent@@@Z @ 2938 NONAME ; void QAbstractScrollArea::contextMenuEvent(class QContextMenuEvent *)
	?contextMenuEvent@QAbstractSpinBox@@MAEXPAVQContextMenuEvent@@@Z @ 2939 NONAME ; void QAbstractSpinBox::contextMenuEvent(class QContextMenuEvent *)
	?contextMenuEvent@QComboBox@@MAEXPAVQContextMenuEvent@@@Z @ 2940 NONAME ; void QComboBox::contextMenuEvent(class QContextMenuEvent *)
	?contextMenuEvent@QDialog@@MAEXPAVQContextMenuEvent@@@Z @ 2941 NONAME ; void QDialog::contextMenuEvent(class QContextMenuEvent *)
	?contextMenuEvent@QGraphicsItem@@MAEXPAVQGraphicsSceneContextMenuEvent@@@Z @ 2942 NONAME ; void QGraphicsItem::contextMenuEvent(class QGraphicsSceneContextMenuEvent *)
	?contextMenuEvent@QGraphicsProxyWidget@@MAEXPAVQGraphicsSceneContextMenuEvent@@@Z @ 2943 NONAME ; void QGraphicsProxyWidget::contextMenuEvent(class QGraphicsSceneContextMenuEvent *)
	?contextMenuEvent@QGraphicsScene@@MAEXPAVQGraphicsSceneContextMenuEvent@@@Z @ 2944 NONAME ; void QGraphicsScene::contextMenuEvent(class QGraphicsSceneContextMenuEvent *)
	?contextMenuEvent@QGraphicsTextItem@@MAEXPAVQGraphicsSceneContextMenuEvent@@@Z @ 2945 NONAME ; void QGraphicsTextItem::contextMenuEvent(class QGraphicsSceneContextMenuEvent *)
	?contextMenuEvent@QGraphicsView@@MAEXPAVQContextMenuEvent@@@Z @ 2946 NONAME ; void QGraphicsView::contextMenuEvent(class QContextMenuEvent *)
	?contextMenuEvent@QLabel@@MAEXPAVQContextMenuEvent@@@Z @ 2947 NONAME ; void QLabel::contextMenuEvent(class QContextMenuEvent *)
	?contextMenuEvent@QLineEdit@@MAEXPAVQContextMenuEvent@@@Z @ 2948 NONAME ; void QLineEdit::contextMenuEvent(class QContextMenuEvent *)
	?contextMenuEvent@QMainWindow@@MAEXPAVQContextMenuEvent@@@Z @ 2949 NONAME ; void QMainWindow::contextMenuEvent(class QContextMenuEvent *)
	?contextMenuEvent@QMdiSubWindow@@MAEXPAVQContextMenuEvent@@@Z @ 2950 NONAME ; void QMdiSubWindow::contextMenuEvent(class QContextMenuEvent *)
	?contextMenuEvent@QPlainTextEdit@@MAEXPAVQContextMenuEvent@@@Z @ 2951 NONAME ; void QPlainTextEdit::contextMenuEvent(class QContextMenuEvent *)
	?contextMenuEvent@QScrollBar@@MAEXPAVQContextMenuEvent@@@Z @ 2952 NONAME ; void QScrollBar::contextMenuEvent(class QContextMenuEvent *)
	?contextMenuEvent@QTextEdit@@MAEXPAVQContextMenuEvent@@@Z @ 2953 NONAME ; void QTextEdit::contextMenuEvent(class QContextMenuEvent *)
	?contextMenuEvent@QWidget@@MAEXPAVQContextMenuEvent@@@Z @ 2954 NONAME ; void QWidget::contextMenuEvent(class QContextMenuEvent *)
	?contextMenuPolicy@QWidget@@QBE?AW4ContextMenuPolicy@Qt@@XZ @ 2955 NONAME ; enum Qt::ContextMenuPolicy QWidget::contextMenuPolicy(void) const
	?controlPointRect@QPainterPath@@QBE?AVQRectF@@XZ @ 2956 NONAME ; class QRectF QPainterPath::controlPointRect(void) const
	?controlPointRect@QVectorPath@@QBE?AVQRectF@@XZ @ 2957 NONAME ; class QRectF QVectorPath::controlPointRect(void) const
	?controlType@QSizePolicy@@QBE?AW4ControlType@1@XZ @ 2958 NONAME ; enum QSizePolicy::ControlType QSizePolicy::controlType(void) const
	?controlTypes@QLayoutItem@@QBE?AV?$QFlags@W4ControlType@QSizePolicy@@@@XZ @ 2959 NONAME ; class QFlags<enum QSizePolicy::ControlType> QLayoutItem::controlTypes(void) const
	?convertFromPlainText@Qt@@YA?AVQString@@ABV2@W4WhiteSpaceMode@1@@Z @ 2960 NONAME ; class QString Qt::convertFromPlainText(class QString const &, enum Qt::WhiteSpaceMode)
	?convertTo@QColor@@QBE?AV1@W4Spec@1@@Z @ 2961 NONAME ; class QColor QColor::convertTo(enum QColor::Spec) const
	?convertToFormat@QImage@@QBE?AV1@W4Format@1@ABV?$QVector@I@@V?$QFlags@W4ImageConversionFlag@Qt@@@@@Z @ 2962 NONAME ; class QImage QImage::convertToFormat(enum QImage::Format, class QVector<unsigned int> const &, class QFlags<enum Qt::ImageConversionFlag>) const
	?convertToFormat@QImage@@QBE?AV1@W4Format@1@V?$QFlags@W4ImageConversionFlag@Qt@@@@@Z @ 2963 NONAME ; class QImage QImage::convertToFormat(enum QImage::Format, class QFlags<enum Qt::ImageConversionFlag>) const
	?convertToPainterPath@QVectorPath@@QBE?BVQPainterPath@@XZ @ 2964 NONAME ; class QPainterPath const QVectorPath::convertToPainterPath(void) const
	?convolutionKernel@QPixmapConvolutionFilter@@ABEPBMXZ @ 2965 NONAME ; float const * QPixmapConvolutionFilter::convolutionKernel(void) const
	?coordinateMode@QGradient@@QBE?AW4CoordinateMode@1@XZ @ 2966 NONAME ; enum QGradient::CoordinateMode QGradient::coordinateMode(void) const
	?coordinateOffset@QPaintEngine@@UBE?AVQPoint@@XZ @ 2967 NONAME ; class QPoint QPaintEngine::coordinateOffset(void) const
	?copy@QImage@@QBE?AV1@ABVQRect@@@Z @ 2968 NONAME ; class QImage QImage::copy(class QRect const &) const
	?copy@QImage@@QBE?AV1@HHHH@Z @ 2969 NONAME ; class QImage QImage::copy(int, int, int, int) const
	?copy@QLineControl@@QBEXW4Mode@QClipboard@@@Z @ 2970 NONAME ; void QLineControl::copy(enum QClipboard::Mode) const
	?copy@QLineEdit@@QBEXXZ @ 2971 NONAME ; void QLineEdit::copy(void) const
	?copy@QPixmap@@QBE?AV1@ABVQRect@@@Z @ 2972 NONAME ; class QPixmap QPixmap::copy(class QRect const &) const
	?copy@QPixmap@@QBE?AV1@HHHH@Z @ 2973 NONAME ; class QPixmap QPixmap::copy(int, int, int, int) const
	?copy@QPixmapData@@UAEXPBV1@ABVQRect@@@Z @ 2974 NONAME ; void QPixmapData::copy(class QPixmapData const *, class QRect const &)
	?copy@QPlainTextEdit@@QAEXXZ @ 2975 NONAME ; void QPlainTextEdit::copy(void)
	?copy@QRegion@@ABE?AV1@XZ @ 2976 NONAME ; class QRegion QRegion::copy(void) const
	?copy@QTextControl@@QAEXXZ @ 2977 NONAME ; void QTextControl::copy(void)
	?copy@QTextEdit@@QAEXXZ @ 2978 NONAME ; void QTextEdit::copy(void)
	?copyAvailable@QPlainTextEdit@@IAEX_N@Z @ 2979 NONAME ; void QPlainTextEdit::copyAvailable(bool)
	?copyAvailable@QTextControl@@IAEX_N@Z @ 2980 NONAME ; void QTextControl::copyAvailable(bool)
	?copyAvailable@QTextEdit@@IAEX_N@Z @ 2981 NONAME ; void QTextEdit::copyAvailable(bool)
	?copyDataTo@QMatrix4x4@@QBEXPAM@Z @ 2982 NONAME ; void QMatrix4x4::copyDataTo(float *) const
	?corner@QMainWindow@@QBE?AW4DockWidgetArea@Qt@@W4Corner@3@@Z @ 2983 NONAME ; enum Qt::DockWidgetArea QMainWindow::corner(enum Qt::Corner) const
	?cornerWidget@QAbstractScrollArea@@QBEPAVQWidget@@XZ @ 2984 NONAME ; class QWidget * QAbstractScrollArea::cornerWidget(void) const
	?cornerWidget@QMenuBar@@QBEPAVQWidget@@W4Corner@Qt@@@Z @ 2985 NONAME ; class QWidget * QMenuBar::cornerWidget(enum Qt::Corner) const
	?cornerWidget@QTabWidget@@QBEPAVQWidget@@W4Corner@Qt@@@Z @ 2986 NONAME ; class QWidget * QTabWidget::cornerWidget(enum Qt::Corner) const
	?correctionMode@QAbstractSpinBox@@QBE?AW4CorrectionMode@1@XZ @ 2987 NONAME ; enum QAbstractSpinBox::CorrectionMode QAbstractSpinBox::correctionMode(void) const
	?count@QBoxLayout@@UBEHXZ @ 2988 NONAME ; int QBoxLayout::count(void) const
	?count@QComboBox@@QBEHXZ @ 2989 NONAME ; int QComboBox::count(void) const
	?count@QDockWidgetLayout@@UBEHXZ @ 2990 NONAME ; int QDockWidgetLayout::count(void) const
	?count@QFormLayout@@UBEHXZ @ 2991 NONAME ; int QFormLayout::count(void) const
	?count@QGraphicsAnchorLayout@@UBEHXZ @ 2992 NONAME ; int QGraphicsAnchorLayout::count(void) const
	?count@QGraphicsGridLayout@@UBEHXZ @ 2993 NONAME ; int QGraphicsGridLayout::count(void) const
	?count@QGraphicsLinearLayout@@UBEHXZ @ 2994 NONAME ; int QGraphicsLinearLayout::count(void) const
	?count@QGridLayout@@UBEHXZ @ 2995 NONAME ; int QGridLayout::count(void) const
	?count@QHeaderView@@QBEHXZ @ 2996 NONAME ; int QHeaderView::count(void) const
	?count@QKeyEvent@@QBEHXZ @ 2997 NONAME ; int QKeyEvent::count(void) const
	?count@QKeySequence@@QBEIXZ @ 2998 NONAME ; unsigned int QKeySequence::count(void) const
	?count@QListWidget@@QBEHXZ @ 2999 NONAME ; int QListWidget::count(void) const
	?count@QSplitter@@QBEHXZ @ 3000 NONAME ; int QSplitter::count(void) const
	?count@QStackedLayout@@UBEHXZ @ 3001 NONAME ; int QStackedLayout::count(void) const
	?count@QStackedWidget@@QBEHXZ @ 3002 NONAME ; int QStackedWidget::count(void) const
	?count@QTabBar@@QBEHXZ @ 3003 NONAME ; int QTabBar::count(void) const
	?count@QTabWidget@@QBEHXZ @ 3004 NONAME ; int QTabWidget::count(void) const
	?count@QTextList@@QBEHXZ @ 3005 NONAME ; int QTextList::count(void) const
	?count@QToolBox@@QBEHXZ @ 3006 NONAME ; int QToolBox::count(void) const
	?count@QUndoStack@@QBEHXZ @ 3007 NONAME ; int QUndoStack::count(void) const
	?create@QGestureRecognizer@@UAEPAVQGesture@@PAVQObject@@@Z @ 3008 NONAME ; class QGesture * QGestureRecognizer::create(class QObject *)
	?create@QImageData@@SAPAU1@ABVQSize@@W4Format@QImage@@H@Z @ 3009 NONAME ; struct QImageData * QImageData::create(class QSize const &, enum QImage::Format, int)
	?create@QImageData@@SAPAU1@PAEHHHW4Format@QImage@@_N@Z @ 3010 NONAME ; struct QImageData * QImageData::create(unsigned char *, int, int, int, enum QImage::Format, bool)
	?create@QInputContextFactory@@SAPAVQInputContext@@ABVQString@@PAVQObject@@@Z @ 3011 NONAME ; class QInputContext * QInputContextFactory::create(class QString const &, class QObject *)
	?create@QPixmapData@@SAPAV1@HHW4PixelType@1@@Z @ 3012 NONAME ; class QPixmapData * QPixmapData::create(int, int, enum QPixmapData::PixelType)
	?create@QStyleFactory@@SAPAVQStyle@@ABVQString@@@Z @ 3013 NONAME ; class QStyle * QStyleFactory::create(class QString const &)
	?create@QWidget@@IAEXPAVCCoeControl@@_N1@Z @ 3014 NONAME ; void QWidget::create(class CCoeControl *, bool, bool)
	?createAction@QWhatsThis@@SAPAVQAction@@PAVQObject@@@Z @ 3015 NONAME ; class QAction * QWhatsThis::createAction(class QObject *)
	?createAlphaMask@QImage@@QBE?AV1@V?$QFlags@W4ImageConversionFlag@Qt@@@@@Z @ 3016 NONAME ; class QImage QImage::createAlphaMask(class QFlags<enum Qt::ImageConversionFlag>) const
	?createCache@QTextureGlyphCache@@QAEXHH@Z @ 3017 NONAME ; void QTextureGlyphCache::createCache(int, int)
	?createColumn@QColumnView@@MAEPAVQAbstractItemView@@ABVQModelIndex@@@Z @ 3018 NONAME ; class QAbstractItemView * QColumnView::createColumn(class QModelIndex const &)
	?createCompatiblePixmapData@QPixmapData@@UBEPAV1@XZ @ 3019 NONAME ; class QPixmapData * QPixmapData::createCompatiblePixmapData(void) const
	?createCompatiblePixmapData@QRasterPixmapData@@UBEPAVQPixmapData@@XZ @ 3020 NONAME ; class QPixmapData * QRasterPixmapData::createCompatiblePixmapData(void) const
	?createDatabase@QFontDatabase@@CAXXZ @ 3021 NONAME ; void QFontDatabase::createDatabase(void)
	?createDefaultPixmapData@QGraphicsSystem@@SAPAVQPixmapData@@W4PixelType@2@@Z @ 3022 NONAME ; class QPixmapData * QGraphicsSystem::createDefaultPixmapData(enum QPixmapData::PixelType)
	?createDefaultWindowSurface@QWidgetPrivate@@QAEPAVQWindowSurface@@XZ @ 3023 NONAME ; class QWindowSurface * QWidgetPrivate::createDefaultWindowSurface(void)
	?createDefaultWindowSurface_sys@QWidgetPrivate@@QAEPAVQWindowSurface@@XZ @ 3024 NONAME ; class QWindowSurface * QWidgetPrivate::createDefaultWindowSurface_sys(void)
	?createEditor@QAbstractItemDelegate@@UBEPAVQWidget@@PAV2@ABVQStyleOptionViewItem@@ABVQModelIndex@@@Z @ 3025 NONAME ; class QWidget * QAbstractItemDelegate::createEditor(class QWidget *, class QStyleOptionViewItem const &, class QModelIndex const &) const
	?createEditor@QItemDelegate@@UBEPAVQWidget@@PAV2@ABVQStyleOptionViewItem@@ABVQModelIndex@@@Z @ 3026 NONAME ; class QWidget * QItemDelegate::createEditor(class QWidget *, class QStyleOptionViewItem const &, class QModelIndex const &) const
	?createEditor@QItemEditorFactory@@UBEPAVQWidget@@W4Type@QVariant@@PAV2@@Z @ 3027 NONAME ; class QWidget * QItemEditorFactory::createEditor(enum QVariant::Type, class QWidget *) const
	?createEditor@QStyledItemDelegate@@UBEPAVQWidget@@PAV2@ABVQStyleOptionViewItem@@ABVQModelIndex@@@Z @ 3028 NONAME ; class QWidget * QStyledItemDelegate::createEditor(class QWidget *, class QStyleOptionViewItem const &, class QModelIndex const &) const
	?createEventDispatcher@QApplicationPrivate@@UAEXXZ @ 3029 NONAME ; void QApplicationPrivate::createEventDispatcher(void)
	?createExtendedKeyEvent@QKeyEvent@@SAPAV1@W4Type@QEvent@@HV?$QFlags@W4KeyboardModifier@Qt@@@@IIIABVQString@@_NG@Z @ 3030 NONAME ; class QKeyEvent * QKeyEvent::createExtendedKeyEvent(enum QEvent::Type, int, class QFlags<enum Qt::KeyboardModifier>, unsigned int, unsigned int, unsigned int, class QString const &, bool, unsigned short)
	?createExtendedMouseEvent@QMouseEvent@@SAPAV1@W4Type@QEvent@@ABVQPointF@@ABVQPoint@@W4MouseButton@Qt@@V?$QFlags@W4MouseButton@Qt@@@@V?$QFlags@W4KeyboardModifier@Qt@@@@@Z @ 3031 NONAME ; class QMouseEvent * QMouseEvent::createExtendedMouseEvent(enum QEvent::Type, class QPointF const &, class QPoint const &, enum Qt::MouseButton, class QFlags<enum Qt::MouseButton>, class QFlags<enum Qt::KeyboardModifier>)
	?createExtra@QWidgetPrivate@@QAEXXZ @ 3032 NONAME ; void QWidgetPrivate::createExtra(void)
	?createHandle@QSplitter@@MAEPAVQSplitterHandle@@XZ @ 3033 NONAME ; class QSplitterHandle * QSplitter::createHandle(void)
	?createHeuristicMask@QImage@@QBE?AV1@_N@Z @ 3034 NONAME ; class QImage QImage::createHeuristicMask(bool) const
	?createHeuristicMask@QPixmap@@QBE?AVQBitmap@@_N@Z @ 3035 NONAME ; class QBitmap QPixmap::createHeuristicMask(bool) const
	?createItemGroup@QGraphicsScene@@QAEPAVQGraphicsItemGroup@@ABV?$QList@PAVQGraphicsItem@@@@@Z @ 3036 NONAME ; class QGraphicsItemGroup * QGraphicsScene::createItemGroup(class QList<class QGraphicsItem *> const &)
	?createLine@QTextLayout@@QAE?AVQTextLine@@XZ @ 3037 NONAME ; class QTextLine QTextLayout::createLine(void)
	?createList@QTextCursor@@QAEPAVQTextList@@ABVQTextListFormat@@@Z @ 3038 NONAME ; class QTextList * QTextCursor::createList(class QTextListFormat const &)
	?createList@QTextCursor@@QAEPAVQTextList@@W4Style@QTextListFormat@@@Z @ 3039 NONAME ; class QTextList * QTextCursor::createList(enum QTextListFormat::Style)
	?createMaskFromColor@QImage@@QBE?AV1@IW4MaskMode@Qt@@@Z @ 3040 NONAME ; class QImage QImage::createMaskFromColor(unsigned int, enum Qt::MaskMode) const
	?createMaskFromColor@QPixmap@@QBE?AVQBitmap@@ABVQColor@@@Z @ 3041 NONAME ; class QBitmap QPixmap::createMaskFromColor(class QColor const &) const
	?createMaskFromColor@QPixmap@@QBE?AVQBitmap@@ABVQColor@@W4MaskMode@Qt@@@Z @ 3042 NONAME ; class QBitmap QPixmap::createMaskFromColor(class QColor const &, enum Qt::MaskMode) const
	?createMimeDataFromSelection@QPlainTextEdit@@MBEPAVQMimeData@@XZ @ 3043 NONAME ; class QMimeData * QPlainTextEdit::createMimeDataFromSelection(void) const
	?createMimeDataFromSelection@QTextControl@@UBEPAVQMimeData@@XZ @ 3044 NONAME ; class QMimeData * QTextControl::createMimeDataFromSelection(void) const
	?createMimeDataFromSelection@QTextEdit@@MBEPAVQMimeData@@XZ @ 3045 NONAME ; class QMimeData * QTextEdit::createMimeDataFromSelection(void) const
	?createObject@QTextDocument@@MAEPAVQTextObject@@ABVQTextFormat@@@Z @ 3046 NONAME ; class QTextObject * QTextDocument::createObject(class QTextFormat const &)
	?createObjectIndex@QTextFormatCollection@@QAEHABVQTextFormat@@@Z @ 3047 NONAME ; int QTextFormatCollection::createObjectIndex(class QTextFormat const &)
	?createPopupMenu@QMainWindow@@UAEPAVQMenu@@XZ @ 3048 NONAME ; class QMenu * QMainWindow::createPopupMenu(void)
	?createProxyForChildWidget@QGraphicsProxyWidget@@QAEPAV1@PAVQWidget@@@Z @ 3049 NONAME ; class QGraphicsProxyWidget * QGraphicsProxyWidget::createProxyForChildWidget(class QWidget *)
	?createRecursively@QWidgetPrivate@@QAEXXZ @ 3050 NONAME ; void QWidgetPrivate::createRecursively(void)
	?createRedoAction@QUndoGroup@@QBEPAVQAction@@PAVQObject@@ABVQString@@@Z @ 3051 NONAME ; class QAction * QUndoGroup::createRedoAction(class QObject *, class QString const &) const
	?createRedoAction@QUndoStack@@QBEPAVQAction@@PAVQObject@@ABVQString@@@Z @ 3052 NONAME ; class QAction * QUndoStack::createRedoAction(class QObject *, class QString const &) const
	?createSpacerItem@QLayoutPrivate@@SAPAVQSpacerItem@@PBVQLayout@@HHW4Policy@QSizePolicy@@1@Z @ 3053 NONAME ; class QSpacerItem * QLayoutPrivate::createSpacerItem(class QLayout const *, int, int, enum QSizePolicy::Policy, enum QSizePolicy::Policy)
	?createStandardContextMenu@QLineEdit@@QAEPAVQMenu@@XZ @ 3054 NONAME ; class QMenu * QLineEdit::createStandardContextMenu(void)
	?createStandardContextMenu@QPlainTextEdit@@QAEPAVQMenu@@XZ @ 3055 NONAME ; class QMenu * QPlainTextEdit::createStandardContextMenu(void)
	?createStandardContextMenu@QTextControl@@QAEPAVQMenu@@ABVQPointF@@PAVQWidget@@@Z @ 3056 NONAME ; class QMenu * QTextControl::createStandardContextMenu(class QPointF const &, class QWidget *)
	?createStandardContextMenu@QTextEdit@@QAEPAVQMenu@@ABVQPoint@@@Z @ 3057 NONAME ; class QMenu * QTextEdit::createStandardContextMenu(class QPoint const &)
	?createStandardContextMenu@QTextEdit@@QAEPAVQMenu@@XZ @ 3058 NONAME ; class QMenu * QTextEdit::createStandardContextMenu(void)
	?createState@QPaintEngineEx@@UBEPAVQPainterState@@PAV2@@Z @ 3059 NONAME ; class QPainterState * QPaintEngineEx::createState(class QPainterState *) const
	?createStroke@QPainterPathStroker@@QBE?AVQPainterPath@@ABV2@@Z @ 3060 NONAME ; class QPainterPath QPainterPathStroker::createStroke(class QPainterPath const &) const
	?createSysExtra@QWidgetPrivate@@QAEXXZ @ 3061 NONAME ; void QWidgetPrivate::createSysExtra(void)
	?createTLExtra@QWidgetPrivate@@QAEXXZ @ 3062 NONAME ; void QWidgetPrivate::createTLExtra(void)
	?createTLSysExtra@QWidgetPrivate@@QAEXXZ @ 3063 NONAME ; void QWidgetPrivate::createTLSysExtra(void)
	?createUndoAction@QUndoGroup@@QBEPAVQAction@@PAVQObject@@ABVQString@@@Z @ 3064 NONAME ; class QAction * QUndoGroup::createUndoAction(class QObject *, class QString const &) const
	?createUndoAction@QUndoStack@@QBEPAVQAction@@PAVQObject@@ABVQString@@@Z @ 3065 NONAME ; class QAction * QUndoStack::createUndoAction(class QObject *, class QString const &) const
	?createWidget@QWidgetAction@@MAEPAVQWidget@@PAV2@@Z @ 3066 NONAME ; class QWidget * QWidgetAction::createWidget(class QWidget *)
	?createWidgetItem@QLayoutPrivate@@SAPAVQWidgetItem@@PBVQLayout@@PAVQWidget@@@Z @ 3067 NONAME ; class QWidgetItem * QLayoutPrivate::createWidgetItem(class QLayout const *, class QWidget *)
	?createWinId@QWidget@@QAEXXZ @ 3068 NONAME ; void QWidget::createWinId(void)
	?createWinId@QWidgetPrivate@@QAEXPAVCCoeControl@@@Z @ 3069 NONAME ; void QWidgetPrivate::createWinId(class CCoeControl *)
	?create_sys@QWidgetPrivate@@QAEXPAVCCoeControl@@_N1@Z @ 3070 NONAME ; void QWidgetPrivate::create_sys(class CCoeControl *, bool, bool)
	?createdWidgets@QWidgetAction@@IBE?AV?$QList@PAVQWidget@@@@XZ @ 3071 NONAME ; class QList<class QWidget *> QWidgetAction::createdWidgets(void) const
	?critical@QMessageBox@@SA?AW4StandardButton@1@PAVQWidget@@ABVQString@@1V?$QFlags@W4StandardButton@QMessageBox@@@@W421@@Z @ 3072 NONAME ; enum QMessageBox::StandardButton QMessageBox::critical(class QWidget *, class QString const &, class QString const &, class QFlags<enum QMessageBox::StandardButton>, enum QMessageBox::StandardButton)
	?critical@QMessageBox@@SAHPAVQWidget@@ABVQString@@1111HH@Z @ 3073 NONAME ; int QMessageBox::critical(class QWidget *, class QString const &, class QString const &, class QString const &, class QString const &, class QString const &, int, int)
	?critical@QMessageBox@@SAHPAVQWidget@@ABVQString@@1HHH@Z @ 3074 NONAME ; int QMessageBox::critical(class QWidget *, class QString const &, class QString const &, int, int, int)
	?critical@QMessageBox@@SAHPAVQWidget@@ABVQString@@1W4StandardButton@1@2@Z @ 3075 NONAME ; int QMessageBox::critical(class QWidget *, class QString const &, class QString const &, enum QMessageBox::StandardButton, enum QMessageBox::StandardButton)
	?crossProduct@QVector3D@@SA?AV1@ABV1@0@Z @ 3076 NONAME ; class QVector3D QVector3D::crossProduct(class QVector3D const &, class QVector3D const &)
	?cubicTo@QPainterPath@@QAEXABVQPointF@@00@Z @ 3077 NONAME ; void QPainterPath::cubicTo(class QPointF const &, class QPointF const &, class QPointF const &)
	?cubicTo@QPainterPath@@QAEXMMMMMM@Z @ 3078 NONAME ; void QPainterPath::cubicTo(float, float, float, float, float, float)
	?cubicTo@QStrokerOps@@QAEXMMMMMM@Z @ 3079 NONAME ; void QStrokerOps::cubicTo(float, float, float, float, float, float)
	?currentBlock@QSyntaxHighlighter@@IBE?AVQTextBlock@@XZ @ 3080 NONAME ; class QTextBlock QSyntaxHighlighter::currentBlock(void) const
	?currentBlock@iterator@QTextFrame@@QBE?AVQTextBlock@@XZ @ 3081 NONAME ; class QTextBlock QTextFrame::iterator::currentBlock(void) const
	?currentBlockState@QSyntaxHighlighter@@IBEHXZ @ 3082 NONAME ; int QSyntaxHighlighter::currentBlockState(void) const
	?currentBlockUserData@QSyntaxHighlighter@@IBEPAVQTextBlockUserData@@XZ @ 3083 NONAME ; class QTextBlockUserData * QSyntaxHighlighter::currentBlockUserData(void) const
	?currentCellChanged@QTableWidget@@IAEXHHHH@Z @ 3084 NONAME ; void QTableWidget::currentCellChanged(int, int, int, int)
	?currentChanged@QAbstractItemView@@MAEXABVQModelIndex@@0@Z @ 3085 NONAME ; void QAbstractItemView::currentChanged(class QModelIndex const &, class QModelIndex const &)
	?currentChanged@QColumnView@@MAEXABVQModelIndex@@0@Z @ 3086 NONAME ; void QColumnView::currentChanged(class QModelIndex const &, class QModelIndex const &)
	?currentChanged@QFileDialog@@IAEXABVQString@@@Z @ 3087 NONAME ; void QFileDialog::currentChanged(class QString const &)
	?currentChanged@QHeaderView@@MAEXABVQModelIndex@@0@Z @ 3088 NONAME ; void QHeaderView::currentChanged(class QModelIndex const &, class QModelIndex const &)
	?currentChanged@QItemSelectionModel@@IAEXABVQModelIndex@@0@Z @ 3089 NONAME ; void QItemSelectionModel::currentChanged(class QModelIndex const &, class QModelIndex const &)
	?currentChanged@QListView@@MAEXABVQModelIndex@@0@Z @ 3090 NONAME ; void QListView::currentChanged(class QModelIndex const &, class QModelIndex const &)
	?currentChanged@QStackedLayout@@IAEXH@Z @ 3091 NONAME ; void QStackedLayout::currentChanged(int)
	?currentChanged@QStackedWidget@@IAEXH@Z @ 3092 NONAME ; void QStackedWidget::currentChanged(int)
	?currentChanged@QTabBar@@IAEXH@Z @ 3093 NONAME ; void QTabBar::currentChanged(int)
	?currentChanged@QTabWidget@@IAEXH@Z @ 3094 NONAME ; void QTabWidget::currentChanged(int)
	?currentChanged@QTableView@@MAEXABVQModelIndex@@0@Z @ 3095 NONAME ; void QTableView::currentChanged(class QModelIndex const &, class QModelIndex const &)
	?currentChanged@QToolBox@@IAEXH@Z @ 3096 NONAME ; void QToolBox::currentChanged(int)
	?currentChanged@QTreeView@@MAEXABVQModelIndex@@0@Z @ 3097 NONAME ; void QTreeView::currentChanged(class QModelIndex const &, class QModelIndex const &)
	?currentCharFormat@QPlainTextEdit@@QBE?AVQTextCharFormat@@XZ @ 3098 NONAME ; class QTextCharFormat QPlainTextEdit::currentCharFormat(void) const
	?currentCharFormat@QTextControl@@QBE?AVQTextCharFormat@@XZ @ 3099 NONAME ; class QTextCharFormat QTextControl::currentCharFormat(void) const
	?currentCharFormat@QTextEdit@@QBE?AVQTextCharFormat@@XZ @ 3100 NONAME ; class QTextCharFormat QTextEdit::currentCharFormat(void) const
	?currentCharFormatChanged@QTextControl@@IAEXABVQTextCharFormat@@@Z @ 3101 NONAME ; void QTextControl::currentCharFormatChanged(class QTextCharFormat const &)
	?currentCharFormatChanged@QTextEdit@@IAEXABVQTextCharFormat@@@Z @ 3102 NONAME ; void QTextEdit::currentCharFormatChanged(class QTextCharFormat const &)
	?currentColor@QColorDialog@@QBE?AVQColor@@XZ @ 3103 NONAME ; class QColor QColorDialog::currentColor(void) const
	?currentColorChanged@QColorDialog@@IAEXABVQColor@@@Z @ 3104 NONAME ; void QColorDialog::currentColorChanged(class QColor const &)
	?currentColorGroup@QPalette@@QBE?AW4ColorGroup@1@XZ @ 3105 NONAME ; enum QPalette::ColorGroup QPalette::currentColorGroup(void) const
	?currentColumn@QTableWidget@@QBEHXZ @ 3106 NONAME ; int QTableWidget::currentColumn(void) const
	?currentColumn@QTreeWidget@@QBEHXZ @ 3107 NONAME ; int QTreeWidget::currentColumn(void) const
	?currentColumnChanged@QItemSelectionModel@@IAEXABVQModelIndex@@0@Z @ 3108 NONAME ; void QItemSelectionModel::currentColumnChanged(class QModelIndex const &, class QModelIndex const &)
	?currentCompletion@QCompleter@@QBE?AVQString@@XZ @ 3109 NONAME ; class QString QCompleter::currentCompletion(void) const
	?currentFont@QFontComboBox@@QBE?AVQFont@@XZ @ 3110 NONAME ; class QFont QFontComboBox::currentFont(void) const
	?currentFont@QFontDialog@@QBE?AVQFont@@XZ @ 3111 NONAME ; class QFont QFontDialog::currentFont(void) const
	?currentFont@QTextEdit@@QBE?AVQFont@@XZ @ 3112 NONAME ; class QFont QTextEdit::currentFont(void) const
	?currentFontChanged@QFontComboBox@@IAEXABVQFont@@@Z @ 3113 NONAME ; void QFontComboBox::currentFontChanged(class QFont const &)
	?currentFontChanged@QFontDialog@@IAEXABVQFont@@@Z @ 3114 NONAME ; void QFontDialog::currentFontChanged(class QFont const &)
	?currentFrame@QTextCursor@@QBEPAVQTextFrame@@XZ @ 3115 NONAME ; class QTextFrame * QTextCursor::currentFrame(void) const
	?currentFrame@iterator@QTextFrame@@QBEPAV2@XZ @ 3116 NONAME ; class QTextFrame * QTextFrame::iterator::currentFrame(void) const
	?currentFrameNumber@QMovie@@QBEHXZ @ 3117 NONAME ; int QMovie::currentFrameNumber(void) const
	?currentId@QWizard@@QBEHXZ @ 3118 NONAME ; int QWizard::currentId(void) const
	?currentIdChanged@QWizard@@IAEXH@Z @ 3119 NONAME ; void QWizard::currentIdChanged(int)
	?currentImage@QMovie@@QBE?AVQImage@@XZ @ 3120 NONAME ; class QImage QMovie::currentImage(void) const
	?currentImageNumber@QImageIOHandler@@UBEHXZ @ 3121 NONAME ; int QImageIOHandler::currentImageNumber(void) const
	?currentImageNumber@QImageReader@@QBEHXZ @ 3122 NONAME ; int QImageReader::currentImageNumber(void) const
	?currentImageRect@QImageIOHandler@@UBE?AVQRect@@XZ @ 3123 NONAME ; class QRect QImageIOHandler::currentImageRect(void) const
	?currentImageRect@QImageReader@@QBE?AVQRect@@XZ @ 3124 NONAME ; class QRect QImageReader::currentImageRect(void) const
	?currentIndex@QAbstractItemView@@QBE?AVQModelIndex@@XZ @ 3125 NONAME ; class QModelIndex QAbstractItemView::currentIndex(void) const
	?currentIndex@QComboBox@@QBEHXZ @ 3126 NONAME ; int QComboBox::currentIndex(void) const
	?currentIndex@QCompleter@@QBE?AVQModelIndex@@XZ @ 3127 NONAME ; class QModelIndex QCompleter::currentIndex(void) const
	?currentIndex@QDataWidgetMapper@@QBEHXZ @ 3128 NONAME ; int QDataWidgetMapper::currentIndex(void) const
	?currentIndex@QItemSelectionModel@@QBE?AVQModelIndex@@XZ @ 3129 NONAME ; class QModelIndex QItemSelectionModel::currentIndex(void) const
	?currentIndex@QStackedLayout@@QBEHXZ @ 3130 NONAME ; int QStackedLayout::currentIndex(void) const
	?currentIndex@QStackedWidget@@QBEHXZ @ 3131 NONAME ; int QStackedWidget::currentIndex(void) const
	?currentIndex@QTabBar@@QBEHXZ @ 3132 NONAME ; int QTabBar::currentIndex(void) const
	?currentIndex@QTabWidget@@QBEHXZ @ 3133 NONAME ; int QTabWidget::currentIndex(void) const
	?currentIndex@QToolBox@@QBEHXZ @ 3134 NONAME ; int QToolBox::currentIndex(void) const
	?currentIndexChanged@QComboBox@@IAEXABVQString@@@Z @ 3135 NONAME ; void QComboBox::currentIndexChanged(class QString const &)
	?currentIndexChanged@QComboBox@@IAEXH@Z @ 3136 NONAME ; void QComboBox::currentIndexChanged(int)
	?currentIndexChanged@QDataWidgetMapper@@IAEXH@Z @ 3137 NONAME ; void QDataWidgetMapper::currentIndexChanged(int)
	?currentItem@QListWidget@@QBEPAVQListWidgetItem@@XZ @ 3138 NONAME ; class QListWidgetItem * QListWidget::currentItem(void) const
	?currentItem@QTableWidget@@QBEPAVQTableWidgetItem@@XZ @ 3139 NONAME ; class QTableWidgetItem * QTableWidget::currentItem(void) const
	?currentItem@QTreeWidget@@QBEPAVQTreeWidgetItem@@XZ @ 3140 NONAME ; class QTreeWidgetItem * QTreeWidget::currentItem(void) const
	?currentItemChanged@QListWidget@@IAEXPAVQListWidgetItem@@0@Z @ 3141 NONAME ; void QListWidget::currentItemChanged(class QListWidgetItem *, class QListWidgetItem *)
	?currentItemChanged@QTableWidget@@IAEXPAVQTableWidgetItem@@0@Z @ 3142 NONAME ; void QTableWidget::currentItemChanged(class QTableWidgetItem *, class QTableWidgetItem *)
	?currentItemChanged@QTreeWidget@@IAEXPAVQTreeWidgetItem@@0@Z @ 3143 NONAME ; void QTreeWidget::currentItemChanged(class QTreeWidgetItem *, class QTreeWidgetItem *)
	?currentList@QTextCursor@@QBEPAVQTextList@@XZ @ 3144 NONAME ; class QTextList * QTextCursor::currentList(void) const
	?currentMessage@QStatusBar@@QBE?AVQString@@XZ @ 3145 NONAME ; class QString QStatusBar::currentMessage(void) const
	?currentPage@QWizard@@QBEPAVQWizardPage@@XZ @ 3146 NONAME ; class QWizardPage * QWizard::currentPage(void) const
	?currentPageChanged@QCalendarWidget@@IAEXHH@Z @ 3147 NONAME ; void QCalendarWidget::currentPageChanged(int, int)
	?currentPixmap@QMovie@@QBE?AVQPixmap@@XZ @ 3148 NONAME ; class QPixmap QMovie::currentPixmap(void) const
	?currentPlatform@QApplicationPrivate@@SAIXZ @ 3149 NONAME ; unsigned int QApplicationPrivate::currentPlatform(void)
	?currentPosition@QPainterPath@@QBE?AVQPointF@@XZ @ 3150 NONAME ; class QPointF QPainterPath::currentPosition(void) const
	?currentRow@QCompleter@@QBEHXZ @ 3151 NONAME ; int QCompleter::currentRow(void) const
	?currentRow@QListWidget@@QBEHXZ @ 3152 NONAME ; int QListWidget::currentRow(void) const
	?currentRow@QTableWidget@@QBEHXZ @ 3153 NONAME ; int QTableWidget::currentRow(void) const
	?currentRowChanged@QItemSelectionModel@@IAEXABVQModelIndex@@0@Z @ 3154 NONAME ; void QItemSelectionModel::currentRowChanged(class QModelIndex const &, class QModelIndex const &)
	?currentRowChanged@QListWidget@@IAEXH@Z @ 3155 NONAME ; void QListWidget::currentRowChanged(int)
	?currentSection@QDateTimeEdit@@QBE?AW4Section@1@XZ @ 3156 NONAME ; enum QDateTimeEdit::Section QDateTimeEdit::currentSection(void) const
	?currentSectionIndex@QDateTimeEdit@@QBEHXZ @ 3157 NONAME ; int QDateTimeEdit::currentSectionIndex(void) const
	?currentSubWindow@QMdiArea@@QBEPAVQMdiSubWindow@@XZ @ 3158 NONAME ; class QMdiSubWindow * QMdiArea::currentSubWindow(void) const
	?currentTable@QTextCursor@@QBEPAVQTextTable@@XZ @ 3159 NONAME ; class QTextTable * QTextCursor::currentTable(void) const
	?currentText@QComboBox@@QBE?AVQString@@XZ @ 3160 NONAME ; class QString QComboBox::currentText(void) const
	?currentTextChanged@QListWidget@@IAEXABVQString@@@Z @ 3161 NONAME ; void QListWidget::currentTextChanged(class QString const &)
	?currentWidget@QStackedLayout@@QBEPAVQWidget@@XZ @ 3162 NONAME ; class QWidget * QStackedLayout::currentWidget(void) const
	?currentWidget@QStackedWidget@@QBEPAVQWidget@@XZ @ 3163 NONAME ; class QWidget * QStackedWidget::currentWidget(void) const
	?currentWidget@QTabWidget@@QBEPAVQWidget@@XZ @ 3164 NONAME ; class QWidget * QTabWidget::currentWidget(void) const
	?currentWidget@QToolBox@@QBEPAVQWidget@@XZ @ 3165 NONAME ; class QWidget * QToolBox::currentWidget(void) const
	?cursor@QGraphicsItem@@QBE?AVQCursor@@XZ @ 3166 NONAME ; class QCursor QGraphicsItem::cursor(void) const
	?cursor@QLineControl@@QBEHXZ @ 3167 NONAME ; int QLineControl::cursor(void) const
	?cursor@QWidget@@QBE?AVQCursor@@XZ @ 3168 NONAME ; class QCursor QWidget::cursor(void) const
	?cursorBackward@QLineEdit@@QAEX_NH@Z @ 3169 NONAME ; void QLineEdit::cursorBackward(bool, int)
	?cursorBlinkPeriod@QLineControl@@QBEHXZ @ 3170 NONAME ; int QLineControl::cursorBlinkPeriod(void) const
	?cursorFlashTime@QApplication@@SAHXZ @ 3171 NONAME ; int QApplication::cursorFlashTime(void)
	?cursorForPosition@QPlainTextEdit@@QBE?AVQTextCursor@@ABVQPoint@@@Z @ 3172 NONAME ; class QTextCursor QPlainTextEdit::cursorForPosition(class QPoint const &) const
	?cursorForPosition@QTextControl@@QBE?AVQTextCursor@@ABVQPointF@@@Z @ 3173 NONAME ; class QTextCursor QTextControl::cursorForPosition(class QPointF const &) const
	?cursorForPosition@QTextEdit@@QBE?AVQTextCursor@@ABVQPoint@@@Z @ 3174 NONAME ; class QTextCursor QTextEdit::cursorForPosition(class QPoint const &) const
	?cursorForward@QLineControl@@QAEX_NH@Z @ 3175 NONAME ; void QLineControl::cursorForward(bool, int)
	?cursorForward@QLineEdit@@QAEX_NH@Z @ 3176 NONAME ; void QLineEdit::cursorForward(bool, int)
	?cursorIsFocusIndicator@QTextControl@@QBE_NXZ @ 3177 NONAME ; bool QTextControl::cursorIsFocusIndicator(void) const
	?cursorPosition@QLineControl@@QBEHXZ @ 3178 NONAME ; int QLineControl::cursorPosition(void) const
	?cursorPosition@QLineEdit@@QBEHXZ @ 3179 NONAME ; int QLineEdit::cursorPosition(void) const
	?cursorPositionAt@QLineEdit@@QAEHABVQPoint@@@Z @ 3180 NONAME ; int QLineEdit::cursorPositionAt(class QPoint const &)
	?cursorPositionChanged@QLineControl@@IAEXHH@Z @ 3181 NONAME ; void QLineControl::cursorPositionChanged(int, int)
	?cursorPositionChanged@QLineEdit@@IAEXHH@Z @ 3182 NONAME ; void QLineEdit::cursorPositionChanged(int, int)
	?cursorPositionChanged@QPlainTextEdit@@IAEXXZ @ 3183 NONAME ; void QPlainTextEdit::cursorPositionChanged(void)
	?cursorPositionChanged@QTextControl@@IAEXXZ @ 3184 NONAME ; void QTextControl::cursorPositionChanged(void)
	?cursorPositionChanged@QTextDocument@@IAEXABVQTextCursor@@@Z @ 3185 NONAME ; void QTextDocument::cursorPositionChanged(class QTextCursor const &)
	?cursorPositionChanged@QTextEdit@@IAEXXZ @ 3186 NONAME ; void QTextEdit::cursorPositionChanged(void)
	?cursorRect@QLineControl@@QBE?AVQRect@@XZ @ 3187 NONAME ; class QRect QLineControl::cursorRect(void) const
	?cursorRect@QLineEdit@@IBE?AVQRect@@XZ @ 3188 NONAME ; class QRect QLineEdit::cursorRect(void) const
	?cursorRect@QPlainTextEdit@@QBE?AVQRect@@ABVQTextCursor@@@Z @ 3189 NONAME ; class QRect QPlainTextEdit::cursorRect(class QTextCursor const &) const
	?cursorRect@QPlainTextEdit@@QBE?AVQRect@@XZ @ 3190 NONAME ; class QRect QPlainTextEdit::cursorRect(void) const
	?cursorRect@QTextControl@@QBE?AVQRectF@@ABVQTextCursor@@@Z @ 3191 NONAME ; class QRectF QTextControl::cursorRect(class QTextCursor const &) const
	?cursorRect@QTextControl@@QBE?AVQRectF@@XZ @ 3192 NONAME ; class QRectF QTextControl::cursorRect(void) const
	?cursorRect@QTextEdit@@QBE?AVQRect@@ABVQTextCursor@@@Z @ 3193 NONAME ; class QRect QTextEdit::cursorRect(class QTextCursor const &) const
	?cursorRect@QTextEdit@@QBE?AVQRect@@XZ @ 3194 NONAME ; class QRect QTextEdit::cursorRect(void) const
	?cursorToX@QLineControl@@QBEMH@Z @ 3195 NONAME ; float QLineControl::cursorToX(int) const
	?cursorToX@QLineControl@@QBEMXZ @ 3196 NONAME ; float QLineControl::cursorToX(void) const
	?cursorToX@QTextLine@@QBEMHW4Edge@1@@Z @ 3197 NONAME ; float QTextLine::cursorToX(int, enum QTextLine::Edge) const
	?cursorToX@QTextLine@@QBEMPAHW4Edge@1@@Z @ 3198 NONAME ; float QTextLine::cursorToX(int *, enum QTextLine::Edge) const
	?cursorWidth@QLineControl@@QBEHXZ @ 3199 NONAME ; int QLineControl::cursorWidth(void) const
	?cursorWidth@QPlainTextDocumentLayout@@QBEHXZ @ 3200 NONAME ; int QPlainTextDocumentLayout::cursorWidth(void) const
	?cursorWidth@QPlainTextEdit@@QBEHXZ @ 3201 NONAME ; int QPlainTextEdit::cursorWidth(void) const
	?cursorWidth@QTextControl@@QBEHXZ @ 3202 NONAME ; int QTextControl::cursorWidth(void) const
	?cursorWidth@QTextEdit@@QBEHXZ @ 3203 NONAME ; int QTextEdit::cursorWidth(void) const
	?cursorWordBackward@QLineControl@@QAEX_N@Z @ 3204 NONAME ; void QLineControl::cursorWordBackward(bool)
	?cursorWordBackward@QLineEdit@@QAEX_N@Z @ 3205 NONAME ; void QLineEdit::cursorWordBackward(bool)
	?cursorWordForward@QLineControl@@QAEX_N@Z @ 3206 NONAME ; void QLineControl::cursorWordForward(bool)
	?cursorWordForward@QLineEdit@@QAEX_N@Z @ 3207 NONAME ; void QLineEdit::cursorWordForward(bool)
	?curveThreshold@QPainterPathStroker@@QBEMXZ @ 3208 NONAME ; float QPainterPathStroker::curveThreshold(void) const
	?curveThreshold@QStroker@@QBEMXZ @ 3209 NONAME ABSENT ; float QStroker::curveThreshold(void) const
	?customButtonClicked@QWizard@@IAEXH@Z @ 3210 NONAME ; void QWizard::customButtonClicked(int)
	?customColor@QColorDialog@@SAIH@Z @ 3211 NONAME ; unsigned int QColorDialog::customColor(int)
	?customContextMenuRequested@QWidget@@IAEXABVQPoint@@@Z @ 3212 NONAME ; void QWidget::customContextMenuRequested(class QPoint const &)
	?customCount@QColorDialog@@SAHXZ @ 3213 NONAME ; int QColorDialog::customCount(void)
	?cut@QLineEdit@@QAEXXZ @ 3214 NONAME ; void QLineEdit::cut(void)
	?cut@QPlainTextEdit@@QAEXXZ @ 3215 NONAME ; void QPlainTextEdit::cut(void)
	?cut@QTextControl@@QAEXXZ @ 3216 NONAME ; void QTextControl::cut(void)
	?cut@QTextEdit@@QAEXXZ @ 3217 NONAME ; void QTextEdit::cut(void)
	?cyan@QColor@@QBEHXZ @ 3218 NONAME ; int QColor::cyan(void) const
	?cyanF@QColor@@QBEMXZ @ 3219 NONAME ; float QColor::cyanF(void) const
	?d_func@QAbstractButton@@AAEPAVQAbstractButtonPrivate@@XZ @ 3220 NONAME ; class QAbstractButtonPrivate * QAbstractButton::d_func(void)
	?d_func@QAbstractButton@@ABEPBVQAbstractButtonPrivate@@XZ @ 3221 NONAME ; class QAbstractButtonPrivate const * QAbstractButton::d_func(void) const
	?d_func@QAbstractGraphicsShapeItem@@AAEPAVQAbstractGraphicsShapeItemPrivate@@XZ @ 3222 NONAME ; class QAbstractGraphicsShapeItemPrivate * QAbstractGraphicsShapeItem::d_func(void)
	?d_func@QAbstractGraphicsShapeItem@@ABEPBVQAbstractGraphicsShapeItemPrivate@@XZ @ 3223 NONAME ; class QAbstractGraphicsShapeItemPrivate const * QAbstractGraphicsShapeItem::d_func(void) const
	?d_func@QAbstractItemView@@AAEPAVQAbstractItemViewPrivate@@XZ @ 3224 NONAME ; class QAbstractItemViewPrivate * QAbstractItemView::d_func(void)
	?d_func@QAbstractItemView@@ABEPBVQAbstractItemViewPrivate@@XZ @ 3225 NONAME ; class QAbstractItemViewPrivate const * QAbstractItemView::d_func(void) const
	?d_func@QAbstractProxyModel@@AAEPAVQAbstractProxyModelPrivate@@XZ @ 3226 NONAME ; class QAbstractProxyModelPrivate * QAbstractProxyModel::d_func(void)
	?d_func@QAbstractProxyModel@@ABEPBVQAbstractProxyModelPrivate@@XZ @ 3227 NONAME ; class QAbstractProxyModelPrivate const * QAbstractProxyModel::d_func(void) const
	?d_func@QAbstractScrollArea@@AAEPAVQAbstractScrollAreaPrivate@@XZ @ 3228 NONAME ; class QAbstractScrollAreaPrivate * QAbstractScrollArea::d_func(void)
	?d_func@QAbstractScrollArea@@ABEPBVQAbstractScrollAreaPrivate@@XZ @ 3229 NONAME ; class QAbstractScrollAreaPrivate const * QAbstractScrollArea::d_func(void) const
	?d_func@QAbstractSlider@@AAEPAVQAbstractSliderPrivate@@XZ @ 3230 NONAME ; class QAbstractSliderPrivate * QAbstractSlider::d_func(void)
	?d_func@QAbstractSlider@@ABEPBVQAbstractSliderPrivate@@XZ @ 3231 NONAME ; class QAbstractSliderPrivate const * QAbstractSlider::d_func(void) const
	?d_func@QAbstractSpinBox@@AAEPAVQAbstractSpinBoxPrivate@@XZ @ 3232 NONAME ; class QAbstractSpinBoxPrivate * QAbstractSpinBox::d_func(void)
	?d_func@QAbstractSpinBox@@ABEPBVQAbstractSpinBoxPrivate@@XZ @ 3233 NONAME ; class QAbstractSpinBoxPrivate const * QAbstractSpinBox::d_func(void) const
	?d_func@QAbstractTextDocumentLayout@@AAEPAVQAbstractTextDocumentLayoutPrivate@@XZ @ 3234 NONAME ; class QAbstractTextDocumentLayoutPrivate * QAbstractTextDocumentLayout::d_func(void)
	?d_func@QAbstractTextDocumentLayout@@ABEPBVQAbstractTextDocumentLayoutPrivate@@XZ @ 3235 NONAME ; class QAbstractTextDocumentLayoutPrivate const * QAbstractTextDocumentLayout::d_func(void) const
	?d_func@QAction@@AAEPAVQActionPrivate@@XZ @ 3236 NONAME ; class QActionPrivate * QAction::d_func(void)
	?d_func@QAction@@ABEPBVQActionPrivate@@XZ @ 3237 NONAME ; class QActionPrivate const * QAction::d_func(void) const
	?d_func@QActionGroup@@AAEPAVQActionGroupPrivate@@XZ @ 3238 NONAME ; class QActionGroupPrivate * QActionGroup::d_func(void)
	?d_func@QActionGroup@@ABEPBVQActionGroupPrivate@@XZ @ 3239 NONAME ; class QActionGroupPrivate const * QActionGroup::d_func(void) const
	?d_func@QApplication@@AAEPAVQApplicationPrivate@@XZ @ 3240 NONAME ; class QApplicationPrivate * QApplication::d_func(void)
	?d_func@QApplication@@ABEPBVQApplicationPrivate@@XZ @ 3241 NONAME ; class QApplicationPrivate const * QApplication::d_func(void) const
	?d_func@QBoxLayout@@AAEPAVQBoxLayoutPrivate@@XZ @ 3242 NONAME ; class QBoxLayoutPrivate * QBoxLayout::d_func(void)
	?d_func@QBoxLayout@@ABEPBVQBoxLayoutPrivate@@XZ @ 3243 NONAME ; class QBoxLayoutPrivate const * QBoxLayout::d_func(void) const
	?d_func@QButtonGroup@@AAEPAVQButtonGroupPrivate@@XZ @ 3244 NONAME ; class QButtonGroupPrivate * QButtonGroup::d_func(void)
	?d_func@QButtonGroup@@ABEPBVQButtonGroupPrivate@@XZ @ 3245 NONAME ; class QButtonGroupPrivate const * QButtonGroup::d_func(void) const
	?d_func@QCalendarWidget@@AAEPAVQCalendarWidgetPrivate@@XZ @ 3246 NONAME ; class QCalendarWidgetPrivate * QCalendarWidget::d_func(void)
	?d_func@QCalendarWidget@@ABEPBVQCalendarWidgetPrivate@@XZ @ 3247 NONAME ; class QCalendarWidgetPrivate const * QCalendarWidget::d_func(void) const
	?d_func@QCheckBox@@AAEPAVQCheckBoxPrivate@@XZ @ 3248 NONAME ; class QCheckBoxPrivate * QCheckBox::d_func(void)
	?d_func@QCheckBox@@ABEPBVQCheckBoxPrivate@@XZ @ 3249 NONAME ; class QCheckBoxPrivate const * QCheckBox::d_func(void) const
	?d_func@QClipboard@@AAEPAVQClipboardPrivate@@XZ @ 3250 NONAME ; class QClipboardPrivate * QClipboard::d_func(void)
	?d_func@QClipboard@@ABEPBVQClipboardPrivate@@XZ @ 3251 NONAME ; class QClipboardPrivate const * QClipboard::d_func(void) const
	?d_func@QColorDialog@@AAEPAVQColorDialogPrivate@@XZ @ 3252 NONAME ; class QColorDialogPrivate * QColorDialog::d_func(void)
	?d_func@QColorDialog@@ABEPBVQColorDialogPrivate@@XZ @ 3253 NONAME ; class QColorDialogPrivate const * QColorDialog::d_func(void) const
	?d_func@QColumnView@@AAEPAVQColumnViewPrivate@@XZ @ 3254 NONAME ; class QColumnViewPrivate * QColumnView::d_func(void)
	?d_func@QColumnView@@ABEPBVQColumnViewPrivate@@XZ @ 3255 NONAME ; class QColumnViewPrivate const * QColumnView::d_func(void) const
	?d_func@QComboBox@@AAEPAVQComboBoxPrivate@@XZ @ 3256 NONAME ; class QComboBoxPrivate * QComboBox::d_func(void)
	?d_func@QComboBox@@ABEPBVQComboBoxPrivate@@XZ @ 3257 NONAME ; class QComboBoxPrivate const * QComboBox::d_func(void) const
	?d_func@QCommandLinkButton@@AAEPAVQCommandLinkButtonPrivate@@XZ @ 3258 NONAME ; class QCommandLinkButtonPrivate * QCommandLinkButton::d_func(void)
	?d_func@QCommandLinkButton@@ABEPBVQCommandLinkButtonPrivate@@XZ @ 3259 NONAME ; class QCommandLinkButtonPrivate const * QCommandLinkButton::d_func(void) const
	?d_func@QCommonStyle@@AAEPAVQCommonStylePrivate@@XZ @ 3260 NONAME ; class QCommonStylePrivate * QCommonStyle::d_func(void)
	?d_func@QCommonStyle@@ABEPBVQCommonStylePrivate@@XZ @ 3261 NONAME ; class QCommonStylePrivate const * QCommonStyle::d_func(void) const
	?d_func@QCompleter@@AAEPAVQCompleterPrivate@@XZ @ 3262 NONAME ; class QCompleterPrivate * QCompleter::d_func(void)
	?d_func@QCompleter@@ABEPBVQCompleterPrivate@@XZ @ 3263 NONAME ; class QCompleterPrivate const * QCompleter::d_func(void) const
	?d_func@QDataWidgetMapper@@AAEPAVQDataWidgetMapperPrivate@@XZ @ 3264 NONAME ; class QDataWidgetMapperPrivate * QDataWidgetMapper::d_func(void)
	?d_func@QDataWidgetMapper@@ABEPBVQDataWidgetMapperPrivate@@XZ @ 3265 NONAME ; class QDataWidgetMapperPrivate const * QDataWidgetMapper::d_func(void) const
	?d_func@QDateTimeEdit@@AAEPAVQDateTimeEditPrivate@@XZ @ 3266 NONAME ; class QDateTimeEditPrivate * QDateTimeEdit::d_func(void)
	?d_func@QDateTimeEdit@@ABEPBVQDateTimeEditPrivate@@XZ @ 3267 NONAME ; class QDateTimeEditPrivate const * QDateTimeEdit::d_func(void) const
	?d_func@QDesktopWidget@@AAEPAVQDesktopWidgetPrivate@@XZ @ 3268 NONAME ; class QDesktopWidgetPrivate * QDesktopWidget::d_func(void)
	?d_func@QDesktopWidget@@ABEPBVQDesktopWidgetPrivate@@XZ @ 3269 NONAME ; class QDesktopWidgetPrivate const * QDesktopWidget::d_func(void) const
	?d_func@QDial@@AAEPAVQDialPrivate@@XZ @ 3270 NONAME ; class QDialPrivate * QDial::d_func(void)
	?d_func@QDial@@ABEPBVQDialPrivate@@XZ @ 3271 NONAME ; class QDialPrivate const * QDial::d_func(void) const
	?d_func@QDialog@@AAEPAVQDialogPrivate@@XZ @ 3272 NONAME ; class QDialogPrivate * QDialog::d_func(void)
	?d_func@QDialog@@ABEPBVQDialogPrivate@@XZ @ 3273 NONAME ; class QDialogPrivate const * QDialog::d_func(void) const
	?d_func@QDialogButtonBox@@AAEPAVQDialogButtonBoxPrivate@@XZ @ 3274 NONAME ; class QDialogButtonBoxPrivate * QDialogButtonBox::d_func(void)
	?d_func@QDialogButtonBox@@ABEPBVQDialogButtonBoxPrivate@@XZ @ 3275 NONAME ; class QDialogButtonBoxPrivate const * QDialogButtonBox::d_func(void) const
	?d_func@QDirModel@@AAEPAVQDirModelPrivate@@XZ @ 3276 NONAME ; class QDirModelPrivate * QDirModel::d_func(void)
	?d_func@QDirModel@@ABEPBVQDirModelPrivate@@XZ @ 3277 NONAME ; class QDirModelPrivate const * QDirModel::d_func(void) const
	?d_func@QDockWidget@@AAEPAVQDockWidgetPrivate@@XZ @ 3278 NONAME ; class QDockWidgetPrivate * QDockWidget::d_func(void)
	?d_func@QDockWidget@@ABEPBVQDockWidgetPrivate@@XZ @ 3279 NONAME ; class QDockWidgetPrivate const * QDockWidget::d_func(void) const
	?d_func@QDoubleSpinBox@@AAEPAVQDoubleSpinBoxPrivate@@XZ @ 3280 NONAME ; class QDoubleSpinBoxPrivate * QDoubleSpinBox::d_func(void)
	?d_func@QDoubleSpinBox@@ABEPBVQDoubleSpinBoxPrivate@@XZ @ 3281 NONAME ; class QDoubleSpinBoxPrivate const * QDoubleSpinBox::d_func(void) const
	?d_func@QDoubleValidator@@AAEPAVQDoubleValidatorPrivate@@XZ @ 3282 NONAME ; class QDoubleValidatorPrivate * QDoubleValidator::d_func(void)
	?d_func@QDoubleValidator@@ABEPBVQDoubleValidatorPrivate@@XZ @ 3283 NONAME ; class QDoubleValidatorPrivate const * QDoubleValidator::d_func(void) const
	?d_func@QDrag@@AAEPAVQDragPrivate@@XZ @ 3284 NONAME ; class QDragPrivate * QDrag::d_func(void)
	?d_func@QDrag@@ABEPBVQDragPrivate@@XZ @ 3285 NONAME ; class QDragPrivate const * QDrag::d_func(void) const
	?d_func@QErrorMessage@@AAEPAVQErrorMessagePrivate@@XZ @ 3286 NONAME ; class QErrorMessagePrivate * QErrorMessage::d_func(void)
	?d_func@QErrorMessage@@ABEPBVQErrorMessagePrivate@@XZ @ 3287 NONAME ; class QErrorMessagePrivate const * QErrorMessage::d_func(void) const
	?d_func@QFileDialog@@AAEPAVQFileDialogPrivate@@XZ @ 3288 NONAME ; class QFileDialogPrivate * QFileDialog::d_func(void)
	?d_func@QFileDialog@@ABEPBVQFileDialogPrivate@@XZ @ 3289 NONAME ; class QFileDialogPrivate const * QFileDialog::d_func(void) const
	?d_func@QFileIconProvider@@AAEPAVQFileIconProviderPrivate@@XZ @ 3290 NONAME ; class QFileIconProviderPrivate * QFileIconProvider::d_func(void)
	?d_func@QFileIconProvider@@ABEPBVQFileIconProviderPrivate@@XZ @ 3291 NONAME ; class QFileIconProviderPrivate const * QFileIconProvider::d_func(void) const
	?d_func@QFileSystemModel@@AAEPAVQFileSystemModelPrivate@@XZ @ 3292 NONAME ; class QFileSystemModelPrivate * QFileSystemModel::d_func(void)
	?d_func@QFileSystemModel@@ABEPBVQFileSystemModelPrivate@@XZ @ 3293 NONAME ; class QFileSystemModelPrivate const * QFileSystemModel::d_func(void) const
	?d_func@QFocusFrame@@AAEPAVQFocusFramePrivate@@XZ @ 3294 NONAME ; class QFocusFramePrivate * QFocusFrame::d_func(void)
	?d_func@QFocusFrame@@ABEPBVQFocusFramePrivate@@XZ @ 3295 NONAME ; class QFocusFramePrivate const * QFocusFrame::d_func(void) const
	?d_func@QFontComboBox@@AAEPAVQFontComboBoxPrivate@@XZ @ 3296 NONAME ; class QFontComboBoxPrivate * QFontComboBox::d_func(void)
	?d_func@QFontComboBox@@ABEPBVQFontComboBoxPrivate@@XZ @ 3297 NONAME ; class QFontComboBoxPrivate const * QFontComboBox::d_func(void) const
	?d_func@QFontDialog@@AAEPAVQFontDialogPrivate@@XZ @ 3298 NONAME ; class QFontDialogPrivate * QFontDialog::d_func(void)
	?d_func@QFontDialog@@ABEPBVQFontDialogPrivate@@XZ @ 3299 NONAME ; class QFontDialogPrivate const * QFontDialog::d_func(void) const
	?d_func@QFormLayout@@AAEPAVQFormLayoutPrivate@@XZ @ 3300 NONAME ; class QFormLayoutPrivate * QFormLayout::d_func(void)
	?d_func@QFormLayout@@ABEPBVQFormLayoutPrivate@@XZ @ 3301 NONAME ; class QFormLayoutPrivate const * QFormLayout::d_func(void) const
	?d_func@QFrame@@AAEPAVQFramePrivate@@XZ @ 3302 NONAME ; class QFramePrivate * QFrame::d_func(void)
	?d_func@QFrame@@ABEPBVQFramePrivate@@XZ @ 3303 NONAME ; class QFramePrivate const * QFrame::d_func(void) const
	?d_func@QGesture@@AAEPAVQGesturePrivate@@XZ @ 3304 NONAME ; class QGesturePrivate * QGesture::d_func(void)
	?d_func@QGesture@@ABEPBVQGesturePrivate@@XZ @ 3305 NONAME ; class QGesturePrivate const * QGesture::d_func(void) const
	?d_func@QGestureEvent@@AAEPAVQGestureEventPrivate@@XZ @ 3306 NONAME ; class QGestureEventPrivate * QGestureEvent::d_func(void)
	?d_func@QGestureEvent@@ABEPBVQGestureEventPrivate@@XZ @ 3307 NONAME ; class QGestureEventPrivate const * QGestureEvent::d_func(void) const
	?d_func@QGraphicsAnchor@@AAEPAVQGraphicsAnchorPrivate@@XZ @ 3308 NONAME ; class QGraphicsAnchorPrivate * QGraphicsAnchor::d_func(void)
	?d_func@QGraphicsAnchor@@ABEPBVQGraphicsAnchorPrivate@@XZ @ 3309 NONAME ; class QGraphicsAnchorPrivate const * QGraphicsAnchor::d_func(void) const
	?d_func@QGraphicsAnchorLayout@@AAEPAVQGraphicsAnchorLayoutPrivate@@XZ @ 3310 NONAME ; class QGraphicsAnchorLayoutPrivate * QGraphicsAnchorLayout::d_func(void)
	?d_func@QGraphicsAnchorLayout@@ABEPBVQGraphicsAnchorLayoutPrivate@@XZ @ 3311 NONAME ; class QGraphicsAnchorLayoutPrivate const * QGraphicsAnchorLayout::d_func(void) const
	?d_func@QGraphicsBlurEffect@@AAEPAVQGraphicsBlurEffectPrivate@@XZ @ 3312 NONAME ; class QGraphicsBlurEffectPrivate * QGraphicsBlurEffect::d_func(void)
	?d_func@QGraphicsBlurEffect@@ABEPBVQGraphicsBlurEffectPrivate@@XZ @ 3313 NONAME ; class QGraphicsBlurEffectPrivate const * QGraphicsBlurEffect::d_func(void) const
	?d_func@QGraphicsColorizeEffect@@AAEPAVQGraphicsColorizeEffectPrivate@@XZ @ 3314 NONAME ; class QGraphicsColorizeEffectPrivate * QGraphicsColorizeEffect::d_func(void)
	?d_func@QGraphicsColorizeEffect@@ABEPBVQGraphicsColorizeEffectPrivate@@XZ @ 3315 NONAME ; class QGraphicsColorizeEffectPrivate const * QGraphicsColorizeEffect::d_func(void) const
	?d_func@QGraphicsDropShadowEffect@@AAEPAVQGraphicsDropShadowEffectPrivate@@XZ @ 3316 NONAME ; class QGraphicsDropShadowEffectPrivate * QGraphicsDropShadowEffect::d_func(void)
	?d_func@QGraphicsDropShadowEffect@@ABEPBVQGraphicsDropShadowEffectPrivate@@XZ @ 3317 NONAME ; class QGraphicsDropShadowEffectPrivate const * QGraphicsDropShadowEffect::d_func(void) const
	?d_func@QGraphicsEffect@@AAEPAVQGraphicsEffectPrivate@@XZ @ 3318 NONAME ; class QGraphicsEffectPrivate * QGraphicsEffect::d_func(void)
	?d_func@QGraphicsEffect@@ABEPBVQGraphicsEffectPrivate@@XZ @ 3319 NONAME ; class QGraphicsEffectPrivate const * QGraphicsEffect::d_func(void) const
	?d_func@QGraphicsEffectSource@@AAEPAVQGraphicsEffectSourcePrivate@@XZ @ 3320 NONAME ; class QGraphicsEffectSourcePrivate * QGraphicsEffectSource::d_func(void)
	?d_func@QGraphicsEffectSource@@ABEPBVQGraphicsEffectSourcePrivate@@XZ @ 3321 NONAME ; class QGraphicsEffectSourcePrivate const * QGraphicsEffectSource::d_func(void) const
	?d_func@QGraphicsEllipseItem@@AAEPAVQGraphicsEllipseItemPrivate@@XZ @ 3322 NONAME ; class QGraphicsEllipseItemPrivate * QGraphicsEllipseItem::d_func(void)
	?d_func@QGraphicsEllipseItem@@ABEPBVQGraphicsEllipseItemPrivate@@XZ @ 3323 NONAME ; class QGraphicsEllipseItemPrivate const * QGraphicsEllipseItem::d_func(void) const
	?d_func@QGraphicsGridLayout@@AAEPAVQGraphicsGridLayoutPrivate@@XZ @ 3324 NONAME ; class QGraphicsGridLayoutPrivate * QGraphicsGridLayout::d_func(void)
	?d_func@QGraphicsGridLayout@@ABEPBVQGraphicsGridLayoutPrivate@@XZ @ 3325 NONAME ; class QGraphicsGridLayoutPrivate const * QGraphicsGridLayout::d_func(void) const
	?d_func@QGraphicsItem@@AAEPAVQGraphicsItemPrivate@@XZ @ 3326 NONAME ; class QGraphicsItemPrivate * QGraphicsItem::d_func(void)
	?d_func@QGraphicsItem@@ABEPBVQGraphicsItemPrivate@@XZ @ 3327 NONAME ; class QGraphicsItemPrivate const * QGraphicsItem::d_func(void) const
	?d_func@QGraphicsItemGroup@@AAEPAVQGraphicsItemGroupPrivate@@XZ @ 3328 NONAME ; class QGraphicsItemGroupPrivate * QGraphicsItemGroup::d_func(void)
	?d_func@QGraphicsItemGroup@@ABEPBVQGraphicsItemGroupPrivate@@XZ @ 3329 NONAME ; class QGraphicsItemGroupPrivate const * QGraphicsItemGroup::d_func(void) const
	?d_func@QGraphicsLayout@@AAEPAVQGraphicsLayoutPrivate@@XZ @ 3330 NONAME ; class QGraphicsLayoutPrivate * QGraphicsLayout::d_func(void)
	?d_func@QGraphicsLayout@@ABEPBVQGraphicsLayoutPrivate@@XZ @ 3331 NONAME ; class QGraphicsLayoutPrivate const * QGraphicsLayout::d_func(void) const
	?d_func@QGraphicsLayoutItem@@AAEPAVQGraphicsLayoutItemPrivate@@XZ @ 3332 NONAME ; class QGraphicsLayoutItemPrivate * QGraphicsLayoutItem::d_func(void)
	?d_func@QGraphicsLayoutItem@@ABEPBVQGraphicsLayoutItemPrivate@@XZ @ 3333 NONAME ; class QGraphicsLayoutItemPrivate const * QGraphicsLayoutItem::d_func(void) const
	?d_func@QGraphicsLineItem@@AAEPAVQGraphicsLineItemPrivate@@XZ @ 3334 NONAME ; class QGraphicsLineItemPrivate * QGraphicsLineItem::d_func(void)
	?d_func@QGraphicsLineItem@@ABEPBVQGraphicsLineItemPrivate@@XZ @ 3335 NONAME ; class QGraphicsLineItemPrivate const * QGraphicsLineItem::d_func(void) const
	?d_func@QGraphicsLinearLayout@@AAEPAVQGraphicsLinearLayoutPrivate@@XZ @ 3336 NONAME ; class QGraphicsLinearLayoutPrivate * QGraphicsLinearLayout::d_func(void)
	?d_func@QGraphicsLinearLayout@@ABEPBVQGraphicsLinearLayoutPrivate@@XZ @ 3337 NONAME ; class QGraphicsLinearLayoutPrivate const * QGraphicsLinearLayout::d_func(void) const
	?d_func@QGraphicsOpacityEffect@@AAEPAVQGraphicsOpacityEffectPrivate@@XZ @ 3338 NONAME ; class QGraphicsOpacityEffectPrivate * QGraphicsOpacityEffect::d_func(void)
	?d_func@QGraphicsOpacityEffect@@ABEPBVQGraphicsOpacityEffectPrivate@@XZ @ 3339 NONAME ; class QGraphicsOpacityEffectPrivate const * QGraphicsOpacityEffect::d_func(void) const
	?d_func@QGraphicsPathItem@@AAEPAVQGraphicsPathItemPrivate@@XZ @ 3340 NONAME ; class QGraphicsPathItemPrivate * QGraphicsPathItem::d_func(void)
	?d_func@QGraphicsPathItem@@ABEPBVQGraphicsPathItemPrivate@@XZ @ 3341 NONAME ; class QGraphicsPathItemPrivate const * QGraphicsPathItem::d_func(void) const
	?d_func@QGraphicsPixmapItem@@AAEPAVQGraphicsPixmapItemPrivate@@XZ @ 3342 NONAME ; class QGraphicsPixmapItemPrivate * QGraphicsPixmapItem::d_func(void)
	?d_func@QGraphicsPixmapItem@@ABEPBVQGraphicsPixmapItemPrivate@@XZ @ 3343 NONAME ; class QGraphicsPixmapItemPrivate const * QGraphicsPixmapItem::d_func(void) const
	?d_func@QGraphicsPolygonItem@@AAEPAVQGraphicsPolygonItemPrivate@@XZ @ 3344 NONAME ; class QGraphicsPolygonItemPrivate * QGraphicsPolygonItem::d_func(void)
	?d_func@QGraphicsPolygonItem@@ABEPBVQGraphicsPolygonItemPrivate@@XZ @ 3345 NONAME ; class QGraphicsPolygonItemPrivate const * QGraphicsPolygonItem::d_func(void) const
	?d_func@QGraphicsProxyWidget@@AAEPAVQGraphicsProxyWidgetPrivate@@XZ @ 3346 NONAME ; class QGraphicsProxyWidgetPrivate * QGraphicsProxyWidget::d_func(void)
	?d_func@QGraphicsProxyWidget@@ABEPBVQGraphicsProxyWidgetPrivate@@XZ @ 3347 NONAME ; class QGraphicsProxyWidgetPrivate const * QGraphicsProxyWidget::d_func(void) const
	?d_func@QGraphicsRectItem@@AAEPAVQGraphicsRectItemPrivate@@XZ @ 3348 NONAME ; class QGraphicsRectItemPrivate * QGraphicsRectItem::d_func(void)
	?d_func@QGraphicsRectItem@@ABEPBVQGraphicsRectItemPrivate@@XZ @ 3349 NONAME ; class QGraphicsRectItemPrivate const * QGraphicsRectItem::d_func(void) const
	?d_func@QGraphicsRotation@@AAEPAVQGraphicsRotationPrivate@@XZ @ 3350 NONAME ; class QGraphicsRotationPrivate * QGraphicsRotation::d_func(void)
	?d_func@QGraphicsRotation@@ABEPBVQGraphicsRotationPrivate@@XZ @ 3351 NONAME ; class QGraphicsRotationPrivate const * QGraphicsRotation::d_func(void) const
	?d_func@QGraphicsScale@@AAEPAVQGraphicsScalePrivate@@XZ @ 3352 NONAME ; class QGraphicsScalePrivate * QGraphicsScale::d_func(void)
	?d_func@QGraphicsScale@@ABEPBVQGraphicsScalePrivate@@XZ @ 3353 NONAME ; class QGraphicsScalePrivate const * QGraphicsScale::d_func(void) const
	?d_func@QGraphicsScene@@AAEPAVQGraphicsScenePrivate@@XZ @ 3354 NONAME ; class QGraphicsScenePrivate * QGraphicsScene::d_func(void)
	?d_func@QGraphicsScene@@ABEPBVQGraphicsScenePrivate@@XZ @ 3355 NONAME ; class QGraphicsScenePrivate const * QGraphicsScene::d_func(void) const
	?d_func@QGraphicsSceneContextMenuEvent@@AAEPAVQGraphicsSceneContextMenuEventPrivate@@XZ @ 3356 NONAME ; class QGraphicsSceneContextMenuEventPrivate * QGraphicsSceneContextMenuEvent::d_func(void)
	?d_func@QGraphicsSceneContextMenuEvent@@ABEPBVQGraphicsSceneContextMenuEventPrivate@@XZ @ 3357 NONAME ; class QGraphicsSceneContextMenuEventPrivate const * QGraphicsSceneContextMenuEvent::d_func(void) const
	?d_func@QGraphicsSceneDragDropEvent@@AAEPAVQGraphicsSceneDragDropEventPrivate@@XZ @ 3358 NONAME ; class QGraphicsSceneDragDropEventPrivate * QGraphicsSceneDragDropEvent::d_func(void)
	?d_func@QGraphicsSceneDragDropEvent@@ABEPBVQGraphicsSceneDragDropEventPrivate@@XZ @ 3359 NONAME ; class QGraphicsSceneDragDropEventPrivate const * QGraphicsSceneDragDropEvent::d_func(void) const
	?d_func@QGraphicsSceneEvent@@IAEPAVQGraphicsSceneEventPrivate@@XZ @ 3360 NONAME ; class QGraphicsSceneEventPrivate * QGraphicsSceneEvent::d_func(void)
	?d_func@QGraphicsSceneEvent@@IBEPBVQGraphicsSceneEventPrivate@@XZ @ 3361 NONAME ; class QGraphicsSceneEventPrivate const * QGraphicsSceneEvent::d_func(void) const
	?d_func@QGraphicsSceneHelpEvent@@AAEPAVQGraphicsSceneHelpEventPrivate@@XZ @ 3362 NONAME ; class QGraphicsSceneHelpEventPrivate * QGraphicsSceneHelpEvent::d_func(void)
	?d_func@QGraphicsSceneHelpEvent@@ABEPBVQGraphicsSceneHelpEventPrivate@@XZ @ 3363 NONAME ; class QGraphicsSceneHelpEventPrivate const * QGraphicsSceneHelpEvent::d_func(void) const
	?d_func@QGraphicsSceneHoverEvent@@AAEPAVQGraphicsSceneHoverEventPrivate@@XZ @ 3364 NONAME ; class QGraphicsSceneHoverEventPrivate * QGraphicsSceneHoverEvent::d_func(void)
	?d_func@QGraphicsSceneHoverEvent@@ABEPBVQGraphicsSceneHoverEventPrivate@@XZ @ 3365 NONAME ; class QGraphicsSceneHoverEventPrivate const * QGraphicsSceneHoverEvent::d_func(void) const
	?d_func@QGraphicsSceneMouseEvent@@AAEPAVQGraphicsSceneMouseEventPrivate@@XZ @ 3366 NONAME ; class QGraphicsSceneMouseEventPrivate * QGraphicsSceneMouseEvent::d_func(void)
	?d_func@QGraphicsSceneMouseEvent@@ABEPBVQGraphicsSceneMouseEventPrivate@@XZ @ 3367 NONAME ; class QGraphicsSceneMouseEventPrivate const * QGraphicsSceneMouseEvent::d_func(void) const
	?d_func@QGraphicsSceneMoveEvent@@AAEPAVQGraphicsSceneMoveEventPrivate@@XZ @ 3368 NONAME ; class QGraphicsSceneMoveEventPrivate * QGraphicsSceneMoveEvent::d_func(void)
	?d_func@QGraphicsSceneMoveEvent@@ABEPBVQGraphicsSceneMoveEventPrivate@@XZ @ 3369 NONAME ; class QGraphicsSceneMoveEventPrivate const * QGraphicsSceneMoveEvent::d_func(void) const
	?d_func@QGraphicsSceneResizeEvent@@AAEPAVQGraphicsSceneResizeEventPrivate@@XZ @ 3370 NONAME ; class QGraphicsSceneResizeEventPrivate * QGraphicsSceneResizeEvent::d_func(void)
	?d_func@QGraphicsSceneResizeEvent@@ABEPBVQGraphicsSceneResizeEventPrivate@@XZ @ 3371 NONAME ; class QGraphicsSceneResizeEventPrivate const * QGraphicsSceneResizeEvent::d_func(void) const
	?d_func@QGraphicsSceneWheelEvent@@AAEPAVQGraphicsSceneWheelEventPrivate@@XZ @ 3372 NONAME ; class QGraphicsSceneWheelEventPrivate * QGraphicsSceneWheelEvent::d_func(void)
	?d_func@QGraphicsSceneWheelEvent@@ABEPBVQGraphicsSceneWheelEventPrivate@@XZ @ 3373 NONAME ; class QGraphicsSceneWheelEventPrivate const * QGraphicsSceneWheelEvent::d_func(void) const
	?d_func@QGraphicsSimpleTextItem@@AAEPAVQGraphicsSimpleTextItemPrivate@@XZ @ 3374 NONAME ; class QGraphicsSimpleTextItemPrivate * QGraphicsSimpleTextItem::d_func(void)
	?d_func@QGraphicsSimpleTextItem@@ABEPBVQGraphicsSimpleTextItemPrivate@@XZ @ 3375 NONAME ; class QGraphicsSimpleTextItemPrivate const * QGraphicsSimpleTextItem::d_func(void) const
	?d_func@QGraphicsTransform@@AAEPAVQGraphicsTransformPrivate@@XZ @ 3376 NONAME ; class QGraphicsTransformPrivate * QGraphicsTransform::d_func(void)
	?d_func@QGraphicsTransform@@ABEPBVQGraphicsTransformPrivate@@XZ @ 3377 NONAME ; class QGraphicsTransformPrivate const * QGraphicsTransform::d_func(void) const
	?d_func@QGraphicsView@@AAEPAVQGraphicsViewPrivate@@XZ @ 3378 NONAME ; class QGraphicsViewPrivate * QGraphicsView::d_func(void)
	?d_func@QGraphicsView@@ABEPBVQGraphicsViewPrivate@@XZ @ 3379 NONAME ; class QGraphicsViewPrivate const * QGraphicsView::d_func(void) const
	?d_func@QGraphicsWidget@@AAEPAVQGraphicsWidgetPrivate@@XZ @ 3380 NONAME ; class QGraphicsWidgetPrivate * QGraphicsWidget::d_func(void)
	?d_func@QGraphicsWidget@@ABEPBVQGraphicsWidgetPrivate@@XZ @ 3381 NONAME ; class QGraphicsWidgetPrivate const * QGraphicsWidget::d_func(void) const
	?d_func@QGridLayout@@AAEPAVQGridLayoutPrivate@@XZ @ 3382 NONAME ; class QGridLayoutPrivate * QGridLayout::d_func(void)
	?d_func@QGridLayout@@ABEPBVQGridLayoutPrivate@@XZ @ 3383 NONAME ; class QGridLayoutPrivate const * QGridLayout::d_func(void) const
	?d_func@QGroupBox@@AAEPAVQGroupBoxPrivate@@XZ @ 3384 NONAME ; class QGroupBoxPrivate * QGroupBox::d_func(void)
	?d_func@QGroupBox@@ABEPBVQGroupBoxPrivate@@XZ @ 3385 NONAME ; class QGroupBoxPrivate const * QGroupBox::d_func(void) const
	?d_func@QHeaderView@@AAEPAVQHeaderViewPrivate@@XZ @ 3386 NONAME ; class QHeaderViewPrivate * QHeaderView::d_func(void)
	?d_func@QHeaderView@@ABEPBVQHeaderViewPrivate@@XZ @ 3387 NONAME ; class QHeaderViewPrivate const * QHeaderView::d_func(void) const
	?d_func@QImageIOHandler@@AAEPAVQImageIOHandlerPrivate@@XZ @ 3388 NONAME ; class QImageIOHandlerPrivate * QImageIOHandler::d_func(void)
	?d_func@QImageIOHandler@@ABEPBVQImageIOHandlerPrivate@@XZ @ 3389 NONAME ; class QImageIOHandlerPrivate const * QImageIOHandler::d_func(void) const
	?d_func@QInputContext@@AAEPAVQInputContextPrivate@@XZ @ 3390 NONAME ; class QInputContextPrivate * QInputContext::d_func(void)
	?d_func@QInputContext@@ABEPBVQInputContextPrivate@@XZ @ 3391 NONAME ; class QInputContextPrivate const * QInputContext::d_func(void) const
	?d_func@QInputDialog@@AAEPAVQInputDialogPrivate@@XZ @ 3392 NONAME ; class QInputDialogPrivate * QInputDialog::d_func(void)
	?d_func@QInputDialog@@ABEPBVQInputDialogPrivate@@XZ @ 3393 NONAME ; class QInputDialogPrivate const * QInputDialog::d_func(void) const
	?d_func@QItemDelegate@@AAEPAVQItemDelegatePrivate@@XZ @ 3394 NONAME ; class QItemDelegatePrivate * QItemDelegate::d_func(void)
	?d_func@QItemDelegate@@ABEPBVQItemDelegatePrivate@@XZ @ 3395 NONAME ; class QItemDelegatePrivate const * QItemDelegate::d_func(void) const
	?d_func@QItemSelectionModel@@AAEPAVQItemSelectionModelPrivate@@XZ @ 3396 NONAME ; class QItemSelectionModelPrivate * QItemSelectionModel::d_func(void)
	?d_func@QItemSelectionModel@@ABEPBVQItemSelectionModelPrivate@@XZ @ 3397 NONAME ; class QItemSelectionModelPrivate const * QItemSelectionModel::d_func(void) const
	?d_func@QKeyEventTransition@@AAEPAVQKeyEventTransitionPrivate@@XZ @ 3398 NONAME ; class QKeyEventTransitionPrivate * QKeyEventTransition::d_func(void)
	?d_func@QKeyEventTransition@@ABEPBVQKeyEventTransitionPrivate@@XZ @ 3399 NONAME ; class QKeyEventTransitionPrivate const * QKeyEventTransition::d_func(void) const
	?d_func@QLCDNumber@@AAEPAVQLCDNumberPrivate@@XZ @ 3400 NONAME ; class QLCDNumberPrivate * QLCDNumber::d_func(void)
	?d_func@QLCDNumber@@ABEPBVQLCDNumberPrivate@@XZ @ 3401 NONAME ; class QLCDNumberPrivate const * QLCDNumber::d_func(void) const
	?d_func@QLabel@@AAEPAVQLabelPrivate@@XZ @ 3402 NONAME ; class QLabelPrivate * QLabel::d_func(void)
	?d_func@QLabel@@ABEPBVQLabelPrivate@@XZ @ 3403 NONAME ; class QLabelPrivate const * QLabel::d_func(void) const
	?d_func@QLayout@@AAEPAVQLayoutPrivate@@XZ @ 3404 NONAME ; class QLayoutPrivate * QLayout::d_func(void)
	?d_func@QLayout@@ABEPBVQLayoutPrivate@@XZ @ 3405 NONAME ; class QLayoutPrivate const * QLayout::d_func(void) const
	?d_func@QLineEdit@@AAEPAVQLineEditPrivate@@XZ @ 3406 NONAME ; class QLineEditPrivate * QLineEdit::d_func(void)
	?d_func@QLineEdit@@ABEPBVQLineEditPrivate@@XZ @ 3407 NONAME ; class QLineEditPrivate const * QLineEdit::d_func(void) const
	?d_func@QListView@@AAEPAVQListViewPrivate@@XZ @ 3408 NONAME ; class QListViewPrivate * QListView::d_func(void)
	?d_func@QListView@@ABEPBVQListViewPrivate@@XZ @ 3409 NONAME ; class QListViewPrivate const * QListView::d_func(void) const
	?d_func@QListWidget@@AAEPAVQListWidgetPrivate@@XZ @ 3410 NONAME ; class QListWidgetPrivate * QListWidget::d_func(void)
	?d_func@QListWidget@@ABEPBVQListWidgetPrivate@@XZ @ 3411 NONAME ; class QListWidgetPrivate const * QListWidget::d_func(void) const
	?d_func@QMainWindow@@AAEPAVQMainWindowPrivate@@XZ @ 3412 NONAME ; class QMainWindowPrivate * QMainWindow::d_func(void)
	?d_func@QMainWindow@@ABEPBVQMainWindowPrivate@@XZ @ 3413 NONAME ; class QMainWindowPrivate const * QMainWindow::d_func(void) const
	?d_func@QMdiArea@@AAEPAVQMdiAreaPrivate@@XZ @ 3414 NONAME ; class QMdiAreaPrivate * QMdiArea::d_func(void)
	?d_func@QMdiArea@@ABEPBVQMdiAreaPrivate@@XZ @ 3415 NONAME ; class QMdiAreaPrivate const * QMdiArea::d_func(void) const
	?d_func@QMdiSubWindow@@AAEPAVQMdiSubWindowPrivate@@XZ @ 3416 NONAME ; class QMdiSubWindowPrivate * QMdiSubWindow::d_func(void)
	?d_func@QMdiSubWindow@@ABEPBVQMdiSubWindowPrivate@@XZ @ 3417 NONAME ; class QMdiSubWindowPrivate const * QMdiSubWindow::d_func(void) const
	?d_func@QMenu@@AAEPAVQMenuPrivate@@XZ @ 3418 NONAME ; class QMenuPrivate * QMenu::d_func(void)
	?d_func@QMenu@@ABEPBVQMenuPrivate@@XZ @ 3419 NONAME ; class QMenuPrivate const * QMenu::d_func(void) const
	?d_func@QMenuBar@@AAEPAVQMenuBarPrivate@@XZ @ 3420 NONAME ; class QMenuBarPrivate * QMenuBar::d_func(void)
	?d_func@QMenuBar@@ABEPBVQMenuBarPrivate@@XZ @ 3421 NONAME ; class QMenuBarPrivate const * QMenuBar::d_func(void) const
	?d_func@QMessageBox@@AAEPAVQMessageBoxPrivate@@XZ @ 3422 NONAME ; class QMessageBoxPrivate * QMessageBox::d_func(void)
	?d_func@QMessageBox@@ABEPBVQMessageBoxPrivate@@XZ @ 3423 NONAME ; class QMessageBoxPrivate const * QMessageBox::d_func(void) const
	?d_func@QMouseEventTransition@@AAEPAVQMouseEventTransitionPrivate@@XZ @ 3424 NONAME ; class QMouseEventTransitionPrivate * QMouseEventTransition::d_func(void)
	?d_func@QMouseEventTransition@@ABEPBVQMouseEventTransitionPrivate@@XZ @ 3425 NONAME ; class QMouseEventTransitionPrivate const * QMouseEventTransition::d_func(void) const
	?d_func@QMovie@@AAEPAVQMoviePrivate@@XZ @ 3426 NONAME ; class QMoviePrivate * QMovie::d_func(void)
	?d_func@QMovie@@ABEPBVQMoviePrivate@@XZ @ 3427 NONAME ; class QMoviePrivate const * QMovie::d_func(void) const
	?d_func@QPaintBuffer@@AAEPAVQPaintBufferPrivate@@XZ @ 3428 NONAME ; class QPaintBufferPrivate * QPaintBuffer::d_func(void)
	?d_func@QPaintBuffer@@ABEPBVQPaintBufferPrivate@@XZ @ 3429 NONAME ; class QPaintBufferPrivate const * QPaintBuffer::d_func(void) const
	?d_func@QPaintEngine@@AAEPAVQPaintEnginePrivate@@XZ @ 3430 NONAME ; class QPaintEnginePrivate * QPaintEngine::d_func(void)
	?d_func@QPaintEngine@@ABEPBVQPaintEnginePrivate@@XZ @ 3431 NONAME ; class QPaintEnginePrivate const * QPaintEngine::d_func(void) const
	?d_func@QPaintEngineEx@@AAEPAVQPaintEngineExPrivate@@XZ @ 3432 NONAME ; class QPaintEngineExPrivate * QPaintEngineEx::d_func(void)
	?d_func@QPaintEngineEx@@ABEPBVQPaintEngineExPrivate@@XZ @ 3433 NONAME ; class QPaintEngineExPrivate const * QPaintEngineEx::d_func(void) const
	?d_func@QPainter@@AAEPAVQPainterPrivate@@XZ @ 3434 NONAME ; class QPainterPrivate * QPainter::d_func(void)
	?d_func@QPainter@@ABEPBVQPainterPrivate@@XZ @ 3435 NONAME ; class QPainterPrivate const * QPainter::d_func(void) const
	?d_func@QPainterPath@@ABEPAVQPainterPathData@@XZ @ 3436 NONAME ; class QPainterPathData * QPainterPath::d_func(void) const
	?d_func@QPainterPathStroker@@AAEPAVQPainterPathStrokerPrivate@@XZ @ 3437 NONAME ; class QPainterPathStrokerPrivate * QPainterPathStroker::d_func(void)
	?d_func@QPainterPathStroker@@ABEPBVQPainterPathStrokerPrivate@@XZ @ 3438 NONAME ; class QPainterPathStrokerPrivate const * QPainterPathStroker::d_func(void) const
	?d_func@QPanGesture@@AAEPAVQPanGesturePrivate@@XZ @ 3439 NONAME ; class QPanGesturePrivate * QPanGesture::d_func(void)
	?d_func@QPanGesture@@ABEPBVQPanGesturePrivate@@XZ @ 3440 NONAME ; class QPanGesturePrivate const * QPanGesture::d_func(void) const
	?d_func@QPicture@@AAEPAVQPicturePrivate@@XZ @ 3441 NONAME ; class QPicturePrivate * QPicture::d_func(void)
	?d_func@QPicture@@ABEPBVQPicturePrivate@@XZ @ 3442 NONAME ; class QPicturePrivate const * QPicture::d_func(void) const
	?d_func@QPinchGesture@@AAEPAVQPinchGesturePrivate@@XZ @ 3443 NONAME ; class QPinchGesturePrivate * QPinchGesture::d_func(void)
	?d_func@QPinchGesture@@ABEPBVQPinchGesturePrivate@@XZ @ 3444 NONAME ; class QPinchGesturePrivate const * QPinchGesture::d_func(void) const
	?d_func@QPixmapBlurFilter@@AAEPAVQPixmapBlurFilterPrivate@@XZ @ 3445 NONAME ; class QPixmapBlurFilterPrivate * QPixmapBlurFilter::d_func(void)
	?d_func@QPixmapBlurFilter@@ABEPBVQPixmapBlurFilterPrivate@@XZ @ 3446 NONAME ; class QPixmapBlurFilterPrivate const * QPixmapBlurFilter::d_func(void) const
	?d_func@QPixmapColorizeFilter@@AAEPAVQPixmapColorizeFilterPrivate@@XZ @ 3447 NONAME ; class QPixmapColorizeFilterPrivate * QPixmapColorizeFilter::d_func(void)
	?d_func@QPixmapColorizeFilter@@ABEPBVQPixmapColorizeFilterPrivate@@XZ @ 3448 NONAME ; class QPixmapColorizeFilterPrivate const * QPixmapColorizeFilter::d_func(void) const
	?d_func@QPixmapConvolutionFilter@@AAEPAVQPixmapConvolutionFilterPrivate@@XZ @ 3449 NONAME ; class QPixmapConvolutionFilterPrivate * QPixmapConvolutionFilter::d_func(void)
	?d_func@QPixmapConvolutionFilter@@ABEPBVQPixmapConvolutionFilterPrivate@@XZ @ 3450 NONAME ; class QPixmapConvolutionFilterPrivate const * QPixmapConvolutionFilter::d_func(void) const
	?d_func@QPixmapDropShadowFilter@@AAEPAVQPixmapDropShadowFilterPrivate@@XZ @ 3451 NONAME ; class QPixmapDropShadowFilterPrivate * QPixmapDropShadowFilter::d_func(void)
	?d_func@QPixmapDropShadowFilter@@ABEPBVQPixmapDropShadowFilterPrivate@@XZ @ 3452 NONAME ; class QPixmapDropShadowFilterPrivate const * QPixmapDropShadowFilter::d_func(void) const
	?d_func@QPixmapFilter@@AAEPAVQPixmapFilterPrivate@@XZ @ 3453 NONAME ; class QPixmapFilterPrivate * QPixmapFilter::d_func(void)
	?d_func@QPixmapFilter@@ABEPBVQPixmapFilterPrivate@@XZ @ 3454 NONAME ; class QPixmapFilterPrivate const * QPixmapFilter::d_func(void) const
	?d_func@QPlainTextDocumentLayout@@AAEPAVQPlainTextDocumentLayoutPrivate@@XZ @ 3455 NONAME ; class QPlainTextDocumentLayoutPrivate * QPlainTextDocumentLayout::d_func(void)
	?d_func@QPlainTextDocumentLayout@@ABEPBVQPlainTextDocumentLayoutPrivate@@XZ @ 3456 NONAME ; class QPlainTextDocumentLayoutPrivate const * QPlainTextDocumentLayout::d_func(void) const
	?d_func@QPlainTextEdit@@AAEPAVQPlainTextEditPrivate@@XZ @ 3457 NONAME ; class QPlainTextEditPrivate * QPlainTextEdit::d_func(void)
	?d_func@QPlainTextEdit@@ABEPBVQPlainTextEditPrivate@@XZ @ 3458 NONAME ; class QPlainTextEditPrivate const * QPlainTextEdit::d_func(void) const
	?d_func@QProgressBar@@AAEPAVQProgressBarPrivate@@XZ @ 3459 NONAME ; class QProgressBarPrivate * QProgressBar::d_func(void)
	?d_func@QProgressBar@@ABEPBVQProgressBarPrivate@@XZ @ 3460 NONAME ; class QProgressBarPrivate const * QProgressBar::d_func(void) const
	?d_func@QProgressDialog@@AAEPAVQProgressDialogPrivate@@XZ @ 3461 NONAME ; class QProgressDialogPrivate * QProgressDialog::d_func(void)
	?d_func@QProgressDialog@@ABEPBVQProgressDialogPrivate@@XZ @ 3462 NONAME ; class QProgressDialogPrivate const * QProgressDialog::d_func(void) const
	?d_func@QProxyModel@@AAEPAVQProxyModelPrivate@@XZ @ 3463 NONAME ; class QProxyModelPrivate * QProxyModel::d_func(void)
	?d_func@QProxyModel@@ABEPBVQProxyModelPrivate@@XZ @ 3464 NONAME ; class QProxyModelPrivate const * QProxyModel::d_func(void) const
	?d_func@QProxyStyle@@AAEPAVQProxyStylePrivate@@XZ @ 3465 NONAME ; class QProxyStylePrivate * QProxyStyle::d_func(void)
	?d_func@QProxyStyle@@ABEPBVQProxyStylePrivate@@XZ @ 3466 NONAME ; class QProxyStylePrivate const * QProxyStyle::d_func(void) const
	?d_func@QPushButton@@AAEPAVQPushButtonPrivate@@XZ @ 3467 NONAME ; class QPushButtonPrivate * QPushButton::d_func(void)
	?d_func@QPushButton@@ABEPBVQPushButtonPrivate@@XZ @ 3468 NONAME ; class QPushButtonPrivate const * QPushButton::d_func(void) const
	?d_func@QRadioButton@@AAEPAVQRadioButtonPrivate@@XZ @ 3469 NONAME ; class QRadioButtonPrivate * QRadioButton::d_func(void)
	?d_func@QRadioButton@@ABEPBVQRadioButtonPrivate@@XZ @ 3470 NONAME ; class QRadioButtonPrivate const * QRadioButton::d_func(void) const
	?d_func@QRasterWindowSurface@@AAEPAVQRasterWindowSurfacePrivate@@XZ @ 3471 NONAME ; class QRasterWindowSurfacePrivate * QRasterWindowSurface::d_func(void)
	?d_func@QRasterWindowSurface@@ABEPBVQRasterWindowSurfacePrivate@@XZ @ 3472 NONAME ; class QRasterWindowSurfacePrivate const * QRasterWindowSurface::d_func(void) const
	?d_func@QRubberBand@@AAEPAVQRubberBandPrivate@@XZ @ 3473 NONAME ; class QRubberBandPrivate * QRubberBand::d_func(void)
	?d_func@QRubberBand@@ABEPBVQRubberBandPrivate@@XZ @ 3474 NONAME ; class QRubberBandPrivate const * QRubberBand::d_func(void) const
	?d_func@QS60Style@@AAEPAVQS60StylePrivate@@XZ @ 3475 NONAME ; class QS60StylePrivate * QS60Style::d_func(void)
	?d_func@QS60Style@@ABEPBVQS60StylePrivate@@XZ @ 3476 NONAME ; class QS60StylePrivate const * QS60Style::d_func(void) const
	?d_func@QScrollArea@@AAEPAVQScrollAreaPrivate@@XZ @ 3477 NONAME ; class QScrollAreaPrivate * QScrollArea::d_func(void)
	?d_func@QScrollArea@@ABEPBVQScrollAreaPrivate@@XZ @ 3478 NONAME ; class QScrollAreaPrivate const * QScrollArea::d_func(void) const
	?d_func@QScrollBar@@AAEPAVQScrollBarPrivate@@XZ @ 3479 NONAME ; class QScrollBarPrivate * QScrollBar::d_func(void)
	?d_func@QScrollBar@@ABEPBVQScrollBarPrivate@@XZ @ 3480 NONAME ; class QScrollBarPrivate const * QScrollBar::d_func(void) const
	?d_func@QSessionManager@@AAEPAVQSessionManagerPrivate@@XZ @ 3481 NONAME ; class QSessionManagerPrivate * QSessionManager::d_func(void)
	?d_func@QSessionManager@@ABEPBVQSessionManagerPrivate@@XZ @ 3482 NONAME ; class QSessionManagerPrivate const * QSessionManager::d_func(void) const
	?d_func@QShortcut@@AAEPAVQShortcutPrivate@@XZ @ 3483 NONAME ; class QShortcutPrivate * QShortcut::d_func(void)
	?d_func@QShortcut@@ABEPBVQShortcutPrivate@@XZ @ 3484 NONAME ; class QShortcutPrivate const * QShortcut::d_func(void) const
	?d_func@QSizeGrip@@AAEPAVQSizeGripPrivate@@XZ @ 3485 NONAME ; class QSizeGripPrivate * QSizeGrip::d_func(void)
	?d_func@QSizeGrip@@ABEPBVQSizeGripPrivate@@XZ @ 3486 NONAME ; class QSizeGripPrivate const * QSizeGrip::d_func(void) const
	?d_func@QSlider@@AAEPAVQSliderPrivate@@XZ @ 3487 NONAME ; class QSliderPrivate * QSlider::d_func(void)
	?d_func@QSlider@@ABEPBVQSliderPrivate@@XZ @ 3488 NONAME ; class QSliderPrivate const * QSlider::d_func(void) const
	?d_func@QSortFilterProxyModel@@AAEPAVQSortFilterProxyModelPrivate@@XZ @ 3489 NONAME ; class QSortFilterProxyModelPrivate * QSortFilterProxyModel::d_func(void)
	?d_func@QSortFilterProxyModel@@ABEPBVQSortFilterProxyModelPrivate@@XZ @ 3490 NONAME ; class QSortFilterProxyModelPrivate const * QSortFilterProxyModel::d_func(void) const
	?d_func@QSound@@AAEPAVQSoundPrivate@@XZ @ 3491 NONAME ; class QSoundPrivate * QSound::d_func(void)
	?d_func@QSound@@ABEPBVQSoundPrivate@@XZ @ 3492 NONAME ; class QSoundPrivate const * QSound::d_func(void) const
	?d_func@QSpinBox@@AAEPAVQSpinBoxPrivate@@XZ @ 3493 NONAME ; class QSpinBoxPrivate * QSpinBox::d_func(void)
	?d_func@QSpinBox@@ABEPBVQSpinBoxPrivate@@XZ @ 3494 NONAME ; class QSpinBoxPrivate const * QSpinBox::d_func(void) const
	?d_func@QSplashScreen@@AAEPAVQSplashScreenPrivate@@XZ @ 3495 NONAME ; class QSplashScreenPrivate * QSplashScreen::d_func(void)
	?d_func@QSplashScreen@@ABEPBVQSplashScreenPrivate@@XZ @ 3496 NONAME ; class QSplashScreenPrivate const * QSplashScreen::d_func(void) const
	?d_func@QSplitter@@AAEPAVQSplitterPrivate@@XZ @ 3497 NONAME ; class QSplitterPrivate * QSplitter::d_func(void)
	?d_func@QSplitter@@ABEPBVQSplitterPrivate@@XZ @ 3498 NONAME ; class QSplitterPrivate const * QSplitter::d_func(void) const
	?d_func@QSplitterHandle@@AAEPAVQSplitterHandlePrivate@@XZ @ 3499 NONAME ; class QSplitterHandlePrivate * QSplitterHandle::d_func(void)
	?d_func@QSplitterHandle@@ABEPBVQSplitterHandlePrivate@@XZ @ 3500 NONAME ; class QSplitterHandlePrivate const * QSplitterHandle::d_func(void) const
	?d_func@QStackedLayout@@AAEPAVQStackedLayoutPrivate@@XZ @ 3501 NONAME ; class QStackedLayoutPrivate * QStackedLayout::d_func(void)
	?d_func@QStackedLayout@@ABEPBVQStackedLayoutPrivate@@XZ @ 3502 NONAME ; class QStackedLayoutPrivate const * QStackedLayout::d_func(void) const
	?d_func@QStackedWidget@@AAEPAVQStackedWidgetPrivate@@XZ @ 3503 NONAME ; class QStackedWidgetPrivate * QStackedWidget::d_func(void)
	?d_func@QStackedWidget@@ABEPBVQStackedWidgetPrivate@@XZ @ 3504 NONAME ; class QStackedWidgetPrivate const * QStackedWidget::d_func(void) const
	?d_func@QStandardItem@@AAEPAVQStandardItemPrivate@@XZ @ 3505 NONAME ; class QStandardItemPrivate * QStandardItem::d_func(void)
	?d_func@QStandardItem@@ABEPBVQStandardItemPrivate@@XZ @ 3506 NONAME ; class QStandardItemPrivate const * QStandardItem::d_func(void) const
	?d_func@QStandardItemModel@@AAEPAVQStandardItemModelPrivate@@XZ @ 3507 NONAME ; class QStandardItemModelPrivate * QStandardItemModel::d_func(void)
	?d_func@QStandardItemModel@@ABEPBVQStandardItemModelPrivate@@XZ @ 3508 NONAME ; class QStandardItemModelPrivate const * QStandardItemModel::d_func(void) const
	?d_func@QStatusBar@@AAEPAVQStatusBarPrivate@@XZ @ 3509 NONAME ; class QStatusBarPrivate * QStatusBar::d_func(void)
	?d_func@QStatusBar@@ABEPBVQStatusBarPrivate@@XZ @ 3510 NONAME ; class QStatusBarPrivate const * QStatusBar::d_func(void) const
	?d_func@QStyle@@AAEPAVQStylePrivate@@XZ @ 3511 NONAME ; class QStylePrivate * QStyle::d_func(void)
	?d_func@QStyle@@ABEPBVQStylePrivate@@XZ @ 3512 NONAME ; class QStylePrivate const * QStyle::d_func(void) const
	?d_func@QStyledItemDelegate@@AAEPAVQStyledItemDelegatePrivate@@XZ @ 3513 NONAME ; class QStyledItemDelegatePrivate * QStyledItemDelegate::d_func(void)
	?d_func@QStyledItemDelegate@@ABEPBVQStyledItemDelegatePrivate@@XZ @ 3514 NONAME ; class QStyledItemDelegatePrivate const * QStyledItemDelegate::d_func(void) const
	?d_func@QSwipeGesture@@AAEPAVQSwipeGesturePrivate@@XZ @ 3515 NONAME ; class QSwipeGesturePrivate * QSwipeGesture::d_func(void)
	?d_func@QSwipeGesture@@ABEPBVQSwipeGesturePrivate@@XZ @ 3516 NONAME ; class QSwipeGesturePrivate const * QSwipeGesture::d_func(void) const
	?d_func@QSyntaxHighlighter@@AAEPAVQSyntaxHighlighterPrivate@@XZ @ 3517 NONAME ; class QSyntaxHighlighterPrivate * QSyntaxHighlighter::d_func(void)
	?d_func@QSyntaxHighlighter@@ABEPBVQSyntaxHighlighterPrivate@@XZ @ 3518 NONAME ; class QSyntaxHighlighterPrivate const * QSyntaxHighlighter::d_func(void) const
	?d_func@QTabBar@@AAEPAVQTabBarPrivate@@XZ @ 3519 NONAME ; class QTabBarPrivate * QTabBar::d_func(void)
	?d_func@QTabBar@@ABEPBVQTabBarPrivate@@XZ @ 3520 NONAME ; class QTabBarPrivate const * QTabBar::d_func(void) const
	?d_func@QTabWidget@@AAEPAVQTabWidgetPrivate@@XZ @ 3521 NONAME ; class QTabWidgetPrivate * QTabWidget::d_func(void)
	?d_func@QTabWidget@@ABEPBVQTabWidgetPrivate@@XZ @ 3522 NONAME ; class QTabWidgetPrivate const * QTabWidget::d_func(void) const
	?d_func@QTableView@@AAEPAVQTableViewPrivate@@XZ @ 3523 NONAME ; class QTableViewPrivate * QTableView::d_func(void)
	?d_func@QTableView@@ABEPBVQTableViewPrivate@@XZ @ 3524 NONAME ; class QTableViewPrivate const * QTableView::d_func(void) const
	?d_func@QTableWidget@@AAEPAVQTableWidgetPrivate@@XZ @ 3525 NONAME ; class QTableWidgetPrivate * QTableWidget::d_func(void)
	?d_func@QTableWidget@@ABEPBVQTableWidgetPrivate@@XZ @ 3526 NONAME ; class QTableWidgetPrivate const * QTableWidget::d_func(void) const
	?d_func@QTapAndHoldGesture@@AAEPAVQTapAndHoldGesturePrivate@@XZ @ 3527 NONAME ; class QTapAndHoldGesturePrivate * QTapAndHoldGesture::d_func(void)
	?d_func@QTapAndHoldGesture@@ABEPBVQTapAndHoldGesturePrivate@@XZ @ 3528 NONAME ; class QTapAndHoldGesturePrivate const * QTapAndHoldGesture::d_func(void) const
	?d_func@QTapGesture@@AAEPAVQTapGesturePrivate@@XZ @ 3529 NONAME ; class QTapGesturePrivate * QTapGesture::d_func(void)
	?d_func@QTapGesture@@ABEPBVQTapGesturePrivate@@XZ @ 3530 NONAME ; class QTapGesturePrivate const * QTapGesture::d_func(void) const
	?d_func@QTextBlockGroup@@AAEPAVQTextBlockGroupPrivate@@XZ @ 3531 NONAME ; class QTextBlockGroupPrivate * QTextBlockGroup::d_func(void)
	?d_func@QTextBlockGroup@@ABEPBVQTextBlockGroupPrivate@@XZ @ 3532 NONAME ; class QTextBlockGroupPrivate const * QTextBlockGroup::d_func(void) const
	?d_func@QTextBrowser@@AAEPAVQTextBrowserPrivate@@XZ @ 3533 NONAME ; class QTextBrowserPrivate * QTextBrowser::d_func(void)
	?d_func@QTextBrowser@@ABEPBVQTextBrowserPrivate@@XZ @ 3534 NONAME ; class QTextBrowserPrivate const * QTextBrowser::d_func(void) const
	?d_func@QTextControl@@AAEPAVQTextControlPrivate@@XZ @ 3535 NONAME ; class QTextControlPrivate * QTextControl::d_func(void)
	?d_func@QTextControl@@ABEPBVQTextControlPrivate@@XZ @ 3536 NONAME ; class QTextControlPrivate const * QTextControl::d_func(void) const
	?d_func@QTextDocument@@AAEPAVQTextDocumentPrivate@@XZ @ 3537 NONAME ; class QTextDocumentPrivate * QTextDocument::d_func(void)
	?d_func@QTextDocument@@ABEPBVQTextDocumentPrivate@@XZ @ 3538 NONAME ; class QTextDocumentPrivate const * QTextDocument::d_func(void) const
	?d_func@QTextEdit@@AAEPAVQTextEditPrivate@@XZ @ 3539 NONAME ; class QTextEditPrivate * QTextEdit::d_func(void)
	?d_func@QTextEdit@@ABEPBVQTextEditPrivate@@XZ @ 3540 NONAME ; class QTextEditPrivate const * QTextEdit::d_func(void) const
	?d_func@QTextFrame@@AAEPAVQTextFramePrivate@@XZ @ 3541 NONAME ; class QTextFramePrivate * QTextFrame::d_func(void)
	?d_func@QTextFrame@@ABEPBVQTextFramePrivate@@XZ @ 3542 NONAME ; class QTextFramePrivate const * QTextFrame::d_func(void) const
	?d_func@QTextList@@AAEPAVQTextListPrivate@@XZ @ 3543 NONAME ; class QTextListPrivate * QTextList::d_func(void)
	?d_func@QTextList@@ABEPBVQTextListPrivate@@XZ @ 3544 NONAME ; class QTextListPrivate const * QTextList::d_func(void) const
	?d_func@QTextObject@@AAEPAVQTextObjectPrivate@@XZ @ 3545 NONAME ; class QTextObjectPrivate * QTextObject::d_func(void)
	?d_func@QTextObject@@ABEPBVQTextObjectPrivate@@XZ @ 3546 NONAME ; class QTextObjectPrivate const * QTextObject::d_func(void) const
	?d_func@QTextTable@@AAEPAVQTextTablePrivate@@XZ @ 3547 NONAME ; class QTextTablePrivate * QTextTable::d_func(void)
	?d_func@QTextTable@@ABEPBVQTextTablePrivate@@XZ @ 3548 NONAME ; class QTextTablePrivate const * QTextTable::d_func(void) const
	?d_func@QToolBar@@AAEPAVQToolBarPrivate@@XZ @ 3549 NONAME ; class QToolBarPrivate * QToolBar::d_func(void)
	?d_func@QToolBar@@ABEPBVQToolBarPrivate@@XZ @ 3550 NONAME ; class QToolBarPrivate const * QToolBar::d_func(void) const
	?d_func@QToolBox@@AAEPAVQToolBoxPrivate@@XZ @ 3551 NONAME ; class QToolBoxPrivate * QToolBox::d_func(void)
	?d_func@QToolBox@@ABEPBVQToolBoxPrivate@@XZ @ 3552 NONAME ; class QToolBoxPrivate const * QToolBox::d_func(void) const
	?d_func@QToolButton@@AAEPAVQToolButtonPrivate@@XZ @ 3553 NONAME ; class QToolButtonPrivate * QToolButton::d_func(void)
	?d_func@QToolButton@@ABEPBVQToolButtonPrivate@@XZ @ 3554 NONAME ; class QToolButtonPrivate const * QToolButton::d_func(void) const
	?d_func@QTreeView@@AAEPAVQTreeViewPrivate@@XZ @ 3555 NONAME ; class QTreeViewPrivate * QTreeView::d_func(void)
	?d_func@QTreeView@@ABEPBVQTreeViewPrivate@@XZ @ 3556 NONAME ; class QTreeViewPrivate const * QTreeView::d_func(void) const
	?d_func@QTreeWidget@@AAEPAVQTreeWidgetPrivate@@XZ @ 3557 NONAME ; class QTreeWidgetPrivate * QTreeWidget::d_func(void)
	?d_func@QTreeWidget@@ABEPBVQTreeWidgetPrivate@@XZ @ 3558 NONAME ; class QTreeWidgetPrivate const * QTreeWidget::d_func(void) const
	?d_func@QTreeWidgetItemIterator@@AAEPAVQTreeWidgetItemIteratorPrivate@@XZ @ 3559 NONAME ; class QTreeWidgetItemIteratorPrivate * QTreeWidgetItemIterator::d_func(void)
	?d_func@QTreeWidgetItemIterator@@ABEPBVQTreeWidgetItemIteratorPrivate@@XZ @ 3560 NONAME ; class QTreeWidgetItemIteratorPrivate const * QTreeWidgetItemIterator::d_func(void) const
	?d_func@QUndoGroup@@AAEPAVQUndoGroupPrivate@@XZ @ 3561 NONAME ; class QUndoGroupPrivate * QUndoGroup::d_func(void)
	?d_func@QUndoGroup@@ABEPBVQUndoGroupPrivate@@XZ @ 3562 NONAME ; class QUndoGroupPrivate const * QUndoGroup::d_func(void) const
	?d_func@QUndoStack@@AAEPAVQUndoStackPrivate@@XZ @ 3563 NONAME ; class QUndoStackPrivate * QUndoStack::d_func(void)
	?d_func@QUndoStack@@ABEPBVQUndoStackPrivate@@XZ @ 3564 NONAME ; class QUndoStackPrivate const * QUndoStack::d_func(void) const
	?d_func@QUndoView@@AAEPAVQUndoViewPrivate@@XZ @ 3565 NONAME ; class QUndoViewPrivate * QUndoView::d_func(void)
	?d_func@QUndoView@@ABEPBVQUndoViewPrivate@@XZ @ 3566 NONAME ; class QUndoViewPrivate const * QUndoView::d_func(void) const
	?d_func@QValidator@@AAEPAVQValidatorPrivate@@XZ @ 3567 NONAME ; class QValidatorPrivate * QValidator::d_func(void)
	?d_func@QValidator@@ABEPBVQValidatorPrivate@@XZ @ 3568 NONAME ; class QValidatorPrivate const * QValidator::d_func(void) const
	?d_func@QWidget@@AAEPAVQWidgetPrivate@@XZ @ 3569 NONAME ; class QWidgetPrivate * QWidget::d_func(void)
	?d_func@QWidget@@ABEPBVQWidgetPrivate@@XZ @ 3570 NONAME ; class QWidgetPrivate const * QWidget::d_func(void) const
	?d_func@QWidgetAction@@AAEPAVQWidgetActionPrivate@@XZ @ 3571 NONAME ; class QWidgetActionPrivate * QWidgetAction::d_func(void)
	?d_func@QWidgetAction@@ABEPBVQWidgetActionPrivate@@XZ @ 3572 NONAME ; class QWidgetActionPrivate const * QWidgetAction::d_func(void) const
	?d_func@QWindowsStyle@@AAEPAVQWindowsStylePrivate@@XZ @ 3573 NONAME ; class QWindowsStylePrivate * QWindowsStyle::d_func(void)
	?d_func@QWindowsStyle@@ABEPBVQWindowsStylePrivate@@XZ @ 3574 NONAME ; class QWindowsStylePrivate const * QWindowsStyle::d_func(void) const
	?d_func@QWizard@@AAEPAVQWizardPrivate@@XZ @ 3575 NONAME ; class QWizardPrivate * QWizard::d_func(void)
	?d_func@QWizard@@ABEPBVQWizardPrivate@@XZ @ 3576 NONAME ; class QWizardPrivate const * QWizard::d_func(void) const
	?d_func@QWizardPage@@AAEPAVQWizardPagePrivate@@XZ @ 3577 NONAME ; class QWizardPagePrivate * QWizardPage::d_func(void)
	?d_func@QWizardPage@@ABEPBVQWizardPagePrivate@@XZ @ 3578 NONAME ; class QWizardPagePrivate const * QWizardPage::d_func(void) const
	?d_func@QWorkspace@@AAEPAVQWorkspacePrivate@@XZ @ 3579 NONAME ; class QWorkspacePrivate * QWorkspace::d_func(void)
	?d_func@QWorkspace@@ABEPBVQWorkspacePrivate@@XZ @ 3580 NONAME ; class QWorkspacePrivate const * QWorkspace::d_func(void) const
	?dark@QColor@@QBE?AV1@H@Z @ 3581 NONAME ; class QColor QColor::dark(int) const
	?dark@QPalette@@QBEABVQBrush@@XZ @ 3582 NONAME ; class QBrush const & QPalette::dark(void) const
	?darker@QColor@@QBE?AV1@H@Z @ 3583 NONAME ; class QColor QColor::darker(int) const
	?dashOffset@QDashStroker@@QBEMXZ @ 3584 NONAME ; float QDashStroker::dashOffset(void) const
	?dashOffset@QPainterPathStroker@@QBEMXZ @ 3585 NONAME ; float QPainterPathStroker::dashOffset(void) const
	?dashOffset@QPen@@QBEMXZ @ 3586 NONAME ; float QPen::dashOffset(void) const
	?dashPattern@QDashStroker@@QBE?AV?$QVector@M@@XZ @ 3587 NONAME ; class QVector<float> QDashStroker::dashPattern(void) const
	?dashPattern@QPainterPathStroker@@QBE?AV?$QVector@M@@XZ @ 3588 NONAME ; class QVector<float> QPainterPathStroker::dashPattern(void) const
	?dashPattern@QPen@@QBE?AV?$QVector@M@@XZ @ 3589 NONAME ; class QVector<float> QPen::dashPattern(void) const
	?data@QAbstractProxyModel@@UBE?AVQVariant@@ABVQModelIndex@@H@Z @ 3590 NONAME ; class QVariant QAbstractProxyModel::data(class QModelIndex const &, int) const
	?data@QAction@@QBE?AVQVariant@@XZ @ 3591 NONAME ; class QVariant QAction::data(void) const
	?data@QClipboardEvent@@QAEPAVQEventPrivate@@XZ @ 3592 NONAME ; class QEventPrivate * QClipboardEvent::data(void)
	?data@QDirModel@@UBE?AVQVariant@@ABVQModelIndex@@H@Z @ 3593 NONAME ; class QVariant QDirModel::data(class QModelIndex const &, int) const
	?data@QFileSystemModel@@UBE?AVQVariant@@ABVQModelIndex@@H@Z @ 3594 NONAME ; class QVariant QFileSystemModel::data(class QModelIndex const &, int) const
	?data@QGraphicsItem@@QBE?AVQVariant@@H@Z @ 3595 NONAME ; class QVariant QGraphicsItem::data(int) const
	?data@QListWidgetItem@@UBE?AVQVariant@@H@Z @ 3596 NONAME ; class QVariant QListWidgetItem::data(int) const
	?data@QMatrix4x4@@QAEPAMXZ @ 3597 NONAME ; float * QMatrix4x4::data(void)
	?data@QMatrix4x4@@QBEPBMXZ @ 3598 NONAME ; float const * QMatrix4x4::data(void) const
	?data@QPicture@@QBEPBDXZ @ 3599 NONAME ; char const * QPicture::data(void) const
	?data@QProxyModel@@UBE?AVQVariant@@ABVQModelIndex@@H@Z @ 3600 NONAME ; class QVariant QProxyModel::data(class QModelIndex const &, int) const
	?data@QSortFilterProxyModel@@UBE?AVQVariant@@ABVQModelIndex@@H@Z @ 3601 NONAME ; class QVariant QSortFilterProxyModel::data(class QModelIndex const &, int) const
	?data@QStandardItem@@UBE?AVQVariant@@H@Z @ 3602 NONAME ; class QVariant QStandardItem::data(int) const
	?data@QStandardItemModel@@UBE?AVQVariant@@ABVQModelIndex@@H@Z @ 3603 NONAME ; class QVariant QStandardItemModel::data(class QModelIndex const &, int) const
	?data@QStringListModel@@UBE?AVQVariant@@ABVQModelIndex@@H@Z @ 3604 NONAME ; class QVariant QStringListModel::data(class QModelIndex const &, int) const
	?data@QTableWidgetItem@@UBE?AVQVariant@@H@Z @ 3605 NONAME ; class QVariant QTableWidgetItem::data(int) const
	?data@QTreeWidgetItem@@UBE?AVQVariant@@HH@Z @ 3606 NONAME ; class QVariant QTreeWidgetItem::data(int, int) const
	?dataChanged@QAbstractItemView@@MAEXABVQModelIndex@@0@Z @ 3607 NONAME ; void QAbstractItemView::dataChanged(class QModelIndex const &, class QModelIndex const &)
	?dataChanged@QClipboard@@IAEXXZ @ 3608 NONAME ; void QClipboard::dataChanged(void)
	?dataChanged@QHeaderView@@MAEXABVQModelIndex@@0@Z @ 3609 NONAME ; void QHeaderView::dataChanged(class QModelIndex const &, class QModelIndex const &)
	?dataChanged@QListView@@MAEXABVQModelIndex@@0@Z @ 3610 NONAME ; void QListView::dataChanged(class QModelIndex const &, class QModelIndex const &)
	?dataChanged@QTreeView@@UAEXABVQModelIndex@@0@Z @ 3611 NONAME ; void QTreeView::dataChanged(class QModelIndex const &, class QModelIndex const &)
	?data_ptr@QBrush@@QAEAAV?$QScopedPointer@UQBrushData@@UQBrushDataPointerDeleter@@@@XZ @ 3612 NONAME ; class QScopedPointer<struct QBrushData, struct QBrushDataPointerDeleter> & QBrush::data_ptr(void)
	?data_ptr@QIcon@@QAEAAPAVQIconPrivate@@XZ @ 3613 NONAME ; class QIconPrivate * & QIcon::data_ptr(void)
	?data_ptr@QImage@@QAEAAPAUQImageData@@XZ @ 3614 NONAME ; struct QImageData * & QImage::data_ptr(void)
	?data_ptr@QKeySequence@@QAEAAPAVQKeySequencePrivate@@XZ @ 3615 NONAME ; class QKeySequencePrivate * & QKeySequence::data_ptr(void)
	?data_ptr@QPen@@QAEAAPAVQPenPrivate@@XZ @ 3616 NONAME ; class QPenPrivate * & QPen::data_ptr(void)
	?data_ptr@QPicture@@QAEAAV?$QExplicitlySharedDataPointer@VQPicturePrivate@@@@XZ @ 3617 NONAME ; class QExplicitlySharedDataPointer<class QPicturePrivate> & QPicture::data_ptr(void)
	?data_ptr@QPixmap@@QAEAAV?$QExplicitlySharedDataPointer@VQPixmapData@@@@XZ @ 3618 NONAME ; class QExplicitlySharedDataPointer<class QPixmapData> & QPixmap::data_ptr(void)
	?date@QDateTimeEdit@@QBE?AVQDate@@XZ @ 3619 NONAME ; class QDate QDateTimeEdit::date(void) const
	?dateChanged@QDateTimeEdit@@IAEXABVQDate@@@Z @ 3620 NONAME ; void QDateTimeEdit::dateChanged(class QDate const &)
	?dateEditAcceptDelay@QCalendarWidget@@QBEHXZ @ 3621 NONAME ; int QCalendarWidget::dateEditAcceptDelay(void) const
	?dateTextFormat@QCalendarWidget@@QBE?AV?$QMap@VQDate@@VQTextCharFormat@@@@XZ @ 3622 NONAME ; class QMap<class QDate, class QTextCharFormat> QCalendarWidget::dateTextFormat(void) const
	?dateTextFormat@QCalendarWidget@@QBE?AVQTextCharFormat@@ABVQDate@@@Z @ 3623 NONAME ; class QTextCharFormat QCalendarWidget::dateTextFormat(class QDate const &) const
	?dateTime@QDateTimeEdit@@QBE?AVQDateTime@@XZ @ 3624 NONAME ; class QDateTime QDateTimeEdit::dateTime(void) const
	?dateTimeChanged@QDateTimeEdit@@IAEXABVQDateTime@@@Z @ 3625 NONAME ; void QDateTimeEdit::dateTimeChanged(class QDateTime const &)
	?dateTimeFromText@QDateTimeEdit@@MBE?AVQDateTime@@ABVQString@@@Z @ 3626 NONAME ; class QDateTime QDateTimeEdit::dateTimeFromText(class QString const &) const
	?deactivateWidgetCleanup@QWidgetPrivate@@QAEXXZ @ 3627 NONAME ; void QWidgetPrivate::deactivateWidgetCleanup(void)
	?decideFormatFromContent@QImageReader@@QBE_NXZ @ 3628 NONAME ; bool QImageReader::decideFormatFromContent(void) const
	?decimals@QDoubleSpinBox@@QBEHXZ @ 3629 NONAME ; int QDoubleSpinBox::decimals(void) const
	?decimals@QDoubleValidator@@QBEHXZ @ 3630 NONAME ; int QDoubleValidator::decimals(void) const
	?declarationsForNode@StyleSelector@QCss@@QAE?AV?$QVector@UDeclaration@QCss@@@@TNodePtr@12@PBD@Z @ 3631 NONAME ; class QVector<struct QCss::Declaration> QCss::StyleSelector::declarationsForNode(union QCss::StyleSelector::NodePtr, char const *)
	?decodeString@QKeySequence@@CAHABVQString@@@Z @ 3632 NONAME ; int QKeySequence::decodeString(class QString const &)
	?decoration@QItemDelegate@@IBE?AVQPixmap@@ABVQStyleOptionViewItem@@ABVQVariant@@@Z @ 3633 NONAME ; class QPixmap QItemDelegate::decoration(class QStyleOptionViewItem const &, class QVariant const &) const
	?defaultAction@QMenu@@QBEPAVQAction@@XZ @ 3634 NONAME ; class QAction * QMenu::defaultAction(void) const
	?defaultAction@QToolButton@@QBEPAVQAction@@XZ @ 3635 NONAME ; class QAction * QToolButton::defaultAction(void) const
	?defaultAlignment@QHeaderView@@QBE?AV?$QFlags@W4AlignmentFlag@Qt@@@@XZ @ 3636 NONAME ; class QFlags<enum Qt::AlignmentFlag> QHeaderView::defaultAlignment(void) const
	?defaultButton@QMessageBox@@QBEPAVQPushButton@@XZ @ 3637 NONAME ; class QPushButton * QMessageBox::defaultButton(void) const
	?defaultDepth@QPixmap@@SAHXZ @ 3638 NONAME ; int QPixmap::defaultDepth(void)
	?defaultDropAction@QAbstractItemView@@QBE?AW4DropAction@Qt@@XZ @ 3639 NONAME ; enum Qt::DropAction QAbstractItemView::defaultDropAction(void) const
	?defaultFactory@QItemEditorFactory@@SAPBV1@XZ @ 3640 NONAME ; class QItemEditorFactory const * QItemEditorFactory::defaultFactory(void)
	?defaultFamily@QFont@@QBE?AVQString@@XZ @ 3641 NONAME ; class QString QFont::defaultFamily(void) const
	?defaultFont@QTextDocument@@QBE?AVQFont@@XZ @ 3642 NONAME ; class QFont QTextDocument::defaultFont(void) const
	?defaultFont@QTextFormatCollection@@QBE?AVQFont@@XZ @ 3643 NONAME ; class QFont QTextFormatCollection::defaultFont(void) const
	?defaultSectionSize@QHeaderView@@QBEHXZ @ 3644 NONAME ; int QHeaderView::defaultSectionSize(void) const
	?defaultStyleSheet@QTextDocument@@QBE?AVQString@@XZ @ 3645 NONAME ; class QString QTextDocument::defaultStyleSheet(void) const
	?defaultSuffix@QFileDialog@@QBE?AVQString@@XZ @ 3646 NONAME ; class QString QFileDialog::defaultSuffix(void) const
	?defaultTextColor@QGraphicsTextItem@@QBE?AVQColor@@XZ @ 3647 NONAME ; class QColor QGraphicsTextItem::defaultTextColor(void) const
	?defaultTextOption@QTextDocument@@QBE?AVQTextOption@@XZ @ 3648 NONAME ; class QTextOption QTextDocument::defaultTextOption(void) const
	?defaultWidget@QWidgetAction@@QBEPAVQWidget@@XZ @ 3649 NONAME ; class QWidget * QWidgetAction::defaultWidget(void) const
	?defineIOHandler@QPictureIO@@SAXPBD00P6AXPAV1@@ZP6AX1@Z@Z @ 3650 NONAME ; void QPictureIO::defineIOHandler(char const *, char const *, char const *, void (*)(class QPictureIO *), void (*)(class QPictureIO *))
	?del@QLineControl@@QAEXXZ @ 3651 NONAME ; void QLineControl::del(void)
	?del@QLineEdit@@QAEXXZ @ 3652 NONAME ; void QLineEdit::del(void)
	?deleteChar@QTextCursor@@QAEXXZ @ 3653 NONAME ; void QTextCursor::deleteChar(void)
	?deleteExtra@QWidgetPrivate@@QAEXXZ @ 3654 NONAME ; void QWidgetPrivate::deleteExtra(void)
	?deletePreviousChar@QTextCursor@@QAEXXZ @ 3655 NONAME ; void QTextCursor::deletePreviousChar(void)
	?deleteSysExtra@QWidgetPrivate@@QAEXXZ @ 3656 NONAME ; void QWidgetPrivate::deleteSysExtra(void)
	?deleteTLSysExtra@QWidgetPrivate@@QAEXXZ @ 3657 NONAME ; void QWidgetPrivate::deleteTLSysExtra(void)
	?deleteWidget@QWidgetAction@@MAEXPAVQWidget@@@Z @ 3658 NONAME ; void QWidgetAction::deleteWidget(class QWidget *)
	?delta@QGraphicsSceneWheelEvent@@QBEHXZ @ 3659 NONAME ; int QGraphicsSceneWheelEvent::delta(void) const
	?delta@QPanGesture@@QBE?AVQPointF@@XZ @ 3660 NONAME ; class QPointF QPanGesture::delta(void) const
	?delta@QWheelEvent@@QBEHXZ @ 3661 NONAME ; int QWheelEvent::delta(void) const
	?depth@QColormap@@QBEHXZ @ 3662 NONAME ; int QColormap::depth(void) const
	?depth@QGraphicsItemPrivate@@QBEHXZ @ 3663 NONAME ; int QGraphicsItemPrivate::depth(void) const
	?depth@QImage@@QBEHXZ @ 3664 NONAME ; int QImage::depth(void) const
	?depth@QPaintDevice@@QBEHXZ @ 3665 NONAME ; int QPaintDevice::depth(void) const
	?depth@QPixmap@@QBEHXZ @ 3666 NONAME ; int QPixmap::depth(void) const
	?depth@QPixmapData@@QBEHXZ @ 3667 NONAME ; int QPixmapData::depth(void) const
	?deref@QPixmap@@AAEXXZ @ 3668 NONAME ; void QPixmap::deref(void)
	?derivedAt@QBezier@@QBE?AVQPointF@@M@Z @ 3669 NONAME ; class QPointF QBezier::derivedAt(float) const
	?descent@QFontMetrics@@QBEHXZ @ 3670 NONAME ; int QFontMetrics::descent(void) const
	?descent@QFontMetricsF@@QBEMXZ @ 3671 NONAME ; float QFontMetricsF::descent(void) const
	?descent@QTextInlineObject@@QBEMXZ @ 3672 NONAME ; float QTextInlineObject::descent(void) const
	?descent@QTextItem@@QBEMXZ @ 3673 NONAME ; float QTextItem::descent(void) const
	?descent@QTextLine@@QBEMXZ @ 3674 NONAME ; float QTextLine::descent(void) const
	?description@QCommandLinkButton@@QBE?AVQString@@XZ @ 3675 NONAME ; class QString QCommandLinkButton::description(void) const
	?description@QImageWriter@@QBE?AVQString@@XZ @ 3676 NONAME ; class QString QImageWriter::description(void) const
	?description@QInputContextFactory@@SA?AVQString@@ABV2@@Z @ 3677 NONAME ; class QString QInputContextFactory::description(class QString const &)
	?description@QPictureIO@@QBE?AVQString@@XZ @ 3678 NONAME ; class QString QPictureIO::description(void) const
	?deselect@QLineControl@@QAEXXZ @ 3679 NONAME ; void QLineControl::deselect(void)
	?deselect@QLineEdit@@QAEXXZ @ 3680 NONAME ; void QLineEdit::deselect(void)
	?desktop@QApplication@@SAPAVQDesktopWidget@@XZ @ 3681 NONAME ; class QDesktopWidget * QApplication::desktop(void)
	?desktopSettingsAware@QApplication@@SA_NXZ @ 3682 NONAME ; bool QApplication::desktopSettingsAware(void)
	?desktopStyleKey@QApplicationPrivate@@SA?AVQString@@XZ @ 3683 NONAME ; class QString QApplicationPrivate::desktopStyleKey(void)
	?destroy@QWidget@@IAEX_N0@Z @ 3684 NONAME ; void QWidget::destroy(bool, bool)
	?destroyItemGroup@QGraphicsScene@@QAEXPAVQGraphicsItemGroup@@@Z @ 3685 NONAME ; void QGraphicsScene::destroyItemGroup(class QGraphicsItemGroup *)
	?det@QMatrix@@QBEMXZ @ 3686 NONAME ; float QMatrix::det(void) const
	?det@QTransform@@QBEMXZ @ 3687 NONAME ; float QTransform::det(void) const
	?detach@QBrush@@AAEXW4BrushStyle@Qt@@@Z @ 3688 NONAME ; void QBrush::detach(enum Qt::BrushStyle)
	?detach@QFont@@AAEXXZ @ 3689 NONAME ; void QFont::detach(void)
	?detach@QIcon@@QAEXXZ @ 3690 NONAME ; void QIcon::detach(void)
	?detach@QImage@@QAEXXZ @ 3691 NONAME ; void QImage::detach(void)
	?detach@QPainterPath@@AAEXXZ @ 3692 NONAME ; void QPainterPath::detach(void)
	?detach@QPalette@@AAEXXZ @ 3693 NONAME ; void QPalette::detach(void)
	?detach@QPen@@AAEXXZ @ 3694 NONAME ; void QPen::detach(void)
	?detach@QPicture@@QAEXXZ @ 3695 NONAME ; void QPicture::detach(void)
	?detach@QPixmap@@QAEXXZ @ 3696 NONAME ; void QPixmap::detach(void)
	?detach@QRegion@@AAEXXZ @ 3697 NONAME ; void QRegion::detach(void)
	?detach_helper@QPainterPath@@AAEXXZ @ 3698 NONAME ; void QPainterPath::detach_helper(void)
	?detach_helper@QPicture@@AAEXXZ @ 3699 NONAME ; void QPicture::detach_helper(void)
	?detailedText@QMessageBox@@QBE?AVQString@@XZ @ 3700 NONAME ; class QString QMessageBox::detailedText(void) const
	?determinant@QMatrix4x4@@QBEMXZ @ 3701 NONAME ; float QMatrix4x4::determinant(void) const
	?determinant@QMatrix@@QBEMXZ @ 3702 NONAME ; float QMatrix::determinant(void) const
	?determinant@QTransform@@QBEMXZ @ 3703 NONAME ; float QTransform::determinant(void) const
	?devType@QImage@@UBEHXZ @ 3704 NONAME ; int QImage::devType(void) const
	?devType@QPaintBuffer@@UBEHXZ @ 3705 NONAME ; int QPaintBuffer::devType(void) const
	?devType@QPaintDevice@@UBEHXZ @ 3706 NONAME ; int QPaintDevice::devType(void) const
	?devType@QPicture@@UBEHXZ @ 3707 NONAME ; int QPicture::devType(void) const
	?devType@QPixmap@@UBEHXZ @ 3708 NONAME ; int QPixmap::devType(void) const
	?devType@QWidget@@UBEHXZ @ 3709 NONAME ; int QWidget::devType(void) const
	?device@QImageIOHandler@@QBEPAVQIODevice@@XZ @ 3710 NONAME ; class QIODevice * QImageIOHandler::device(void) const
	?device@QImageReader@@QBEPAVQIODevice@@XZ @ 3711 NONAME ; class QIODevice * QImageReader::device(void) const
	?device@QImageWriter@@QBEPAVQIODevice@@XZ @ 3712 NONAME ; class QIODevice * QImageWriter::device(void) const
	?device@QMovie@@QBEPAVQIODevice@@XZ @ 3713 NONAME ; class QIODevice * QMovie::device(void) const
	?device@QPainter@@QBEPAVQPaintDevice@@XZ @ 3714 NONAME ; class QPaintDevice * QPainter::device(void) const
	?device@QTabletEvent@@QBE?AW4TabletDevice@1@XZ @ 3715 NONAME ; enum QTabletEvent::TabletDevice QTabletEvent::device(void) const
	?device@QTextDocumentWriter@@QBEPAVQIODevice@@XZ @ 3716 NONAME ; class QIODevice * QTextDocumentWriter::device(void) const
	?deviceMatrix@QPainter@@QBEABVQMatrix@@XZ @ 3717 NONAME ; class QMatrix const & QPainter::deviceMatrix(void) const
	?deviceTransform@QGraphicsItem@@QBE?AVQTransform@@ABV2@@Z @ 3718 NONAME ; class QTransform QGraphicsItem::deviceTransform(class QTransform const &) const
	?deviceTransform@QPainter@@QBEABVQTransform@@XZ @ 3719 NONAME ; class QTransform const & QPainter::deviceTransform(void) const
	?deviceType@QTouchEvent@@QBE?AW4DeviceType@1@XZ @ 3720 NONAME ; enum QTouchEvent::DeviceType QTouchEvent::deviceType(void) const
	?digitCount@QLCDNumber@@QBEHXZ @ 3721 NONAME ; int QLCDNumber::digitCount(void) const
	?direction@QBoxLayout@@QBE?AW4Direction@1@XZ @ 3722 NONAME ; enum QBoxLayout::Direction QBoxLayout::direction(void) const
	?directory@QFileDialog@@QBE?AVQDir@@XZ @ 3723 NONAME ; class QDir QFileDialog::directory(void) const
	?directoryEntered@QFileDialog@@IAEXABVQString@@@Z @ 3724 NONAME ; void QFileDialog::directoryEntered(class QString const &)
	?dirtyRegionOffset@QAbstractItemView@@IBE?AVQPoint@@XZ @ 3725 NONAME ; class QPoint QAbstractItemView::dirtyRegionOffset(void) const
	?discardUpdateRequest@QGraphicsItemPrivate@@QBE_N_N000@Z @ 3726 NONAME ABSENT ; bool QGraphicsItemPrivate::discardUpdateRequest(bool, bool, bool, bool) const
	?disconnectFromModel@QProxyModel@@IBEXPBVQAbstractItemModel@@@Z @ 3727 NONAME ; void QProxyModel::disconnectFromModel(class QAbstractItemModel const *) const
	?dispatchEnterLeave@QApplicationPrivate@@SAXPAVQWidget@@0@Z @ 3728 NONAME ; void QApplicationPrivate::dispatchEnterLeave(class QWidget *, class QWidget *)
	?display@QLCDNumber@@QAEXABVQString@@@Z @ 3729 NONAME ; void QLCDNumber::display(class QString const &)
	?display@QLCDNumber@@QAEXH@Z @ 3730 NONAME ; void QLCDNumber::display(int)
	?display@QLCDNumber@@QAEXN@Z @ 3731 NONAME ; void QLCDNumber::display(double)
	?displayFormat@QDateTimeEdit@@QBE?AVQString@@XZ @ 3732 NONAME ; class QString QDateTimeEdit::displayFormat(void) const
	?displayName@QDesktopServices@@SA?AVQString@@W4StandardLocation@1@@Z @ 3733 NONAME ; class QString QDesktopServices::displayName(enum QDesktopServices::StandardLocation)
	?displayName@QInputContextFactory@@SA?AVQString@@ABV2@@Z @ 3734 NONAME ; class QString QInputContextFactory::displayName(class QString const &)
	?displayText@QLineControl@@QBE?AVQString@@XZ @ 3735 NONAME ; class QString QLineControl::displayText(void) const
	?displayText@QLineEdit@@QBE?AVQString@@XZ @ 3736 NONAME ; class QString QLineEdit::displayText(void) const
	?displayText@QStyledItemDelegate@@UBE?AVQString@@ABVQVariant@@ABVQLocale@@@Z @ 3737 NONAME ; class QString QStyledItemDelegate::displayText(class QVariant const &, class QLocale const &) const
	?displayTextChanged@QLineControl@@IAEXABVQString@@@Z @ 3738 NONAME ; void QLineControl::displayTextChanged(class QString const &)
	?displayedSections@QDateTimeEdit@@QBE?AV?$QFlags@W4Section@QDateTimeEdit@@@@XZ @ 3739 NONAME ; class QFlags<enum QDateTimeEdit::Section> QDateTimeEdit::displayedSections(void) const
	?distanceToLine@QVector3D@@QBEMABV1@0@Z @ 3740 NONAME ; float QVector3D::distanceToLine(class QVector3D const &, class QVector3D const &) const
	?distanceToPlane@QVector3D@@QBEMABV1@00@Z @ 3741 NONAME ; float QVector3D::distanceToPlane(class QVector3D const &, class QVector3D const &, class QVector3D const &) const
	?distanceToPlane@QVector3D@@QBEMABV1@0@Z @ 3742 NONAME ; float QVector3D::distanceToPlane(class QVector3D const &, class QVector3D const &) const
	?doAutoScroll@QAbstractItemView@@IAEXXZ @ 3743 NONAME ; void QAbstractItemView::doAutoScroll(void)
	?doImageIO@QImageData@@QBE_NPBVQImage@@PAVQImageWriter@@H@Z @ 3744 NONAME ; bool QImageData::doImageIO(class QImage const *, class QImageWriter *, int) const
	?doImageIO@QPixmap@@ABE_NPAVQImageWriter@@H@Z @ 3745 NONAME ; bool QPixmap::doImageIO(class QImageWriter *, int) const
	?doItemsLayout@QAbstractItemView@@UAEXXZ @ 3746 NONAME ; void QAbstractItemView::doItemsLayout(void)
	?doItemsLayout@QHeaderView@@UAEXXZ @ 3747 NONAME ; void QHeaderView::doItemsLayout(void)
	?doItemsLayout@QListView@@UAEXXZ @ 3748 NONAME ; void QListView::doItemsLayout(void)
	?doItemsLayout@QTreeView@@UAEXXZ @ 3749 NONAME ; void QTreeView::doItemsLayout(void)
	?doKerning@QFontEngine@@UBEXPAUQGlyphLayout@@V?$QFlags@W4ShaperFlag@QTextEngine@@@@@Z @ 3750 NONAME ; void QFontEngine::doKerning(struct QGlyphLayout *, class QFlags<enum QTextEngine::ShaperFlag>) const
	?doLayout@QItemDelegate@@IBEXABVQStyleOptionViewItem@@PAVQRect@@11_N@Z @ 3751 NONAME ; void QItemDelegate::doLayout(class QStyleOptionViewItem const &, class QRect *, class QRect *, class QRect *, bool) const
	?doMove@QWidgetResizeHandler@@QAEXXZ @ 3752 NONAME ; void QWidgetResizeHandler::doMove(void)
	?doResize@QLayoutPrivate@@QAEXABVQSize@@@Z @ 3753 NONAME ; void QLayoutPrivate::doResize(class QSize const &)
	?doResize@QWidgetResizeHandler@@QAEXXZ @ 3754 NONAME ; void QWidgetResizeHandler::doResize(void)
	?docHandle@QTextBlock@@QBEPAVQTextDocumentPrivate@@XZ @ 3755 NONAME ; class QTextDocumentPrivate * QTextBlock::docHandle(void) const
	?docHandle@QTextDocument@@QBEPAVQTextDocumentPrivate@@XZ @ 3756 NONAME ; class QTextDocumentPrivate * QTextDocument::docHandle(void) const
	?docHandle@QTextObject@@QBEPAVQTextDocumentPrivate@@XZ @ 3757 NONAME ; class QTextDocumentPrivate * QTextObject::docHandle(void) const
	?docLayout@QTextEngine@@QBEPAVQAbstractTextDocumentLayout@@XZ @ 3758 NONAME ; class QAbstractTextDocumentLayout * QTextEngine::docLayout(void) const
	?dockLocationChanged@QDockWidget@@IAEXW4DockWidgetArea@Qt@@@Z @ 3759 NONAME ; void QDockWidget::dockLocationChanged(enum Qt::DockWidgetArea)
	?dockOptions@QMainWindow@@QBE?AV?$QFlags@W4DockOption@QMainWindow@@@@XZ @ 3760 NONAME ; class QFlags<enum QMainWindow::DockOption> QMainWindow::dockOptions(void) const
	?dockWidgetArea@QMainWindow@@QBE?AW4DockWidgetArea@Qt@@PAVQDockWidget@@@Z @ 3761 NONAME ; enum Qt::DockWidgetArea QMainWindow::dockWidgetArea(class QDockWidget *) const
	?document@QAbstractTextDocumentLayout@@QBEPAVQTextDocument@@XZ @ 3762 NONAME ; class QTextDocument * QAbstractTextDocumentLayout::document(void) const
	?document@QGraphicsTextItem@@QBEPAVQTextDocument@@XZ @ 3763 NONAME ; class QTextDocument * QGraphicsTextItem::document(void) const
	?document@QPlainTextEdit@@QBEPAVQTextDocument@@XZ @ 3764 NONAME ; class QTextDocument * QPlainTextEdit::document(void) const
	?document@QSyntaxHighlighter@@QBEPAVQTextDocument@@XZ @ 3765 NONAME ; class QTextDocument * QSyntaxHighlighter::document(void) const
	?document@QTextBlock@@QBEPBVQTextDocument@@XZ @ 3766 NONAME ; class QTextDocument const * QTextBlock::document(void) const
	?document@QTextControl@@QBEPAVQTextDocument@@XZ @ 3767 NONAME ; class QTextDocument * QTextControl::document(void) const
	?document@QTextCursor@@QBEPAVQTextDocument@@XZ @ 3768 NONAME ; class QTextDocument * QTextCursor::document(void) const
	?document@QTextEdit@@QBEPAVQTextDocument@@XZ @ 3769 NONAME ; class QTextDocument * QTextEdit::document(void) const
	?document@QTextObject@@QBEPAVQTextDocument@@XZ @ 3770 NONAME ; class QTextDocument * QTextObject::document(void) const
	?documentChanged@QPlainTextDocumentLayout@@MAEXHHH@Z @ 3771 NONAME ; void QPlainTextDocumentLayout::documentChanged(int, int, int)
	?documentLayout@QTextDocument@@QBEPAVQAbstractTextDocumentLayout@@XZ @ 3772 NONAME ; class QAbstractTextDocumentLayout * QTextDocument::documentLayout(void) const
	?documentLayoutChanged@QTextDocument@@IAEXXZ @ 3773 NONAME ; void QTextDocument::documentLayoutChanged(void)
	?documentMargin@QTextDocument@@QBEMXZ @ 3774 NONAME ; float QTextDocument::documentMargin(void) const
	?documentMode@QMainWindow@@QBE_NXZ @ 3775 NONAME ; bool QMainWindow::documentMode(void) const
	?documentMode@QMdiArea@@QBE_NXZ @ 3776 NONAME ; bool QMdiArea::documentMode(void) const
	?documentMode@QTabBar@@QBE_NXZ @ 3777 NONAME ; bool QTabBar::documentMode(void) const
	?documentMode@QTabWidget@@QBE_NXZ @ 3778 NONAME ; bool QTabWidget::documentMode(void) const
	?documentSize@QPlainTextDocumentLayout@@UBE?AVQSizeF@@XZ @ 3779 NONAME ; class QSizeF QPlainTextDocumentLayout::documentSize(void) const
	?documentSizeChanged@QAbstractTextDocumentLayout@@IAEXABVQSizeF@@@Z @ 3780 NONAME ; void QAbstractTextDocumentLayout::documentSizeChanged(class QSizeF const &)
	?documentSizeChanged@QTextControl@@IAEXABVQSizeF@@@Z @ 3781 NONAME ; void QTextControl::documentSizeChanged(class QSizeF const &)
	?documentTitle@QPlainTextEdit@@QBE?AVQString@@XZ @ 3782 NONAME ; class QString QPlainTextEdit::documentTitle(void) const
	?documentTitle@QTextEdit@@QBE?AVQString@@XZ @ 3783 NONAME ; class QString QTextEdit::documentTitle(void) const
	?done@QColorDialog@@MAEXH@Z @ 3784 NONAME ; void QColorDialog::done(int)
	?done@QDialog@@UAEXH@Z @ 3785 NONAME ; void QDialog::done(int)
	?done@QErrorMessage@@MAEXH@Z @ 3786 NONAME ; void QErrorMessage::done(int)
	?done@QFileDialog@@MAEXH@Z @ 3787 NONAME ; void QFileDialog::done(int)
	?done@QFontDialog@@MAEXH@Z @ 3788 NONAME ; void QFontDialog::done(int)
	?done@QInputDialog@@UAEXH@Z @ 3789 NONAME ; void QInputDialog::done(int)
	?done@QWizard@@MAEXH@Z @ 3790 NONAME ; void QWizard::done(int)
	?dotProduct@QVector2D@@SAMABV1@0@Z @ 3791 NONAME ; float QVector2D::dotProduct(class QVector2D const &, class QVector2D const &)
	?dotProduct@QVector3D@@SAMABV1@0@Z @ 3792 NONAME ; float QVector3D::dotProduct(class QVector3D const &, class QVector3D const &)
	?dotProduct@QVector4D@@SAMABV1@0@Z @ 3793 NONAME ; float QVector4D::dotProduct(class QVector4D const &, class QVector4D const &)
	?dotsPerMeterX@QImage@@QBEHXZ @ 3794 NONAME ; int QImage::dotsPerMeterX(void) const
	?dotsPerMeterY@QImage@@QBEHXZ @ 3795 NONAME ; int QImage::dotsPerMeterY(void) const
	?doubleClickInterval@QApplication@@SAHXZ @ 3796 NONAME ; int QApplication::doubleClickInterval(void)
	?doubleClicked@QAbstractItemView@@IAEXABVQModelIndex@@@Z @ 3797 NONAME ; void QAbstractItemView::doubleClicked(class QModelIndex const &)
	?doubleDecimals@QInputDialog@@QBEHXZ @ 3798 NONAME ; int QInputDialog::doubleDecimals(void) const
	?doubleMaximum@QInputDialog@@QBENXZ @ 3799 NONAME ; double QInputDialog::doubleMaximum(void) const
	?doubleMinimum@QInputDialog@@QBENXZ @ 3800 NONAME ; double QInputDialog::doubleMinimum(void) const
	?doubleProperty@QTextFormat@@QBEMH@Z @ 3801 NONAME ; float QTextFormat::doubleProperty(int) const
	?doubleValue@QInputDialog@@QBENXZ @ 3802 NONAME ; double QInputDialog::doubleValue(void) const
	?doubleValueChanged@QInputDialog@@IAEXN@Z @ 3803 NONAME ; void QInputDialog::doubleValueChanged(double)
	?doubleValueSelected@QInputDialog@@IAEXN@Z @ 3804 NONAME ; void QInputDialog::doubleValueSelected(double)
	?dragAccepted@QDragResponseEvent@@QBE_NXZ @ 3805 NONAME ; bool QDragResponseEvent::dragAccepted(void) const
	?dragDropMode@QAbstractItemView@@QBE?AW4DragDropMode@1@XZ @ 3806 NONAME ; enum QAbstractItemView::DragDropMode QAbstractItemView::dragDropMode(void) const
	?dragDropOverwriteMode@QAbstractItemView@@QBE_NXZ @ 3807 NONAME ; bool QAbstractItemView::dragDropOverwriteMode(void) const
	?dragEnabled@QAbstractItemView@@QBE_NXZ @ 3808 NONAME ; bool QAbstractItemView::dragEnabled(void) const
	?dragEnabled@QLineEdit@@QBE_NXZ @ 3809 NONAME ; bool QLineEdit::dragEnabled(void) const
	?dragEnterEvent@QAbstractItemView@@MAEXPAVQDragEnterEvent@@@Z @ 3810 NONAME ; void QAbstractItemView::dragEnterEvent(class QDragEnterEvent *)
	?dragEnterEvent@QAbstractScrollArea@@MAEXPAVQDragEnterEvent@@@Z @ 3811 NONAME ; void QAbstractScrollArea::dragEnterEvent(class QDragEnterEvent *)
	?dragEnterEvent@QGraphicsItem@@MAEXPAVQGraphicsSceneDragDropEvent@@@Z @ 3812 NONAME ; void QGraphicsItem::dragEnterEvent(class QGraphicsSceneDragDropEvent *)
	?dragEnterEvent@QGraphicsProxyWidget@@MAEXPAVQGraphicsSceneDragDropEvent@@@Z @ 3813 NONAME ; void QGraphicsProxyWidget::dragEnterEvent(class QGraphicsSceneDragDropEvent *)
	?dragEnterEvent@QGraphicsScene@@MAEXPAVQGraphicsSceneDragDropEvent@@@Z @ 3814 NONAME ; void QGraphicsScene::dragEnterEvent(class QGraphicsSceneDragDropEvent *)
	?dragEnterEvent@QGraphicsTextItem@@MAEXPAVQGraphicsSceneDragDropEvent@@@Z @ 3815 NONAME ; void QGraphicsTextItem::dragEnterEvent(class QGraphicsSceneDragDropEvent *)
	?dragEnterEvent@QGraphicsView@@MAEXPAVQDragEnterEvent@@@Z @ 3816 NONAME ; void QGraphicsView::dragEnterEvent(class QDragEnterEvent *)
	?dragEnterEvent@QLineEdit@@MAEXPAVQDragEnterEvent@@@Z @ 3817 NONAME ; void QLineEdit::dragEnterEvent(class QDragEnterEvent *)
	?dragEnterEvent@QPlainTextEdit@@MAEXPAVQDragEnterEvent@@@Z @ 3818 NONAME ; void QPlainTextEdit::dragEnterEvent(class QDragEnterEvent *)
	?dragEnterEvent@QTextEdit@@MAEXPAVQDragEnterEvent@@@Z @ 3819 NONAME ; void QTextEdit::dragEnterEvent(class QDragEnterEvent *)
	?dragEnterEvent@QWidget@@MAEXPAVQDragEnterEvent@@@Z @ 3820 NONAME ; void QWidget::dragEnterEvent(class QDragEnterEvent *)
	?dragLeaveEvent@QAbstractItemView@@MAEXPAVQDragLeaveEvent@@@Z @ 3821 NONAME ; void QAbstractItemView::dragLeaveEvent(class QDragLeaveEvent *)
	?dragLeaveEvent@QAbstractScrollArea@@MAEXPAVQDragLeaveEvent@@@Z @ 3822 NONAME ; void QAbstractScrollArea::dragLeaveEvent(class QDragLeaveEvent *)
	?dragLeaveEvent@QGraphicsItem@@MAEXPAVQGraphicsSceneDragDropEvent@@@Z @ 3823 NONAME ; void QGraphicsItem::dragLeaveEvent(class QGraphicsSceneDragDropEvent *)
	?dragLeaveEvent@QGraphicsProxyWidget@@MAEXPAVQGraphicsSceneDragDropEvent@@@Z @ 3824 NONAME ; void QGraphicsProxyWidget::dragLeaveEvent(class QGraphicsSceneDragDropEvent *)
	?dragLeaveEvent@QGraphicsScene@@MAEXPAVQGraphicsSceneDragDropEvent@@@Z @ 3825 NONAME ; void QGraphicsScene::dragLeaveEvent(class QGraphicsSceneDragDropEvent *)
	?dragLeaveEvent@QGraphicsTextItem@@MAEXPAVQGraphicsSceneDragDropEvent@@@Z @ 3826 NONAME ; void QGraphicsTextItem::dragLeaveEvent(class QGraphicsSceneDragDropEvent *)
	?dragLeaveEvent@QGraphicsView@@MAEXPAVQDragLeaveEvent@@@Z @ 3827 NONAME ; void QGraphicsView::dragLeaveEvent(class QDragLeaveEvent *)
	?dragLeaveEvent@QLineEdit@@MAEXPAVQDragLeaveEvent@@@Z @ 3828 NONAME ; void QLineEdit::dragLeaveEvent(class QDragLeaveEvent *)
	?dragLeaveEvent@QListView@@MAEXPAVQDragLeaveEvent@@@Z @ 3829 NONAME ; void QListView::dragLeaveEvent(class QDragLeaveEvent *)
	?dragLeaveEvent@QPlainTextEdit@@MAEXPAVQDragLeaveEvent@@@Z @ 3830 NONAME ; void QPlainTextEdit::dragLeaveEvent(class QDragLeaveEvent *)
	?dragLeaveEvent@QTextEdit@@MAEXPAVQDragLeaveEvent@@@Z @ 3831 NONAME ; void QTextEdit::dragLeaveEvent(class QDragLeaveEvent *)
	?dragLeaveEvent@QWidget@@MAEXPAVQDragLeaveEvent@@@Z @ 3832 NONAME ; void QWidget::dragLeaveEvent(class QDragLeaveEvent *)
	?dragMode@QGraphicsView@@QBE?AW4DragMode@1@XZ @ 3833 NONAME ; enum QGraphicsView::DragMode QGraphicsView::dragMode(void) const
	?dragMoveEvent@QAbstractItemView@@MAEXPAVQDragMoveEvent@@@Z @ 3834 NONAME ; void QAbstractItemView::dragMoveEvent(class QDragMoveEvent *)
	?dragMoveEvent@QAbstractScrollArea@@MAEXPAVQDragMoveEvent@@@Z @ 3835 NONAME ; void QAbstractScrollArea::dragMoveEvent(class QDragMoveEvent *)
	?dragMoveEvent@QGraphicsItem@@MAEXPAVQGraphicsSceneDragDropEvent@@@Z @ 3836 NONAME ; void QGraphicsItem::dragMoveEvent(class QGraphicsSceneDragDropEvent *)
	?dragMoveEvent@QGraphicsProxyWidget@@MAEXPAVQGraphicsSceneDragDropEvent@@@Z @ 3837 NONAME ; void QGraphicsProxyWidget::dragMoveEvent(class QGraphicsSceneDragDropEvent *)
	?dragMoveEvent@QGraphicsScene@@MAEXPAVQGraphicsSceneDragDropEvent@@@Z @ 3838 NONAME ; void QGraphicsScene::dragMoveEvent(class QGraphicsSceneDragDropEvent *)
	?dragMoveEvent@QGraphicsTextItem@@MAEXPAVQGraphicsSceneDragDropEvent@@@Z @ 3839 NONAME ; void QGraphicsTextItem::dragMoveEvent(class QGraphicsSceneDragDropEvent *)
	?dragMoveEvent@QGraphicsView@@MAEXPAVQDragMoveEvent@@@Z @ 3840 NONAME ; void QGraphicsView::dragMoveEvent(class QDragMoveEvent *)
	?dragMoveEvent@QLineEdit@@MAEXPAVQDragMoveEvent@@@Z @ 3841 NONAME ; void QLineEdit::dragMoveEvent(class QDragMoveEvent *)
	?dragMoveEvent@QListView@@MAEXPAVQDragMoveEvent@@@Z @ 3842 NONAME ; void QListView::dragMoveEvent(class QDragMoveEvent *)
	?dragMoveEvent@QPlainTextEdit@@MAEXPAVQDragMoveEvent@@@Z @ 3843 NONAME ; void QPlainTextEdit::dragMoveEvent(class QDragMoveEvent *)
	?dragMoveEvent@QTextEdit@@MAEXPAVQDragMoveEvent@@@Z @ 3844 NONAME ; void QTextEdit::dragMoveEvent(class QDragMoveEvent *)
	?dragMoveEvent@QTreeView@@MAEXPAVQDragMoveEvent@@@Z @ 3845 NONAME ; void QTreeView::dragMoveEvent(class QDragMoveEvent *)
	?dragMoveEvent@QWidget@@MAEXPAVQDragMoveEvent@@@Z @ 3846 NONAME ; void QWidget::dragMoveEvent(class QDragMoveEvent *)
	?draw@QGraphicsBlurEffect@@MAEXPAVQPainter@@@Z @ 3847 NONAME ; void QGraphicsBlurEffect::draw(class QPainter *)
	?draw@QGraphicsColorizeEffect@@MAEXPAVQPainter@@@Z @ 3848 NONAME ; void QGraphicsColorizeEffect::draw(class QPainter *)
	?draw@QGraphicsDropShadowEffect@@MAEXPAVQPainter@@@Z @ 3849 NONAME ; void QGraphicsDropShadowEffect::draw(class QPainter *)
	?draw@QGraphicsEffectSource@@QAEXPAVQPainter@@@Z @ 3850 NONAME ; void QGraphicsEffectSource::draw(class QPainter *)
	?draw@QGraphicsOpacityEffect@@MAEXPAVQPainter@@@Z @ 3851 NONAME ; void QGraphicsOpacityEffect::draw(class QPainter *)
	?draw@QLineControl@@QAEXPAVQPainter@@ABVQPoint@@ABVQRect@@H@Z @ 3852 NONAME ; void QLineControl::draw(class QPainter *, class QPoint const &, class QRect const &, int)
	?draw@QPaintBuffer@@QBEXPAVQPainter@@H@Z @ 3853 NONAME ; void QPaintBuffer::draw(class QPainter *, int) const
	?draw@QPaintEngineEx@@UAEXABVQVectorPath@@@Z @ 3854 NONAME ; void QPaintEngineEx::draw(class QVectorPath const &)
	?draw@QPainterReplayer@@QAEXABVQPaintBuffer@@PAVQPainter@@H@Z @ 3855 NONAME ABSENT ; void QPainterReplayer::draw(class QPaintBuffer const &, class QPainter *, int)
	?draw@QPixmapBlurFilter@@UBEXPAVQPainter@@ABVQPointF@@ABVQPixmap@@ABVQRectF@@@Z @ 3856 NONAME ; void QPixmapBlurFilter::draw(class QPainter *, class QPointF const &, class QPixmap const &, class QRectF const &) const
	?draw@QPixmapColorizeFilter@@UBEXPAVQPainter@@ABVQPointF@@ABVQPixmap@@ABVQRectF@@@Z @ 3857 NONAME ; void QPixmapColorizeFilter::draw(class QPainter *, class QPointF const &, class QPixmap const &, class QRectF const &) const
	?draw@QPixmapConvolutionFilter@@UBEXPAVQPainter@@ABVQPointF@@ABVQPixmap@@ABVQRectF@@@Z @ 3858 NONAME ; void QPixmapConvolutionFilter::draw(class QPainter *, class QPointF const &, class QPixmap const &, class QRectF const &) const
	?draw@QPixmapDropShadowFilter@@UBEXPAVQPainter@@ABVQPointF@@ABVQPixmap@@ABVQRectF@@@Z @ 3859 NONAME ; void QPixmapDropShadowFilter::draw(class QPainter *, class QPointF const &, class QPixmap const &, class QRectF const &) const
	?draw@QPlainTextDocumentLayout@@UAEXPAVQPainter@@ABUPaintContext@QAbstractTextDocumentLayout@@@Z @ 3860 NONAME ; void QPlainTextDocumentLayout::draw(class QPainter *, struct QAbstractTextDocumentLayout::PaintContext const &)
	?draw@QTextLayout@@QBEXPAVQPainter@@ABVQPointF@@ABV?$QVector@UFormatRange@QTextLayout@@@@ABVQRectF@@@Z @ 3861 NONAME ; void QTextLayout::draw(class QPainter *, class QPointF const &, class QVector<struct QTextLayout::FormatRange> const &, class QRectF const &) const
	?draw@QTextLine@@QBEXPAVQPainter@@ABVQPointF@@PBUFormatRange@QTextLayout@@@Z @ 3862 NONAME ; void QTextLine::draw(class QPainter *, class QPointF const &, struct QTextLayout::FormatRange const *) const
	?drawArc@QPainter@@QAEXABVQRect@@HH@Z @ 3863 NONAME ; void QPainter::drawArc(class QRect const &, int, int)
	?drawArc@QPainter@@QAEXABVQRectF@@HH@Z @ 3864 NONAME ; void QPainter::drawArc(class QRectF const &, int, int)
	?drawArc@QPainter@@QAEXHHHHHH@Z @ 3865 NONAME ; void QPainter::drawArc(int, int, int, int, int, int)
	?drawBackground@QGraphicsScene@@MAEXPAVQPainter@@ABVQRectF@@@Z @ 3866 NONAME ; void QGraphicsScene::drawBackground(class QPainter *, class QRectF const &)
	?drawBackground@QGraphicsView@@MAEXPAVQPainter@@ABVQRectF@@@Z @ 3867 NONAME ; void QGraphicsView::drawBackground(class QPainter *, class QRectF const &)
	?drawBackground@QItemDelegate@@IBEXPAVQPainter@@ABVQStyleOptionViewItem@@ABVQModelIndex@@@Z @ 3868 NONAME ; void QItemDelegate::drawBackground(class QPainter *, class QStyleOptionViewItem const &, class QModelIndex const &) const
	?drawBase@QTabBar@@QBE_NXZ @ 3869 NONAME ; bool QTabBar::drawBase(void) const
	?drawBranches@QTreeView@@MBEXPAVQPainter@@ABVQRect@@ABVQModelIndex@@@Z @ 3870 NONAME ; void QTreeView::drawBranches(class QPainter *, class QRect const &, class QModelIndex const &) const
	?drawCheck@QItemDelegate@@MBEXPAVQPainter@@ABVQStyleOptionViewItem@@ABVQRect@@W4CheckState@Qt@@@Z @ 3871 NONAME ; void QItemDelegate::drawCheck(class QPainter *, class QStyleOptionViewItem const &, class QRect const &, enum Qt::CheckState) const
	?drawChord@QPainter@@QAEXABVQRect@@HH@Z @ 3872 NONAME ; void QPainter::drawChord(class QRect const &, int, int)
	?drawChord@QPainter@@QAEXABVQRectF@@HH@Z @ 3873 NONAME ; void QPainter::drawChord(class QRectF const &, int, int)
	?drawChord@QPainter@@QAEXHHHHHH@Z @ 3874 NONAME ; void QPainter::drawChord(int, int, int, int, int, int)
	?drawComplexControl@QCommonStyle@@UBEXW4ComplexControl@QStyle@@PBVQStyleOptionComplex@@PAVQPainter@@PBVQWidget@@@Z @ 3875 NONAME ; void QCommonStyle::drawComplexControl(enum QStyle::ComplexControl, class QStyleOptionComplex const *, class QPainter *, class QWidget const *) const
	?drawComplexControl@QProxyStyle@@UBEXW4ComplexControl@QStyle@@PBVQStyleOptionComplex@@PAVQPainter@@PBVQWidget@@@Z @ 3876 NONAME ; void QProxyStyle::drawComplexControl(enum QStyle::ComplexControl, class QStyleOptionComplex const *, class QPainter *, class QWidget const *) const
	?drawComplexControl@QS60Style@@UBEXW4ComplexControl@QStyle@@PBVQStyleOptionComplex@@PAVQPainter@@PBVQWidget@@@Z @ 3877 NONAME ; void QS60Style::drawComplexControl(enum QStyle::ComplexControl, class QStyleOptionComplex const *, class QPainter *, class QWidget const *) const
	?drawComplexControl@QWindowsStyle@@UBEXW4ComplexControl@QStyle@@PBVQStyleOptionComplex@@PAVQPainter@@PBVQWidget@@@Z @ 3878 NONAME ; void QWindowsStyle::drawComplexControl(enum QStyle::ComplexControl, class QStyleOptionComplex const *, class QPainter *, class QWidget const *) const
	?drawContents@QSplashScreen@@MAEXPAVQPainter@@@Z @ 3879 NONAME ; void QSplashScreen::drawContents(class QPainter *)
	?drawContents@QTextControl@@QAEXPAVQPainter@@ABVQRectF@@PAVQWidget@@@Z @ 3880 NONAME ; void QTextControl::drawContents(class QPainter *, class QRectF const &, class QWidget *)
	?drawContents@QTextDocument@@QAEXPAVQPainter@@ABVQRectF@@@Z @ 3881 NONAME ; void QTextDocument::drawContents(class QPainter *, class QRectF const &)
	?drawControl@QCommonStyle@@UBEXW4ControlElement@QStyle@@PBVQStyleOption@@PAVQPainter@@PBVQWidget@@@Z @ 3882 NONAME ; void QCommonStyle::drawControl(enum QStyle::ControlElement, class QStyleOption const *, class QPainter *, class QWidget const *) const
	?drawControl@QProxyStyle@@UBEXW4ControlElement@QStyle@@PBVQStyleOption@@PAVQPainter@@PBVQWidget@@@Z @ 3883 NONAME ; void QProxyStyle::drawControl(enum QStyle::ControlElement, class QStyleOption const *, class QPainter *, class QWidget const *) const
	?drawControl@QS60Style@@UBEXW4ControlElement@QStyle@@PBVQStyleOption@@PAVQPainter@@PBVQWidget@@@Z @ 3884 NONAME ; void QS60Style::drawControl(enum QStyle::ControlElement, class QStyleOption const *, class QPainter *, class QWidget const *) const
	?drawControl@QWindowsStyle@@UBEXW4ControlElement@QStyle@@PBVQStyleOption@@PAVQPainter@@PBVQWidget@@@Z @ 3885 NONAME ; void QWindowsStyle::drawControl(enum QStyle::ControlElement, class QStyleOption const *, class QPainter *, class QWidget const *) const
	?drawConvexPolygon@QPainter@@QAEXABVQPolygon@@@Z @ 3886 NONAME ; void QPainter::drawConvexPolygon(class QPolygon const &)
	?drawConvexPolygon@QPainter@@QAEXABVQPolygonF@@@Z @ 3887 NONAME ; void QPainter::drawConvexPolygon(class QPolygonF const &)
	?drawConvexPolygon@QPainter@@QAEXPBVQPoint@@H@Z @ 3888 NONAME ; void QPainter::drawConvexPolygon(class QPoint const *, int)
	?drawConvexPolygon@QPainter@@QAEXPBVQPointF@@H@Z @ 3889 NONAME ; void QPainter::drawConvexPolygon(class QPointF const *, int)
	?drawCursor@QTextLayout@@QBEXPAVQPainter@@ABVQPointF@@H@Z @ 3890 NONAME ; void QTextLayout::drawCursor(class QPainter *, class QPointF const &, int) const
	?drawCursor@QTextLayout@@QBEXPAVQPainter@@ABVQPointF@@HH@Z @ 3891 NONAME ; void QTextLayout::drawCursor(class QPainter *, class QPointF const &, int, int) const
	?drawDecoration@QItemDelegate@@MBEXPAVQPainter@@ABVQStyleOptionViewItem@@ABVQRect@@ABVQPixmap@@@Z @ 3892 NONAME ; void QItemDelegate::drawDecoration(class QPainter *, class QStyleOptionViewItem const &, class QRect const &, class QPixmap const &) const
	?drawDisplay@QItemDelegate@@MBEXPAVQPainter@@ABVQStyleOptionViewItem@@ABVQRect@@ABVQString@@@Z @ 3893 NONAME ; void QItemDelegate::drawDisplay(class QPainter *, class QStyleOptionViewItem const &, class QRect const &, class QString const &) const
	?drawEllipse@QPaintEngine@@UAEXABVQRect@@@Z @ 3894 NONAME ; void QPaintEngine::drawEllipse(class QRect const &)
	?drawEllipse@QPaintEngine@@UAEXABVQRectF@@@Z @ 3895 NONAME ; void QPaintEngine::drawEllipse(class QRectF const &)
	?drawEllipse@QPaintEngineEx@@UAEXABVQRect@@@Z @ 3896 NONAME ; void QPaintEngineEx::drawEllipse(class QRect const &)
	?drawEllipse@QPaintEngineEx@@UAEXABVQRectF@@@Z @ 3897 NONAME ; void QPaintEngineEx::drawEllipse(class QRectF const &)
	?drawEllipse@QPainter@@QAEXABVQPoint@@HH@Z @ 3898 NONAME ; void QPainter::drawEllipse(class QPoint const &, int, int)
	?drawEllipse@QPainter@@QAEXABVQPointF@@MM@Z @ 3899 NONAME ; void QPainter::drawEllipse(class QPointF const &, float, float)
	?drawEllipse@QPainter@@QAEXABVQRect@@@Z @ 3900 NONAME ; void QPainter::drawEllipse(class QRect const &)
	?drawEllipse@QPainter@@QAEXABVQRectF@@@Z @ 3901 NONAME ; void QPainter::drawEllipse(class QRectF const &)
	?drawEllipse@QPainter@@QAEXHHHH@Z @ 3902 NONAME ; void QPainter::drawEllipse(int, int, int, int)
	?drawFocus@QItemDelegate@@MBEXPAVQPainter@@ABVQStyleOptionViewItem@@ABVQRect@@@Z @ 3903 NONAME ; void QItemDelegate::drawFocus(class QPainter *, class QStyleOptionViewItem const &, class QRect const &) const
	?drawForeground@QGraphicsScene@@MAEXPAVQPainter@@ABVQRectF@@@Z @ 3904 NONAME ; void QGraphicsScene::drawForeground(class QPainter *, class QRectF const &)
	?drawForeground@QGraphicsView@@MAEXPAVQPainter@@ABVQRectF@@@Z @ 3905 NONAME ; void QGraphicsView::drawForeground(class QPainter *, class QRectF const &)
	?drawFrame@QFrame@@IAEXPAVQPainter@@@Z @ 3906 NONAME ; void QFrame::drawFrame(class QPainter *)
	?drawImage@QPaintEngine@@UAEXABVQRectF@@ABVQImage@@0V?$QFlags@W4ImageConversionFlag@Qt@@@@@Z @ 3907 NONAME ; void QPaintEngine::drawImage(class QRectF const &, class QImage const &, class QRectF const &, class QFlags<enum Qt::ImageConversionFlag>)
	?drawImage@QPaintEngineEx@@UAEXABVQPointF@@ABVQImage@@@Z @ 3908 NONAME ; void QPaintEngineEx::drawImage(class QPointF const &, class QImage const &)
	?drawImage@QPainter@@QAEXABVQPoint@@ABVQImage@@@Z @ 3909 NONAME ; void QPainter::drawImage(class QPoint const &, class QImage const &)
	?drawImage@QPainter@@QAEXABVQPoint@@ABVQImage@@ABVQRect@@V?$QFlags@W4ImageConversionFlag@Qt@@@@@Z @ 3910 NONAME ; void QPainter::drawImage(class QPoint const &, class QImage const &, class QRect const &, class QFlags<enum Qt::ImageConversionFlag>)
	?drawImage@QPainter@@QAEXABVQPointF@@ABVQImage@@@Z @ 3911 NONAME ; void QPainter::drawImage(class QPointF const &, class QImage const &)
	?drawImage@QPainter@@QAEXABVQPointF@@ABVQImage@@ABVQRectF@@V?$QFlags@W4ImageConversionFlag@Qt@@@@@Z @ 3912 NONAME ; void QPainter::drawImage(class QPointF const &, class QImage const &, class QRectF const &, class QFlags<enum Qt::ImageConversionFlag>)
	?drawImage@QPainter@@QAEXABVQRect@@ABVQImage@@0V?$QFlags@W4ImageConversionFlag@Qt@@@@@Z @ 3913 NONAME ; void QPainter::drawImage(class QRect const &, class QImage const &, class QRect const &, class QFlags<enum Qt::ImageConversionFlag>)
	?drawImage@QPainter@@QAEXABVQRect@@ABVQImage@@@Z @ 3914 NONAME ; void QPainter::drawImage(class QRect const &, class QImage const &)
	?drawImage@QPainter@@QAEXABVQRectF@@ABVQImage@@0V?$QFlags@W4ImageConversionFlag@Qt@@@@@Z @ 3915 NONAME ; void QPainter::drawImage(class QRectF const &, class QImage const &, class QRectF const &, class QFlags<enum Qt::ImageConversionFlag>)
	?drawImage@QPainter@@QAEXABVQRectF@@ABVQImage@@@Z @ 3916 NONAME ; void QPainter::drawImage(class QRectF const &, class QImage const &)
	?drawImage@QPainter@@QAEXHHABVQImage@@HHHHV?$QFlags@W4ImageConversionFlag@Qt@@@@@Z @ 3917 NONAME ; void QPainter::drawImage(int, int, class QImage const &, int, int, int, int, class QFlags<enum Qt::ImageConversionFlag>)
	?drawInlineObject@QAbstractTextDocumentLayout@@MAEXPAVQPainter@@ABVQRectF@@VQTextInlineObject@@HABVQTextFormat@@@Z @ 3918 NONAME ; void QAbstractTextDocumentLayout::drawInlineObject(class QPainter *, class QRectF const &, class QTextInlineObject, int, class QTextFormat const &)
	?drawItemPixmap@QProxyStyle@@UBEXPAVQPainter@@ABVQRect@@HABVQPixmap@@@Z @ 3919 NONAME ; void QProxyStyle::drawItemPixmap(class QPainter *, class QRect const &, int, class QPixmap const &) const
	?drawItemPixmap@QStyle@@UBEXPAVQPainter@@ABVQRect@@HABVQPixmap@@@Z @ 3920 NONAME ; void QStyle::drawItemPixmap(class QPainter *, class QRect const &, int, class QPixmap const &) const
	?drawItemText@QProxyStyle@@UBEXPAVQPainter@@ABVQRect@@HABVQPalette@@_NABVQString@@W4ColorRole@4@@Z @ 3921 NONAME ; void QProxyStyle::drawItemText(class QPainter *, class QRect const &, int, class QPalette const &, bool, class QString const &, enum QPalette::ColorRole) const
	?drawItemText@QStyle@@UBEXPAVQPainter@@ABVQRect@@HABVQPalette@@_NABVQString@@W4ColorRole@4@@Z @ 3922 NONAME ; void QStyle::drawItemText(class QPainter *, class QRect const &, int, class QPalette const &, bool, class QString const &, enum QPalette::ColorRole) const
	?drawItems@QGraphicsScene@@MAEXPAVQPainter@@HQAPAVQGraphicsItem@@QBVQStyleOptionGraphicsItem@@PAVQWidget@@@Z @ 3923 NONAME ; void QGraphicsScene::drawItems(class QPainter *, int, class QGraphicsItem * * const, class QStyleOptionGraphicsItem const * const, class QWidget *)
	?drawItems@QGraphicsView@@MAEXPAVQPainter@@HQAPAVQGraphicsItem@@QBVQStyleOptionGraphicsItem@@@Z @ 3924 NONAME ; void QGraphicsView::drawItems(class QPainter *, int, class QGraphicsItem * * const, class QStyleOptionGraphicsItem const * const)
	?drawLine@QPainter@@QAEXABVQLine@@@Z @ 3925 NONAME ; void QPainter::drawLine(class QLine const &)
	?drawLine@QPainter@@QAEXABVQLineF@@@Z @ 3926 NONAME ; void QPainter::drawLine(class QLineF const &)
	?drawLine@QPainter@@QAEXABVQPoint@@0@Z @ 3927 NONAME ; void QPainter::drawLine(class QPoint const &, class QPoint const &)
	?drawLine@QPainter@@QAEXABVQPointF@@0@Z @ 3928 NONAME ; void QPainter::drawLine(class QPointF const &, class QPointF const &)
	?drawLine@QPainter@@QAEXHHHH@Z @ 3929 NONAME ; void QPainter::drawLine(int, int, int, int)
	?drawLines@QPaintEngine@@UAEXPBVQLine@@H@Z @ 3930 NONAME ; void QPaintEngine::drawLines(class QLine const *, int)
	?drawLines@QPaintEngine@@UAEXPBVQLineF@@H@Z @ 3931 NONAME ; void QPaintEngine::drawLines(class QLineF const *, int)
	?drawLines@QPaintEngineEx@@UAEXPBVQLine@@H@Z @ 3932 NONAME ; void QPaintEngineEx::drawLines(class QLine const *, int)
	?drawLines@QPaintEngineEx@@UAEXPBVQLineF@@H@Z @ 3933 NONAME ; void QPaintEngineEx::drawLines(class QLineF const *, int)
	?drawLines@QPainter@@QAEXABV?$QVector@VQLine@@@@@Z @ 3934 NONAME ; void QPainter::drawLines(class QVector<class QLine> const &)
	?drawLines@QPainter@@QAEXABV?$QVector@VQLineF@@@@@Z @ 3935 NONAME ; void QPainter::drawLines(class QVector<class QLineF> const &)
	?drawLines@QPainter@@QAEXABV?$QVector@VQPoint@@@@@Z @ 3936 NONAME ; void QPainter::drawLines(class QVector<class QPoint> const &)
	?drawLines@QPainter@@QAEXABV?$QVector@VQPointF@@@@@Z @ 3937 NONAME ; void QPainter::drawLines(class QVector<class QPointF> const &)
	?drawLines@QPainter@@QAEXPBVQLine@@H@Z @ 3938 NONAME ; void QPainter::drawLines(class QLine const *, int)
	?drawLines@QPainter@@QAEXPBVQLineF@@H@Z @ 3939 NONAME ; void QPainter::drawLines(class QLineF const *, int)
	?drawLines@QPainter@@QAEXPBVQPoint@@H@Z @ 3940 NONAME ; void QPainter::drawLines(class QPoint const *, int)
	?drawLines@QPainter@@QAEXPBVQPointF@@H@Z @ 3941 NONAME ; void QPainter::drawLines(class QPointF const *, int)
	?drawPath@QPaintEngine@@UAEXABVQPainterPath@@@Z @ 3942 NONAME ; void QPaintEngine::drawPath(class QPainterPath const &)
	?drawPath@QPaintEngineEx@@UAEXABVQPainterPath@@@Z @ 3943 NONAME ; void QPaintEngineEx::drawPath(class QPainterPath const &)
	?drawPath@QPainter@@QAEXABVQPainterPath@@@Z @ 3944 NONAME ; void QPainter::drawPath(class QPainterPath const &)
	?drawPicture@QPainter@@QAEXABVQPoint@@ABVQPicture@@@Z @ 3945 NONAME ; void QPainter::drawPicture(class QPoint const &, class QPicture const &)
	?drawPicture@QPainter@@QAEXABVQPointF@@ABVQPicture@@@Z @ 3946 NONAME ; void QPainter::drawPicture(class QPointF const &, class QPicture const &)
	?drawPicture@QPainter@@QAEXHHABVQPicture@@@Z @ 3947 NONAME ; void QPainter::drawPicture(int, int, class QPicture const &)
	?drawPie@QPainter@@QAEXABVQRect@@HH@Z @ 3948 NONAME ; void QPainter::drawPie(class QRect const &, int, int)
	?drawPie@QPainter@@QAEXABVQRectF@@HH@Z @ 3949 NONAME ; void QPainter::drawPie(class QRectF const &, int, int)
	?drawPie@QPainter@@QAEXHHHHHH@Z @ 3950 NONAME ; void QPainter::drawPie(int, int, int, int, int, int)
	?drawPixmap@QPaintEngineEx@@UAEXABVQPointF@@ABVQPixmap@@@Z @ 3951 NONAME ; void QPaintEngineEx::drawPixmap(class QPointF const &, class QPixmap const &)
	?drawPixmap@QPainter@@QAEXABVQPoint@@ABVQPixmap@@@Z @ 3952 NONAME ; void QPainter::drawPixmap(class QPoint const &, class QPixmap const &)
	?drawPixmap@QPainter@@QAEXABVQPoint@@ABVQPixmap@@ABVQRect@@@Z @ 3953 NONAME ; void QPainter::drawPixmap(class QPoint const &, class QPixmap const &, class QRect const &)
	?drawPixmap@QPainter@@QAEXABVQPointF@@ABVQPixmap@@@Z @ 3954 NONAME ; void QPainter::drawPixmap(class QPointF const &, class QPixmap const &)
	?drawPixmap@QPainter@@QAEXABVQPointF@@ABVQPixmap@@ABVQRectF@@@Z @ 3955 NONAME ; void QPainter::drawPixmap(class QPointF const &, class QPixmap const &, class QRectF const &)
	?drawPixmap@QPainter@@QAEXABVQRect@@ABVQPixmap@@0@Z @ 3956 NONAME ; void QPainter::drawPixmap(class QRect const &, class QPixmap const &, class QRect const &)
	?drawPixmap@QPainter@@QAEXABVQRect@@ABVQPixmap@@@Z @ 3957 NONAME ; void QPainter::drawPixmap(class QRect const &, class QPixmap const &)
	?drawPixmap@QPainter@@QAEXABVQRectF@@ABVQPixmap@@0@Z @ 3958 NONAME ; void QPainter::drawPixmap(class QRectF const &, class QPixmap const &, class QRectF const &)
	?drawPixmap@QPainter@@QAEXHHABVQPixmap@@@Z @ 3959 NONAME ; void QPainter::drawPixmap(int, int, class QPixmap const &)
	?drawPixmap@QPainter@@QAEXHHABVQPixmap@@HHHH@Z @ 3960 NONAME ; void QPainter::drawPixmap(int, int, class QPixmap const &, int, int, int, int)
	?drawPixmap@QPainter@@QAEXHHHHABVQPixmap@@@Z @ 3961 NONAME ; void QPainter::drawPixmap(int, int, int, int, class QPixmap const &)
	?drawPixmap@QPainter@@QAEXHHHHABVQPixmap@@HHHH@Z @ 3962 NONAME ; void QPainter::drawPixmap(int, int, int, int, class QPixmap const &, int, int, int, int)
	?drawPixmaps@QPaintEngineEx@@UAEXPBUData@QDrawPixmaps@@HABVQPixmap@@V?$QFlags@W4DrawingHint@QDrawPixmaps@@@@@Z @ 3963 NONAME ABSENT ; void QPaintEngineEx::drawPixmaps(struct QDrawPixmaps::Data const *, int, class QPixmap const &, class QFlags<enum QDrawPixmaps::DrawingHint>)
	?drawPoint@QPainter@@QAEXABVQPoint@@@Z @ 3964 NONAME ; void QPainter::drawPoint(class QPoint const &)
	?drawPoint@QPainter@@QAEXABVQPointF@@@Z @ 3965 NONAME ; void QPainter::drawPoint(class QPointF const &)
	?drawPoint@QPainter@@QAEXHH@Z @ 3966 NONAME ; void QPainter::drawPoint(int, int)
	?drawPoints@QPaintEngine@@UAEXPBVQPoint@@H@Z @ 3967 NONAME ; void QPaintEngine::drawPoints(class QPoint const *, int)
	?drawPoints@QPaintEngine@@UAEXPBVQPointF@@H@Z @ 3968 NONAME ; void QPaintEngine::drawPoints(class QPointF const *, int)
	?drawPoints@QPaintEngineEx@@UAEXPBVQPoint@@H@Z @ 3969 NONAME ; void QPaintEngineEx::drawPoints(class QPoint const *, int)
	?drawPoints@QPaintEngineEx@@UAEXPBVQPointF@@H@Z @ 3970 NONAME ; void QPaintEngineEx::drawPoints(class QPointF const *, int)
	?drawPoints@QPainter@@QAEXABVQPolygon@@@Z @ 3971 NONAME ; void QPainter::drawPoints(class QPolygon const &)
	?drawPoints@QPainter@@QAEXABVQPolygonF@@@Z @ 3972 NONAME ; void QPainter::drawPoints(class QPolygonF const &)
	?drawPoints@QPainter@@QAEXPBVQPoint@@H@Z @ 3973 NONAME ; void QPainter::drawPoints(class QPoint const *, int)
	?drawPoints@QPainter@@QAEXPBVQPointF@@H@Z @ 3974 NONAME ; void QPainter::drawPoints(class QPointF const *, int)
	?drawPolygon@QPaintEngine@@UAEXPBVQPoint@@HW4PolygonDrawMode@1@@Z @ 3975 NONAME ; void QPaintEngine::drawPolygon(class QPoint const *, int, enum QPaintEngine::PolygonDrawMode)
	?drawPolygon@QPaintEngine@@UAEXPBVQPointF@@HW4PolygonDrawMode@1@@Z @ 3976 NONAME ; void QPaintEngine::drawPolygon(class QPointF const *, int, enum QPaintEngine::PolygonDrawMode)
	?drawPolygon@QPaintEngineEx@@UAEXPBVQPoint@@HW4PolygonDrawMode@QPaintEngine@@@Z @ 3977 NONAME ; void QPaintEngineEx::drawPolygon(class QPoint const *, int, enum QPaintEngine::PolygonDrawMode)
	?drawPolygon@QPaintEngineEx@@UAEXPBVQPointF@@HW4PolygonDrawMode@QPaintEngine@@@Z @ 3978 NONAME ; void QPaintEngineEx::drawPolygon(class QPointF const *, int, enum QPaintEngine::PolygonDrawMode)
	?drawPolygon@QPainter@@QAEXABVQPolygon@@W4FillRule@Qt@@@Z @ 3979 NONAME ; void QPainter::drawPolygon(class QPolygon const &, enum Qt::FillRule)
	?drawPolygon@QPainter@@QAEXABVQPolygonF@@W4FillRule@Qt@@@Z @ 3980 NONAME ; void QPainter::drawPolygon(class QPolygonF const &, enum Qt::FillRule)
	?drawPolygon@QPainter@@QAEXPBVQPoint@@HW4FillRule@Qt@@@Z @ 3981 NONAME ; void QPainter::drawPolygon(class QPoint const *, int, enum Qt::FillRule)
	?drawPolygon@QPainter@@QAEXPBVQPointF@@HW4FillRule@Qt@@@Z @ 3982 NONAME ; void QPainter::drawPolygon(class QPointF const *, int, enum Qt::FillRule)
	?drawPolyline@QPainter@@QAEXABVQPolygon@@@Z @ 3983 NONAME ; void QPainter::drawPolyline(class QPolygon const &)
	?drawPolyline@QPainter@@QAEXABVQPolygonF@@@Z @ 3984 NONAME ; void QPainter::drawPolyline(class QPolygonF const &)
	?drawPolyline@QPainter@@QAEXPBVQPoint@@H@Z @ 3985 NONAME ; void QPainter::drawPolyline(class QPoint const *, int)
	?drawPolyline@QPainter@@QAEXPBVQPointF@@H@Z @ 3986 NONAME ; void QPainter::drawPolyline(class QPointF const *, int)
	?drawPrimitive@QCommonStyle@@UBEXW4PrimitiveElement@QStyle@@PBVQStyleOption@@PAVQPainter@@PBVQWidget@@@Z @ 3987 NONAME ; void QCommonStyle::drawPrimitive(enum QStyle::PrimitiveElement, class QStyleOption const *, class QPainter *, class QWidget const *) const
	?drawPrimitive@QProxyStyle@@UBEXW4PrimitiveElement@QStyle@@PBVQStyleOption@@PAVQPainter@@PBVQWidget@@@Z @ 3988 NONAME ; void QProxyStyle::drawPrimitive(enum QStyle::PrimitiveElement, class QStyleOption const *, class QPainter *, class QWidget const *) const
	?drawPrimitive@QS60Style@@UBEXW4PrimitiveElement@QStyle@@PBVQStyleOption@@PAVQPainter@@PBVQWidget@@@Z @ 3989 NONAME ; void QS60Style::drawPrimitive(enum QStyle::PrimitiveElement, class QStyleOption const *, class QPainter *, class QWidget const *) const
	?drawPrimitive@QWindowsStyle@@UBEXW4PrimitiveElement@QStyle@@PBVQStyleOption@@PAVQPainter@@PBVQWidget@@@Z @ 3990 NONAME ; void QWindowsStyle::drawPrimitive(enum QStyle::PrimitiveElement, class QStyleOption const *, class QPainter *, class QWidget const *) const
	?drawRect@QPainter@@QAEXABVQRect@@@Z @ 3991 NONAME ; void QPainter::drawRect(class QRect const &)
	?drawRect@QPainter@@QAEXABVQRectF@@@Z @ 3992 NONAME ; void QPainter::drawRect(class QRectF const &)
	?drawRect@QPainter@@QAEXHHHH@Z @ 3993 NONAME ; void QPainter::drawRect(int, int, int, int)
	?drawRects@QPaintEngine@@UAEXPBVQRect@@H@Z @ 3994 NONAME ; void QPaintEngine::drawRects(class QRect const *, int)
	?drawRects@QPaintEngine@@UAEXPBVQRectF@@H@Z @ 3995 NONAME ; void QPaintEngine::drawRects(class QRectF const *, int)
	?drawRects@QPaintEngineEx@@UAEXPBVQRect@@H@Z @ 3996 NONAME ; void QPaintEngineEx::drawRects(class QRect const *, int)
	?drawRects@QPaintEngineEx@@UAEXPBVQRectF@@H@Z @ 3997 NONAME ; void QPaintEngineEx::drawRects(class QRectF const *, int)
	?drawRects@QPainter@@QAEXABV?$QVector@VQRect@@@@@Z @ 3998 NONAME ; void QPainter::drawRects(class QVector<class QRect> const &)
	?drawRects@QPainter@@QAEXABV?$QVector@VQRectF@@@@@Z @ 3999 NONAME ; void QPainter::drawRects(class QVector<class QRectF> const &)
	?drawRects@QPainter@@QAEXPBVQRect@@H@Z @ 4000 NONAME ; void QPainter::drawRects(class QRect const *, int)
	?drawRects@QPainter@@QAEXPBVQRectF@@H@Z @ 4001 NONAME ; void QPainter::drawRects(class QRectF const *, int)
	?drawRoundRect@QPainter@@QAEXABVQRect@@HH@Z @ 4002 NONAME ; void QPainter::drawRoundRect(class QRect const &, int, int)
	?drawRoundRect@QPainter@@QAEXABVQRectF@@HH@Z @ 4003 NONAME ; void QPainter::drawRoundRect(class QRectF const &, int, int)
	?drawRoundRect@QPainter@@QAEXHHHHHH@Z @ 4004 NONAME ; void QPainter::drawRoundRect(int, int, int, int, int, int)
	?drawRoundedRect@QPaintEngineEx@@UAEXABVQRectF@@MMW4SizeMode@Qt@@@Z @ 4005 NONAME ; void QPaintEngineEx::drawRoundedRect(class QRectF const &, float, float, enum Qt::SizeMode)
	?drawRoundedRect@QPainter@@QAEXABVQRect@@MMW4SizeMode@Qt@@@Z @ 4006 NONAME ; void QPainter::drawRoundedRect(class QRect const &, float, float, enum Qt::SizeMode)
	?drawRoundedRect@QPainter@@QAEXABVQRectF@@MMW4SizeMode@Qt@@@Z @ 4007 NONAME ; void QPainter::drawRoundedRect(class QRectF const &, float, float, enum Qt::SizeMode)
	?drawRoundedRect@QPainter@@QAEXHHHHMMW4SizeMode@Qt@@@Z @ 4008 NONAME ; void QPainter::drawRoundedRect(int, int, int, int, float, float, enum Qt::SizeMode)
	?drawRow@QTreeView@@MBEXPAVQPainter@@ABVQStyleOptionViewItem@@ABVQModelIndex@@@Z @ 4009 NONAME ; void QTreeView::drawRow(class QPainter *, class QStyleOptionViewItem const &, class QModelIndex const &) const
	?drawSource@QGraphicsEffect@@IAEXPAVQPainter@@@Z @ 4010 NONAME ; void QGraphicsEffect::drawSource(class QPainter *)
	?drawText@QPainter@@QAEXABVQPoint@@ABVQString@@@Z @ 4011 NONAME ; void QPainter::drawText(class QPoint const &, class QString const &)
	?drawText@QPainter@@QAEXABVQPointF@@ABVQString@@@Z @ 4012 NONAME ; void QPainter::drawText(class QPointF const &, class QString const &)
	?drawText@QPainter@@QAEXABVQPointF@@ABVQString@@HH@Z @ 4013 NONAME ; void QPainter::drawText(class QPointF const &, class QString const &, int, int)
	?drawText@QPainter@@QAEXABVQRect@@HABVQString@@PAV2@@Z @ 4014 NONAME ; void QPainter::drawText(class QRect const &, int, class QString const &, class QRect *)
	?drawText@QPainter@@QAEXABVQRectF@@ABVQString@@ABVQTextOption@@@Z @ 4015 NONAME ; void QPainter::drawText(class QRectF const &, class QString const &, class QTextOption const &)
	?drawText@QPainter@@QAEXABVQRectF@@HABVQString@@PAV2@@Z @ 4016 NONAME ; void QPainter::drawText(class QRectF const &, int, class QString const &, class QRectF *)
	?drawText@QPainter@@QAEXHHABVQString@@@Z @ 4017 NONAME ; void QPainter::drawText(int, int, class QString const &)
	?drawText@QPainter@@QAEXHHHHHABVQString@@PAVQRect@@@Z @ 4018 NONAME ; void QPainter::drawText(int, int, int, int, int, class QString const &, class QRect *)
	?drawTextItem@QPaintEngine@@UAEXABVQPointF@@ABVQTextItem@@@Z @ 4019 NONAME ; void QPaintEngine::drawTextItem(class QPointF const &, class QTextItem const &)
	?drawTextItem@QPainter@@QAEXABVQPoint@@ABVQTextItem@@@Z @ 4020 NONAME ; void QPainter::drawTextItem(class QPoint const &, class QTextItem const &)
	?drawTextItem@QPainter@@QAEXABVQPointF@@ABVQTextItem@@@Z @ 4021 NONAME ; void QPainter::drawTextItem(class QPointF const &, class QTextItem const &)
	?drawTextItem@QPainter@@QAEXHHABVQTextItem@@@Z @ 4022 NONAME ; void QPainter::drawTextItem(int, int, class QTextItem const &)
	?drawTiledPixmap@QPaintEngine@@UAEXABVQRectF@@ABVQPixmap@@ABVQPointF@@@Z @ 4023 NONAME ; void QPaintEngine::drawTiledPixmap(class QRectF const &, class QPixmap const &, class QPointF const &)
	?drawTiledPixmap@QPaintEngineEx@@UAEXABVQRectF@@ABVQPixmap@@ABVQPointF@@@Z @ 4024 NONAME ; void QPaintEngineEx::drawTiledPixmap(class QRectF const &, class QPixmap const &, class QPointF const &)
	?drawTiledPixmap@QPainter@@QAEXABVQRect@@ABVQPixmap@@ABVQPoint@@@Z @ 4025 NONAME ; void QPainter::drawTiledPixmap(class QRect const &, class QPixmap const &, class QPoint const &)
	?drawTiledPixmap@QPainter@@QAEXABVQRectF@@ABVQPixmap@@ABVQPointF@@@Z @ 4026 NONAME ; void QPainter::drawTiledPixmap(class QRectF const &, class QPixmap const &, class QPointF const &)
	?drawTiledPixmap@QPainter@@QAEXHHHHABVQPixmap@@HH@Z @ 4027 NONAME ; void QPainter::drawTiledPixmap(int, int, int, int, class QPixmap const &, int, int)
	?drawTree@QTreeView@@IBEXPAVQPainter@@ABVQRegion@@@Z @ 4028 NONAME ; void QTreeView::drawTree(class QPainter *, class QRegion const &) const
	?drawWidget@QWidgetPrivate@@QAEXPAVQPaintDevice@@ABVQRegion@@ABVQPoint@@HPAVQPainter@@PAVQWidgetBackingStore@@@Z @ 4029 NONAME ; void QWidgetPrivate::drawWidget(class QPaintDevice *, class QRegion const &, class QPoint const &, int, class QPainter *, class QWidgetBackingStore *)
	?dropAction@QDropEvent@@QBE?AW4DropAction@Qt@@XZ @ 4030 NONAME ; enum Qt::DropAction QDropEvent::dropAction(void) const
	?dropAction@QGraphicsSceneDragDropEvent@@QBE?AW4DropAction@Qt@@XZ @ 4031 NONAME ; enum Qt::DropAction QGraphicsSceneDragDropEvent::dropAction(void) const
	?dropEvent@QAbstractItemView@@MAEXPAVQDropEvent@@@Z @ 4032 NONAME ; void QAbstractItemView::dropEvent(class QDropEvent *)
	?dropEvent@QAbstractScrollArea@@MAEXPAVQDropEvent@@@Z @ 4033 NONAME ; void QAbstractScrollArea::dropEvent(class QDropEvent *)
	?dropEvent@QGraphicsItem@@MAEXPAVQGraphicsSceneDragDropEvent@@@Z @ 4034 NONAME ; void QGraphicsItem::dropEvent(class QGraphicsSceneDragDropEvent *)
	?dropEvent@QGraphicsProxyWidget@@MAEXPAVQGraphicsSceneDragDropEvent@@@Z @ 4035 NONAME ; void QGraphicsProxyWidget::dropEvent(class QGraphicsSceneDragDropEvent *)
	?dropEvent@QGraphicsScene@@MAEXPAVQGraphicsSceneDragDropEvent@@@Z @ 4036 NONAME ; void QGraphicsScene::dropEvent(class QGraphicsSceneDragDropEvent *)
	?dropEvent@QGraphicsTextItem@@MAEXPAVQGraphicsSceneDragDropEvent@@@Z @ 4037 NONAME ; void QGraphicsTextItem::dropEvent(class QGraphicsSceneDragDropEvent *)
	?dropEvent@QGraphicsView@@MAEXPAVQDropEvent@@@Z @ 4038 NONAME ; void QGraphicsView::dropEvent(class QDropEvent *)
	?dropEvent@QLineEdit@@MAEXPAVQDropEvent@@@Z @ 4039 NONAME ; void QLineEdit::dropEvent(class QDropEvent *)
	?dropEvent@QListView@@MAEXPAVQDropEvent@@@Z @ 4040 NONAME ; void QListView::dropEvent(class QDropEvent *)
	?dropEvent@QListWidget@@UAEXPAVQDropEvent@@@Z @ 4041 NONAME ; void QListWidget::dropEvent(class QDropEvent *)
	?dropEvent@QPlainTextEdit@@MAEXPAVQDropEvent@@@Z @ 4042 NONAME ; void QPlainTextEdit::dropEvent(class QDropEvent *)
	?dropEvent@QTableWidget@@MAEXPAVQDropEvent@@@Z @ 4043 NONAME ; void QTableWidget::dropEvent(class QDropEvent *)
	?dropEvent@QTextEdit@@MAEXPAVQDropEvent@@@Z @ 4044 NONAME ; void QTextEdit::dropEvent(class QDropEvent *)
	?dropEvent@QTreeWidget@@MAEXPAVQDropEvent@@@Z @ 4045 NONAME ; void QTreeWidget::dropEvent(class QDropEvent *)
	?dropEvent@QWidget@@MAEXPAVQDropEvent@@@Z @ 4046 NONAME ; void QWidget::dropEvent(class QDropEvent *)
	?dropIndicatorPosition@QAbstractItemView@@IBE?AW4DropIndicatorPosition@1@XZ @ 4047 NONAME ; enum QAbstractItemView::DropIndicatorPosition QAbstractItemView::dropIndicatorPosition(void) const
	?dropMimeData@QDirModel@@UAE_NPBVQMimeData@@W4DropAction@Qt@@HHABVQModelIndex@@@Z @ 4048 NONAME ; bool QDirModel::dropMimeData(class QMimeData const *, enum Qt::DropAction, int, int, class QModelIndex const &)
	?dropMimeData@QFileSystemModel@@UAE_NPBVQMimeData@@W4DropAction@Qt@@HHABVQModelIndex@@@Z @ 4049 NONAME ; bool QFileSystemModel::dropMimeData(class QMimeData const *, enum Qt::DropAction, int, int, class QModelIndex const &)
	?dropMimeData@QListWidget@@MAE_NHPBVQMimeData@@W4DropAction@Qt@@@Z @ 4050 NONAME ; bool QListWidget::dropMimeData(int, class QMimeData const *, enum Qt::DropAction)
	?dropMimeData@QProxyModel@@UAE_NPBVQMimeData@@W4DropAction@Qt@@HHABVQModelIndex@@@Z @ 4051 NONAME ; bool QProxyModel::dropMimeData(class QMimeData const *, enum Qt::DropAction, int, int, class QModelIndex const &)
	?dropMimeData@QSortFilterProxyModel@@UAE_NPBVQMimeData@@W4DropAction@Qt@@HHABVQModelIndex@@@Z @ 4052 NONAME ; bool QSortFilterProxyModel::dropMimeData(class QMimeData const *, enum Qt::DropAction, int, int, class QModelIndex const &)
	?dropMimeData@QStandardItemModel@@UAE_NPBVQMimeData@@W4DropAction@Qt@@HHABVQModelIndex@@@Z @ 4053 NONAME ; bool QStandardItemModel::dropMimeData(class QMimeData const *, enum Qt::DropAction, int, int, class QModelIndex const &)
	?dropMimeData@QTableWidget@@MAE_NHHPBVQMimeData@@W4DropAction@Qt@@@Z @ 4054 NONAME ; bool QTableWidget::dropMimeData(int, int, class QMimeData const *, enum Qt::DropAction)
	?dropMimeData@QTreeWidget@@MAE_NPAVQTreeWidgetItem@@HPBVQMimeData@@W4DropAction@Qt@@@Z @ 4055 NONAME ; bool QTreeWidget::dropMimeData(class QTreeWidgetItem *, int, class QMimeData const *, enum Qt::DropAction)
	?dump@QGraphicsLinearLayout@@QBEXH@Z @ 4056 NONAME ; void QGraphicsLinearLayout::dump(int) const
	?duplicatesEnabled@QComboBox@@QBE_NXZ @ 4057 NONAME ; bool QComboBox::duplicatesEnabled(void) const
	?dx@QMatrix@@QBEMXZ @ 4058 NONAME ; float QMatrix::dx(void) const
	?dx@QTransform@@QBEMXZ @ 4059 NONAME ; float QTransform::dx(void) const
	?dy@QMatrix@@QBEMXZ @ 4060 NONAME ; float QMatrix::dy(void) const
	?dy@QTransform@@QBEMXZ @ 4061 NONAME ; float QTransform::dy(void) const
	?dynamicSortFilter@QSortFilterProxyModel@@QBE_NXZ @ 4062 NONAME ; bool QSortFilterProxyModel::dynamicSortFilter(void) const
	?echoMode@QLineControl@@QBEIXZ @ 4063 NONAME ; unsigned int QLineControl::echoMode(void) const
	?echoMode@QLineEdit@@QBE?AW4EchoMode@1@XZ @ 4064 NONAME ; enum QLineEdit::EchoMode QLineEdit::echoMode(void) const
	?edit@QAbstractItemView@@MAE_NABVQModelIndex@@W4EditTrigger@1@PAVQEvent@@@Z @ 4065 NONAME ; bool QAbstractItemView::edit(class QModelIndex const &, enum QAbstractItemView::EditTrigger, class QEvent *)
	?edit@QAbstractItemView@@QAEXABVQModelIndex@@@Z @ 4066 NONAME ; void QAbstractItemView::edit(class QModelIndex const &)
	?editFocusChange@QLineControl@@IAEX_N@Z @ 4067 NONAME ; void QLineControl::editFocusChange(bool)
	?editItem@QListWidget@@QAEXPAVQListWidgetItem@@@Z @ 4068 NONAME ; void QListWidget::editItem(class QListWidgetItem *)
	?editItem@QTableWidget@@QAEXPAVQTableWidgetItem@@@Z @ 4069 NONAME ; void QTableWidget::editItem(class QTableWidgetItem *)
	?editItem@QTreeWidget@@QAEXPAVQTreeWidgetItem@@H@Z @ 4070 NONAME ; void QTreeWidget::editItem(class QTreeWidgetItem *, int)
	?editTextChanged@QComboBox@@IAEXABVQString@@@Z @ 4071 NONAME ; void QComboBox::editTextChanged(class QString const &)
	?editTriggers@QAbstractItemView@@QBE?AV?$QFlags@W4EditTrigger@QAbstractItemView@@@@XZ @ 4072 NONAME ; class QFlags<enum QAbstractItemView::EditTrigger> QAbstractItemView::editTriggers(void) const
	?editingFinished@QAbstractSpinBox@@IAEXXZ @ 4073 NONAME ; void QAbstractSpinBox::editingFinished(void)
	?editingFinished@QLineControl@@IAEXXZ @ 4074 NONAME ; void QLineControl::editingFinished(void)
	?editingFinished@QLineEdit@@IAEXXZ @ 4075 NONAME ; void QLineEdit::editingFinished(void)
	?editorDestroyed@QAbstractItemView@@MAEXPAVQObject@@@Z @ 4076 NONAME ; void QAbstractItemView::editorDestroyed(class QObject *)
	?editorEvent@QAbstractItemDelegate@@UAE_NPAVQEvent@@PAVQAbstractItemModel@@ABVQStyleOptionViewItem@@ABVQModelIndex@@@Z @ 4077 NONAME ; bool QAbstractItemDelegate::editorEvent(class QEvent *, class QAbstractItemModel *, class QStyleOptionViewItem const &, class QModelIndex const &)
	?editorEvent@QItemDelegate@@MAE_NPAVQEvent@@PAVQAbstractItemModel@@ABVQStyleOptionViewItem@@ABVQModelIndex@@@Z @ 4078 NONAME ; bool QItemDelegate::editorEvent(class QEvent *, class QAbstractItemModel *, class QStyleOptionViewItem const &, class QModelIndex const &)
	?editorEvent@QStyledItemDelegate@@MAE_NPAVQEvent@@PAVQAbstractItemModel@@ABVQStyleOptionViewItem@@ABVQModelIndex@@@Z @ 4079 NONAME ; bool QStyledItemDelegate::editorEvent(class QEvent *, class QAbstractItemModel *, class QStyleOptionViewItem const &, class QModelIndex const &)
	?effectiveBoundingRect@QGraphicsItemPrivate@@QBE?AVQRectF@@XZ @ 4080 NONAME ABSENT ; class QRectF QGraphicsItemPrivate::effectiveBoundingRect(void) const
	?effectiveOpacity@QGraphicsItem@@QBEMXZ @ 4081 NONAME ; float QGraphicsItem::effectiveOpacity(void) const
	?effectiveOpacity@QGraphicsItemPrivate@@QBEMXZ @ 4082 NONAME ; float QGraphicsItemPrivate::effectiveOpacity(void) const
	?effectiveRectFor@QWidgetPrivate@@QBE?AVQRect@@ABV2@@Z @ 4083 NONAME ; class QRect QWidgetPrivate::effectiveRectFor(class QRect const &) const
	?effectiveSizeHint@QGraphicsLayoutItem@@QBE?AVQSizeF@@W4SizeHint@Qt@@ABV2@@Z @ 4084 NONAME ; class QSizeF QGraphicsLayoutItem::effectiveSizeHint(enum Qt::SizeHint, class QSizeF const &) const
	?effectiveWinId@QWidget@@QBEPAVCCoeControl@@XZ @ 4085 NONAME ; class CCoeControl * QWidget::effectiveWinId(void) const
	?elementAt@QPainterPath@@QBEABVElement@1@H@Z @ 4086 NONAME ; class QPainterPath::Element const & QPainterPath::elementAt(int) const
	?elementCount@QPainterPath@@QBEHXZ @ 4087 NONAME ; int QPainterPath::elementCount(void) const
	?elementCount@QVectorPath@@QBEHXZ @ 4088 NONAME ; int QVectorPath::elementCount(void) const
	?elements@QVectorPath@@QBEPBW4ElementType@QPainterPath@@XZ @ 4089 NONAME ; enum QPainterPath::ElementType const * QVectorPath::elements(void) const
	?elideMode@QTabBar@@QBE?AW4TextElideMode@Qt@@XZ @ 4090 NONAME ; enum Qt::TextElideMode QTabBar::elideMode(void) const
	?elideMode@QTabWidget@@QBE?AW4TextElideMode@Qt@@XZ @ 4091 NONAME ; enum Qt::TextElideMode QTabWidget::elideMode(void) const
	?elidedText@QAbstractItemDelegate@@SA?AVQString@@ABVQFontMetrics@@HW4TextElideMode@Qt@@ABV2@@Z @ 4092 NONAME ; class QString QAbstractItemDelegate::elidedText(class QFontMetrics const &, int, enum Qt::TextElideMode, class QString const &)
	?elidedText@QFontMetrics@@QBE?AVQString@@ABV2@W4TextElideMode@Qt@@HH@Z @ 4093 NONAME ; class QString QFontMetrics::elidedText(class QString const &, enum Qt::TextElideMode, int, int) const
	?elidedText@QFontMetricsF@@QBE?AVQString@@ABV2@W4TextElideMode@Qt@@MH@Z @ 4094 NONAME ; class QString QFontMetricsF::elidedText(class QString const &, enum Qt::TextElideMode, float, int) const
	?elidedText@QTextEngine@@QBE?AVQString@@W4TextElideMode@Qt@@ABUQFixed@@H@Z @ 4095 NONAME ; class QString QTextEngine::elidedText(enum Qt::TextElideMode, struct QFixed const &, int) const
	?emSquareSize@QFontEngine@@UBE?AUQFixed@@XZ @ 4096 NONAME ; struct QFixed QFontEngine::emSquareSize(void) const
	?emitAboutToDestroy@QPaintBufferSignalProxy@@QAEXPBVQPaintBufferPrivate@@@Z @ 4097 NONAME ; void QPaintBufferSignalProxy::emitAboutToDestroy(class QPaintBufferPrivate const *)
	?emitChanged@QClipboard@@AAEXW4Mode@1@@Z @ 4098 NONAME ; void QClipboard::emitChanged(enum QClipboard::Mode)
	?emitCubicTo@QStroker@@QAEXMMMMMM@Z @ 4099 NONAME ; void QStroker::emitCubicTo(float, float, float, float, float, float)
	?emitCubicTo@QStrokerOps@@IAEXMMMMMM@Z @ 4100 NONAME ; void QStrokerOps::emitCubicTo(float, float, float, float, float, float)
	?emitCursorPositionChanged@QLineControl@@AAEXXZ @ 4101 NONAME ; void QLineControl::emitCursorPositionChanged(void)
	?emitDataChanged@QStandardItem@@IAEXXZ @ 4102 NONAME ; void QStandardItem::emitDataChanged(void)
	?emitDataChanged@QTreeWidgetItem@@IAEXXZ @ 4103 NONAME ; void QTreeWidgetItem::emitDataChanged(void)
	?emitLastWindowClosed@QApplicationPrivate@@SAXXZ @ 4104 NONAME ; void QApplicationPrivate::emitLastWindowClosed(void)
	?emitLineTo@QStroker@@QAEXMM@Z @ 4105 NONAME ; void QStroker::emitLineTo(float, float)
	?emitLineTo@QStrokerOps@@IAEXMM@Z @ 4106 NONAME ; void QStrokerOps::emitLineTo(float, float)
	?emitMoveTo@QStroker@@QAEXMM@Z @ 4107 NONAME ; void QStroker::emitMoveTo(float, float)
	?emitMoveTo@QStrokerOps@@IAEXMM@Z @ 4108 NONAME ; void QStrokerOps::emitMoveTo(float, float)
	?emitSelectionChanged@QItemSelectionModel@@IAEXABVQItemSelection@@0@Z @ 4109 NONAME ; void QItemSelectionModel::emitSelectionChanged(class QItemSelection const &, class QItemSelection const &)
	?emptyLabel@QUndoView@@QBE?AVQString@@XZ @ 4110 NONAME ; class QString QUndoView::emptyLabel(void) const
	?enableCleanupHooks@QImagePixmapCleanupHooks@@SAXABVQImage@@@Z @ 4111 NONAME ; void QImagePixmapCleanupHooks::enableCleanupHooks(class QImage const &)
	?enableCleanupHooks@QImagePixmapCleanupHooks@@SAXABVQPixmap@@@Z @ 4112 NONAME ; void QImagePixmapCleanupHooks::enableCleanupHooks(class QPixmap const &)
	?enableCleanupHooks@QImagePixmapCleanupHooks@@SAXPAVQPixmapData@@@Z @ 4113 NONAME ; void QImagePixmapCleanupHooks::enableCleanupHooks(class QPixmapData *)
	?enabledChange@QWidget@@MAEX_N@Z @ 4114 NONAME ; void QWidget::enabledChange(bool)
	?enabledChanged@QGraphicsEffect@@IAEX_N@Z @ 4115 NONAME ; void QGraphicsEffect::enabledChanged(bool)
	?enabledChanged@QGraphicsObject@@IAEXXZ @ 4116 NONAME ; void QGraphicsObject::enabledChanged(void)
	?encodeString@QKeySequence@@CA?AVQString@@H@Z @ 4117 NONAME ; class QString QKeySequence::encodeString(int)
	?encodedData@QDropEvent@@UBE?AVQByteArray@@PBD@Z @ 4118 NONAME ; class QByteArray QDropEvent::encodedData(char const *) const
	?end@QDashStroker@@UAEXXZ @ 4119 NONAME ; void QDashStroker::end(void)
	?end@QLineControl@@QAEX_N@Z @ 4120 NONAME ; void QLineControl::end(bool)
	?end@QLineControl@@QBEHXZ @ 4121 NONAME ; int QLineControl::end(void) const
	?end@QLineEdit@@QAEX_N@Z @ 4122 NONAME ; void QLineEdit::end(bool)
	?end@QPainter@@QAE_NXZ @ 4123 NONAME ; bool QPainter::end(void)
	?end@QStrokerOps@@UAEXXZ @ 4124 NONAME ; void QStrokerOps::end(void)
	?end@QTextBlock@@QBE?AViterator@1@XZ @ 4125 NONAME ; class QTextBlock::iterator QTextBlock::end(void) const
	?end@QTextDocument@@QBE?AVQTextBlock@@XZ @ 4126 NONAME ; class QTextBlock QTextDocument::end(void) const
	?end@QTextFrame@@QBE?AViterator@1@XZ @ 4127 NONAME ; class QTextFrame::iterator QTextFrame::end(void) const
	?end@QTextTableCell@@QBE?AViterator@QTextFrame@@XZ @ 4128 NONAME ; class QTextFrame::iterator QTextTableCell::end(void) const
	?endEditBlock@QTextCursor@@QAEXXZ @ 4129 NONAME ; void QTextCursor::endEditBlock(void)
	?endLayout@QTextLayout@@QAEXXZ @ 4130 NONAME ; void QTextLayout::endLayout(void)
	?endMacro@QUndoStack@@QAEXXZ @ 4131 NONAME ; void QUndoStack::endMacro(void)
	?endNativePainting@QPaintEngineEx@@UAEXXZ @ 4132 NONAME ; void QPaintEngineEx::endNativePainting(void)
	?endNativePainting@QPainter@@QAEXXZ @ 4133 NONAME ; void QPainter::endNativePainting(void)
	?endPaint@QWindowSurface@@UAEXABVQRegion@@@Z @ 4134 NONAME ; void QWindowSurface::endPaint(class QRegion const &)
	?endTangent@QBezier@@QBE?AVQLineF@@XZ @ 4135 NONAME ; class QLineF QBezier::endTangent(void) const
	?enforceNativeChildren@QWidgetPrivate@@QAEXXZ @ 4136 NONAME ; void QWidgetPrivate::enforceNativeChildren(void)
	?engine@QTextLayout@@QBEPAVQTextEngine@@XZ @ 4137 NONAME ; class QTextEngine * QTextLayout::engine(void) const
	?engineForScript@QFontPrivate@@QBEPAVQFontEngine@@H@Z @ 4138 NONAME ; class QFontEngine * QFontPrivate::engineForScript(int) const
	?ensureBlockLayout@QPlainTextDocumentLayout@@QBEXABVQTextBlock@@@Z @ 4139 NONAME ; void QPlainTextDocumentLayout::ensureBlockLayout(class QTextBlock const &) const
	?ensureCursorVisible@QPlainTextEdit@@QAEXXZ @ 4140 NONAME ; void QPlainTextEdit::ensureCursorVisible(void)
	?ensureCursorVisible@QTextControl@@UAEXXZ @ 4141 NONAME ; void QTextControl::ensureCursorVisible(void)
	?ensureCursorVisible@QTextEdit@@QAEXXZ @ 4142 NONAME ; void QTextEdit::ensureCursorVisible(void)
	?ensureData@QPainterPath@@AAEXXZ @ 4143 NONAME ; void QPainterPath::ensureData(void)
	?ensureData_helper@QPainterPath@@AAEXXZ @ 4144 NONAME ; void QPainterPath::ensureData_helper(void)
	?ensurePolished@QWidget@@QBEXXZ @ 4145 NONAME ; void QWidget::ensurePolished(void) const
	?ensureSceneTransform@QGraphicsItemPrivate@@QAEXXZ @ 4146 NONAME ; void QGraphicsItemPrivate::ensureSceneTransform(void)
	?ensureSceneTransformRecursive@QGraphicsItemPrivate@@QAEXPAPAVQGraphicsItem@@@Z @ 4147 NONAME ; void QGraphicsItemPrivate::ensureSceneTransformRecursive(class QGraphicsItem * *)
	?ensureSequentialSiblingIndex@QGraphicsItemPrivate@@QAEXXZ @ 4148 NONAME ; void QGraphicsItemPrivate::ensureSequentialSiblingIndex(void)
	?ensureSortedChildren@QGraphicsItemPrivate@@QAEXXZ @ 4149 NONAME ; void QGraphicsItemPrivate::ensureSortedChildren(void)
	?ensureSpace@QTextEngine@@QBEXH@Z @ 4150 NONAME ABSENT ; void QTextEngine::ensureSpace(int) const
	?ensureVisible@QGraphicsItem@@QAEXABVQRectF@@HH@Z @ 4151 NONAME ; void QGraphicsItem::ensureVisible(class QRectF const &, int, int)
	?ensureVisible@QGraphicsItem@@QAEXMMMMHH@Z @ 4152 NONAME ; void QGraphicsItem::ensureVisible(float, float, float, float, int, int)
	?ensureVisible@QGraphicsView@@QAEXABVQRectF@@HH@Z @ 4153 NONAME ; void QGraphicsView::ensureVisible(class QRectF const &, int, int)
	?ensureVisible@QGraphicsView@@QAEXMMMMHH@Z @ 4154 NONAME ; void QGraphicsView::ensureVisible(float, float, float, float, int, int)
	?ensureVisible@QGraphicsView@@QAEXPBVQGraphicsItem@@HH@Z @ 4155 NONAME ; void QGraphicsView::ensureVisible(class QGraphicsItem const *, int, int)
	?ensureVisible@QScrollArea@@QAEXHHHH@Z @ 4156 NONAME ; void QScrollArea::ensureVisible(int, int, int, int)
	?ensureWidgetVisible@QScrollArea@@QAEXPAVQWidget@@HH@Z @ 4157 NONAME ; void QScrollArea::ensureWidgetVisible(class QWidget *, int, int)
	?enterEvent@QMenu@@MAEXPAVQEvent@@@Z @ 4158 NONAME ; void QMenu::enterEvent(class QEvent *)
	?enterEvent@QToolButton@@MAEXPAVQEvent@@@Z @ 4159 NONAME ; void QToolButton::enterEvent(class QEvent *)
	?enterEvent@QWidget@@MAEXPAVQEvent@@@Z @ 4160 NONAME ; void QWidget::enterEvent(class QEvent *)
	?enterModal@QApplicationPrivate@@SAXPAVQWidget@@@Z @ 4161 NONAME ; void QApplicationPrivate::enterModal(class QWidget *)
	?enterModal_sys@QApplicationPrivate@@SAXPAVQWidget@@@Z @ 4162 NONAME ; void QApplicationPrivate::enterModal_sys(class QWidget *)
	?enterWhatsThisMode@QWhatsThis@@SAXXZ @ 4163 NONAME ; void QWhatsThis::enterWhatsThisMode(void)
	?entered@QAbstractItemView@@IAEXABVQModelIndex@@@Z @ 4164 NONAME ; void QAbstractItemView::entered(class QModelIndex const &)
	?eor@QRegion@@QBE?AV1@ABV1@@Z @ 4165 NONAME ; class QRegion QRegion::eor(class QRegion const &) const
	?eraseRect@QPainter@@QAEXABVQRect@@@Z @ 4166 NONAME ; void QPainter::eraseRect(class QRect const &)
	?eraseRect@QPainter@@QAEXABVQRectF@@@Z @ 4167 NONAME ; void QPainter::eraseRect(class QRectF const &)
	?eraseRect@QPainter@@QAEXHHHH@Z @ 4168 NONAME ; void QPainter::eraseRect(int, int, int, int)
	?error@QImageReader@@QBE?AW4ImageReaderError@1@XZ @ 4169 NONAME ; enum QImageReader::ImageReaderError QImageReader::error(void) const
	?error@QImageWriter@@QBE?AW4ImageWriterError@1@XZ @ 4170 NONAME ; enum QImageWriter::ImageWriterError QImageWriter::error(void) const
	?error@QMovie@@IAEXW4ImageReaderError@QImageReader@@@Z @ 4171 NONAME ; void QMovie::error(enum QImageReader::ImageReaderError)
	?errorString@QImageReader@@QBE?AVQString@@XZ @ 4172 NONAME ; class QString QImageReader::errorString(void) const
	?errorString@QImageWriter@@QBE?AVQString@@XZ @ 4173 NONAME ; class QString QImageWriter::errorString(void) const
	?errorSymbol@Parser@QCss@@QAE?AUSymbol@2@XZ @ 4174 NONAME ; struct QCss::Symbol QCss::Parser::errorSymbol(void)
	?escape@Qt@@YA?AVQString@@ABV2@@Z @ 4175 NONAME ; class QString Qt::escape(class QString const &)
	?escapeButton@QMessageBox@@QBEPAVQAbstractButton@@XZ @ 4176 NONAME ; class QAbstractButton * QMessageBox::escapeButton(void) const
	?event@QAbstractButton@@MAE_NPAVQEvent@@@Z @ 4177 NONAME ; bool QAbstractButton::event(class QEvent *)
	?event@QAbstractItemView@@MAE_NPAVQEvent@@@Z @ 4178 NONAME ; bool QAbstractItemView::event(class QEvent *)
	?event@QAbstractScrollArea@@MAE_NPAVQEvent@@@Z @ 4179 NONAME ; bool QAbstractScrollArea::event(class QEvent *)
	?event@QAbstractSlider@@MAE_NPAVQEvent@@@Z @ 4180 NONAME ; bool QAbstractSlider::event(class QEvent *)
	?event@QAbstractSpinBox@@UAE_NPAVQEvent@@@Z @ 4181 NONAME ; bool QAbstractSpinBox::event(class QEvent *)
	?event@QAction@@MAE_NPAVQEvent@@@Z @ 4182 NONAME ; bool QAction::event(class QEvent *)
	?event@QApplication@@MAE_NPAVQEvent@@@Z @ 4183 NONAME ; bool QApplication::event(class QEvent *)
	?event@QCalendarWidget@@MAE_NPAVQEvent@@@Z @ 4184 NONAME ; bool QCalendarWidget::event(class QEvent *)
	?event@QCheckBox@@MAE_NPAVQEvent@@@Z @ 4185 NONAME ; bool QCheckBox::event(class QEvent *)
	?event@QClipboard@@MAE_NPAVQEvent@@@Z @ 4186 NONAME ; bool QClipboard::event(class QEvent *)
	?event@QComboBox@@UAE_NPAVQEvent@@@Z @ 4187 NONAME ; bool QComboBox::event(class QEvent *)
	?event@QCommandLinkButton@@MAE_NPAVQEvent@@@Z @ 4188 NONAME ; bool QCommandLinkButton::event(class QEvent *)
	?event@QCompleter@@MAE_NPAVQEvent@@@Z @ 4189 NONAME ; bool QCompleter::event(class QEvent *)
	?event@QDateTimeEdit@@UAE_NPAVQEvent@@@Z @ 4190 NONAME ; bool QDateTimeEdit::event(class QEvent *)
	?event@QDial@@MAE_NPAVQEvent@@@Z @ 4191 NONAME ; bool QDial::event(class QEvent *)
	?event@QDialog@@MAE_NPAVQEvent@@@Z @ 4192 NONAME ; bool QDialog::event(class QEvent *)
	?event@QDialogButtonBox@@MAE_NPAVQEvent@@@Z @ 4193 NONAME ; bool QDialogButtonBox::event(class QEvent *)
	?event@QDockWidget@@MAE_NPAVQEvent@@@Z @ 4194 NONAME ; bool QDockWidget::event(class QEvent *)
	?event@QFileSystemModel@@MAE_NPAVQEvent@@@Z @ 4195 NONAME ; bool QFileSystemModel::event(class QEvent *)
	?event@QFocusFrame@@MAE_NPAVQEvent@@@Z @ 4196 NONAME ; bool QFocusFrame::event(class QEvent *)
	?event@QFontComboBox@@MAE_NPAVQEvent@@@Z @ 4197 NONAME ; bool QFontComboBox::event(class QEvent *)
	?event@QFrame@@MAE_NPAVQEvent@@@Z @ 4198 NONAME ; bool QFrame::event(class QEvent *)
	?event@QGraphicsProxyWidget@@MAE_NPAVQEvent@@@Z @ 4199 NONAME ; bool QGraphicsProxyWidget::event(class QEvent *)
	?event@QGraphicsScene@@MAE_NPAVQEvent@@@Z @ 4200 NONAME ; bool QGraphicsScene::event(class QEvent *)
	?event@QGraphicsView@@MAE_NPAVQEvent@@@Z @ 4201 NONAME ; bool QGraphicsView::event(class QEvent *)
	?event@QGraphicsWidget@@MAE_NPAVQEvent@@@Z @ 4202 NONAME ; bool QGraphicsWidget::event(class QEvent *)
	?event@QGroupBox@@MAE_NPAVQEvent@@@Z @ 4203 NONAME ; bool QGroupBox::event(class QEvent *)
	?event@QHeaderView@@MAE_NPAVQEvent@@@Z @ 4204 NONAME ; bool QHeaderView::event(class QEvent *)
	?event@QLCDNumber@@MAE_NPAVQEvent@@@Z @ 4205 NONAME ; bool QLCDNumber::event(class QEvent *)
	?event@QLabel@@MAE_NPAVQEvent@@@Z @ 4206 NONAME ; bool QLabel::event(class QEvent *)
	?event@QLineEdit@@UAE_NPAVQEvent@@@Z @ 4207 NONAME ; bool QLineEdit::event(class QEvent *)
	?event@QListView@@MAE_NPAVQEvent@@@Z @ 4208 NONAME ; bool QListView::event(class QEvent *)
	?event@QListWidget@@MAE_NPAVQEvent@@@Z @ 4209 NONAME ; bool QListWidget::event(class QEvent *)
