EXPORTS
	??0QAbstractNetworkCache@@IAE@AAVQAbstractNetworkCachePrivate@@PAVQObject@@@Z @ 1 NONAME ; QAbstractNetworkCache::QAbstractNetworkCache(class QAbstractNetworkCachePrivate &, class QObject *)
	??0QAbstractNetworkCache@@IAE@PAVQObject@@@Z @ 2 NONAME ; QAbstractNetworkCache::QAbstractNetworkCache(class QObject *)
	??0QAbstractSocket@@IAE@W4SocketType@0@AAVQAbstractSocketPrivate@@PAVQObject@@@Z @ 3 NONAME ; QAbstractSocket::QAbstractSocket(enum QAbstractSocket::SocketType, class QAbstractSocketPrivate &, class QObject *)
	??0QAbstractSocket@@QAE@W4SocketType@0@PAVQObject@@@Z @ 4 NONAME ; QAbstractSocket::QAbstractSocket(enum QAbstractSocket::SocketType, class QObject *)
	??0QAuthenticator@@QAE@ABV0@@Z @ 5 NONAME ; QAuthenticator::QAuthenticator(class QAuthenticator const &)
	??0QAuthenticator@@QAE@XZ @ 6 NONAME ; QAuthenticator::QAuthenticator(void)
	??0QFtp@@QAE@PAVQObject@@@Z @ 7 NONAME ; QFtp::QFtp(class QObject *)
	??0QHostAddress@@QAE@ABV0@@Z @ 8 NONAME ; QHostAddress::QHostAddress(class QHostAddress const &)
	??0QHostAddress@@QAE@ABVQIPv6Address@@@Z @ 9 NONAME ; QHostAddress::QHostAddress(class QIPv6Address const &)
	??0QHostAddress@@QAE@ABVQString@@@Z @ 10 NONAME ; QHostAddress::QHostAddress(class QString const &)
	??0QHostAddress@@QAE@I@Z @ 11 NONAME ; QHostAddress::QHostAddress(unsigned int)
	??0QHostAddress@@QAE@PAE@Z @ 12 NONAME ; QHostAddress::QHostAddress(unsigned char *)
	??0QHostAddress@@QAE@PBUsockaddr@@@Z @ 13 NONAME ; QHostAddress::QHostAddress(struct sockaddr const *)
	??0QHostAddress@@QAE@W4SpecialAddress@0@@Z @ 14 NONAME ; QHostAddress::QHostAddress(enum QHostAddress::SpecialAddress)
	??0QHostAddress@@QAE@XZ @ 15 NONAME ; QHostAddress::QHostAddress(void)
	??0QHostInfo@@QAE@ABV0@@Z @ 16 NONAME ; QHostInfo::QHostInfo(class QHostInfo const &)
	??0QHostInfo@@QAE@H@Z @ 17 NONAME ; QHostInfo::QHostInfo(int)
	??0QHttp@@QAE@ABVQString@@GPAVQObject@@@Z @ 18 NONAME ; QHttp::QHttp(class QString const &, unsigned short, class QObject *)
	??0QHttp@@QAE@ABVQString@@W4ConnectionMode@0@GPAVQObject@@@Z @ 19 NONAME ; QHttp::QHttp(class QString const &, enum QHttp::ConnectionMode, unsigned short, class QObject *)
	??0QHttp@@QAE@PAVQObject@@@Z @ 20 NONAME ; QHttp::QHttp(class QObject *)
	??0QHttpHeader@@IAE@AAVQHttpHeaderPrivate@@ABV0@@Z @ 21 NONAME ; QHttpHeader::QHttpHeader(class QHttpHeaderPrivate &, class QHttpHeader const &)
	??0QHttpHeader@@IAE@AAVQHttpHeaderPrivate@@ABVQString@@@Z @ 22 NONAME ; QHttpHeader::QHttpHeader(class QHttpHeaderPrivate &, class QString const &)
	??0QHttpHeader@@QAE@ABV0@@Z @ 23 NONAME ; QHttpHeader::QHttpHeader(class QHttpHeader const &)
	??0QHttpHeader@@QAE@ABVQString@@@Z @ 24 NONAME ; QHttpHeader::QHttpHeader(class QString const &)
	??0QHttpHeader@@QAE@XZ @ 25 NONAME ; QHttpHeader::QHttpHeader(void)
	??0QHttpRequestHeader@@QAE@ABV0@@Z @ 26 NONAME ; QHttpRequestHeader::QHttpRequestHeader(class QHttpRequestHeader const &)
	??0QHttpRequestHeader@@QAE@ABVQString@@0HH@Z @ 27 NONAME ; QHttpRequestHeader::QHttpRequestHeader(class QString const &, class QString const &, int, int)
	??0QHttpRequestHeader@@QAE@ABVQString@@@Z @ 28 NONAME ; QHttpRequestHeader::QHttpRequestHeader(class QString const &)
	??0QHttpRequestHeader@@QAE@XZ @ 29 NONAME ; QHttpRequestHeader::QHttpRequestHeader(void)
	??0QHttpResponseHeader@@QAE@ABV0@@Z @ 30 NONAME ; QHttpResponseHeader::QHttpResponseHeader(class QHttpResponseHeader const &)
	??0QHttpResponseHeader@@QAE@ABVQString@@@Z @ 31 NONAME ; QHttpResponseHeader::QHttpResponseHeader(class QString const &)
	??0QHttpResponseHeader@@QAE@HABVQString@@HH@Z @ 32 NONAME ; QHttpResponseHeader::QHttpResponseHeader(int, class QString const &, int, int)
	??0QHttpResponseHeader@@QAE@XZ @ 33 NONAME ; QHttpResponseHeader::QHttpResponseHeader(void)
	??0QLocalServer@@QAE@PAVQObject@@@Z @ 34 NONAME ; QLocalServer::QLocalServer(class QObject *)
	??0QLocalSocket@@QAE@PAVQObject@@@Z @ 35 NONAME ; QLocalSocket::QLocalSocket(class QObject *)
	??0QNetworkAccessManager@@QAE@PAVQObject@@@Z @ 36 NONAME ; QNetworkAccessManager::QNetworkAccessManager(class QObject *)
	??0QNetworkAddressEntry@@QAE@ABV0@@Z @ 37 NONAME ; QNetworkAddressEntry::QNetworkAddressEntry(class QNetworkAddressEntry const &)
	??0QNetworkAddressEntry@@QAE@XZ @ 38 NONAME ; QNetworkAddressEntry::QNetworkAddressEntry(void)
	??0QNetworkCacheMetaData@@QAE@ABV0@@Z @ 39 NONAME ; QNetworkCacheMetaData::QNetworkCacheMetaData(class QNetworkCacheMetaData const &)
	??0QNetworkCacheMetaData@@QAE@XZ @ 40 NONAME ; QNetworkCacheMetaData::QNetworkCacheMetaData(void)
	??0QNetworkCookie@@QAE@ABV0@@Z @ 41 NONAME ; QNetworkCookie::QNetworkCookie(class QNetworkCookie const &)
	??0QNetworkCookie@@QAE@ABVQByteArray@@0@Z @ 42 NONAME ; QNetworkCookie::QNetworkCookie(class QByteArray const &, class QByteArray const &)
	??0QNetworkCookieJar@@QAE@PAVQObject@@@Z @ 43 NONAME ; QNetworkCookieJar::QNetworkCookieJar(class QObject *)
	??0QNetworkDiskCache@@QAE@PAVQObject@@@Z @ 44 NONAME ; QNetworkDiskCache::QNetworkDiskCache(class QObject *)
	??0QNetworkInterface@@QAE@ABV0@@Z @ 45 NONAME ; QNetworkInterface::QNetworkInterface(class QNetworkInterface const &)
	??0QNetworkInterface@@QAE@XZ @ 46 NONAME ; QNetworkInterface::QNetworkInterface(void)
	??0QNetworkProxy@@QAE@ABV0@@Z @ 47 NONAME ; QNetworkProxy::QNetworkProxy(class QNetworkProxy const &)
	??0QNetworkProxy@@QAE@W4ProxyType@0@ABVQString@@G11@Z @ 48 NONAME ; QNetworkProxy::QNetworkProxy(enum QNetworkProxy::ProxyType, class QString const &, unsigned short, class QString const &, class QString const &)
	??0QNetworkProxy@@QAE@XZ @ 49 NONAME ; QNetworkProxy::QNetworkProxy(void)
	??0QNetworkProxyFactory@@QAE@XZ @ 50 NONAME ; QNetworkProxyFactory::QNetworkProxyFactory(void)
	??0QNetworkProxyQuery@@QAE@ABV0@@Z @ 51 NONAME ; QNetworkProxyQuery::QNetworkProxyQuery(class QNetworkProxyQuery const &)
	??0QNetworkProxyQuery@@QAE@ABVQString@@H0W4QueryType@0@@Z @ 52 NONAME ; QNetworkProxyQuery::QNetworkProxyQuery(class QString const &, int, class QString const &, enum QNetworkProxyQuery::QueryType)
	??0QNetworkProxyQuery@@QAE@ABVQUrl@@W4QueryType@0@@Z @ 53 NONAME ; QNetworkProxyQuery::QNetworkProxyQuery(class QUrl const &, enum QNetworkProxyQuery::QueryType)
	??0QNetworkProxyQuery@@QAE@GABVQString@@W4QueryType@0@@Z @ 54 NONAME ; QNetworkProxyQuery::QNetworkProxyQuery(unsigned short, class QString const &, enum QNetworkProxyQuery::QueryType)
	??0QNetworkProxyQuery@@QAE@XZ @ 55 NONAME ; QNetworkProxyQuery::QNetworkProxyQuery(void)
	??0QNetworkReply@@IAE@AAVQNetworkReplyPrivate@@PAVQObject@@@Z @ 56 NONAME ; QNetworkReply::QNetworkReply(class QNetworkReplyPrivate &, class QObject *)
	??0QNetworkReply@@IAE@PAVQObject@@@Z @ 57 NONAME ; QNetworkReply::QNetworkReply(class QObject *)
	??0QNetworkRequest@@QAE@ABV0@@Z @ 58 NONAME ; QNetworkRequest::QNetworkRequest(class QNetworkRequest const &)
	??0QNetworkRequest@@QAE@ABVQUrl@@@Z @ 59 NONAME ; QNetworkRequest::QNetworkRequest(class QUrl const &)
	??0QSslCertificate@@QAE@ABV0@@Z @ 60 NONAME ; QSslCertificate::QSslCertificate(class QSslCertificate const &)
	??0QSslCertificate@@QAE@ABVQByteArray@@W4EncodingFormat@QSsl@@@Z @ 61 NONAME ; QSslCertificate::QSslCertificate(class QByteArray const &, enum QSsl::EncodingFormat)
	??0QSslCertificate@@QAE@PAVQIODevice@@W4EncodingFormat@QSsl@@@Z @ 62 NONAME ; QSslCertificate::QSslCertificate(class QIODevice *, enum QSsl::EncodingFormat)
	??0QSslCipher@@QAE@ABV0@@Z @ 63 NONAME ; QSslCipher::QSslCipher(class QSslCipher const &)
	??0QSslCipher@@QAE@ABVQString@@W4SslProtocol@QSsl@@@Z @ 64 NONAME ; QSslCipher::QSslCipher(class QString const &, enum QSsl::SslProtocol)
	??0QSslCipher@@QAE@XZ @ 65 NONAME ; QSslCipher::QSslCipher(void)
	??0QSslConfiguration@@AAE@PAVQSslConfigurationPrivate@@@Z @ 66 NONAME ; QSslConfiguration::QSslConfiguration(class QSslConfigurationPrivate *)
	??0QSslConfiguration@@QAE@ABV0@@Z @ 67 NONAME ; QSslConfiguration::QSslConfiguration(class QSslConfiguration const &)
	??0QSslConfiguration@@QAE@XZ @ 68 NONAME ; QSslConfiguration::QSslConfiguration(void)
	??0QSslError@@QAE@ABV0@@Z @ 69 NONAME ; QSslError::QSslError(class QSslError const &)
	??0QSslError@@QAE@W4SslError@0@@Z @ 70 NONAME ; QSslError::QSslError(enum QSslError::SslError)
	??0QSslError@@QAE@W4SslError@0@ABVQSslCertificate@@@Z @ 71 NONAME ; QSslError::QSslError(enum QSslError::SslError, class QSslCertificate const &)
	??0QSslError@@QAE@XZ @ 72 NONAME ; QSslError::QSslError(void)
	??0QSslKey@@QAE@ABV0@@Z @ 73 NONAME ; QSslKey::QSslKey(class QSslKey const &)
	??0QSslKey@@QAE@ABVQByteArray@@W4KeyAlgorithm@QSsl@@W4EncodingFormat@3@W4KeyType@3@0@Z @ 74 NONAME ; QSslKey::QSslKey(class QByteArray const &, enum QSsl::KeyAlgorithm, enum QSsl::EncodingFormat, enum QSsl::KeyType, class QByteArray const &)
	??0QSslKey@@QAE@PAVQIODevice@@W4KeyAlgorithm@QSsl@@W4EncodingFormat@3@W4KeyType@3@ABVQByteArray@@@Z @ 75 NONAME ; QSslKey::QSslKey(class QIODevice *, enum QSsl::KeyAlgorithm, enum QSsl::EncodingFormat, enum QSsl::KeyType, class QByteArray const &)
	??0QSslKey@@QAE@XZ @ 76 NONAME ; QSslKey::QSslKey(void)
	??0QSslSocket@@QAE@PAVQObject@@@Z @ 77 NONAME ; QSslSocket::QSslSocket(class QObject *)
	??0QTcpServer@@QAE@PAVQObject@@@Z @ 78 NONAME ; QTcpServer::QTcpServer(class QObject *)
	??0QTcpSocket@@IAE@AAVQTcpSocketPrivate@@PAVQObject@@@Z @ 79 NONAME ; QTcpSocket::QTcpSocket(class QTcpSocketPrivate &, class QObject *)
	??0QTcpSocket@@QAE@PAVQObject@@@Z @ 80 NONAME ; QTcpSocket::QTcpSocket(class QObject *)
	??0QUdpSocket@@QAE@PAVQObject@@@Z @ 81 NONAME ; QUdpSocket::QUdpSocket(class QObject *)
	??0QUrlInfo@@QAE@ABV0@@Z @ 82 NONAME ; QUrlInfo::QUrlInfo(class QUrlInfo const &)
	??0QUrlInfo@@QAE@ABVQString@@H00_JABVQDateTime@@2_N33333@Z @ 83 NONAME ; QUrlInfo::QUrlInfo(class QString const &, int, class QString const &, class QString const &, long long, class QDateTime const &, class QDateTime const &, bool, bool, bool, bool, bool, bool)
	??0QUrlInfo@@QAE@ABVQUrl@@HABVQString@@1_JABVQDateTime@@3_N44444@Z @ 84 NONAME ; QUrlInfo::QUrlInfo(class QUrl const &, int, class QString const &, class QString const &, long long, class QDateTime const &, class QDateTime const &, bool, bool, bool, bool, bool, bool)
	??0QUrlInfo@@QAE@XZ @ 85 NONAME ; QUrlInfo::QUrlInfo(void)
	??1QAbstractNetworkCache@@UAE@XZ @ 86 NONAME ; QAbstractNetworkCache::~QAbstractNetworkCache(void)
	??1QAbstractSocket@@UAE@XZ @ 87 NONAME ; QAbstractSocket::~QAbstractSocket(void)
	??1QAuthenticator@@QAE@XZ @ 88 NONAME ; QAuthenticator::~QAuthenticator(void)
	??1QFtp@@UAE@XZ @ 89 NONAME ; QFtp::~QFtp(void)
	??1QHostAddress@@QAE@XZ @ 90 NONAME ; QHostAddress::~QHostAddress(void)
	??1QHostInfo@@QAE@XZ @ 91 NONAME ; QHostInfo::~QHostInfo(void)
	??1QHttp@@UAE@XZ @ 92 NONAME ; QHttp::~QHttp(void)
	??1QHttpHeader@@UAE@XZ @ 93 NONAME ; QHttpHeader::~QHttpHeader(void)
	??1QHttpRequestHeader@@UAE@XZ @ 94 NONAME ; QHttpRequestHeader::~QHttpRequestHeader(void)
	??1QHttpResponseHeader@@UAE@XZ @ 95 NONAME ; QHttpResponseHeader::~QHttpResponseHeader(void)
	??1QLocalServer@@UAE@XZ @ 96 NONAME ; QLocalServer::~QLocalServer(void)
	??1QLocalSocket@@UAE@XZ @ 97 NONAME ; QLocalSocket::~QLocalSocket(void)
	??1QNetworkAccessManager@@UAE@XZ @ 98 NONAME ; QNetworkAccessManager::~QNetworkAccessManager(void)
	??1QNetworkAddressEntry@@QAE@XZ @ 99 NONAME ; QNetworkAddressEntry::~QNetworkAddressEntry(void)
	??1QNetworkCacheMetaData@@QAE@XZ @ 100 NONAME ; QNetworkCacheMetaData::~QNetworkCacheMetaData(void)
	??1QNetworkCookie@@QAE@XZ @ 101 NONAME ; QNetworkCookie::~QNetworkCookie(void)
	??1QNetworkCookieJar@@UAE@XZ @ 102 NONAME ; QNetworkCookieJar::~QNetworkCookieJar(void)
	??1QNetworkDiskCache@@UAE@XZ @ 103 NONAME ; QNetworkDiskCache::~QNetworkDiskCache(void)
	??1QNetworkInterface@@QAE@XZ @ 104 NONAME ; QNetworkInterface::~QNetworkInterface(void)
	??1QNetworkProxy@@QAE@XZ @ 105 NONAME ; QNetworkProxy::~QNetworkProxy(void)
	??1QNetworkProxyFactory@@UAE@XZ @ 106 NONAME ; QNetworkProxyFactory::~QNetworkProxyFactory(void)
	??1QNetworkProxyQuery@@QAE@XZ @ 107 NONAME ; QNetworkProxyQuery::~QNetworkProxyQuery(void)
	??1QNetworkReply@@UAE@XZ @ 108 NONAME ; QNetworkReply::~QNetworkReply(void)
	??1QNetworkRequest@@QAE@XZ @ 109 NONAME ; QNetworkRequest::~QNetworkRequest(void)
	??1QSslCertificate@@QAE@XZ @ 110 NONAME ; QSslCertificate::~QSslCertificate(void)
	??1QSslCipher@@QAE@XZ @ 111 NONAME ; QSslCipher::~QSslCipher(void)
	??1QSslConfiguration@@QAE@XZ @ 112 NONAME ; QSslConfiguration::~QSslConfiguration(void)
	??1QSslError@@QAE@XZ @ 113 NONAME ; QSslError::~QSslError(void)
	??1QSslKey@@QAE@XZ @ 114 NONAME ; QSslKey::~QSslKey(void)
	??1QSslSocket@@UAE@XZ @ 115 NONAME ; QSslSocket::~QSslSocket(void)
	??1QTcpServer@@UAE@XZ @ 116 NONAME ; QTcpServer::~QTcpServer(void)
	??1QTcpSocket@@UAE@XZ @ 117 NONAME ; QTcpSocket::~QTcpSocket(void)
	??1QUdpSocket@@UAE@XZ @ 118 NONAME ; QUdpSocket::~QUdpSocket(void)
	??1QUrlInfo@@UAE@XZ @ 119 NONAME ; QUrlInfo::~QUrlInfo(void)
	??4QAuthenticator@@QAEAAV0@ABV0@@Z @ 120 NONAME ; class QAuthenticator & QAuthenticator::operator=(class QAuthenticator const &)
	??4QHostAddress@@QAEAAV0@ABV0@@Z @ 121 NONAME ; class QHostAddress & QHostAddress::operator=(class QHostAddress const &)
	??4QHostAddress@@QAEAAV0@ABVQString@@@Z @ 122 NONAME ; class QHostAddress & QHostAddress::operator=(class QString const &)
	??4QHostInfo@@QAEAAV0@ABV0@@Z @ 123 NONAME ; class QHostInfo & QHostInfo::operator=(class QHostInfo const &)
	??4QHttpHeader@@QAEAAV0@ABV0@@Z @ 124 NONAME ; class QHttpHeader & QHttpHeader::operator=(class QHttpHeader const &)
	??4QHttpRequestHeader@@QAEAAV0@ABV0@@Z @ 125 NONAME ; class QHttpRequestHeader & QHttpRequestHeader::operator=(class QHttpRequestHeader const &)
	??4QHttpResponseHeader@@QAEAAV0@ABV0@@Z @ 126 NONAME ; class QHttpResponseHeader & QHttpResponseHeader::operator=(class QHttpResponseHeader const &)
	??4QNetworkAddressEntry@@QAEAAV0@ABV0@@Z @ 127 NONAME ; class QNetworkAddressEntry & QNetworkAddressEntry::operator=(class QNetworkAddressEntry const &)
	??4QNetworkCacheMetaData@@QAEAAV0@ABV0@@Z @ 128 NONAME ; class QNetworkCacheMetaData & QNetworkCacheMetaData::operator=(class QNetworkCacheMetaData const &)
	??4QNetworkCookie@@QAEAAV0@ABV0@@Z @ 129 NONAME ; class QNetworkCookie & QNetworkCookie::operator=(class QNetworkCookie const &)
	??4QNetworkInterface@@QAEAAV0@ABV0@@Z @ 130 NONAME ; class QNetworkInterface & QNetworkInterface::operator=(class QNetworkInterface const &)
	??4QNetworkProxy@@QAEAAV0@ABV0@@Z @ 131 NONAME ; class QNetworkProxy & QNetworkProxy::operator=(class QNetworkProxy const &)
	??4QNetworkProxyQuery@@QAEAAV0@ABV0@@Z @ 132 NONAME ; class QNetworkProxyQuery & QNetworkProxyQuery::operator=(class QNetworkProxyQuery const &)
	??4QNetworkRequest@@QAEAAV0@ABV0@@Z @ 133 NONAME ; class QNetworkRequest & QNetworkRequest::operator=(class QNetworkRequest const &)
	??4QSslCertificate@@QAEAAV0@ABV0@@Z @ 134 NONAME ; class QSslCertificate & QSslCertificate::operator=(class QSslCertificate const &)
	??4QSslCipher@@QAEAAV0@ABV0@@Z @ 135 NONAME ; class QSslCipher & QSslCipher::operator=(class QSslCipher const &)
	??4QSslConfiguration@@QAEAAV0@ABV0@@Z @ 136 NONAME ; class QSslConfiguration & QSslConfiguration::operator=(class QSslConfiguration const &)
	??4QSslError@@QAEAAV0@ABV0@@Z @ 137 NONAME ; class QSslError & QSslError::operator=(class QSslError const &)
	??4QSslKey@@QAEAAV0@ABV0@@Z @ 138 NONAME ; class QSslKey & QSslKey::operator=(class QSslKey const &)
	??4QUrlInfo@@QAEAAV0@ABV0@@Z @ 139 NONAME ; class QUrlInfo & QUrlInfo::operator=(class QUrlInfo const &)
	??5@YAAAVQDataStream@@AAV0@AAVQHostAddress@@@Z @ 140 NONAME ; class QDataStream & operator>>(class QDataStream &, class QHostAddress &)
	??5@YAAAVQDataStream@@AAV0@AAVQNetworkCacheMetaData@@@Z @ 141 NONAME ; class QDataStream & operator>>(class QDataStream &, class QNetworkCacheMetaData &)
	??6@YA?AVQDebug@@V0@ABVQHostAddress@@@Z @ 142 NONAME ; class QDebug operator<<(class QDebug, class QHostAddress const &)
	??6@YA?AVQDebug@@V0@ABVQNetworkCookie@@@Z @ 143 NONAME ; class QDebug operator<<(class QDebug, class QNetworkCookie const &)
	??6@YA?AVQDebug@@V0@ABVQNetworkInterface@@@Z @ 144 NONAME ; class QDebug operator<<(class QDebug, class QNetworkInterface const &)
	??6@YA?AVQDebug@@V0@ABVQSslCertificate@@@Z @ 145 NONAME ; class QDebug operator<<(class QDebug, class QSslCertificate const &)
	??6@YA?AVQDebug@@V0@ABVQSslCipher@@@Z @ 146 NONAME ; class QDebug operator<<(class QDebug, class QSslCipher const &)
	??6@YA?AVQDebug@@V0@ABVQSslError@@@Z @ 147 NONAME ; class QDebug operator<<(class QDebug, class QSslError const &)
	??6@YA?AVQDebug@@V0@ABVQSslKey@@@Z @ 148 NONAME ; class QDebug operator<<(class QDebug, class QSslKey const &)
	??6@YA?AVQDebug@@V0@ABW4SslError@QSslError@@@Z @ 149 NONAME ; class QDebug operator<<(class QDebug, enum QSslError::SslError const &)
	??6@YA?AVQDebug@@V0@W4LocalSocketError@QLocalSocket@@@Z @ 150 NONAME ; class QDebug operator<<(class QDebug, enum QLocalSocket::LocalSocketError)
	??6@YA?AVQDebug@@V0@W4LocalSocketState@QLocalSocket@@@Z @ 151 NONAME ; class QDebug operator<<(class QDebug, enum QLocalSocket::LocalSocketState)
	??6@YA?AVQDebug@@V0@W4SocketError@QAbstractSocket@@@Z @ 152 NONAME ; class QDebug operator<<(class QDebug, enum QAbstractSocket::SocketError)
	??6@YA?AVQDebug@@V0@W4SocketState@QAbstractSocket@@@Z @ 153 NONAME ; class QDebug operator<<(class QDebug, enum QAbstractSocket::SocketState)
	??6@YA?AVQDebug@@V0@W4SubjectInfo@QSslCertificate@@@Z @ 154 NONAME ; class QDebug operator<<(class QDebug, enum QSslCertificate::SubjectInfo)
	??6@YAAAVQDataStream@@AAV0@ABVQHostAddress@@@Z @ 155 NONAME ; class QDataStream & operator<<(class QDataStream &, class QHostAddress const &)
	??6@YAAAVQDataStream@@AAV0@ABVQNetworkCacheMetaData@@@Z @ 156 NONAME ; class QDataStream & operator<<(class QDataStream &, class QNetworkCacheMetaData const &)
	??8QAuthenticator@@QBE_NABV0@@Z @ 157 NONAME ; bool QAuthenticator::operator==(class QAuthenticator const &) const
	??8QHostAddress@@QBE_NABV0@@Z @ 158 NONAME ; bool QHostAddress::operator==(class QHostAddress const &) const
	??8QHostAddress@@QBE_NW4SpecialAddress@0@@Z @ 159 NONAME ; bool QHostAddress::operator==(enum QHostAddress::SpecialAddress) const
	??8QNetworkAddressEntry@@QBE_NABV0@@Z @ 160 NONAME ; bool QNetworkAddressEntry::operator==(class QNetworkAddressEntry const &) const
	??8QNetworkCacheMetaData@@QBE_NABV0@@Z @ 161 NONAME ; bool QNetworkCacheMetaData::operator==(class QNetworkCacheMetaData const &) const
	??8QNetworkCookie@@QBE_NABV0@@Z @ 162 NONAME ; bool QNetworkCookie::operator==(class QNetworkCookie const &) const
	??8QNetworkProxy@@QBE_NABV0@@Z @ 163 NONAME ; bool QNetworkProxy::operator==(class QNetworkProxy const &) const
	??8QNetworkProxyQuery@@QBE_NABV0@@Z @ 164 NONAME ; bool QNetworkProxyQuery::operator==(class QNetworkProxyQuery const &) const
	??8QNetworkRequest@@QBE_NABV0@@Z @ 165 NONAME ; bool QNetworkRequest::operator==(class QNetworkRequest const &) const
	??8QSslCertificate@@QBE_NABV0@@Z @ 166 NONAME ; bool QSslCertificate::operator==(class QSslCertificate const &) const
	??8QSslCipher@@QBE_NABV0@@Z @ 167 NONAME ; bool QSslCipher::operator==(class QSslCipher const &) const
	??8QSslConfiguration@@QBE_NABV0@@Z @ 168 NONAME ; bool QSslConfiguration::operator==(class QSslConfiguration const &) const
	??8QSslError@@QBE_NABV0@@Z @ 169 NONAME ; bool QSslError::operator==(class QSslError const &) const
	??8QSslKey@@QBE_NABV0@@Z @ 170 NONAME ; bool QSslKey::operator==(class QSslKey const &) const
	??8QUrlInfo@@QBE_NABV0@@Z @ 171 NONAME ; bool QUrlInfo::operator==(class QUrlInfo const &) const
	??9QAuthenticator@@QBE_NABV0@@Z @ 172 NONAME ; bool QAuthenticator::operator!=(class QAuthenticator const &) const
	??9QHostAddress@@QBE_NABV0@@Z @ 173 NONAME ; bool QHostAddress::operator!=(class QHostAddress const &) const
	??9QHostAddress@@QBE_NW4SpecialAddress@0@@Z @ 174 NONAME ; bool QHostAddress::operator!=(enum QHostAddress::SpecialAddress) const
	??9QNetworkAddressEntry@@QBE_NABV0@@Z @ 175 NONAME ; bool QNetworkAddressEntry::operator!=(class QNetworkAddressEntry const &) const
	??9QNetworkCacheMetaData@@QBE_NABV0@@Z @ 176 NONAME ; bool QNetworkCacheMetaData::operator!=(class QNetworkCacheMetaData const &) const
	??9QNetworkCookie@@QBE_NABV0@@Z @ 177 NONAME ; bool QNetworkCookie::operator!=(class QNetworkCookie const &) const
	??9QNetworkProxy@@QBE_NABV0@@Z @ 178 NONAME ; bool QNetworkProxy::operator!=(class QNetworkProxy const &) const
	??9QNetworkProxyQuery@@QBE_NABV0@@Z @ 179 NONAME ; bool QNetworkProxyQuery::operator!=(class QNetworkProxyQuery const &) const
	??9QNetworkRequest@@QBE_NABV0@@Z @ 180 NONAME ; bool QNetworkRequest::operator!=(class QNetworkRequest const &) const
	??9QSslCertificate@@QBE_NABV0@@Z @ 181 NONAME ; bool QSslCertificate::operator!=(class QSslCertificate const &) const
	??9QSslCipher@@QBE_NABV0@@Z @ 182 NONAME ; bool QSslCipher::operator!=(class QSslCipher const &) const
	??9QSslConfiguration@@QBE_NABV0@@Z @ 183 NONAME ; bool QSslConfiguration::operator!=(class QSslConfiguration const &) const
	??9QSslError@@QBE_NABV0@@Z @ 184 NONAME ; bool QSslError::operator!=(class QSslError const &) const
	??9QSslKey@@QBE_NABV0@@Z @ 185 NONAME ; bool QSslKey::operator!=(class QSslKey const &) const
	??9QUrlInfo@@QBE_NABV0@@Z @ 186 NONAME ; bool QUrlInfo::operator!=(class QUrlInfo const &) const
	??AQIPv6Address@@QAEAAEH@Z @ 187 NONAME ; unsigned char & QIPv6Address::operator[](int)
	??AQIPv6Address@@QBEEH@Z @ 188 NONAME ; unsigned char QIPv6Address::operator[](int) const
	??_EQAbstractNetworkCache@@UAE@I@Z @ 189 NONAME ; QAbstractNetworkCache::~QAbstractNetworkCache(unsigned int)
	??_EQAbstractSocket@@UAE@I@Z @ 190 NONAME ; QAbstractSocket::~QAbstractSocket(unsigned int)
	??_EQFtp@@UAE@I@Z @ 191 NONAME ; QFtp::~QFtp(unsigned int)
	??_EQHttp@@UAE@I@Z @ 192 NONAME ; QHttp::~QHttp(unsigned int)
	??_EQHttpHeader@@UAE@I@Z @ 193 NONAME ; QHttpHeader::~QHttpHeader(unsigned int)
	??_EQHttpRequestHeader@@UAE@I@Z @ 194 NONAME ; QHttpRequestHeader::~QHttpRequestHeader(unsigned int)
	??_EQHttpResponseHeader@@UAE@I@Z @ 195 NONAME ; QHttpResponseHeader::~QHttpResponseHeader(unsigned int)
	??_EQLocalServer@@UAE@I@Z @ 196 NONAME ; QLocalServer::~QLocalServer(unsigned int)
	??_EQLocalSocket@@UAE@I@Z @ 197 NONAME ; QLocalSocket::~QLocalSocket(unsigned int)
	??_EQNetworkAccessManager@@UAE@I@Z @ 198 NONAME ; QNetworkAccessManager::~QNetworkAccessManager(unsigned int)
	??_EQNetworkCookieJar@@UAE@I@Z @ 199 NONAME ; QNetworkCookieJar::~QNetworkCookieJar(unsigned int)
	??_EQNetworkDiskCache@@UAE@I@Z @ 200 NONAME ; QNetworkDiskCache::~QNetworkDiskCache(unsigned int)
	??_EQNetworkProxyFactory@@UAE@I@Z @ 201 NONAME ; QNetworkProxyFactory::~QNetworkProxyFactory(unsigned int)
	??_EQNetworkReply@@UAE@I@Z @ 202 NONAME ; QNetworkReply::~QNetworkReply(unsigned int)
	??_EQSslSocket@@UAE@I@Z @ 203 NONAME ; QSslSocket::~QSslSocket(unsigned int)
	??_EQTcpServer@@UAE@I@Z @ 204 NONAME ; QTcpServer::~QTcpServer(unsigned int)
	??_EQTcpSocket@@UAE@I@Z @ 205 NONAME ; QTcpSocket::~QTcpSocket(unsigned int)
	??_EQUdpSocket@@UAE@I@Z @ 206 NONAME ; QUdpSocket::~QUdpSocket(unsigned int)
	??_EQUrlInfo@@UAE@I@Z @ 207 NONAME ; QUrlInfo::~QUrlInfo(unsigned int)
	?abort@QAbstractSocket@@QAEXXZ @ 208 NONAME ; void QAbstractSocket::abort(void)
	?abort@QFtp@@QAEXXZ @ 209 NONAME ; void QFtp::abort(void)
	?abort@QHttp@@QAEXXZ @ 210 NONAME ; void QHttp::abort(void)
	?abort@QLocalSocket@@QAEXXZ @ 211 NONAME ; void QLocalSocket::abort(void)
	?abort@QSslSocket@@QAEXXZ @ 212 NONAME ; void QSslSocket::abort(void)
	?abortHostLookup@QHostInfo@@SAXH@Z @ 213 NONAME ; void QHostInfo::abortHostLookup(int)
	?addCaCertificate@QSslSocket@@QAEXABVQSslCertificate@@@Z @ 214 NONAME ; void QSslSocket::addCaCertificate(class QSslCertificate const &)
	?addCaCertificates@QSslSocket@@QAEXABV?$QList@VQSslCertificate@@@@@Z @ 215 NONAME ; void QSslSocket::addCaCertificates(class QList<class QSslCertificate> const &)
	?addCaCertificates@QSslSocket@@QAE_NABVQString@@W4EncodingFormat@QSsl@@W4PatternSyntax@QRegExp@@@Z @ 216 NONAME ; bool QSslSocket::addCaCertificates(class QString const &, enum QSsl::EncodingFormat, enum QRegExp::PatternSyntax)
	?addDefaultCaCertificate@QSslSocket@@SAXABVQSslCertificate@@@Z @ 217 NONAME ; void QSslSocket::addDefaultCaCertificate(class QSslCertificate const &)
	?addDefaultCaCertificates@QSslSocket@@SAXABV?$QList@VQSslCertificate@@@@@Z @ 218 NONAME ; void QSslSocket::addDefaultCaCertificates(class QList<class QSslCertificate> const &)
	?addDefaultCaCertificates@QSslSocket@@SA_NABVQString@@W4EncodingFormat@QSsl@@W4PatternSyntax@QRegExp@@@Z @ 219 NONAME ; bool QSslSocket::addDefaultCaCertificates(class QString const &, enum QSsl::EncodingFormat, enum QRegExp::PatternSyntax)
	?addValue@QHttpHeader@@QAEXABVQString@@0@Z @ 220 NONAME ; void QHttpHeader::addValue(class QString const &, class QString const &)
	?addressEntries@QNetworkInterface@@QBE?AV?$QList@VQNetworkAddressEntry@@@@XZ @ 221 NONAME ; class QList<class QNetworkAddressEntry> QNetworkInterface::addressEntries(void) const
	?addresses@QHostInfo@@QBE?AV?$QList@VQHostAddress@@@@XZ @ 222 NONAME ; class QList<class QHostAddress> QHostInfo::addresses(void) const
	?algorithm@QSslKey@@QBE?AW4KeyAlgorithm@QSsl@@XZ @ 223 NONAME ; enum QSsl::KeyAlgorithm QSslKey::algorithm(void) const
	?allAddresses@QNetworkInterface@@SA?AV?$QList@VQHostAddress@@@@XZ @ 224 NONAME ; class QList<class QHostAddress> QNetworkInterface::allAddresses(void)
	?allCookies@QNetworkCookieJar@@IBE?AV?$QList@VQNetworkCookie@@@@XZ @ 225 NONAME ; class QList<class QNetworkCookie> QNetworkCookieJar::allCookies(void) const
	?allInterfaces@QNetworkInterface@@SA?AV?$QList@VQNetworkInterface@@@@XZ @ 226 NONAME ; class QList<class QNetworkInterface> QNetworkInterface::allInterfaces(void)
	?allValues@QHttpHeader@@QBE?AVQStringList@@ABVQString@@@Z @ 227 NONAME ; class QStringList QHttpHeader::allValues(class QString const &) const
	?alternateSubjectNames@QSslCertificate@@QBE?AV?$QMultiMap@W4AlternateNameEntryType@QSsl@@VQString@@@@XZ @ 228 NONAME ; class QMultiMap<enum QSsl::AlternateNameEntryType, class QString> QSslCertificate::alternateSubjectNames(void) const
	?applicationProxy@QNetworkProxy@@SA?AV1@XZ @ 229 NONAME ; class QNetworkProxy QNetworkProxy::applicationProxy(void)
	?atEnd@QAbstractSocket@@UBE_NXZ @ 230 NONAME ; bool QAbstractSocket::atEnd(void) const
	?atEnd@QSslSocket@@UBE_NXZ @ 231 NONAME ; bool QSslSocket::atEnd(void) const
	?attribute@QNetworkReply@@QBE?AVQVariant@@W4Attribute@QNetworkRequest@@@Z @ 232 NONAME ; class QVariant QNetworkReply::attribute(enum QNetworkRequest::Attribute) const
	?attribute@QNetworkRequest@@QBE?AVQVariant@@W4Attribute@1@ABV2@@Z @ 233 NONAME ; class QVariant QNetworkRequest::attribute(enum QNetworkRequest::Attribute, class QVariant const &) const
	?attributes@QNetworkCacheMetaData@@QBE?AV?$QHash@W4Attribute@QNetworkRequest@@VQVariant@@@@XZ @ 234 NONAME ; class QHash<enum QNetworkRequest::Attribute, class QVariant> QNetworkCacheMetaData::attributes(void) const
	?authenticationMethod@QSslCipher@@QBE?AVQString@@XZ @ 235 NONAME ; class QString QSslCipher::authenticationMethod(void) const
	?authenticationRequired@QHttp@@IAEXABVQString@@GPAVQAuthenticator@@@Z @ 236 NONAME ; void QHttp::authenticationRequired(class QString const &, unsigned short, class QAuthenticator *)
	?authenticationRequired@QNetworkAccessManager@@IAEXPAVQNetworkReply@@PAVQAuthenticator@@@Z @ 237 NONAME ; void QNetworkAccessManager::authenticationRequired(class QNetworkReply *, class QAuthenticator *)
	?bind@QUdpSocket@@QAE_NABVQHostAddress@@G@Z @ 238 NONAME ; bool QUdpSocket::bind(class QHostAddress const &, unsigned short)
	?bind@QUdpSocket@@QAE_NABVQHostAddress@@GV?$QFlags@W4BindFlag@QUdpSocket@@@@@Z @ 239 NONAME ; bool QUdpSocket::bind(class QHostAddress const &, unsigned short, class QFlags<enum QUdpSocket::BindFlag>)
	?bind@QUdpSocket@@QAE_NG@Z @ 240 NONAME ; bool QUdpSocket::bind(unsigned short)
	?bind@QUdpSocket@@QAE_NGV?$QFlags@W4BindFlag@QUdpSocket@@@@@Z @ 241 NONAME ; bool QUdpSocket::bind(unsigned short, class QFlags<enum QUdpSocket::BindFlag>)
	?broadcast@QNetworkAddressEntry@@QBE?AVQHostAddress@@XZ @ 242 NONAME ; class QHostAddress QNetworkAddressEntry::broadcast(void) const
	?bytesAvailable@QAbstractSocket@@UBE_JXZ @ 243 NONAME ; long long QAbstractSocket::bytesAvailable(void) const
	?bytesAvailable@QFtp@@QBE_JXZ @ 244 NONAME ; long long QFtp::bytesAvailable(void) const
	?bytesAvailable@QHttp@@QBE_JXZ @ 245 NONAME ; long long QHttp::bytesAvailable(void) const
	?bytesAvailable@QLocalSocket@@UBE_JXZ @ 246 NONAME ; long long QLocalSocket::bytesAvailable(void) const
	?bytesAvailable@QSslSocket@@UBE_JXZ @ 247 NONAME ; long long QSslSocket::bytesAvailable(void) const
	?bytesToWrite@QAbstractSocket@@UBE_JXZ @ 248 NONAME ; long long QAbstractSocket::bytesToWrite(void) const
	?bytesToWrite@QLocalSocket@@UBE_JXZ @ 249 NONAME ; long long QLocalSocket::bytesToWrite(void) const
	?bytesToWrite@QSslSocket@@UBE_JXZ @ 250 NONAME ; long long QSslSocket::bytesToWrite(void) const
	?caCertificates@QSslConfiguration@@QBE?AV?$QList@VQSslCertificate@@@@XZ @ 251 NONAME ; class QList<class QSslCertificate> QSslConfiguration::caCertificates(void) const
	?caCertificates@QSslSocket@@QBE?AV?$QList@VQSslCertificate@@@@XZ @ 252 NONAME ; class QList<class QSslCertificate> QSslSocket::caCertificates(void) const
	?cache@QNetworkAccessManager@@QBEPAVQAbstractNetworkCache@@XZ @ 253 NONAME ; class QAbstractNetworkCache * QNetworkAccessManager::cache(void) const
	?cacheDirectory@QNetworkDiskCache@@QBE?AVQString@@XZ @ 254 NONAME ; class QString QNetworkDiskCache::cacheDirectory(void) const
	?cacheSize@QNetworkDiskCache@@UBE_JXZ @ 255 NONAME ; long long QNetworkDiskCache::cacheSize(void) const
	?canReadLine@QAbstractSocket@@UBE_NXZ @ 256 NONAME ; bool QAbstractSocket::canReadLine(void) const
	?canReadLine@QLocalSocket@@UBE_NXZ @ 257 NONAME ; bool QLocalSocket::canReadLine(void) const
	?canReadLine@QSslSocket@@UBE_NXZ @ 258 NONAME ; bool QSslSocket::canReadLine(void) const
	?capabilities@QNetworkProxy@@QBE?AV?$QFlags@W4Capability@QNetworkProxy@@@@XZ @ 259 NONAME ; class QFlags<enum QNetworkProxy::Capability> QNetworkProxy::capabilities(void) const
	?cd@QFtp@@QAEHABVQString@@@Z @ 260 NONAME ; int QFtp::cd(class QString const &)
	?certificate@QSslError@@QBE?AVQSslCertificate@@XZ @ 261 NONAME ; class QSslCertificate QSslError::certificate(void) const
	?ciphers@QSslConfiguration@@QBE?AV?$QList@VQSslCipher@@@@XZ @ 262 NONAME ; class QList<class QSslCipher> QSslConfiguration::ciphers(void) const
	?ciphers@QSslSocket@@QBE?AV?$QList@VQSslCipher@@@@XZ @ 263 NONAME ; class QList<class QSslCipher> QSslSocket::ciphers(void) const
	?clear@QHostAddress@@QAEXXZ @ 264 NONAME ; void QHostAddress::clear(void)
	?clear@QNetworkDiskCache@@UAEXXZ @ 265 NONAME ; void QNetworkDiskCache::clear(void)
	?clear@QSslCertificate@@QAEXXZ @ 266 NONAME ; void QSslCertificate::clear(void)
	?clear@QSslKey@@QAEXXZ @ 267 NONAME ; void QSslKey::clear(void)
	?clearPendingCommands@QFtp@@QAEXXZ @ 268 NONAME ; void QFtp::clearPendingCommands(void)
	?clearPendingRequests@QHttp@@QAEXXZ @ 269 NONAME ; void QHttp::clearPendingRequests(void)
	?close@QAbstractSocket@@UAEXXZ @ 270 NONAME ; void QAbstractSocket::close(void)
	?close@QFtp@@QAEHXZ @ 271 NONAME ; int QFtp::close(void)
	?close@QHttp@@QAEHXZ @ 272 NONAME ; int QHttp::close(void)
	?close@QLocalServer@@QAEXXZ @ 273 NONAME ; void QLocalServer::close(void)
	?close@QLocalSocket@@UAEXXZ @ 274 NONAME ; void QLocalSocket::close(void)
	?close@QNetworkReply@@UAEXXZ @ 275 NONAME ; void QNetworkReply::close(void)
	?close@QSslSocket@@UAEXXZ @ 276 NONAME ; void QSslSocket::close(void)
	?close@QTcpServer@@QAEXXZ @ 277 NONAME ; void QTcpServer::close(void)
	?closeConnection@QHttp@@QAEHXZ @ 278 NONAME ; int QHttp::closeConnection(void)
	?commandFinished@QFtp@@IAEXH_N@Z @ 279 NONAME ; void QFtp::commandFinished(int, bool)
	?commandStarted@QFtp@@IAEXH@Z @ 280 NONAME ; void QFtp::commandStarted(int)
	?connectToHost@QAbstractSocket@@QAEXABVQHostAddress@@GV?$QFlags@W4OpenModeFlag@QIODevice@@@@@Z @ 281 NONAME ; void QAbstractSocket::connectToHost(class QHostAddress const &, unsigned short, class QFlags<enum QIODevice::OpenModeFlag>)
	?connectToHost@QAbstractSocket@@QAEXABVQString@@GV?$QFlags@W4OpenModeFlag@QIODevice@@@@@Z @ 282 NONAME ; void QAbstractSocket::connectToHost(class QString const &, unsigned short, class QFlags<enum QIODevice::OpenModeFlag>)
	?connectToHost@QFtp@@QAEHABVQString@@G@Z @ 283 NONAME ; int QFtp::connectToHost(class QString const &, unsigned short)
	?connectToHostEncrypted@QSslSocket@@QAEXABVQString@@G0V?$QFlags@W4OpenModeFlag@QIODevice@@@@@Z @ 284 NONAME ; void QSslSocket::connectToHostEncrypted(class QString const &, unsigned short, class QString const &, class QFlags<enum QIODevice::OpenModeFlag>)
	?connectToHostEncrypted@QSslSocket@@QAEXABVQString@@GV?$QFlags@W4OpenModeFlag@QIODevice@@@@@Z @ 285 NONAME ; void QSslSocket::connectToHostEncrypted(class QString const &, unsigned short, class QFlags<enum QIODevice::OpenModeFlag>)
	?connectToHostImplementation@QAbstractSocket@@IAEXABVQString@@GV?$QFlags@W4OpenModeFlag@QIODevice@@@@@Z @ 286 NONAME ; void QAbstractSocket::connectToHostImplementation(class QString const &, unsigned short, class QFlags<enum QIODevice::OpenModeFlag>)
	?connectToHostImplementation@QSslSocket@@IAEXABVQString@@GV?$QFlags@W4OpenModeFlag@QIODevice@@@@@Z @ 287 NONAME ; void QSslSocket::connectToHostImplementation(class QString const &, unsigned short, class QFlags<enum QIODevice::OpenModeFlag>)
	?connectToServer@QLocalSocket@@QAEXABVQString@@V?$QFlags@W4OpenModeFlag@QIODevice@@@@@Z @ 288 NONAME ; void QLocalSocket::connectToServer(class QString const &, class QFlags<enum QIODevice::OpenModeFlag>)
	?connected@QAbstractSocket@@IAEXXZ @ 289 NONAME ; void QAbstractSocket::connected(void)
	?connected@QLocalSocket@@IAEXXZ @ 290 NONAME ; void QLocalSocket::connected(void)
	?contentLength@QHttpHeader@@QBEIXZ @ 291 NONAME ; unsigned int QHttpHeader::contentLength(void) const
	?contentType@QHttpHeader@@QBE?AVQString@@XZ @ 292 NONAME ; class QString QHttpHeader::contentType(void) const
	?cookieJar@QNetworkAccessManager@@QBEPAVQNetworkCookieJar@@XZ @ 293 NONAME ; class QNetworkCookieJar * QNetworkAccessManager::cookieJar(void) const
	?cookiesForUrl@QNetworkCookieJar@@UBE?AV?$QList@VQNetworkCookie@@@@ABVQUrl@@@Z @ 294 NONAME ; class QList<class QNetworkCookie> QNetworkCookieJar::cookiesForUrl(class QUrl const &) const
	?createRequest@QNetworkAccessManager@@MAEPAVQNetworkReply@@W4Operation@1@ABVQNetworkRequest@@PAVQIODevice@@@Z @ 295 NONAME ; class QNetworkReply * QNetworkAccessManager::createRequest(enum QNetworkAccessManager::Operation, class QNetworkRequest const &, class QIODevice *)
	?currentCommand@QFtp@@QBE?AW4Command@1@XZ @ 296 NONAME ; enum QFtp::Command QFtp::currentCommand(void) const
	?currentDestinationDevice@QHttp@@QBEPAVQIODevice@@XZ @ 297 NONAME ; class QIODevice * QHttp::currentDestinationDevice(void) const
	?currentDevice@QFtp@@QBEPAVQIODevice@@XZ @ 298 NONAME ; class QIODevice * QFtp::currentDevice(void) const
	?currentId@QFtp@@QBEHXZ @ 299 NONAME ; int QFtp::currentId(void) const
	?currentId@QHttp@@QBEHXZ @ 300 NONAME ; int QHttp::currentId(void) const
	?currentRequest@QHttp@@QBE?AVQHttpRequestHeader@@XZ @ 301 NONAME ; class QHttpRequestHeader QHttp::currentRequest(void) const
	?currentSourceDevice@QHttp@@QBEPAVQIODevice@@XZ @ 302 NONAME ; class QIODevice * QHttp::currentSourceDevice(void) const
	?d_func@QAbstractNetworkCache@@AAEPAVQAbstractNetworkCachePrivate@@XZ @ 303 NONAME ; class QAbstractNetworkCachePrivate * QAbstractNetworkCache::d_func(void)
	?d_func@QAbstractNetworkCache@@ABEPBVQAbstractNetworkCachePrivate@@XZ @ 304 NONAME ; class QAbstractNetworkCachePrivate const * QAbstractNetworkCache::d_func(void) const
	?d_func@QAbstractSocket@@AAEPAVQAbstractSocketPrivate@@XZ @ 305 NONAME ; class QAbstractSocketPrivate * QAbstractSocket::d_func(void)
	?d_func@QAbstractSocket@@ABEPBVQAbstractSocketPrivate@@XZ @ 306 NONAME ; class QAbstractSocketPrivate const * QAbstractSocket::d_func(void) const
	?d_func@QFtp@@AAEPAVQFtpPrivate@@XZ @ 307 NONAME ; class QFtpPrivate * QFtp::d_func(void)
	?d_func@QFtp@@ABEPBVQFtpPrivate@@XZ @ 308 NONAME ; class QFtpPrivate const * QFtp::d_func(void) const
	?d_func@QHttp@@AAEPAVQHttpPrivate@@XZ @ 309 NONAME ; class QHttpPrivate * QHttp::d_func(void)
	?d_func@QHttp@@ABEPBVQHttpPrivate@@XZ @ 310 NONAME ; class QHttpPrivate const * QHttp::d_func(void) const
	?d_func@QHttpHeader@@AAEPAVQHttpHeaderPrivate@@XZ @ 311 NONAME ; class QHttpHeaderPrivate * QHttpHeader::d_func(void)
	?d_func@QHttpHeader@@ABEPBVQHttpHeaderPrivate@@XZ @ 312 NONAME ; class QHttpHeaderPrivate const * QHttpHeader::d_func(void) const
	?d_func@QHttpRequestHeader@@AAEPAVQHttpRequestHeaderPrivate@@XZ @ 313 NONAME ; class QHttpRequestHeaderPrivate * QHttpRequestHeader::d_func(void)
	?d_func@QHttpRequestHeader@@ABEPBVQHttpRequestHeaderPrivate@@XZ @ 314 NONAME ; class QHttpRequestHeaderPrivate const * QHttpRequestHeader::d_func(void) const
	?d_func@QHttpResponseHeader@@AAEPAVQHttpResponseHeaderPrivate@@XZ @ 315 NONAME ; class QHttpResponseHeaderPrivate * QHttpResponseHeader::d_func(void)
	?d_func@QHttpResponseHeader@@ABEPBVQHttpResponseHeaderPrivate@@XZ @ 316 NONAME ; class QHttpResponseHeaderPrivate const * QHttpResponseHeader::d_func(void) const
	?d_func@QLocalServer@@AAEPAVQLocalServerPrivate@@XZ @ 317 NONAME ; class QLocalServerPrivate * QLocalServer::d_func(void)
	?d_func@QLocalServer@@ABEPBVQLocalServerPrivate@@XZ @ 318 NONAME ; class QLocalServerPrivate const * QLocalServer::d_func(void) const
	?d_func@QLocalSocket@@AAEPAVQLocalSocketPrivate@@XZ @ 319 NONAME ; class QLocalSocketPrivate * QLocalSocket::d_func(void)
	?d_func@QLocalSocket@@ABEPBVQLocalSocketPrivate@@XZ @ 320 NONAME ; class QLocalSocketPrivate const * QLocalSocket::d_func(void) const
	?d_func@QNetworkAccessManager@@AAEPAVQNetworkAccessManagerPrivate@@XZ @ 321 NONAME ; class QNetworkAccessManagerPrivate * QNetworkAccessManager::d_func(void)
	?d_func@QNetworkAccessManager@@ABEPBVQNetworkAccessManagerPrivate@@XZ @ 322 NONAME ; class QNetworkAccessManagerPrivate const * QNetworkAccessManager::d_func(void) const
	?d_func@QNetworkCookieJar@@AAEPAVQNetworkCookieJarPrivate@@XZ @ 323 NONAME ; class QNetworkCookieJarPrivate * QNetworkCookieJar::d_func(void)
	?d_func@QNetworkCookieJar@@ABEPBVQNetworkCookieJarPrivate@@XZ @ 324 NONAME ; class QNetworkCookieJarPrivate const * QNetworkCookieJar::d_func(void) const
	?d_func@QNetworkDiskCache@@AAEPAVQNetworkDiskCachePrivate@@XZ @ 325 NONAME ; class QNetworkDiskCachePrivate * QNetworkDiskCache::d_func(void)
	?d_func@QNetworkDiskCache@@ABEPBVQNetworkDiskCachePrivate@@XZ @ 326 NONAME ; class QNetworkDiskCachePrivate const * QNetworkDiskCache::d_func(void) const
	?d_func@QNetworkReply@@AAEPAVQNetworkReplyPrivate@@XZ @ 327 NONAME ; class QNetworkReplyPrivate * QNetworkReply::d_func(void)
	?d_func@QNetworkReply@@ABEPBVQNetworkReplyPrivate@@XZ @ 328 NONAME ; class QNetworkReplyPrivate const * QNetworkReply::d_func(void) const
	?d_func@QSslSocket@@AAEPAVQSslSocketPrivate@@XZ @ 329 NONAME ; class QSslSocketPrivate * QSslSocket::d_func(void)
	?d_func@QSslSocket@@ABEPBVQSslSocketPrivate@@XZ @ 330 NONAME ; class QSslSocketPrivate const * QSslSocket::d_func(void) const
	?d_func@QTcpServer@@AAEPAVQTcpServerPrivate@@XZ @ 331 NONAME ; class QTcpServerPrivate * QTcpServer::d_func(void)
	?d_func@QTcpServer@@ABEPBVQTcpServerPrivate@@XZ @ 332 NONAME ; class QTcpServerPrivate const * QTcpServer::d_func(void) const
	?d_func@QTcpSocket@@AAEPAVQTcpSocketPrivate@@XZ @ 333 NONAME ; class QTcpSocketPrivate * QTcpSocket::d_func(void)
	?d_func@QTcpSocket@@ABEPBVQTcpSocketPrivate@@XZ @ 334 NONAME ; class QTcpSocketPrivate const * QTcpSocket::d_func(void) const
	?d_func@QUdpSocket@@AAEPAVQUdpSocketPrivate@@XZ @ 335 NONAME ; class QUdpSocketPrivate * QUdpSocket::d_func(void)
	?d_func@QUdpSocket@@ABEPBVQUdpSocketPrivate@@XZ @ 336 NONAME ; class QUdpSocketPrivate const * QUdpSocket::d_func(void) const
	?data@QNetworkDiskCache@@UAEPAVQIODevice@@ABVQUrl@@@Z @ 337 NONAME ; class QIODevice * QNetworkDiskCache::data(class QUrl const &)
	?dataReadProgress@QHttp@@IAEXHH@Z @ 338 NONAME ; void QHttp::dataReadProgress(int, int)
	?dataSendProgress@QHttp@@IAEXHH@Z @ 339 NONAME ; void QHttp::dataSendProgress(int, int)
	?dataTransferProgress@QFtp@@IAEX_J0@Z @ 340 NONAME ; void QFtp::dataTransferProgress(long long, long long)
	?defaultCaCertificates@QSslSocket@@SA?AV?$QList@VQSslCertificate@@@@XZ @ 341 NONAME ; class QList<class QSslCertificate> QSslSocket::defaultCaCertificates(void)
	?defaultCiphers@QSslSocket@@SA?AV?$QList@VQSslCipher@@@@XZ @ 342 NONAME ; class QList<class QSslCipher> QSslSocket::defaultCiphers(void)
	?defaultConfiguration@QSslConfiguration@@SA?AV1@XZ @ 343 NONAME ; class QSslConfiguration QSslConfiguration::defaultConfiguration(void)
	?deleteResource@QNetworkAccessManager@@QAEPAVQNetworkReply@@ABVQNetworkRequest@@@Z @ 344 NONAME ; class QNetworkReply * QNetworkAccessManager::deleteResource(class QNetworkRequest const &)
	?detach@QAuthenticator@@QAEXXZ @ 345 NONAME ; void QAuthenticator::detach(void)
	?digest@QSslCertificate@@QBE?AVQByteArray@@W4Algorithm@QCryptographicHash@@@Z @ 346 NONAME ; class QByteArray QSslCertificate::digest(enum QCryptographicHash::Algorithm) const
	?disconnectFromHost@QAbstractSocket@@QAEXXZ @ 347 NONAME ; void QAbstractSocket::disconnectFromHost(void)
	?disconnectFromHostImplementation@QAbstractSocket@@IAEXXZ @ 348 NONAME ; void QAbstractSocket::disconnectFromHostImplementation(void)
	?disconnectFromHostImplementation@QSslSocket@@IAEXXZ @ 349 NONAME ; void QSslSocket::disconnectFromHostImplementation(void)
	?disconnectFromServer@QLocalSocket@@QAEXXZ @ 350 NONAME ; void QLocalSocket::disconnectFromServer(void)
	?disconnected@QAbstractSocket@@IAEXXZ @ 351 NONAME ; void QAbstractSocket::disconnected(void)
	?disconnected@QLocalSocket@@IAEXXZ @ 352 NONAME ; void QLocalSocket::disconnected(void)
	?domain@QNetworkCookie@@QBE?AVQString@@XZ @ 353 NONAME ; class QString QNetworkCookie::domain(void) const
	?done@QFtp@@IAEX_N@Z @ 354 NONAME ; void QFtp::done(bool)
	?done@QHttp@@IAEX_N@Z @ 355 NONAME ; void QHttp::done(bool)
	?downloadProgress@QNetworkReply@@IAEX_J0@Z @ 356 NONAME ; void QNetworkReply::downloadProgress(long long, long long)
	?effectiveDate@QSslCertificate@@QBE?AVQDateTime@@XZ @ 357 NONAME ; class QDateTime QSslCertificate::effectiveDate(void) const
	?encrypted@QSslSocket@@IAEXXZ @ 358 NONAME ; void QSslSocket::encrypted(void)
	?encryptedBytesAvailable@QSslSocket@@QBE_JXZ @ 359 NONAME ; long long QSslSocket::encryptedBytesAvailable(void) const
	?encryptedBytesToWrite@QSslSocket@@QBE_JXZ @ 360 NONAME ; long long QSslSocket::encryptedBytesToWrite(void) const
	?encryptedBytesWritten@QSslSocket@@IAEX_J@Z @ 361 NONAME ; void QSslSocket::encryptedBytesWritten(long long)
	?encryptionMethod@QSslCipher@@QBE?AVQString@@XZ @ 362 NONAME ; class QString QSslCipher::encryptionMethod(void) const
	?equal@QUrlInfo@@SA_NABV1@0H@Z @ 363 NONAME ; bool QUrlInfo::equal(class QUrlInfo const &, class QUrlInfo const &, int)
	?error@QAbstractSocket@@IAEXW4SocketError@1@@Z @ 364 NONAME ; void QAbstractSocket::error(enum QAbstractSocket::SocketError)
	?error@QAbstractSocket@@QBE?AW4SocketError@1@XZ @ 365 NONAME ; enum QAbstractSocket::SocketError QAbstractSocket::error(void) const
	?error@QFtp@@QBE?AW4Error@1@XZ @ 366 NONAME ; enum QFtp::Error QFtp::error(void) const
	?error@QHostInfo@@QBE?AW4HostInfoError@1@XZ @ 367 NONAME ; enum QHostInfo::HostInfoError QHostInfo::error(void) const
	?error@QHttp@@QBE?AW4Error@1@XZ @ 368 NONAME ; enum QHttp::Error QHttp::error(void) const
	?error@QLocalSocket@@IAEXW4LocalSocketError@1@@Z @ 369 NONAME ; void QLocalSocket::error(enum QLocalSocket::LocalSocketError)
	?error@QLocalSocket@@QBE?AW4LocalSocketError@1@XZ @ 370 NONAME ; enum QLocalSocket::LocalSocketError QLocalSocket::error(void) const
	?error@QNetworkReply@@IAEXW4NetworkError@1@@Z @ 371 NONAME ; void QNetworkReply::error(enum QNetworkReply::NetworkError)
	?error@QNetworkReply@@QBE?AW4NetworkError@1@XZ @ 372 NONAME ; enum QNetworkReply::NetworkError QNetworkReply::error(void) const
	?error@QSslError@@QBE?AW4SslError@1@XZ @ 373 NONAME ; enum QSslError::SslError QSslError::error(void) const
	?errorString@QFtp@@QBE?AVQString@@XZ @ 374 NONAME ; class QString QFtp::errorString(void) const
	?errorString@QHostInfo@@QBE?AVQString@@XZ @ 375 NONAME ; class QString QHostInfo::errorString(void) const
	?errorString@QHttp@@QBE?AVQString@@XZ @ 376 NONAME ; class QString QHttp::errorString(void) const
	?errorString@QLocalServer@@QBE?AVQString@@XZ @ 377 NONAME ; class QString QLocalServer::errorString(void) const
	?errorString@QSslError@@QBE?AVQString@@XZ @ 378 NONAME ; class QString QSslError::errorString(void) const
	?errorString@QTcpServer@@QBE?AVQString@@XZ @ 379 NONAME ; class QString QTcpServer::errorString(void) const
	?expirationDate@QNetworkCacheMetaData@@QBE?AVQDateTime@@XZ @ 380 NONAME ; class QDateTime QNetworkCacheMetaData::expirationDate(void) const
	?expirationDate@QNetworkCookie@@QBE?AVQDateTime@@XZ @ 381 NONAME ; class QDateTime QNetworkCookie::expirationDate(void) const
	?expire@QNetworkDiskCache@@MAE_JXZ @ 382 NONAME ; long long QNetworkDiskCache::expire(void)
	?expiryDate@QSslCertificate@@QBE?AVQDateTime@@XZ @ 383 NONAME ; class QDateTime QSslCertificate::expiryDate(void) const
	?fileMetaData@QNetworkDiskCache@@QBE?AVQNetworkCacheMetaData@@ABVQString@@@Z @ 384 NONAME ; class QNetworkCacheMetaData QNetworkDiskCache::fileMetaData(class QString const &) const
	?finished@QNetworkAccessManager@@IAEXPAVQNetworkReply@@@Z @ 385 NONAME ; void QNetworkAccessManager::finished(class QNetworkReply *)
	?finished@QNetworkReply@@IAEXXZ @ 386 NONAME ; void QNetworkReply::finished(void)
	?flags@QNetworkInterface@@QBE?AV?$QFlags@W4InterfaceFlag@QNetworkInterface@@@@XZ @ 387 NONAME ; class QFlags<enum QNetworkInterface::InterfaceFlag> QNetworkInterface::flags(void) const
	?flush@QAbstractSocket@@QAE_NXZ @ 388 NONAME ; bool QAbstractSocket::flush(void)
	?flush@QLocalSocket@@QAE_NXZ @ 389 NONAME ; bool QLocalSocket::flush(void)
	?flush@QSslSocket@@QAE_NXZ @ 390 NONAME ; bool QSslSocket::flush(void)
	?fromData@QSslCertificate@@SA?AV?$QList@VQSslCertificate@@@@ABVQByteArray@@W4EncodingFormat@QSsl@@@Z @ 391 NONAME ; class QList<class QSslCertificate> QSslCertificate::fromData(class QByteArray const &, enum QSsl::EncodingFormat)
	?fromDevice@QSslCertificate@@SA?AV?$QList@VQSslCertificate@@@@PAVQIODevice@@W4EncodingFormat@QSsl@@@Z @ 392 NONAME ; class QList<class QSslCertificate> QSslCertificate::fromDevice(class QIODevice *, enum QSsl::EncodingFormat)
	?fromName@QHostInfo@@SA?AV1@ABVQString@@@Z @ 393 NONAME ; class QHostInfo QHostInfo::fromName(class QString const &)
	?fromPath@QSslCertificate@@SA?AV?$QList@VQSslCertificate@@@@ABVQString@@W4EncodingFormat@QSsl@@W4PatternSyntax@QRegExp@@@Z @ 394 NONAME ; class QList<class QSslCertificate> QSslCertificate::fromPath(class QString const &, enum QSsl::EncodingFormat, enum QRegExp::PatternSyntax)
	?fullServerName@QLocalServer@@QBE?AVQString@@XZ @ 395 NONAME ; class QString QLocalServer::fullServerName(void) const
	?fullServerName@QLocalSocket@@QBE?AVQString@@XZ @ 396 NONAME ; class QString QLocalSocket::fullServerName(void) const
	?get@QFtp@@QAEHABVQString@@PAVQIODevice@@W4TransferType@1@@Z @ 397 NONAME ; int QFtp::get(class QString const &, class QIODevice *, enum QFtp::TransferType)
	?get@QHttp@@QAEHABVQString@@PAVQIODevice@@@Z @ 398 NONAME ; int QHttp::get(class QString const &, class QIODevice *)
	?get@QNetworkAccessManager@@QAEPAVQNetworkReply@@ABVQNetworkRequest@@@Z @ 399 NONAME ; class QNetworkReply * QNetworkAccessManager::get(class QNetworkRequest const &)
	?getStaticMetaObject@QAbstractNetworkCache@@SAABUQMetaObject@@XZ @ 400 NONAME ; struct QMetaObject const & QAbstractNetworkCache::getStaticMetaObject(void)
	?getStaticMetaObject@QAbstractSocket@@SAABUQMetaObject@@XZ @ 401 NONAME ; struct QMetaObject const & QAbstractSocket::getStaticMetaObject(void)
	?getStaticMetaObject@QFtp@@SAABUQMetaObject@@XZ @ 402 NONAME ; struct QMetaObject const & QFtp::getStaticMetaObject(void)
	?getStaticMetaObject@QHttp@@SAABUQMetaObject@@XZ @ 403 NONAME ; struct QMetaObject const & QHttp::getStaticMetaObject(void)
	?getStaticMetaObject@QLocalServer@@SAABUQMetaObject@@XZ @ 404 NONAME ; struct QMetaObject const & QLocalServer::getStaticMetaObject(void)
	?getStaticMetaObject@QLocalSocket@@SAABUQMetaObject@@XZ @ 405 NONAME ; struct QMetaObject const & QLocalSocket::getStaticMetaObject(void)
	?getStaticMetaObject@QNetworkAccessManager@@SAABUQMetaObject@@XZ @ 406 NONAME ; struct QMetaObject const & QNetworkAccessManager::getStaticMetaObject(void)
	?getStaticMetaObject@QNetworkCookieJar@@SAABUQMetaObject@@XZ @ 407 NONAME ; struct QMetaObject const & QNetworkCookieJar::getStaticMetaObject(void)
	?getStaticMetaObject@QNetworkDiskCache@@SAABUQMetaObject@@XZ @ 408 NONAME ; struct QMetaObject const & QNetworkDiskCache::getStaticMetaObject(void)
	?getStaticMetaObject@QNetworkReply@@SAABUQMetaObject@@XZ @ 409 NONAME ; struct QMetaObject const & QNetworkReply::getStaticMetaObject(void)
	?getStaticMetaObject@QSslSocket@@SAABUQMetaObject@@XZ @ 410 NONAME ; struct QMetaObject const & QSslSocket::getStaticMetaObject(void)
	?getStaticMetaObject@QTcpServer@@SAABUQMetaObject@@XZ @ 411 NONAME ; struct QMetaObject const & QTcpServer::getStaticMetaObject(void)
	?getStaticMetaObject@QTcpSocket@@SAABUQMetaObject@@XZ @ 412 NONAME ; struct QMetaObject const & QTcpSocket::getStaticMetaObject(void)
	?getStaticMetaObject@QUdpSocket@@SAABUQMetaObject@@XZ @ 413 NONAME ; struct QMetaObject const & QUdpSocket::getStaticMetaObject(void)
	?greaterThan@QUrlInfo@@SA_NABV1@0H@Z @ 414 NONAME ; bool QUrlInfo::greaterThan(class QUrlInfo const &, class QUrlInfo const &, int)
	?group@QUrlInfo@@QBE?AVQString@@XZ @ 415 NONAME ; class QString QUrlInfo::group(void) const
	?handle@QSslCertificate@@QBEKXZ @ 416 NONAME ; unsigned long QSslCertificate::handle(void) const
	?handle@QSslKey@@QBEKXZ @ 417 NONAME ; unsigned long QSslKey::handle(void) const
	?hardwareAddress@QNetworkInterface@@QBE?AVQString@@XZ @ 418 NONAME ; class QString QNetworkInterface::hardwareAddress(void) const
	?hasContentLength@QHttpHeader@@QBE_NXZ @ 419 NONAME ; bool QHttpHeader::hasContentLength(void) const
	?hasContentType@QHttpHeader@@QBE_NXZ @ 420 NONAME ; bool QHttpHeader::hasContentType(void) const
	?hasKey@QHttpHeader@@QBE_NABVQString@@@Z @ 421 NONAME ; bool QHttpHeader::hasKey(class QString const &) const
	?hasPendingCommands@QFtp@@QBE_NXZ @ 422 NONAME ; bool QFtp::hasPendingCommands(void) const
	?hasPendingConnections@QLocalServer@@UBE_NXZ @ 423 NONAME ; bool QLocalServer::hasPendingConnections(void) const
	?hasPendingConnections@QTcpServer@@UBE_NXZ @ 424 NONAME ; bool QTcpServer::hasPendingConnections(void) const
	?hasPendingDatagrams@QUdpSocket@@QBE_NXZ @ 425 NONAME ; bool QUdpSocket::hasPendingDatagrams(void) const
	?hasPendingRequests@QHttp@@QBE_NXZ @ 426 NONAME ; bool QHttp::hasPendingRequests(void) const
	?hasRawHeader@QNetworkReply@@QBE_NABVQByteArray@@@Z @ 427 NONAME ; bool QNetworkReply::hasRawHeader(class QByteArray const &) const
	?hasRawHeader@QNetworkRequest@@QBE_NABVQByteArray@@@Z @ 428 NONAME ; bool QNetworkRequest::hasRawHeader(class QByteArray const &) const
	?head@QHttp@@QAEHABVQString@@@Z @ 429 NONAME ; int QHttp::head(class QString const &)
	?head@QNetworkAccessManager@@QAEPAVQNetworkReply@@ABVQNetworkRequest@@@Z @ 430 NONAME ; class QNetworkReply * QNetworkAccessManager::head(class QNetworkRequest const &)
	?header@QNetworkReply@@QBE?AVQVariant@@W4KnownHeaders@QNetworkRequest@@@Z @ 431 NONAME ; class QVariant QNetworkReply::header(enum QNetworkRequest::KnownHeaders) const
	?header@QNetworkRequest@@QBE?AVQVariant@@W4KnownHeaders@1@@Z @ 432 NONAME ; class QVariant QNetworkRequest::header(enum QNetworkRequest::KnownHeaders) const
	?hostFound@QAbstractSocket@@IAEXXZ @ 433 NONAME ; void QAbstractSocket::hostFound(void)
	?hostName@QHostInfo@@QBE?AVQString@@XZ @ 434 NONAME ; class QString QHostInfo::hostName(void) const
	?hostName@QNetworkProxy@@QBE?AVQString@@XZ @ 435 NONAME ; class QString QNetworkProxy::hostName(void) const
	?humanReadableName@QNetworkInterface@@QBE?AVQString@@XZ @ 436 NONAME ; class QString QNetworkInterface::humanReadableName(void) const
	?ignoreSslErrors@QHttp@@QAEXXZ @ 437 NONAME ; void QHttp::ignoreSslErrors(void)
	?ignoreSslErrors@QNetworkReply@@QAEXABV?$QList@VQSslError@@@@@Z @ 438 NONAME ; void QNetworkReply::ignoreSslErrors(class QList<class QSslError> const &)
	?ignoreSslErrors@QNetworkReply@@UAEXXZ @ 439 NONAME ; void QNetworkReply::ignoreSslErrors(void)
	?ignoreSslErrors@QSslSocket@@QAEXABV?$QList@VQSslError@@@@@Z @ 440 NONAME ; void QSslSocket::ignoreSslErrors(class QList<class QSslError> const &)
	?ignoreSslErrors@QSslSocket@@QAEXXZ @ 441 NONAME ; void QSslSocket::ignoreSslErrors(void)
	?incomingConnection@QLocalServer@@MAEXI@Z @ 442 NONAME ; void QLocalServer::incomingConnection(unsigned int)
	?incomingConnection@QTcpServer@@MAEXH@Z @ 443 NONAME ; void QTcpServer::incomingConnection(int)
	?index@QNetworkInterface@@QBEHXZ @ 444 NONAME ; int QNetworkInterface::index(void) const
	?insert@QNetworkDiskCache@@UAEXPAVQIODevice@@@Z @ 445 NONAME ; void QNetworkDiskCache::insert(class QIODevice *)
	?interfaceFromIndex@QNetworkInterface@@SA?AV1@H@Z @ 446 NONAME ; class QNetworkInterface QNetworkInterface::interfaceFromIndex(int)
	?interfaceFromName@QNetworkInterface@@SA?AV1@ABVQString@@@Z @ 447 NONAME ; class QNetworkInterface QNetworkInterface::interfaceFromName(class QString const &)
	?ip@QNetworkAddressEntry@@QBE?AVQHostAddress@@XZ @ 448 NONAME ; class QHostAddress QNetworkAddressEntry::ip(void) const
	?isCachingProxy@QNetworkProxy@@QBE_NXZ @ 449 NONAME ; bool QNetworkProxy::isCachingProxy(void) const
	?isDir@QUrlInfo@@QBE_NXZ @ 450 NONAME ; bool QUrlInfo::isDir(void) const
	?isEncrypted@QSslSocket@@QBE_NXZ @ 451 NONAME ; bool QSslSocket::isEncrypted(void) const
	?isExecutable@QUrlInfo@@QBE_NXZ @ 452 NONAME ; bool QUrlInfo::isExecutable(void) const
	?isFile@QUrlInfo@@QBE_NXZ @ 453 NONAME ; bool QUrlInfo::isFile(void) const
	?isFinished@QNetworkReply@@QBE_NXZ @ 454 NONAME ; bool QNetworkReply::isFinished(void) const
	?isHttpOnly@QNetworkCookie@@QBE_NXZ @ 455 NONAME ; bool QNetworkCookie::isHttpOnly(void) const
	?isInSubnet@QHostAddress@@QBE_NABU?$QPair@VQHostAddress@@H@@@Z @ 456 NONAME ; bool QHostAddress::isInSubnet(struct QPair<class QHostAddress, int> const &) const
	?isInSubnet@QHostAddress@@QBE_NABV1@H@Z @ 457 NONAME ; bool QHostAddress::isInSubnet(class QHostAddress const &, int) const
	?isListening@QLocalServer@@QBE_NXZ @ 458 NONAME ; bool QLocalServer::isListening(void) const
	?isListening@QTcpServer@@QBE_NXZ @ 459 NONAME ; bool QTcpServer::isListening(void) const
	?isNull@QAuthenticator@@QBE_NXZ @ 460 NONAME ; bool QAuthenticator::isNull(void) const
	?isNull@QHostAddress@@QBE_NXZ @ 461 NONAME ; bool QHostAddress::isNull(void) const
	?isNull@QSslCertificate@@QBE_NXZ @ 462 NONAME ; bool QSslCertificate::isNull(void) const
	?isNull@QSslCipher@@QBE_NXZ @ 463 NONAME ; bool QSslCipher::isNull(void) const
	?isNull@QSslConfiguration@@QBE_NXZ @ 464 NONAME ; bool QSslConfiguration::isNull(void) const
	?isNull@QSslKey@@QBE_NXZ @ 465 NONAME ; bool QSslKey::isNull(void) const
	?isReadable@QUrlInfo@@QBE_NXZ @ 466 NONAME ; bool QUrlInfo::isReadable(void) const
	?isRunning@QNetworkReply@@QBE_NXZ @ 467 NONAME ; bool QNetworkReply::isRunning(void) const
	?isSecure@QNetworkCookie@@QBE_NXZ @ 468 NONAME ; bool QNetworkCookie::isSecure(void) const
	?isSequential@QAbstractSocket@@UBE_NXZ @ 469 NONAME ; bool QAbstractSocket::isSequential(void) const
	?isSequential@QLocalSocket@@UBE_NXZ @ 470 NONAME ; bool QLocalSocket::isSequential(void) const
	?isSequential@QNetworkReply@@UBE_NXZ @ 471 NONAME ; bool QNetworkReply::isSequential(void) const
	?isSessionCookie@QNetworkCookie@@QBE_NXZ @ 472 NONAME ; bool QNetworkCookie::isSessionCookie(void) const
	?isSymLink@QUrlInfo@@QBE_NXZ @ 473 NONAME ; bool QUrlInfo::isSymLink(void) const
	?isTransparentProxy@QNetworkProxy@@QBE_NXZ @ 474 NONAME ; bool QNetworkProxy::isTransparentProxy(void) const
	?isValid@QAbstractSocket@@QBE_NXZ @ 475 NONAME ; bool QAbstractSocket::isValid(void) const
	?isValid@QHttpHeader@@QBE_NXZ @ 476 NONAME ; bool QHttpHeader::isValid(void) const
	?isValid@QLocalSocket@@QBE_NXZ @ 477 NONAME ; bool QLocalSocket::isValid(void) const
	?isValid@QNetworkCacheMetaData@@QBE_NXZ @ 478 NONAME ; bool QNetworkCacheMetaData::isValid(void) const
	?isValid@QNetworkInterface@@QBE_NXZ @ 479 NONAME ; bool QNetworkInterface::isValid(void) const
	?isValid@QSslCertificate@@QBE_NXZ @ 480 NONAME ; bool QSslCertificate::isValid(void) const
	?isValid@QUrlInfo@@QBE_NXZ @ 481 NONAME ; bool QUrlInfo::isValid(void) const
	?isWritable@QUrlInfo@@QBE_NXZ @ 482 NONAME ; bool QUrlInfo::isWritable(void) const
	?issuerInfo@QSslCertificate@@QBE?AVQString@@ABVQByteArray@@@Z @ 483 NONAME ; class QString QSslCertificate::issuerInfo(class QByteArray const &) const
	?issuerInfo@QSslCertificate@@QBE?AVQString@@W4SubjectInfo@1@@Z @ 484 NONAME ; class QString QSslCertificate::issuerInfo(enum QSslCertificate::SubjectInfo) const
	?keyExchangeMethod@QSslCipher@@QBE?AVQString@@XZ @ 485 NONAME ; class QString QSslCipher::keyExchangeMethod(void) const
	?keys@QHttpHeader@@QBE?AVQStringList@@XZ @ 486 NONAME ; class QStringList QHttpHeader::keys(void) const
	?lastModified@QNetworkCacheMetaData@@QBE?AVQDateTime@@XZ @ 487 NONAME ; class QDateTime QNetworkCacheMetaData::lastModified(void) const
	?lastModified@QUrlInfo@@QBE?AVQDateTime@@XZ @ 488 NONAME ; class QDateTime QUrlInfo::lastModified(void) const
	?lastRead@QUrlInfo@@QBE?AVQDateTime@@XZ @ 489 NONAME ; class QDateTime QUrlInfo::lastRead(void) const
	?lastResponse@QHttp@@QBE?AVQHttpResponseHeader@@XZ @ 490 NONAME ; class QHttpResponseHeader QHttp::lastResponse(void) const
	?length@QSslKey@@QBEHXZ @ 491 NONAME ; int QSslKey::length(void) const
	?lessThan@QUrlInfo@@SA_NABV1@0H@Z @ 492 NONAME ; bool QUrlInfo::lessThan(class QUrlInfo const &, class QUrlInfo const &, int)
	?list@QFtp@@QAEHABVQString@@@Z @ 493 NONAME ; int QFtp::list(class QString const &)
	?listInfo@QFtp@@IAEXABVQUrlInfo@@@Z @ 494 NONAME ; void QFtp::listInfo(class QUrlInfo const &)
	?listen@QLocalServer@@QAE_NABVQString@@@Z @ 495 NONAME ; bool QLocalServer::listen(class QString const &)
	?listen@QTcpServer@@QAE_NABVQHostAddress@@G@Z @ 496 NONAME ; bool QTcpServer::listen(class QHostAddress const &, unsigned short)
	?localAddress@QAbstractSocket@@QBE?AVQHostAddress@@XZ @ 497 NONAME ; class QHostAddress QAbstractSocket::localAddress(void) const
	?localCertificate@QSslConfiguration@@QBE?AVQSslCertificate@@XZ @ 498 NONAME ; class QSslCertificate QSslConfiguration::localCertificate(void) const
	?localCertificate@QSslSocket@@QBE?AVQSslCertificate@@XZ @ 499 NONAME ; class QSslCertificate QSslSocket::localCertificate(void) const
	?localDomainName@QHostInfo@@SA?AVQString@@XZ @ 500 NONAME ; class QString QHostInfo::localDomainName(void)
	?localHostName@QHostInfo@@SA?AVQString@@XZ @ 501 NONAME ; class QString QHostInfo::localHostName(void)
	?localPort@QAbstractSocket@@QBEGXZ @ 502 NONAME ; unsigned short QAbstractSocket::localPort(void) const
	?localPort@QNetworkProxyQuery@@QBEHXZ @ 503 NONAME ; int QNetworkProxyQuery::localPort(void) const
	?login@QFtp@@QAEHABVQString@@0@Z @ 504 NONAME ; int QFtp::login(class QString const &, class QString const &)
	?lookupHost@QHostInfo@@SAHABVQString@@PAVQObject@@PBD@Z @ 505 NONAME ; int QHostInfo::lookupHost(class QString const &, class QObject *, char const *)
	?lookupId@QHostInfo@@QBEHXZ @ 506 NONAME ; int QHostInfo::lookupId(void) const
	?majorVersion@QHttpRequestHeader@@UBEHXZ @ 507 NONAME ; int QHttpRequestHeader::majorVersion(void) const
	?majorVersion@QHttpResponseHeader@@UBEHXZ @ 508 NONAME ; int QHttpResponseHeader::majorVersion(void) const
	?manager@QNetworkReply@@QBEPAVQNetworkAccessManager@@XZ @ 509 NONAME ; class QNetworkAccessManager * QNetworkReply::manager(void) const
	?maxPendingConnections@QLocalServer@@QBEHXZ @ 510 NONAME ; int QLocalServer::maxPendingConnections(void) const
	?maxPendingConnections@QTcpServer@@QBEHXZ @ 511 NONAME ; int QTcpServer::maxPendingConnections(void) const
	?maximumCacheSize@QNetworkDiskCache@@QBE_JXZ @ 512 NONAME ; long long QNetworkDiskCache::maximumCacheSize(void) const
	?metaData@QNetworkDiskCache@@UAE?AVQNetworkCacheMetaData@@ABVQUrl@@@Z @ 513 NONAME ; class QNetworkCacheMetaData QNetworkDiskCache::metaData(class QUrl const &)
	?metaDataChanged@QNetworkReply@@IAEXXZ @ 514 NONAME ; void QNetworkReply::metaDataChanged(void)
	?metaObject@QAbstractNetworkCache@@UBEPBUQMetaObject@@XZ @ 515 NONAME ; struct QMetaObject const * QAbstractNetworkCache::metaObject(void) const
	?metaObject@QAbstractSocket@@UBEPBUQMetaObject@@XZ @ 516 NONAME ; struct QMetaObject const * QAbstractSocket::metaObject(void) const
	?metaObject@QFtp@@UBEPBUQMetaObject@@XZ @ 517 NONAME ; struct QMetaObject const * QFtp::metaObject(void) const
	?metaObject@QHttp@@UBEPBUQMetaObject@@XZ @ 518 NONAME ; struct QMetaObject const * QHttp::metaObject(void) const
	?metaObject@QLocalServer@@UBEPBUQMetaObject@@XZ @ 519 NONAME ; struct QMetaObject const * QLocalServer::metaObject(void) const
	?metaObject@QLocalSocket@@UBEPBUQMetaObject@@XZ @ 520 NONAME ; struct QMetaObject const * QLocalSocket::metaObject(void) const
	?metaObject@QNetworkAccessManager@@UBEPBUQMetaObject@@XZ @ 521 NONAME ; struct QMetaObject const * QNetworkAccessManager::metaObject(void) const
	?metaObject@QNetworkCookieJar@@UBEPBUQMetaObject@@XZ @ 522 NONAME ; struct QMetaObject const * QNetworkCookieJar::metaObject(void) const
	?metaObject@QNetworkDiskCache@@UBEPBUQMetaObject@@XZ @ 523 NONAME ; struct QMetaObject const * QNetworkDiskCache::metaObject(void) const
	?metaObject@QNetworkReply@@UBEPBUQMetaObject@@XZ @ 524 NONAME ; struct QMetaObject const * QNetworkReply::metaObject(void) const
	?metaObject@QSslSocket@@UBEPBUQMetaObject@@XZ @ 525 NONAME ; struct QMetaObject const * QSslSocket::metaObject(void) const
	?metaObject@QTcpServer@@UBEPBUQMetaObject@@XZ @ 526 NONAME ; struct QMetaObject const * QTcpServer::metaObject(void) const
	?metaObject@QTcpSocket@@UBEPBUQMetaObject@@XZ @ 527 NONAME ; struct QMetaObject const * QTcpSocket::metaObject(void) const
	?metaObject@QUdpSocket@@UBEPBUQMetaObject@@XZ @ 528 NONAME ; struct QMetaObject const * QUdpSocket::metaObject(void) const
	?method@QHttpRequestHeader@@QBE?AVQString@@XZ @ 529 NONAME ; class QString QHttpRequestHeader::method(void) const
	?minorVersion@QHttpRequestHeader@@UBEHXZ @ 530 NONAME ; int QHttpRequestHeader::minorVersion(void) const
	?minorVersion@QHttpResponseHeader@@UBEHXZ @ 531 NONAME ; int QHttpResponseHeader::minorVersion(void) const
	?mkdir@QFtp@@QAEHABVQString@@@Z @ 532 NONAME ; int QFtp::mkdir(class QString const &)
	?mode@QSslSocket@@QBE?AW4SslMode@1@XZ @ 533 NONAME ; enum QSslSocket::SslMode QSslSocket::mode(void) const
	?modeChanged@QSslSocket@@IAEXW4SslMode@1@@Z @ 534 NONAME ; void QSslSocket::modeChanged(enum QSslSocket::SslMode)
	?name@QNetworkCookie@@QBE?AVQByteArray@@XZ @ 535 NONAME ; class QByteArray QNetworkCookie::name(void) const
	?name@QNetworkInterface@@QBE?AVQString@@XZ @ 536 NONAME ; class QString QNetworkInterface::name(void) const
	?name@QSslCipher@@QBE?AVQString@@XZ @ 537 NONAME ; class QString QSslCipher::name(void) const
	?name@QUrlInfo@@QBE?AVQString@@XZ @ 538 NONAME ; class QString QUrlInfo::name(void) const
	?netmask@QNetworkAddressEntry@@QBE?AVQHostAddress@@XZ @ 539 NONAME ; class QHostAddress QNetworkAddressEntry::netmask(void) const
	?newConnection@QLocalServer@@IAEXXZ @ 540 NONAME ; void QLocalServer::newConnection(void)
	?newConnection@QTcpServer@@IAEXXZ @ 541 NONAME ; void QTcpServer::newConnection(void)
	?nextPendingConnection@QLocalServer@@UAEPAVQLocalSocket@@XZ @ 542 NONAME ; class QLocalSocket * QLocalServer::nextPendingConnection(void)
	?nextPendingConnection@QTcpServer@@UAEPAVQTcpSocket@@XZ @ 543 NONAME ; class QTcpSocket * QTcpServer::nextPendingConnection(void)
	?operation@QNetworkReply@@QBE?AW4Operation@QNetworkAccessManager@@XZ @ 544 NONAME ; enum QNetworkAccessManager::Operation QNetworkReply::operation(void) const
	?originatingObject@QNetworkRequest@@QBEPAVQObject@@XZ @ 545 NONAME ; class QObject * QNetworkRequest::originatingObject(void) const
	?owner@QUrlInfo@@QBE?AVQString@@XZ @ 546 NONAME ; class QString QUrlInfo::owner(void) const
	?parse@QHttpHeader@@IAE_NABVQString@@@Z @ 547 NONAME ; bool QHttpHeader::parse(class QString const &)
	?parseCookies@QNetworkCookie@@SA?AV?$QList@VQNetworkCookie@@@@ABVQByteArray@@@Z @ 548 NONAME ; class QList<class QNetworkCookie> QNetworkCookie::parseCookies(class QByteArray const &)
	?parseLine@QHttpHeader@@MAE_NABVQString@@H@Z @ 549 NONAME ; bool QHttpHeader::parseLine(class QString const &, int)
	?parseLine@QHttpRequestHeader@@MAE_NABVQString@@H@Z @ 550 NONAME ; bool QHttpRequestHeader::parseLine(class QString const &, int)
	?parseLine@QHttpResponseHeader@@MAE_NABVQString@@H@Z @ 551 NONAME ; bool QHttpResponseHeader::parseLine(class QString const &, int)
	?parseSubnet@QHostAddress@@SA?AU?$QPair@VQHostAddress@@H@@ABVQString@@@Z @ 552 NONAME ; struct QPair<class QHostAddress, int> QHostAddress::parseSubnet(class QString const &)
	?password@QAuthenticator@@QBE?AVQString@@XZ @ 553 NONAME ; class QString QAuthenticator::password(void) const
	?password@QNetworkProxy@@QBE?AVQString@@XZ @ 554 NONAME ; class QString QNetworkProxy::password(void) const
	?path@QHttpRequestHeader@@QBE?AVQString@@XZ @ 555 NONAME ; class QString QHttpRequestHeader::path(void) const
	?path@QNetworkCookie@@QBE?AVQString@@XZ @ 556 NONAME ; class QString QNetworkCookie::path(void) const
	?peerAddress@QAbstractSocket@@QBE?AVQHostAddress@@XZ @ 557 NONAME ; class QHostAddress QAbstractSocket::peerAddress(void) const
	?peerCertificate@QSslConfiguration@@QBE?AVQSslCertificate@@XZ @ 558 NONAME ; class QSslCertificate QSslConfiguration::peerCertificate(void) const
	?peerCertificate@QSslSocket@@QBE?AVQSslCertificate@@XZ @ 559 NONAME ; class QSslCertificate QSslSocket::peerCertificate(void) const
	?peerCertificateChain@QSslConfiguration@@QBE?AV?$QList@VQSslCertificate@@@@XZ @ 560 NONAME ; class QList<class QSslCertificate> QSslConfiguration::peerCertificateChain(void) const
	?peerCertificateChain@QSslSocket@@QBE?AV?$QList@VQSslCertificate@@@@XZ @ 561 NONAME ; class QList<class QSslCertificate> QSslSocket::peerCertificateChain(void) const
	?peerHostName@QNetworkProxyQuery@@QBE?AVQString@@XZ @ 562 NONAME ; class QString QNetworkProxyQuery::peerHostName(void) const
	?peerName@QAbstractSocket@@QBE?AVQString@@XZ @ 563 NONAME ; class QString QAbstractSocket::peerName(void) const
	?peerPort@QAbstractSocket@@QBEGXZ @ 564 NONAME ; unsigned short QAbstractSocket::peerPort(void) const
	?peerPort@QNetworkProxyQuery@@QBEHXZ @ 565 NONAME ; int QNetworkProxyQuery::peerPort(void) const
	?peerVerifyDepth@QSslConfiguration@@QBEHXZ @ 566 NONAME ; int QSslConfiguration::peerVerifyDepth(void) const
	?peerVerifyDepth@QSslSocket@@QBEHXZ @ 567 NONAME ; int QSslSocket::peerVerifyDepth(void) const
	?peerVerifyError@QSslSocket@@IAEXABVQSslError@@@Z @ 568 NONAME ; void QSslSocket::peerVerifyError(class QSslError const &)
	?peerVerifyMode@QSslConfiguration@@QBE?AW4PeerVerifyMode@QSslSocket@@XZ @ 569 NONAME ; enum QSslSocket::PeerVerifyMode QSslConfiguration::peerVerifyMode(void) const
	?peerVerifyMode@QSslSocket@@QBE?AW4PeerVerifyMode@1@XZ @ 570 NONAME ; enum QSslSocket::PeerVerifyMode QSslSocket::peerVerifyMode(void) const
	?pendingDatagramSize@QUdpSocket@@QBE_JXZ @ 571 NONAME ; long long QUdpSocket::pendingDatagramSize(void) const
	?permissions@QUrlInfo@@QBEHXZ @ 572 NONAME ; int QUrlInfo::permissions(void) const
	?port@QNetworkProxy@@QBEGXZ @ 573 NONAME ; unsigned short QNetworkProxy::port(void) const
	?post@QHttp@@QAEHABVQString@@ABVQByteArray@@PAVQIODevice@@@Z @ 574 NONAME ; int QHttp::post(class QString const &, class QByteArray const &, class QIODevice *)
	?post@QHttp@@QAEHABVQString@@PAVQIODevice@@1@Z @ 575 NONAME ; int QHttp::post(class QString const &, class QIODevice *, class QIODevice *)
	?post@QNetworkAccessManager@@QAEPAVQNetworkReply@@ABVQNetworkRequest@@ABVQByteArray@@@Z @ 576 NONAME ; class QNetworkReply * QNetworkAccessManager::post(class QNetworkRequest const &, class QByteArray const &)
	?post@QNetworkAccessManager@@QAEPAVQNetworkReply@@ABVQNetworkRequest@@PAVQIODevice@@@Z @ 577 NONAME ; class QNetworkReply * QNetworkAccessManager::post(class QNetworkRequest const &, class QIODevice *)
	?prefixLength@QNetworkAddressEntry@@QBEHXZ @ 578 NONAME ; int QNetworkAddressEntry::prefixLength(void) const
	?prepare@QNetworkDiskCache@@UAEPAVQIODevice@@ABVQNetworkCacheMetaData@@@Z @ 579 NONAME ; class QIODevice * QNetworkDiskCache::prepare(class QNetworkCacheMetaData const &)
	?privateKey@QSslConfiguration@@QBE?AVQSslKey@@XZ @ 580 NONAME ; class QSslKey QSslConfiguration::privateKey(void) const
	?privateKey@QSslSocket@@QBE?AVQSslKey@@XZ @ 581 NONAME ; class QSslKey QSslSocket::privateKey(void) const
	?protocol@QHostAddress@@QBE?AW4NetworkLayerProtocol@QAbstractSocket@@XZ @ 582 NONAME ; enum QAbstractSocket::NetworkLayerProtocol QHostAddress::protocol(void) const
	?protocol@QSslCipher@@QBE?AW4SslProtocol@QSsl@@XZ @ 583 NONAME ; enum QSsl::SslProtocol QSslCipher::protocol(void) const
	?protocol@QSslConfiguration@@QBE?AW4SslProtocol@QSsl@@XZ @ 584 NONAME ; enum QSsl::SslProtocol QSslConfiguration::protocol(void) const
	?protocol@QSslSocket@@QBE?AW4SslProtocol@QSsl@@XZ @ 585 NONAME ; enum QSsl::SslProtocol QSslSocket::protocol(void) const
	?protocolString@QSslCipher@@QBE?AVQString@@XZ @ 586 NONAME ; class QString QSslCipher::protocolString(void) const
	?protocolTag@QNetworkProxyQuery@@QBE?AVQString@@XZ @ 587 NONAME ; class QString QNetworkProxyQuery::protocolTag(void) const
	?proxy@QAbstractSocket@@QBE?AVQNetworkProxy@@XZ @ 588 NONAME ; class QNetworkProxy QAbstractSocket::proxy(void) const
	?proxy@QNetworkAccessManager@@QBE?AVQNetworkProxy@@XZ @ 589 NONAME ; class QNetworkProxy QNetworkAccessManager::proxy(void) const
	?proxy@QTcpServer@@QBE?AVQNetworkProxy@@XZ @ 590 NONAME ; class QNetworkProxy QTcpServer::proxy(void) const
	?proxyAuthenticationRequired@QAbstractSocket@@IAEXABVQNetworkProxy@@PAVQAuthenticator@@@Z @ 591 NONAME ; void QAbstractSocket::proxyAuthenticationRequired(class QNetworkProxy const &, class QAuthenticator *)
	?proxyAuthenticationRequired@QHttp@@IAEXABVQNetworkProxy@@PAVQAuthenticator@@@Z @ 592 NONAME ; void QHttp::proxyAuthenticationRequired(class QNetworkProxy const &, class QAuthenticator *)
	?proxyAuthenticationRequired@QNetworkAccessManager@@IAEXABVQNetworkProxy@@PAVQAuthenticator@@@Z @ 593 NONAME ; void QNetworkAccessManager::proxyAuthenticationRequired(class QNetworkProxy const &, class QAuthenticator *)
	?proxyFactory@QNetworkAccessManager@@QBEPAVQNetworkProxyFactory@@XZ @ 594 NONAME ; class QNetworkProxyFactory * QNetworkAccessManager::proxyFactory(void) const
	?proxyForQuery@QNetworkProxyFactory@@SA?AV?$QList@VQNetworkProxy@@@@ABVQNetworkProxyQuery@@@Z @ 595 NONAME ; class QList<class QNetworkProxy> QNetworkProxyFactory::proxyForQuery(class QNetworkProxyQuery const &)
	?publicKey@QSslCertificate@@QBE?AVQSslKey@@XZ @ 596 NONAME ; class QSslKey QSslCertificate::publicKey(void) const
	?put@QFtp@@QAEHABVQByteArray@@ABVQString@@W4TransferType@1@@Z @ 597 NONAME ; int QFtp::put(class QByteArray const &, class QString const &, enum QFtp::TransferType)
	?put@QFtp@@QAEHPAVQIODevice@@ABVQString@@W4TransferType@1@@Z @ 598 NONAME ; int QFtp::put(class QIODevice *, class QString const &, enum QFtp::TransferType)
	?put@QNetworkAccessManager@@QAEPAVQNetworkReply@@ABVQNetworkRequest@@ABVQByteArray@@@Z @ 599 NONAME ; class QNetworkReply * QNetworkAccessManager::put(class QNetworkRequest const &, class QByteArray const &)
	?put@QNetworkAccessManager@@QAEPAVQNetworkReply@@ABVQNetworkRequest@@PAVQIODevice@@@Z @ 600 NONAME ; class QNetworkReply * QNetworkAccessManager::put(class QNetworkRequest const &, class QIODevice *)
	?qHash@@YAIABVQHostAddress@@@Z @ 601 NONAME ; unsigned int qHash(class QHostAddress const &)
	?qt_metacall@QAbstractNetworkCache@@UAEHW4Call@QMetaObject@@HPAPAX@Z @ 602 NONAME ; int QAbstractNetworkCache::qt_metacall(enum QMetaObject::Call, int, void * *)
	?qt_metacall@QAbstractSocket@@UAEHW4Call@QMetaObject@@HPAPAX@Z @ 603 NONAME ; int QAbstractSocket::qt_metacall(enum QMetaObject::Call, int, void * *)
	?qt_metacall@QFtp@@UAEHW4Call@QMetaObject@@HPAPAX@Z @ 604 NONAME ; int QFtp::qt_metacall(enum QMetaObject::Call, int, void * *)
	?qt_metacall@QHttp@@UAEHW4Call@QMetaObject@@HPAPAX@Z @ 605 NONAME ; int QHttp::qt_metacall(enum QMetaObject::Call, int, void * *)
	?qt_metacall@QLocalServer@@UAEHW4Call@QMetaObject@@HPAPAX@Z @ 606 NONAME ; int QLocalServer::qt_metacall(enum QMetaObject::Call, int, void * *)
	?qt_metacall@QLocalSocket@@UAEHW4Call@QMetaObject@@HPAPAX@Z @ 607 NONAME ; int QLocalSocket::qt_metacall(enum QMetaObject::Call, int, void * *)
	?qt_metacall@QNetworkAccessManager@@UAEHW4Call@QMetaObject@@HPAPAX@Z @ 608 NONAME ; int QNetworkAccessManager::qt_metacall(enum QMetaObject::Call, int, void * *)
	?qt_metacall@QNetworkCookieJar@@UAEHW4Call@QMetaObject@@HPAPAX@Z @ 609 NONAME ; int QNetworkCookieJar::qt_metacall(enum QMetaObject::Call, int, void * *)
	?qt_metacall@QNetworkDiskCache@@UAEHW4Call@QMetaObject@@HPAPAX@Z @ 610 NONAME ; int QNetworkDiskCache::qt_metacall(enum QMetaObject::Call, int, void * *)
	?qt_metacall@QNetworkReply@@UAEHW4Call@QMetaObject@@HPAPAX@Z @ 611 NONAME ; int QNetworkReply::qt_metacall(enum QMetaObject::Call, int, void * *)
	?qt_metacall@QSslSocket@@UAEHW4Call@QMetaObject@@HPAPAX@Z @ 612 NONAME ; int QSslSocket::qt_metacall(enum QMetaObject::Call, int, void * *)
	?qt_metacall@QTcpServer@@UAEHW4Call@QMetaObject@@HPAPAX@Z @ 613 NONAME ; int QTcpServer::qt_metacall(enum QMetaObject::Call, int, void * *)
	?qt_metacall@QTcpSocket@@UAEHW4Call@QMetaObject@@HPAPAX@Z @ 614 NONAME ; int QTcpSocket::qt_metacall(enum QMetaObject::Call, int, void * *)
	?qt_metacall@QUdpSocket@@UAEHW4Call@QMetaObject@@HPAPAX@Z @ 615 NONAME ; int QUdpSocket::qt_metacall(enum QMetaObject::Call, int, void * *)
	?qt_metacast@QAbstractNetworkCache@@UAEPAXPBD@Z @ 616 NONAME ; void * QAbstractNetworkCache::qt_metacast(char const *)
	?qt_metacast@QAbstractSocket@@UAEPAXPBD@Z @ 617 NONAME ; void * QAbstractSocket::qt_metacast(char const *)
	?qt_metacast@QFtp@@UAEPAXPBD@Z @ 618 NONAME ; void * QFtp::qt_metacast(char const *)
	?qt_metacast@QHttp@@UAEPAXPBD@Z @ 619 NONAME ; void * QHttp::qt_metacast(char const *)
	?qt_metacast@QLocalServer@@UAEPAXPBD@Z @ 620 NONAME ; void * QLocalServer::qt_metacast(char const *)
	?qt_metacast@QLocalSocket@@UAEPAXPBD@Z @ 621 NONAME ; void * QLocalSocket::qt_metacast(char const *)
	?qt_metacast@QNetworkAccessManager@@UAEPAXPBD@Z @ 622 NONAME ; void * QNetworkAccessManager::qt_metacast(char const *)
	?qt_metacast@QNetworkCookieJar@@UAEPAXPBD@Z @ 623 NONAME ; void * QNetworkCookieJar::qt_metacast(char const *)
	?qt_metacast@QNetworkDiskCache@@UAEPAXPBD@Z @ 624 NONAME ; void * QNetworkDiskCache::qt_metacast(char const *)
	?qt_metacast@QNetworkReply@@UAEPAXPBD@Z @ 625 NONAME ; void * QNetworkReply::qt_metacast(char const *)
	?qt_metacast@QSslSocket@@UAEPAXPBD@Z @ 626 NONAME ; void * QSslSocket::qt_metacast(char const *)
	?qt_metacast@QTcpServer@@UAEPAXPBD@Z @ 627 NONAME ; void * QTcpServer::qt_metacast(char const *)
	?qt_metacast@QTcpSocket@@UAEPAXPBD@Z @ 628 NONAME ; void * QTcpSocket::qt_metacast(char const *)
	?qt_metacast@QUdpSocket@@UAEPAXPBD@Z @ 629 NONAME ; void * QUdpSocket::qt_metacast(char const *)
	?queryType@QNetworkProxyQuery@@QBE?AW4QueryType@1@XZ @ 630 NONAME ; enum QNetworkProxyQuery::QueryType QNetworkProxyQuery::queryType(void) const
	?rawCommand@QFtp@@QAEHABVQString@@@Z @ 631 NONAME ; int QFtp::rawCommand(class QString const &)
	?rawCommandReply@QFtp@@IAEXHABVQString@@@Z @ 632 NONAME ; void QFtp::rawCommandReply(int, class QString const &)
	?rawHeader@QNetworkReply@@QBE?AVQByteArray@@ABV2@@Z @ 633 NONAME ; class QByteArray QNetworkReply::rawHeader(class QByteArray const &) const
	?rawHeader@QNetworkRequest@@QBE?AVQByteArray@@ABV2@@Z @ 634 NONAME ; class QByteArray QNetworkRequest::rawHeader(class QByteArray const &) const
	?rawHeaderList@QNetworkReply@@QBE?AV?$QList@VQByteArray@@@@XZ @ 635 NONAME ; class QList<class QByteArray> QNetworkReply::rawHeaderList(void) const
	?rawHeaderList@QNetworkRequest@@QBE?AV?$QList@VQByteArray@@@@XZ @ 636 NONAME ; class QList<class QByteArray> QNetworkRequest::rawHeaderList(void) const
	?rawHeaders@QNetworkCacheMetaData@@QBE?AV?$QList@U?$QPair@VQByteArray@@V1@@@@@XZ @ 637 NONAME ; class QList<struct QPair<class QByteArray, class QByteArray> > QNetworkCacheMetaData::rawHeaders(void) const
	?read@QFtp@@QAE_JPAD_J@Z @ 638 NONAME ; long long QFtp::read(char *, long long)
	?read@QHttp@@QAE_JPAD_J@Z @ 639 NONAME ; long long QHttp::read(char *, long long)
	?readAll@QFtp@@QAE?AVQByteArray@@XZ @ 640 NONAME ; class QByteArray QFtp::readAll(void)
	?readAll@QHttp@@QAE?AVQByteArray@@XZ @ 641 NONAME ; class QByteArray QHttp::readAll(void)
	?readBufferSize@QAbstractSocket@@QBE_JXZ @ 642 NONAME ; long long QAbstractSocket::readBufferSize(void) const
	?readBufferSize@QLocalSocket@@QBE_JXZ @ 643 NONAME ; long long QLocalSocket::readBufferSize(void) const
	?readBufferSize@QNetworkReply@@QBE_JXZ @ 644 NONAME ; long long QNetworkReply::readBufferSize(void) const
	?readData@QAbstractSocket@@MAE_JPAD_J@Z @ 645 NONAME ; long long QAbstractSocket::readData(char *, long long)
	?readData@QLocalSocket@@MAE_JPAD_J@Z @ 646 NONAME ; long long QLocalSocket::readData(char *, long long)
	?readData@QSslSocket@@MAE_JPAD_J@Z @ 647 NONAME ; long long QSslSocket::readData(char *, long long)
	?readDatagram@QUdpSocket@@QAE_JPAD_JPAVQHostAddress@@PAG@Z @ 648 NONAME ; long long QUdpSocket::readDatagram(char *, long long, class QHostAddress *, unsigned short *)
	?readLineData@QAbstractSocket@@MAE_JPAD_J@Z @ 649 NONAME ; long long QAbstractSocket::readLineData(char *, long long)
	?readyRead@QFtp@@IAEXXZ @ 650 NONAME ; void QFtp::readyRead(void)
	?readyRead@QHttp@@IAEXABVQHttpResponseHeader@@@Z @ 651 NONAME ; void QHttp::readyRead(class QHttpResponseHeader const &)
	?realm@QAuthenticator@@QBE?AVQString@@XZ @ 652 NONAME ; class QString QAuthenticator::realm(void) const
	?reasonPhrase@QHttpResponseHeader@@QBE?AVQString@@XZ @ 653 NONAME ; class QString QHttpResponseHeader::reasonPhrase(void) const
	?remove@QFtp@@QAEHABVQString@@@Z @ 654 NONAME ; int QFtp::remove(class QString const &)
	?remove@QNetworkDiskCache@@UAE_NABVQUrl@@@Z @ 655 NONAME ; bool QNetworkDiskCache::remove(class QUrl const &)
	?removeAllValues@QHttpHeader@@QAEXABVQString@@@Z @ 656 NONAME ; void QHttpHeader::removeAllValues(class QString const &)
	?removeServer@QLocalServer@@SA_NABVQString@@@Z @ 657 NONAME ; bool QLocalServer::removeServer(class QString const &)
	?removeValue@QHttpHeader@@QAEXABVQString@@@Z @ 658 NONAME ; void QHttpHeader::removeValue(class QString const &)
	?rename@QFtp@@QAEHABVQString@@0@Z @ 659 NONAME ; int QFtp::rename(class QString const &, class QString const &)
	?request@QHttp@@QAEHABVQHttpRequestHeader@@ABVQByteArray@@PAVQIODevice@@@Z @ 660 NONAME ; int QHttp::request(class QHttpRequestHeader const &, class QByteArray const &, class QIODevice *)
	?request@QHttp@@QAEHABVQHttpRequestHeader@@PAVQIODevice@@1@Z @ 661 NONAME ; int QHttp::request(class QHttpRequestHeader const &, class QIODevice *, class QIODevice *)
	?request@QNetworkReply@@QBE?AVQNetworkRequest@@XZ @ 662 NONAME ; class QNetworkRequest QNetworkReply::request(void) const
	?requestFinished@QHttp@@IAEXH_N@Z @ 663 NONAME ; void QHttp::requestFinished(int, bool)
	?requestStarted@QHttp@@IAEXH@Z @ 664 NONAME ; void QHttp::requestStarted(int)
	?responseHeaderReceived@QHttp@@IAEXABVQHttpResponseHeader@@@Z @ 665 NONAME ; void QHttp::responseHeaderReceived(class QHttpResponseHeader const &)
	?rmdir@QFtp@@QAEHABVQString@@@Z @ 666 NONAME ; int QFtp::rmdir(class QString const &)
	?saveToDisk@QNetworkCacheMetaData@@QBE_NXZ @ 667 NONAME ; bool QNetworkCacheMetaData::saveToDisk(void) const
	?scopeId@QHostAddress@@QBE?AVQString@@XZ @ 668 NONAME ; class QString QHostAddress::scopeId(void) const
	?serialNumber@QSslCertificate@@QBE?AVQByteArray@@XZ @ 669 NONAME ; class QByteArray QSslCertificate::serialNumber(void) const
	?serverAddress@QTcpServer@@QBE?AVQHostAddress@@XZ @ 670 NONAME ; class QHostAddress QTcpServer::serverAddress(void) const
	?serverError@QLocalServer@@QBE?AW4SocketError@QAbstractSocket@@XZ @ 671 NONAME ; enum QAbstractSocket::SocketError QLocalServer::serverError(void) const
	?serverError@QTcpServer@@QBE?AW4SocketError@QAbstractSocket@@XZ @ 672 NONAME ; enum QAbstractSocket::SocketError QTcpServer::serverError(void) const
	?serverName@QLocalServer@@QBE?AVQString@@XZ @ 673 NONAME ; class QString QLocalServer::serverName(void) const
	?serverName@QLocalSocket@@QBE?AVQString@@XZ @ 674 NONAME ; class QString QLocalSocket::serverName(void) const
	?serverPort@QTcpServer@@QBEGXZ @ 675 NONAME ; unsigned short QTcpServer::serverPort(void) const
	?sessionCipher@QSslConfiguration@@QBE?AVQSslCipher@@XZ @ 676 NONAME ; class QSslCipher QSslConfiguration::sessionCipher(void) const
	?sessionCipher@QSslSocket@@QBE?AVQSslCipher@@XZ @ 677 NONAME ; class QSslCipher QSslSocket::sessionCipher(void) const
	?setAddress@QHostAddress@@QAEXABVQIPv6Address@@@Z @ 678 NONAME ; void QHostAddress::setAddress(class QIPv6Address const &)
	?setAddress@QHostAddress@@QAEXI@Z @ 679 NONAME ; void QHostAddress::setAddress(unsigned int)
	?setAddress@QHostAddress@@QAEXPAE@Z @ 680 NONAME ; void QHostAddress::setAddress(unsigned char *)
	?setAddress@QHostAddress@@QAEXPBUsockaddr@@@Z @ 681 NONAME ; void QHostAddress::setAddress(struct sockaddr const *)
	?setAddress@QHostAddress@@QAE_NABVQString@@@Z @ 682 NONAME ; bool QHostAddress::setAddress(class QString const &)
	?setAddresses@QHostInfo@@QAEXABV?$QList@VQHostAddress@@@@@Z @ 683 NONAME ; void QHostInfo::setAddresses(class QList<class QHostAddress> const &)
	?setAllCookies@QNetworkCookieJar@@IAEXABV?$QList@VQNetworkCookie@@@@@Z @ 684 NONAME ; void QNetworkCookieJar::setAllCookies(class QList<class QNetworkCookie> const &)
	?setApplicationProxy@QNetworkProxy@@SAXABV1@@Z @ 685 NONAME ; void QNetworkProxy::setApplicationProxy(class QNetworkProxy const &)
	?setApplicationProxyFactory@QNetworkProxyFactory@@SAXPAV1@@Z @ 686 NONAME ; void QNetworkProxyFactory::setApplicationProxyFactory(class QNetworkProxyFactory *)
	?setAttribute@QNetworkReply@@IAEXW4Attribute@QNetworkRequest@@ABVQVariant@@@Z @ 687 NONAME ; void QNetworkReply::setAttribute(enum QNetworkRequest::Attribute, class QVariant const &)
	?setAttribute@QNetworkRequest@@QAEXW4Attribute@1@ABVQVariant@@@Z @ 688 NONAME ; void QNetworkRequest::setAttribute(enum QNetworkRequest::Attribute, class QVariant const &)
	?setAttributes@QNetworkCacheMetaData@@QAEXABV?$QHash@W4Attribute@QNetworkRequest@@VQVariant@@@@@Z @ 689 NONAME ; void QNetworkCacheMetaData::setAttributes(class QHash<enum QNetworkRequest::Attribute, class QVariant> const &)
	?setBroadcast@QNetworkAddressEntry@@QAEXABVQHostAddress@@@Z @ 690 NONAME ; void QNetworkAddressEntry::setBroadcast(class QHostAddress const &)
	?setCaCertificates@QSslConfiguration@@QAEXABV?$QList@VQSslCertificate@@@@@Z @ 691 NONAME ; void QSslConfiguration::setCaCertificates(class QList<class QSslCertificate> const &)
	?setCaCertificates@QSslSocket@@QAEXABV?$QList@VQSslCertificate@@@@@Z @ 692 NONAME ; void QSslSocket::setCaCertificates(class QList<class QSslCertificate> const &)
	?setCache@QNetworkAccessManager@@QAEXPAVQAbstractNetworkCache@@@Z @ 693 NONAME ; void QNetworkAccessManager::setCache(class QAbstractNetworkCache *)
	?setCacheDirectory@QNetworkDiskCache@@QAEXABVQString@@@Z @ 694 NONAME ; void QNetworkDiskCache::setCacheDirectory(class QString const &)
	?setCapabilities@QNetworkProxy@@QAEXV?$QFlags@W4Capability@QNetworkProxy@@@@@Z @ 695 NONAME ; void QNetworkProxy::setCapabilities(class QFlags<enum QNetworkProxy::Capability>)
	?setCiphers@QSslConfiguration@@QAEXABV?$QList@VQSslCipher@@@@@Z @ 696 NONAME ; void QSslConfiguration::setCiphers(class QList<class QSslCipher> const &)
	?setCiphers@QSslSocket@@QAEXABV?$QList@VQSslCipher@@@@@Z @ 697 NONAME ; void QSslSocket::setCiphers(class QList<class QSslCipher> const &)
	?setCiphers@QSslSocket@@QAEXABVQString@@@Z @ 698 NONAME ; void QSslSocket::setCiphers(class QString const &)
	?setContentLength@QHttpHeader@@QAEXH@Z @ 699 NONAME ; void QHttpHeader::setContentLength(int)
	?setContentType@QHttpHeader@@QAEXABVQString@@@Z @ 700 NONAME ; void QHttpHeader::setContentType(class QString const &)
	?setCookieJar@QNetworkAccessManager@@QAEXPAVQNetworkCookieJar@@@Z @ 701 NONAME ; void QNetworkAccessManager::setCookieJar(class QNetworkCookieJar *)
	?setCookiesFromUrl@QNetworkCookieJar@@UAE_NABV?$QList@VQNetworkCookie@@@@ABVQUrl@@@Z @ 702 NONAME ; bool QNetworkCookieJar::setCookiesFromUrl(class QList<class QNetworkCookie> const &, class QUrl const &)
	?setDefaultCaCertificates@QSslSocket@@SAXABV?$QList@VQSslCertificate@@@@@Z @ 703 NONAME ; void QSslSocket::setDefaultCaCertificates(class QList<class QSslCertificate> const &)
	?setDefaultCiphers@QSslSocket@@SAXABV?$QList@VQSslCipher@@@@@Z @ 704 NONAME ; void QSslSocket::setDefaultCiphers(class QList<class QSslCipher> const &)
	?setDefaultConfiguration@QSslConfiguration@@SAXABV1@@Z @ 705 NONAME ; void QSslConfiguration::setDefaultConfiguration(class QSslConfiguration const &)
	?setDir@QUrlInfo@@UAEX_N@Z @ 706 NONAME ; void QUrlInfo::setDir(bool)
	?setDomain@QNetworkCookie@@QAEXABVQString@@@Z @ 707 NONAME ; void QNetworkCookie::setDomain(class QString const &)
	?setError@QHostInfo@@QAEXW4HostInfoError@1@@Z @ 708 NONAME ; void QHostInfo::setError(enum QHostInfo::HostInfoError)
	?setError@QNetworkReply@@IAEXW4NetworkError@1@ABVQString@@@Z @ 709 NONAME ; void QNetworkReply::setError(enum QNetworkReply::NetworkError, class QString const &)
	?setErrorString@QHostInfo@@QAEXABVQString@@@Z @ 710 NONAME ; void QHostInfo::setErrorString(class QString const &)
	?setExpirationDate@QNetworkCacheMetaData@@QAEXABVQDateTime@@@Z @ 711 NONAME ; void QNetworkCacheMetaData::setExpirationDate(class QDateTime const &)
	?setExpirationDate@QNetworkCookie@@QAEXABVQDateTime@@@Z @ 712 NONAME ; void QNetworkCookie::setExpirationDate(class QDateTime const &)
	?setFile@QUrlInfo@@UAEX_N@Z @ 713 NONAME ; void QUrlInfo::setFile(bool)
	?setGroup@QUrlInfo@@UAEXABVQString@@@Z @ 714 NONAME ; void QUrlInfo::setGroup(class QString const &)
	?setHeader@QNetworkReply@@IAEXW4KnownHeaders@QNetworkRequest@@ABVQVariant@@@Z @ 715 NONAME ; void QNetworkReply::setHeader(enum QNetworkRequest::KnownHeaders, class QVariant const &)
	?setHeader@QNetworkRequest@@QAEXW4KnownHeaders@1@ABVQVariant@@@Z @ 716 NONAME ; void QNetworkRequest::setHeader(enum QNetworkRequest::KnownHeaders, class QVariant const &)
	?setHost@QHttp@@QAEHABVQString@@G@Z @ 717 NONAME ; int QHttp::setHost(class QString const &, unsigned short)
	?setHost@QHttp@@QAEHABVQString@@W4ConnectionMode@1@G@Z @ 718 NONAME ; int QHttp::setHost(class QString const &, enum QHttp::ConnectionMode, unsigned short)
	?setHostName@QHostInfo@@QAEXABVQString@@@Z @ 719 NONAME ; void QHostInfo::setHostName(class QString const &)
	?setHostName@QNetworkProxy@@QAEXABVQString@@@Z @ 720 NONAME ; void QNetworkProxy::setHostName(class QString const &)
	?setHttpOnly@QNetworkCookie@@QAEX_N@Z @ 721 NONAME ; void QNetworkCookie::setHttpOnly(bool)
	?setIp@QNetworkAddressEntry@@QAEXABVQHostAddress@@@Z @ 722 NONAME ; void QNetworkAddressEntry::setIp(class QHostAddress const &)
	?setLastModified@QNetworkCacheMetaData@@QAEXABVQDateTime@@@Z @ 723 NONAME ; void QNetworkCacheMetaData::setLastModified(class QDateTime const &)
	?setLastModified@QUrlInfo@@UAEXABVQDateTime@@@Z @ 724 NONAME ; void QUrlInfo::setLastModified(class QDateTime const &)
	?setLastRead@QUrlInfo@@QAEXABVQDateTime@@@Z @ 725 NONAME ; void QUrlInfo::setLastRead(class QDateTime const &)
	?setLocalAddress@QAbstractSocket@@IAEXABVQHostAddress@@@Z @ 726 NONAME ; void QAbstractSocket::setLocalAddress(class QHostAddress const &)
	?setLocalCertificate@QSslConfiguration@@QAEXABVQSslCertificate@@@Z @ 727 NONAME ; void QSslConfiguration::setLocalCertificate(class QSslCertificate const &)
	?setLocalCertificate@QSslSocket@@QAEXABVQSslCertificate@@@Z @ 728 NONAME ; void QSslSocket::setLocalCertificate(class QSslCertificate const &)
	?setLocalCertificate@QSslSocket@@QAEXABVQString@@W4EncodingFormat@QSsl@@@Z @ 729 NONAME ; void QSslSocket::setLocalCertificate(class QString const &, enum QSsl::EncodingFormat)
	?setLocalPort@QAbstractSocket@@IAEXG@Z @ 730 NONAME ; void QAbstractSocket::setLocalPort(unsigned short)
	?setLocalPort@QNetworkProxyQuery@@QAEXH@Z @ 731 NONAME ; void QNetworkProxyQuery::setLocalPort(int)
	?setLookupId@QHostInfo@@QAEXH@Z @ 732 NONAME ; void QHostInfo::setLookupId(int)
	?setMaxPendingConnections@QLocalServer@@QAEXH@Z @ 733 NONAME ; void QLocalServer::setMaxPendingConnections(int)
	?setMaxPendingConnections@QTcpServer@@QAEXH@Z @ 734 NONAME ; void QTcpServer::setMaxPendingConnections(int)
	?setMaximumCacheSize@QNetworkDiskCache@@QAEX_J@Z @ 735 NONAME ; void QNetworkDiskCache::setMaximumCacheSize(long long)
	?setName@QNetworkCookie@@QAEXABVQByteArray@@@Z @ 736 NONAME ; void QNetworkCookie::setName(class QByteArray const &)
	?setName@QUrlInfo@@UAEXABVQString@@@Z @ 737 NONAME ; void QUrlInfo::setName(class QString const &)
	?setNetmask@QNetworkAddressEntry@@QAEXABVQHostAddress@@@Z @ 738 NONAME ; void QNetworkAddressEntry::setNetmask(class QHostAddress const &)
	?setOperation@QNetworkReply@@IAEXW4Operation@QNetworkAccessManager@@@Z @ 739 NONAME ; void QNetworkReply::setOperation(enum QNetworkAccessManager::Operation)
	?setOriginatingObject@QNetworkRequest@@QAEXPAVQObject@@@Z @ 740 NONAME ; void QNetworkRequest::setOriginatingObject(class QObject *)
	?setOwner@QUrlInfo@@UAEXABVQString@@@Z @ 741 NONAME ; void QUrlInfo::setOwner(class QString const &)
	?setPassword@QAuthenticator@@QAEXABVQString@@@Z @ 742 NONAME ; void QAuthenticator::setPassword(class QString const &)
	?setPassword@QNetworkProxy@@QAEXABVQString@@@Z @ 743 NONAME ; void QNetworkProxy::setPassword(class QString const &)
	?setPath@QNetworkCookie@@QAEXABVQString@@@Z @ 744 NONAME ; void QNetworkCookie::setPath(class QString const &)
	?setPeerAddress@QAbstractSocket@@IAEXABVQHostAddress@@@Z @ 745 NONAME ; void QAbstractSocket::setPeerAddress(class QHostAddress const &)
	?setPeerHostName@QNetworkProxyQuery@@QAEXABVQString@@@Z @ 746 NONAME ; void QNetworkProxyQuery::setPeerHostName(class QString const &)
	?setPeerName@QAbstractSocket@@IAEXABVQString@@@Z @ 747 NONAME ; void QAbstractSocket::setPeerName(class QString const &)
	?setPeerPort@QAbstractSocket@@IAEXG@Z @ 748 NONAME ; void QAbstractSocket::setPeerPort(unsigned short)
	?setPeerPort@QNetworkProxyQuery@@QAEXH@Z @ 749 NONAME ; void QNetworkProxyQuery::setPeerPort(int)
	?setPeerVerifyDepth@QSslConfiguration@@QAEXH@Z @ 750 NONAME ; void QSslConfiguration::setPeerVerifyDepth(int)
	?setPeerVerifyDepth@QSslSocket@@QAEXH@Z @ 751 NONAME ; void QSslSocket::setPeerVerifyDepth(int)
	?setPeerVerifyMode@QSslConfiguration@@QAEXW4PeerVerifyMode@QSslSocket@@@Z @ 752 NONAME ; void QSslConfiguration::setPeerVerifyMode(enum QSslSocket::PeerVerifyMode)
	?setPeerVerifyMode@QSslSocket@@QAEXW4PeerVerifyMode@1@@Z @ 753 NONAME ; void QSslSocket::setPeerVerifyMode(enum QSslSocket::PeerVerifyMode)
	?setPermissions@QUrlInfo@@UAEXH@Z @ 754 NONAME ; void QUrlInfo::setPermissions(int)
	?setPort@QNetworkProxy@@QAEXG@Z @ 755 NONAME ; void QNetworkProxy::setPort(unsigned short)
	?setPrefixLength@QNetworkAddressEntry@@QAEXH@Z @ 756 NONAME ; void QNetworkAddressEntry::setPrefixLength(int)
	?setPrivateKey@QSslConfiguration@@QAEXABVQSslKey@@@Z @ 757 NONAME ; void QSslConfiguration::setPrivateKey(class QSslKey const &)
	?setPrivateKey@QSslSocket@@QAEXABVQSslKey@@@Z @ 758 NONAME ; void QSslSocket::setPrivateKey(class QSslKey const &)
	?setPrivateKey@QSslSocket@@QAEXABVQString@@W4KeyAlgorithm@QSsl@@W4EncodingFormat@4@ABVQByteArray@@@Z @ 759 NONAME ; void QSslSocket::setPrivateKey(class QString const &, enum QSsl::KeyAlgorithm, enum QSsl::EncodingFormat, class QByteArray const &)
	?setProtocol@QSslConfiguration@@QAEXW4SslProtocol@QSsl@@@Z @ 760 NONAME ; void QSslConfiguration::setProtocol(enum QSsl::SslProtocol)
	?setProtocol@QSslSocket@@QAEXW4SslProtocol@QSsl@@@Z @ 761 NONAME ; void QSslSocket::setProtocol(enum QSsl::SslProtocol)
	?setProtocolTag@QNetworkProxyQuery@@QAEXABVQString@@@Z @ 762 NONAME ; void QNetworkProxyQuery::setProtocolTag(class QString const &)
	?setProxy@QAbstractSocket@@QAEXABVQNetworkProxy@@@Z @ 763 NONAME ; void QAbstractSocket::setProxy(class QNetworkProxy const &)
	?setProxy@QFtp@@QAEHABVQString@@G@Z @ 764 NONAME ; int QFtp::setProxy(class QString const &, unsigned short)
	?setProxy@QHttp@@QAEHABVQNetworkProxy@@@Z @ 765 NONAME ; int QHttp::setProxy(class QNetworkProxy const &)
	?setProxy@QHttp@@QAEHABVQString@@H00@Z @ 766 NONAME ; int QHttp::setProxy(class QString const &, int, class QString const &, class QString const &)
	?setProxy@QNetworkAccessManager@@QAEXABVQNetworkProxy@@@Z @ 767 NONAME ; void QNetworkAccessManager::setProxy(class QNetworkProxy const &)
	?setProxy@QTcpServer@@QAEXABVQNetworkProxy@@@Z @ 768 NONAME ; void QTcpServer::setProxy(class QNetworkProxy const &)
	?setProxyFactory@QNetworkAccessManager@@QAEXPAVQNetworkProxyFactory@@@Z @ 769 NONAME ; void QNetworkAccessManager::setProxyFactory(class QNetworkProxyFactory *)
	?setQueryType@QNetworkProxyQuery@@QAEXW4QueryType@1@@Z @ 770 NONAME ; void QNetworkProxyQuery::setQueryType(enum QNetworkProxyQuery::QueryType)
	?setRawHeader@QNetworkReply@@IAEXABVQByteArray@@0@Z @ 771 NONAME ; void QNetworkReply::setRawHeader(class QByteArray const &, class QByteArray const &)
	?setRawHeader@QNetworkRequest@@QAEXABVQByteArray@@0@Z @ 772 NONAME ; void QNetworkRequest::setRawHeader(class QByteArray const &, class QByteArray const &)
	?setRawHeaders@QNetworkCacheMetaData@@QAEXABV?$QList@U?$QPair@VQByteArray@@V1@@@@@@Z @ 773 NONAME ; void QNetworkCacheMetaData::setRawHeaders(class QList<struct QPair<class QByteArray, class QByteArray> > const &)
	?setReadBufferSize@QAbstractSocket@@QAEX_J@Z @ 774 NONAME ; void QAbstractSocket::setReadBufferSize(long long)
	?setReadBufferSize@QLocalSocket@@QAEX_J@Z @ 775 NONAME ; void QLocalSocket::setReadBufferSize(long long)
	?setReadBufferSize@QNetworkReply@@UAEX_J@Z @ 776 NONAME ; void QNetworkReply::setReadBufferSize(long long)
	?setReadBufferSize@QSslSocket@@QAEX_J@Z @ 777 NONAME ; void QSslSocket::setReadBufferSize(long long)
	?setReadable@QUrlInfo@@UAEX_N@Z @ 778 NONAME ; void QUrlInfo::setReadable(bool)
	?setRequest@QHttpRequestHeader@@QAEXABVQString@@0HH@Z @ 779 NONAME ; void QHttpRequestHeader::setRequest(class QString const &, class QString const &, int, int)
	?setRequest@QNetworkReply@@IAEXABVQNetworkRequest@@@Z @ 780 NONAME ; void QNetworkReply::setRequest(class QNetworkRequest const &)
	?setSaveToDisk@QNetworkCacheMetaData@@QAEX_N@Z @ 781 NONAME ; void QNetworkCacheMetaData::setSaveToDisk(bool)
	?setScopeId@QHostAddress@@QAEXABVQString@@@Z @ 782 NONAME ; void QHostAddress::setScopeId(class QString const &)
	?setSecure@QNetworkCookie@@QAEX_N@Z @ 783 NONAME ; void QNetworkCookie::setSecure(bool)
	?setSize@QUrlInfo@@UAEX_J@Z @ 784 NONAME ; void QUrlInfo::setSize(long long)
	?setSocket@QHttp@@QAEHPAVQTcpSocket@@@Z @ 785 NONAME ; int QHttp::setSocket(class QTcpSocket *)
	?setSocketDescriptor@QAbstractSocket@@QAE_NHW4SocketState@1@V?$QFlags@W4OpenModeFlag@QIODevice@@@@@Z @ 786 NONAME ; bool QAbstractSocket::setSocketDescriptor(int, enum QAbstractSocket::SocketState, class QFlags<enum QIODevice::OpenModeFlag>)
	?setSocketDescriptor@QLocalSocket@@QAE_NIW4LocalSocketState@1@V?$QFlags@W4OpenModeFlag@QIODevice@@@@@Z @ 787 NONAME ; bool QLocalSocket::setSocketDescriptor(unsigned int, enum QLocalSocket::LocalSocketState, class QFlags<enum QIODevice::OpenModeFlag>)
	?setSocketDescriptor@QSslSocket@@QAE_NHW4SocketState@QAbstractSocket@@V?$QFlags@W4OpenModeFlag@QIODevice@@@@@Z @ 788 NONAME ; bool QSslSocket::setSocketDescriptor(int, enum QAbstractSocket::SocketState, class QFlags<enum QIODevice::OpenModeFlag>)
	?setSocketDescriptor@QTcpServer@@QAE_NH@Z @ 789 NONAME ; bool QTcpServer::setSocketDescriptor(int)
	?setSocketError@QAbstractSocket@@IAEXW4SocketError@1@@Z @ 790 NONAME ; void QAbstractSocket::setSocketError(enum QAbstractSocket::SocketError)
	?setSocketOption@QAbstractSocket@@QAEXW4SocketOption@1@ABVQVariant@@@Z @ 791 NONAME ; void QAbstractSocket::setSocketOption(enum QAbstractSocket::SocketOption, class QVariant const &)
	?setSocketOption@QSslSocket@@QAEXW4SocketOption@QAbstractSocket@@ABVQVariant@@@Z @ 792 NONAME ; void QSslSocket::setSocketOption(enum QAbstractSocket::SocketOption, class QVariant const &)
	?setSocketState@QAbstractSocket@@IAEXW4SocketState@1@@Z @ 793 NONAME ; void QAbstractSocket::setSocketState(enum QAbstractSocket::SocketState)
	?setSslConfiguration@QNetworkReply@@QAEXABVQSslConfiguration@@@Z @ 794 NONAME ; void QNetworkReply::setSslConfiguration(class QSslConfiguration const &)
	?setSslConfiguration@QNetworkRequest@@QAEXABVQSslConfiguration@@@Z @ 795 NONAME ; void QNetworkRequest::setSslConfiguration(class QSslConfiguration const &)
	?setSslConfiguration@QSslSocket@@QAEXABVQSslConfiguration@@@Z @ 796 NONAME ; void QSslSocket::setSslConfiguration(class QSslConfiguration const &)
	?setStatusLine@QHttpResponseHeader@@QAEXHABVQString@@HH@Z @ 797 NONAME ; void QHttpResponseHeader::setStatusLine(int, class QString const &, int, int)
	?setSymLink@QUrlInfo@@UAEX_N@Z @ 798 NONAME ; void QUrlInfo::setSymLink(bool)
	?setTransferMode@QFtp@@QAEHW4TransferMode@1@@Z @ 799 NONAME ; int QFtp::setTransferMode(enum QFtp::TransferMode)
	?setType@QNetworkProxy@@QAEXW4ProxyType@1@@Z @ 800 NONAME ; void QNetworkProxy::setType(enum QNetworkProxy::ProxyType)
	?setUrl@QNetworkCacheMetaData@@QAEXABVQUrl@@@Z @ 801 NONAME ; void QNetworkCacheMetaData::setUrl(class QUrl const &)
	?setUrl@QNetworkProxyQuery@@QAEXABVQUrl@@@Z @ 802 NONAME ; void QNetworkProxyQuery::setUrl(class QUrl const &)
	?setUrl@QNetworkReply@@IAEXABVQUrl@@@Z @ 803 NONAME ; void QNetworkReply::setUrl(class QUrl const &)
	?setUrl@QNetworkRequest@@QAEXABVQUrl@@@Z @ 804 NONAME ; void QNetworkRequest::setUrl(class QUrl const &)
	?setUseSystemConfiguration@QNetworkProxyFactory@@SAX_N@Z @ 805 NONAME ; void QNetworkProxyFactory::setUseSystemConfiguration(bool)
	?setUser@QAuthenticator@@QAEXABVQString@@@Z @ 806 NONAME ; void QAuthenticator::setUser(class QString const &)
	?setUser@QHttp@@QAEHABVQString@@0@Z @ 807 NONAME ; int QHttp::setUser(class QString const &, class QString const &)
	?setUser@QNetworkProxy@@QAEXABVQString@@@Z @ 808 NONAME ; void QNetworkProxy::setUser(class QString const &)
	?setValid@QHttpHeader@@IAEX_N@Z @ 809 NONAME ; void QHttpHeader::setValid(bool)
	?setValue@QHttpHeader@@QAEXABVQString@@0@Z @ 810 NONAME ; void QHttpHeader::setValue(class QString const &, class QString const &)
	?setValue@QNetworkCookie@@QAEXABVQByteArray@@@Z @ 811 NONAME ; void QNetworkCookie::setValue(class QByteArray const &)
	?setValues@QHttpHeader@@QAEXABV?$QList@U?$QPair@VQString@@V1@@@@@@Z @ 812 NONAME ; void QHttpHeader::setValues(class QList<struct QPair<class QString, class QString> > const &)
	?setWritable@QUrlInfo@@UAEX_N@Z @ 813 NONAME ; void QUrlInfo::setWritable(bool)
	?size@QUrlInfo@@QBE_JXZ @ 814 NONAME ; long long QUrlInfo::size(void) const
	?socketDescriptor@QAbstractSocket@@QBEHXZ @ 815 NONAME ; int QAbstractSocket::socketDescriptor(void) const
	?socketDescriptor@QLocalSocket@@QBEIXZ @ 816 NONAME ; unsigned int QLocalSocket::socketDescriptor(void) const
	?socketDescriptor@QTcpServer@@QBEHXZ @ 817 NONAME ; int QTcpServer::socketDescriptor(void) const
	?socketOption@QAbstractSocket@@QAE?AVQVariant@@W4SocketOption@1@@Z @ 818 NONAME ; class QVariant QAbstractSocket::socketOption(enum QAbstractSocket::SocketOption)
	?socketOption@QSslSocket@@QAE?AVQVariant@@W4SocketOption@QAbstractSocket@@@Z @ 819 NONAME ; class QVariant QSslSocket::socketOption(enum QAbstractSocket::SocketOption)
	?socketType@QAbstractSocket@@QBE?AW4SocketType@1@XZ @ 820 NONAME ; enum QAbstractSocket::SocketType QAbstractSocket::socketType(void) const
	?sslConfiguration@QNetworkReply@@QBE?AVQSslConfiguration@@XZ @ 821 NONAME ; class QSslConfiguration QNetworkReply::sslConfiguration(void) const
	?sslConfiguration@QNetworkRequest@@QBE?AVQSslConfiguration@@XZ @ 822 NONAME ; class QSslConfiguration QNetworkRequest::sslConfiguration(void) const
	?sslConfiguration@QSslSocket@@QBE?AVQSslConfiguration@@XZ @ 823 NONAME ; class QSslConfiguration QSslSocket::sslConfiguration(void) const
	?sslErrors@QHttp@@IAEXABV?$QList@VQSslError@@@@@Z @ 824 NONAME ; void QHttp::sslErrors(class QList<class QSslError> const &)
	?sslErrors@QNetworkAccessManager@@IAEXPAVQNetworkReply@@ABV?$QList@VQSslError@@@@@Z @ 825 NONAME ; void QNetworkAccessManager::sslErrors(class QNetworkReply *, class QList<class QSslError> const &)
	?sslErrors@QNetworkReply@@IAEXABV?$QList@VQSslError@@@@@Z @ 826 NONAME ; void QNetworkReply::sslErrors(class QList<class QSslError> const &)
	?sslErrors@QSslSocket@@IAEXABV?$QList@VQSslError@@@@@Z @ 827 NONAME ; void QSslSocket::sslErrors(class QList<class QSslError> const &)
	?sslErrors@QSslSocket@@QBE?AV?$QList@VQSslError@@@@XZ @ 828 NONAME ; class QList<class QSslError> QSslSocket::sslErrors(void) const
	?startClientEncryption@QSslSocket@@QAEXXZ @ 829 NONAME ; void QSslSocket::startClientEncryption(void)
	?startServerEncryption@QSslSocket@@QAEXXZ @ 830 NONAME ; void QSslSocket::startServerEncryption(void)
	?state@QAbstractSocket@@QBE?AW4SocketState@1@XZ @ 831 NONAME ; enum QAbstractSocket::SocketState QAbstractSocket::state(void) const
	?state@QFtp@@QBE?AW4State@1@XZ @ 832 NONAME ; enum QFtp::State QFtp::state(void) const
	?state@QHttp@@QBE?AW4State@1@XZ @ 833 NONAME ; enum QHttp::State QHttp::state(void) const
	?state@QLocalSocket@@QBE?AW4LocalSocketState@1@XZ @ 834 NONAME ; enum QLocalSocket::LocalSocketState QLocalSocket::state(void) const
	?stateChanged@QAbstractSocket@@IAEXW4SocketState@1@@Z @ 835 NONAME ; void QAbstractSocket::stateChanged(enum QAbstractSocket::SocketState)
	?stateChanged@QFtp@@IAEXH@Z @ 836 NONAME ; void QFtp::stateChanged(int)
	?stateChanged@QHttp@@IAEXH@Z @ 837 NONAME ; void QHttp::stateChanged(int)
	?stateChanged@QLocalSocket@@IAEXW4LocalSocketState@1@@Z @ 838 NONAME ; void QLocalSocket::stateChanged(enum QLocalSocket::LocalSocketState)
	?statusCode@QHttpResponseHeader@@QBEHXZ @ 839 NONAME ; int QHttpResponseHeader::statusCode(void) const
	?subjectInfo@QSslCertificate@@QBE?AVQString@@ABVQByteArray@@@Z @ 840 NONAME ; class QString QSslCertificate::subjectInfo(class QByteArray const &) const
	?subjectInfo@QSslCertificate@@QBE?AVQString@@W4SubjectInfo@1@@Z @ 841 NONAME ; class QString QSslCertificate::subjectInfo(enum QSslCertificate::SubjectInfo) const
	?supportedBits@QSslCipher@@QBEHXZ @ 842 NONAME ; int QSslCipher::supportedBits(void) const
	?supportedCiphers@QSslSocket@@SA?AV?$QList@VQSslCipher@@@@XZ @ 843 NONAME ; class QList<class QSslCipher> QSslSocket::supportedCiphers(void)
	?supportsSsl@QSslSocket@@SA_NXZ @ 844 NONAME ; bool QSslSocket::supportsSsl(void)
	?systemCaCertificates@QSslSocket@@SA?AV?$QList@VQSslCertificate@@@@XZ @ 845 NONAME ; class QList<class QSslCertificate> QSslSocket::systemCaCertificates(void)
	?systemProxyForQuery@QNetworkProxyFactory@@SA?AV?$QList@VQNetworkProxy@@@@ABVQNetworkProxyQuery@@@Z @ 846 NONAME ; class QList<class QNetworkProxy> QNetworkProxyFactory::systemProxyForQuery(class QNetworkProxyQuery const &)
	?toDer@QSslCertificate@@QBE?AVQByteArray@@XZ @ 847 NONAME ; class QByteArray QSslCertificate::toDer(void) const
	?toDer@QSslKey@@QBE?AVQByteArray@@ABV2@@Z @ 848 NONAME ; class QByteArray QSslKey::toDer(class QByteArray const &) const
	?toIPv4Address@QHostAddress@@QBEIXZ @ 849 NONAME ; unsigned int QHostAddress::toIPv4Address(void) const
	?toIPv6Address@QHostAddress@@QBE?AVQIPv6Address@@XZ @ 850 NONAME ; class QIPv6Address QHostAddress::toIPv6Address(void) const
	?toPem@QSslCertificate@@QBE?AVQByteArray@@XZ @ 851 NONAME ; class QByteArray QSslCertificate::toPem(void) const
	?toPem@QSslKey@@QBE?AVQByteArray@@ABV2@@Z @ 852 NONAME ; class QByteArray QSslKey::toPem(class QByteArray const &) const
	?toRawForm@QNetworkCookie@@QBE?AVQByteArray@@W4RawForm@1@@Z @ 853 NONAME ; class QByteArray QNetworkCookie::toRawForm(enum QNetworkCookie::RawForm) const
	?toString@QHostAddress@@QBE?AVQString@@XZ @ 854 NONAME ; class QString QHostAddress::toString(void) const
	?toString@QHttpHeader@@UBE?AVQString@@XZ @ 855 NONAME ; class QString QHttpHeader::toString(void) const
	?toString@QHttpRequestHeader@@UBE?AVQString@@XZ @ 856 NONAME ; class QString QHttpRequestHeader::toString(void) const
	?toString@QHttpResponseHeader@@UBE?AVQString@@XZ @ 857 NONAME ; class QString QHttpResponseHeader::toString(void) const
	?tr@QAbstractNetworkCache@@SA?AVQString@@PBD0@Z @ 858 NONAME ; class QString QAbstractNetworkCache::tr(char const *, char const *)
	?tr@QAbstractNetworkCache@@SA?AVQString@@PBD0H@Z @ 859 NONAME ; class QString QAbstractNetworkCache::tr(char const *, char const *, int)
	?tr@QAbstractSocket@@SA?AVQString@@PBD0@Z @ 860 NONAME ; class QString QAbstractSocket::tr(char const *, char const *)
	?tr@QAbstractSocket@@SA?AVQString@@PBD0H@Z @ 861 NONAME ; class QString QAbstractSocket::tr(char const *, char const *, int)
	?tr@QFtp@@SA?AVQString@@PBD0@Z @ 862 NONAME ; class QString QFtp::tr(char const *, char const *)
	?tr@QFtp@@SA?AVQString@@PBD0H@Z @ 863 NONAME ; class QString QFtp::tr(char const *, char const *, int)
	?tr@QHttp@@SA?AVQString@@PBD0@Z @ 864 NONAME ; class QString QHttp::tr(char const *, char const *)
	?tr@QHttp@@SA?AVQString@@PBD0H@Z @ 865 NONAME ; class QString QHttp::tr(char const *, char const *, int)
	?tr@QLocalServer@@SA?AVQString@@PBD0@Z @ 866 NONAME ; class QString QLocalServer::tr(char const *, char const *)
	?tr@QLocalServer@@SA?AVQString@@PBD0H@Z @ 867 NONAME ; class QString QLocalServer::tr(char const *, char const *, int)
	?tr@QLocalSocket@@SA?AVQString@@PBD0@Z @ 868 NONAME ; class QString QLocalSocket::tr(char const *, char const *)
	?tr@QLocalSocket@@SA?AVQString@@PBD0H@Z @ 869 NONAME ; class QString QLocalSocket::tr(char const *, char const *, int)
	?tr@QNetworkAccessManager@@SA?AVQString@@PBD0@Z @ 870 NONAME ; class QString QNetworkAccessManager::tr(char const *, char const *)
	?tr@QNetworkAccessManager@@SA?AVQString@@PBD0H@Z @ 871 NONAME ; class QString QNetworkAccessManager::tr(char const *, char const *, int)
	?tr@QNetworkCookieJar@@SA?AVQString@@PBD0@Z @ 872 NONAME ; class QString QNetworkCookieJar::tr(char const *, char const *)
	?tr@QNetworkCookieJar@@SA?AVQString@@PBD0H@Z @ 873 NONAME ; class QString QNetworkCookieJar::tr(char const *, char const *, int)
	?tr@QNetworkDiskCache@@SA?AVQString@@PBD0@Z @ 874 NONAME ; class QString QNetworkDiskCache::tr(char const *, char const *)
	?tr@QNetworkDiskCache@@SA?AVQString@@PBD0H@Z @ 875 NONAME ; class QString QNetworkDiskCache::tr(char const *, char const *, int)
	?tr@QNetworkReply@@SA?AVQString@@PBD0@Z @ 876 NONAME ; class QString QNetworkReply::tr(char const *, char const *)
	?tr@QNetworkReply@@SA?AVQString@@PBD0H@Z @ 877 NONAME ; class QString QNetworkReply::tr(char const *, char const *, int)
	?tr@QSslSocket@@SA?AVQString@@PBD0@Z @ 878 NONAME ; class QString QSslSocket::tr(char const *, char const *)
	?tr@QSslSocket@@SA?AVQString@@PBD0H@Z @ 879 NONAME ; class QString QSslSocket::tr(char const *, char const *, int)
	?tr@QTcpServer@@SA?AVQString@@PBD0@Z @ 880 NONAME ; class QString QTcpServer::tr(char const *, char const *)
	?tr@QTcpServer@@SA?AVQString@@PBD0H@Z @ 881 NONAME ; class QString QTcpServer::tr(char const *, char const *, int)
	?tr@QTcpSocket@@SA?AVQString@@PBD0@Z @ 882 NONAME ; class QString QTcpSocket::tr(char const *, char const *)
	?tr@QTcpSocket@@SA?AVQString@@PBD0H@Z @ 883 NONAME ; class QString QTcpSocket::tr(char const *, char const *, int)
	?tr@QUdpSocket@@SA?AVQString@@PBD0@Z @ 884 NONAME ; class QString QUdpSocket::tr(char const *, char const *)
	?tr@QUdpSocket@@SA?AVQString@@PBD0H@Z @ 885 NONAME ; class QString QUdpSocket::tr(char const *, char const *, int)
	?trUtf8@QAbstractNetworkCache@@SA?AVQString@@PBD0@Z @ 886 NONAME ; class QString QAbstractNetworkCache::trUtf8(char const *, char const *)
	?trUtf8@QAbstractNetworkCache@@SA?AVQString@@PBD0H@Z @ 887 NONAME ; class QString QAbstractNetworkCache::trUtf8(char const *, char const *, int)
	?trUtf8@QAbstractSocket@@SA?AVQString@@PBD0@Z @ 888 NONAME ; class QString QAbstractSocket::trUtf8(char const *, char const *)
	?trUtf8@QAbstractSocket@@SA?AVQString@@PBD0H@Z @ 889 NONAME ; class QString QAbstractSocket::trUtf8(char const *, char const *, int)
	?trUtf8@QFtp@@SA?AVQString@@PBD0@Z @ 890 NONAME ; class QString QFtp::trUtf8(char const *, char const *)
	?trUtf8@QFtp@@SA?AVQString@@PBD0H@Z @ 891 NONAME ; class QString QFtp::trUtf8(char const *, char const *, int)
	?trUtf8@QHttp@@SA?AVQString@@PBD0@Z @ 892 NONAME ; class QString QHttp::trUtf8(char const *, char const *)
	?trUtf8@QHttp@@SA?AVQString@@PBD0H@Z @ 893 NONAME ; class QString QHttp::trUtf8(char const *, char const *, int)
	?trUtf8@QLocalServer@@SA?AVQString@@PBD0@Z @ 894 NONAME ; class QString QLocalServer::trUtf8(char const *, char const *)
	?trUtf8@QLocalServer@@SA?AVQString@@PBD0H@Z @ 895 NONAME ; class QString QLocalServer::trUtf8(char const *, char const *, int)
	?trUtf8@QLocalSocket@@SA?AVQString@@PBD0@Z @ 896 NONAME ; class QString QLocalSocket::trUtf8(char const *, char const *)
	?trUtf8@QLocalSocket@@SA?AVQString@@PBD0H@Z @ 897 NONAME ; class QString QLocalSocket::trUtf8(char const *, char const *, int)
	?trUtf8@QNetworkAccessManager@@SA?AVQString@@PBD0@Z @ 898 NONAME ; class QString QNetworkAccessManager::trUtf8(char const *, char const *)
	?trUtf8@QNetworkAccessManager@@SA?AVQString@@PBD0H@Z @ 899 NONAME ; class QString QNetworkAccessManager::trUtf8(char const *, char const *, int)
	?trUtf8@QNetworkCookieJar@@SA?AVQString@@PBD0@Z @ 900 NONAME ; class QString QNetworkCookieJar::trUtf8(char const *, char const *)
	?trUtf8@QNetworkCookieJar@@SA?AVQString@@PBD0H@Z @ 901 NONAME ; class QString QNetworkCookieJar::trUtf8(char const *, char const *, int)
	?trUtf8@QNetworkDiskCache@@SA?AVQString@@PBD0@Z @ 902 NONAME ; class QString QNetworkDiskCache::trUtf8(char const *, char const *)
	?trUtf8@QNetworkDiskCache@@SA?AVQString@@PBD0H@Z @ 903 NONAME ; class QString QNetworkDiskCache::trUtf8(char const *, char const *, int)
	?trUtf8@QNetworkReply@@SA?AVQString@@PBD0@Z @ 904 NONAME ; class QString QNetworkReply::trUtf8(char const *, char const *)
	?trUtf8@QNetworkReply@@SA?AVQString@@PBD0H@Z @ 905 NONAME ; class QString QNetworkReply::trUtf8(char const *, char const *, int)
	?trUtf8@QSslSocket@@SA?AVQString@@PBD0@Z @ 906 NONAME ; class QString QSslSocket::trUtf8(char const *, char const *)
	?trUtf8@QSslSocket@@SA?AVQString@@PBD0H@Z @ 907 NONAME ; class QString QSslSocket::trUtf8(char const *, char const *, int)
	?trUtf8@QTcpServer@@SA?AVQString@@PBD0@Z @ 908 NONAME ; class QString QTcpServer::trUtf8(char const *, char const *)
	?trUtf8@QTcpServer@@SA?AVQString@@PBD0H@Z @ 909 NONAME ; class QString QTcpServer::trUtf8(char const *, char const *, int)
	?trUtf8@QTcpSocket@@SA?AVQString@@PBD0@Z @ 910 NONAME ; class QString QTcpSocket::trUtf8(char const *, char const *)
	?trUtf8@QTcpSocket@@SA?AVQString@@PBD0H@Z @ 911 NONAME ; class QString QTcpSocket::trUtf8(char const *, char const *, int)
	?trUtf8@QUdpSocket@@SA?AVQString@@PBD0@Z @ 912 NONAME ; class QString QUdpSocket::trUtf8(char const *, char const *)
	?trUtf8@QUdpSocket@@SA?AVQString@@PBD0H@Z @ 913 NONAME ; class QString QUdpSocket::trUtf8(char const *, char const *, int)
	?type@QNetworkProxy@@QBE?AW4ProxyType@1@XZ @ 914 NONAME ; enum QNetworkProxy::ProxyType QNetworkProxy::type(void) const
	?type@QSslKey@@QBE?AW4KeyType@QSsl@@XZ @ 915 NONAME ; enum QSsl::KeyType QSslKey::type(void) const
	?updateMetaData@QNetworkDiskCache@@UAEXABVQNetworkCacheMetaData@@@Z @ 916 NONAME ; void QNetworkDiskCache::updateMetaData(class QNetworkCacheMetaData const &)
	?uploadProgress@QNetworkReply@@IAEX_J0@Z @ 917 NONAME ; void QNetworkReply::uploadProgress(long long, long long)
	?url@QNetworkCacheMetaData@@QBE?AVQUrl@@XZ @ 918 NONAME ; class QUrl QNetworkCacheMetaData::url(void) const
	?url@QNetworkProxyQuery@@QBE?AVQUrl@@XZ @ 919 NONAME ; class QUrl QNetworkProxyQuery::url(void) const
	?url@QNetworkReply@@QBE?AVQUrl@@XZ @ 920 NONAME ; class QUrl QNetworkReply::url(void) const
	?url@QNetworkRequest@@QBE?AVQUrl@@XZ @ 921 NONAME ; class QUrl QNetworkRequest::url(void) const
	?usedBits@QSslCipher@@QBEHXZ @ 922 NONAME ; int QSslCipher::usedBits(void) const
	?user@QAuthenticator@@QBE?AVQString@@XZ @ 923 NONAME ; class QString QAuthenticator::user(void) const
	?user@QNetworkProxy@@QBE?AVQString@@XZ @ 924 NONAME ; class QString QNetworkProxy::user(void) const
	?value@QHttpHeader@@QBE?AVQString@@ABV2@@Z @ 925 NONAME ; class QString QHttpHeader::value(class QString const &) const
	?value@QNetworkCookie@@QBE?AVQByteArray@@XZ @ 926 NONAME ; class QByteArray QNetworkCookie::value(void) const
	?values@QHttpHeader@@QBE?AV?$QList@U?$QPair@VQString@@V1@@@@@XZ @ 927 NONAME ; class QList<struct QPair<class QString, class QString> > QHttpHeader::values(void) const
	?version@QSslCertificate@@QBE?AVQByteArray@@XZ @ 928 NONAME ; class QByteArray QSslCertificate::version(void) const
	?waitForBytesWritten@QAbstractSocket@@UAE_NH@Z @ 929 NONAME ; bool QAbstractSocket::waitForBytesWritten(int)
	?waitForBytesWritten@QLocalSocket@@UAE_NH@Z @ 930 NONAME ; bool QLocalSocket::waitForBytesWritten(int)
	?waitForBytesWritten@QSslSocket@@UAE_NH@Z @ 931 NONAME ; bool QSslSocket::waitForBytesWritten(int)
	?waitForConnected@QAbstractSocket@@QAE_NH@Z @ 932 NONAME ; bool QAbstractSocket::waitForConnected(int)
	?waitForConnected@QLocalSocket@@QAE_NH@Z @ 933 NONAME ; bool QLocalSocket::waitForConnected(int)
	?waitForConnected@QSslSocket@@QAE_NH@Z @ 934 NONAME ; bool QSslSocket::waitForConnected(int)
	?waitForDisconnected@QAbstractSocket@@QAE_NH@Z @ 935 NONAME ; bool QAbstractSocket::waitForDisconnected(int)
	?waitForDisconnected@QLocalSocket@@QAE_NH@Z @ 936 NONAME ; bool QLocalSocket::waitForDisconnected(int)
	?waitForDisconnected@QSslSocket@@QAE_NH@Z @ 937 NONAME ; bool QSslSocket::waitForDisconnected(int)
	?waitForEncrypted@QSslSocket@@QAE_NH@Z @ 938 NONAME ; bool QSslSocket::waitForEncrypted(int)
	?waitForNewConnection@QLocalServer@@QAE_NHPA_N@Z @ 939 NONAME ; bool QLocalServer::waitForNewConnection(int, bool *)
	?waitForNewConnection@QTcpServer@@QAE_NHPA_N@Z @ 940 NONAME ; bool QTcpServer::waitForNewConnection(int, bool *)
	?waitForReadyRead@QAbstractSocket@@UAE_NH@Z @ 941 NONAME ; bool QAbstractSocket::waitForReadyRead(int)
	?waitForReadyRead@QLocalSocket@@UAE_NH@Z @ 942 NONAME ; bool QLocalSocket::waitForReadyRead(int)
	?waitForReadyRead@QSslSocket@@UAE_NH@Z @ 943 NONAME ; bool QSslSocket::waitForReadyRead(int)
	?writeData@QAbstractSocket@@MAE_JPBD_J@Z @ 944 NONAME ; long long QAbstractSocket::writeData(char const *, long long)
	?writeData@QLocalSocket@@MAE_JPBD_J@Z @ 945 NONAME ; long long QLocalSocket::writeData(char const *, long long)
	?writeData@QNetworkReply@@MAE_JPBD_J@Z @ 946 NONAME ; long long QNetworkReply::writeData(char const *, long long)
	?writeData@QSslSocket@@MAE_JPBD_J@Z @ 947 NONAME ; long long QSslSocket::writeData(char const *, long long)
	?writeDatagram@QUdpSocket@@QAE_JABVQByteArray@@ABVQHostAddress@@G@Z @ 948 NONAME ; long long QUdpSocket::writeDatagram(class QByteArray const &, class QHostAddress const &, unsigned short)
	?writeDatagram@QUdpSocket@@QAE_JPBD_JABVQHostAddress@@G@Z @ 949 NONAME ; long long QUdpSocket::writeDatagram(char const *, long long, class QHostAddress const &, unsigned short)
	?staticMetaObject@QHttp@@2UQMetaObject@@B @ 950 NONAME ; struct QMetaObject const QHttp::staticMetaObject
	?staticMetaObject@QNetworkAccessManager@@2UQMetaObject@@B @ 951 NONAME ; struct QMetaObject const QNetworkAccessManager::staticMetaObject
	?staticMetaObject@QNetworkReply@@2UQMetaObject@@B @ 952 NONAME ; struct QMetaObject const QNetworkReply::staticMetaObject
	?staticMetaObject@QLocalServer@@2UQMetaObject@@B @ 953 NONAME ; struct QMetaObject const QLocalServer::staticMetaObject
	?staticMetaObject@QLocalSocket@@2UQMetaObject@@B @ 954 NONAME ; struct QMetaObject const QLocalSocket::staticMetaObject
	?staticMetaObject@QNetworkCookieJar@@2UQMetaObject@@B @ 955 NONAME ; struct QMetaObject const QNetworkCookieJar::staticMetaObject
	?staticMetaObject@QTcpSocket@@2UQMetaObject@@B @ 956 NONAME ; struct QMetaObject const QTcpSocket::staticMetaObject
	?staticMetaObject@QNetworkDiskCache@@2UQMetaObject@@B @ 957 NONAME ; struct QMetaObject const QNetworkDiskCache::staticMetaObject
	?staticMetaObject@QAbstractNetworkCache@@2UQMetaObject@@B @ 958 NONAME ; struct QMetaObject const QAbstractNetworkCache::staticMetaObject
	?staticMetaObject@QFtp@@2UQMetaObject@@B @ 959 NONAME ; struct QMetaObject const QFtp::staticMetaObject
	?staticMetaObject@QSslSocket@@2UQMetaObject@@B @ 960 NONAME ; struct QMetaObject const QSslSocket::staticMetaObject
	?staticMetaObject@QTcpServer@@2UQMetaObject@@B @ 961 NONAME ; struct QMetaObject const QTcpServer::staticMetaObject
	?staticMetaObject@QUdpSocket@@2UQMetaObject@@B @ 962 NONAME ; struct QMetaObject const QUdpSocket::staticMetaObject
	?staticMetaObject@QAbstractSocket@@2UQMetaObject@@B @ 963 NONAME ; struct QMetaObject const QAbstractSocket::staticMetaObject
	?qt_qhostinfo_clear_cache@@YAXXZ @ 964 NONAME ABSENT ; void qt_qhostinfo_clear_cache(void)
	?qt_qhostinfo_lookup@@YA?AVQHostInfo@@ABVQString@@PAVQObject@@PBDPA_NPAH@Z @ 965 NONAME ; class QHostInfo qt_qhostinfo_lookup(class QString const &, class QObject *, char const *, bool *, int *)
	?rawHeaderPairs@QNetworkReply@@QBEABV?$QList@U?$QPair@VQByteArray@@V1@@@@@XZ @ 966 NONAME ; class QList<struct QPair<class QByteArray, class QByteArray> > const & QNetworkReply::rawHeaderPairs(void) const
	?tr@QBearerEnginePlugin@@SA?AVQString@@PBD0H@Z @ 967 NONAME ; class QString QBearerEnginePlugin::tr(char const *, char const *, int)
	?qt_metacall@QNetworkConfigurationManager@@UAEHW4Call@QMetaObject@@HPAPAX@Z @ 968 NONAME ; int QNetworkConfigurationManager::qt_metacall(enum QMetaObject::Call, int, void * *)
	?configurationAdded@QNetworkConfigurationManagerPrivate@@AAEXV?$QExplicitlySharedDataPointer@VQNetworkConfigurationPrivate@@@@@Z @ 969 NONAME ; void QNetworkConfigurationManagerPrivate::configurationAdded(class QExplicitlySharedDataPointer<class QNetworkConfigurationPrivate>)
	?metaObject@QNetworkConfigurationManagerPrivate@@UBEPBUQMetaObject@@XZ @ 970 NONAME ; struct QMetaObject const * QNetworkConfigurationManagerPrivate::metaObject(void) const
	??1QBearerEngineFactoryInterface@@UAE@XZ @ 971 NONAME ; QBearerEngineFactoryInterface::~QBearerEngineFactoryInterface(void)
	?setConfiguration@QNetworkAccessManager@@QAEXABVQNetworkConfiguration@@@Z @ 972 NONAME ; void QNetworkAccessManager::setConfiguration(class QNetworkConfiguration const &)
	?identifier@QNetworkConfiguration@@QBE?AVQString@@XZ @ 973 NONAME ; class QString QNetworkConfiguration::identifier(void) const
	??0QBearerEngine@@QAE@PAVQObject@@@Z @ 974 NONAME ; QBearerEngine::QBearerEngine(class QObject *)
	?isRoamingAvailable@QNetworkConfiguration@@QBE_NXZ @ 975 NONAME ; bool QNetworkConfiguration::isRoamingAvailable(void) const
	?quitPendingWaitsForOpened@QNetworkSessionPrivate@@IAEXXZ @ 976 NONAME ; void QNetworkSessionPrivate::quitPendingWaitsForOpened(void)
	?trUtf8@QNetworkSessionPrivate@@SA?AVQString@@PBD0H@Z @ 977 NONAME ; class QString QNetworkSessionPrivate::trUtf8(char const *, char const *, int)
	?setPrivateConfiguration@QNetworkSessionPrivate@@IBEXAAVQNetworkConfiguration@@V?$QExplicitlySharedDataPointer@VQNetworkConfigurationPrivate@@@@@Z @ 978 NONAME ; void QNetworkSessionPrivate::setPrivateConfiguration(class QNetworkConfiguration &, class QExplicitlySharedDataPointer<class QNetworkConfigurationPrivate>) const
	?trUtf8@QNetworkConfigurationManager@@SA?AVQString@@PBD0H@Z @ 979 NONAME ; class QString QNetworkConfigurationManager::trUtf8(char const *, char const *, int)
	?stateChanged@QNetworkSession@@IAEXW4State@1@@Z @ 980 NONAME ; void QNetworkSession::stateChanged(enum QNetworkSession::State)
	??1QNetworkConfigurationManagerPrivate@@UAE@XZ @ 981 NONAME ; QNetworkConfigurationManagerPrivate::~QNetworkConfigurationManagerPrivate(void)
	?getStaticMetaObject@QBearerEnginePlugin@@SAABUQMetaObject@@XZ @ 982 NONAME ; struct QMetaObject const & QBearerEnginePlugin::getStaticMetaObject(void)
	?getStaticMetaObject@QNetworkConfigurationManagerPrivate@@SAABUQMetaObject@@XZ @ 983 NONAME ; struct QMetaObject const & QNetworkConfigurationManagerPrivate::getStaticMetaObject(void)
	??_EQNetworkConfigurationManagerPrivate@@UAE@I@Z @ 984 NONAME ; QNetworkConfigurationManagerPrivate::~QNetworkConfigurationManagerPrivate(unsigned int)
	?metaObject@QBearerEnginePlugin@@UBEPBUQMetaObject@@XZ @ 985 NONAME ; struct QMetaObject const * QBearerEnginePlugin::metaObject(void) const
	??4QNetworkConfiguration@@QAEAAV0@ABV0@@Z @ 986 NONAME ; class QNetworkConfiguration & QNetworkConfiguration::operator=(class QNetworkConfiguration const &)
	?metaObject@QBearerEngine@@UBEPBUQMetaObject@@XZ @ 987 NONAME ; struct QMetaObject const * QBearerEngine::metaObject(void) const
	?getStaticMetaObject@QBearerEngine@@SAABUQMetaObject@@XZ @ 988 NONAME ; struct QMetaObject const & QBearerEngine::getStaticMetaObject(void)
	?waitForOpened@QNetworkSession@@QAE_NH@Z @ 989 NONAME ; bool QNetworkSession::waitForOpened(int)
	??_EQBearerEngine@@UAE@I@Z @ 990 NONAME ; QBearerEngine::~QBearerEngine(unsigned int)
	?error@QNetworkSession@@IAEXW4SessionError@1@@Z @ 991 NONAME ; void QNetworkSession::error(enum QNetworkSession::SessionError)
	?stop@QNetworkSession@@QAEXXZ @ 992 NONAME ; void QNetworkSession::stop(void)
	?accept@QNetworkSession@@QAEXXZ @ 993 NONAME ; void QNetworkSession::accept(void)
	?qNetworkConfigurationManagerPrivate@@YAPAVQNetworkConfigurationManagerPrivate@@XZ @ 994 NONAME ; class QNetworkConfigurationManagerPrivate * qNetworkConfigurationManagerPrivate(void)
	?open@QNetworkSession@@QAEXXZ @ 995 NONAME ; void QNetworkSession::open(void)
	?newConfigurationActivated@QNetworkSession@@IAEXXZ @ 996 NONAME ; void QNetworkSession::newConfigurationActivated(void)
	?staticMetaObject@QNetworkSessionPrivate@@2UQMetaObject@@B @ 997 NONAME ; struct QMetaObject const QNetworkSessionPrivate::staticMetaObject
	?error@QNetworkSession@@QBE?AW4SessionError@1@XZ @ 998 NONAME ; enum QNetworkSession::SessionError QNetworkSession::error(void) const
	?qt_metacast@QBearerEngine@@UAEPAXPBD@Z @ 999 NONAME ; void * QBearerEngine::qt_metacast(char const *)
	?staticMetaObject@QNetworkSession@@2UQMetaObject@@B @ 1000 NONAME ; struct QMetaObject const QNetworkSession::staticMetaObject
	?trUtf8@QBearerEngine@@SA?AVQString@@PBD0@Z @ 1001 NONAME ; class QString QBearerEngine::trUtf8(char const *, char const *)
	?privateConfiguration@QNetworkSessionPrivate@@IBE?AV?$QExplicitlySharedDataPointer@VQNetworkConfigurationPrivate@@@@ABVQNetworkConfiguration@@@Z @ 1002 NONAME ; class QExplicitlySharedDataPointer<class QNetworkConfigurationPrivate> QNetworkSessionPrivate::privateConfiguration(class QNetworkConfiguration const &) const
	?isOnline@QNetworkConfigurationManagerPrivate@@QAE_NXZ @ 1003 NONAME ABSENT ; bool QNetworkConfigurationManagerPrivate::isOnline(void)
	?state@QNetworkConfiguration@@QBE?AV?$QFlags@W4StateFlag@QNetworkConfiguration@@@@XZ @ 1004 NONAME ; class QFlags<enum QNetworkConfiguration::StateFlag> QNetworkConfiguration::state(void) const
	?configurationAdded@QNetworkConfigurationManagerPrivate@@IAEXABVQNetworkConfiguration@@@Z @ 1005 NONAME ; void QNetworkConfigurationManagerPrivate::configurationAdded(class QNetworkConfiguration const &)
	?defaultConfiguration@QNetworkConfigurationManager@@QBE?AVQNetworkConfiguration@@XZ @ 1006 NONAME ; class QNetworkConfiguration QNetworkConfigurationManager::defaultConfiguration(void) const
	?bytesReceived@QNetworkSession@@QBE_KXZ @ 1007 NONAME ; unsigned long long QNetworkSession::bytesReceived(void) const
	?updateConfigurations@QNetworkConfigurationManagerPrivate@@QAEXXZ @ 1008 NONAME ; void QNetworkConfigurationManagerPrivate::updateConfigurations(void)
	?errorString@QNetworkSession@@QBE?AVQString@@XZ @ 1009 NONAME ; class QString QNetworkSession::errorString(void) const
	?tr@QNetworkSession@@SA?AVQString@@PBD0H@Z @ 1010 NONAME ; class QString QNetworkSession::tr(char const *, char const *, int)
	??1QNetworkConfigurationManager@@UAE@XZ @ 1011 NONAME ; QNetworkConfigurationManager::~QNetworkConfigurationManager(void)
	?isOpen@QNetworkSession@@QBE_NXZ @ 1012 NONAME ; bool QNetworkSession::isOpen(void) const
	?configurationChanged@QNetworkConfigurationManager@@IAEXABVQNetworkConfiguration@@@Z @ 1013 NONAME ; void QNetworkConfigurationManager::configurationChanged(class QNetworkConfiguration const &)
	?configurationChanged@QNetworkConfigurationManagerPrivate@@AAEXV?$QExplicitlySharedDataPointer@VQNetworkConfigurationPrivate@@@@@Z @ 1014 NONAME ; void QNetworkConfigurationManagerPrivate::configurationChanged(class QExplicitlySharedDataPointer<class QNetworkConfigurationPrivate>)
	?configurationRemoved@QBearerEngine@@IAEXV?$QExplicitlySharedDataPointer@VQNetworkConfigurationPrivate@@@@@Z @ 1015 NONAME ; void QBearerEngine::configurationRemoved(class QExplicitlySharedDataPointer<class QNetworkConfigurationPrivate>)
	?qt_metacall@QBearerEnginePlugin@@UAEHW4Call@QMetaObject@@HPAPAX@Z @ 1016 NONAME ; int QBearerEnginePlugin::qt_metacall(enum QMetaObject::Call, int, void * *)
	??0QBearerEnginePlugin@@QAE@PAVQObject@@@Z @ 1017 NONAME ; QBearerEnginePlugin::QBearerEnginePlugin(class QObject *)
	?trUtf8@QNetworkSession@@SA?AVQString@@PBD0@Z @ 1018 NONAME ; class QString QNetworkSession::trUtf8(char const *, char const *)
	?metaObject@QNetworkSessionPrivate@@UBEPBUQMetaObject@@XZ @ 1019 NONAME ; struct QMetaObject const * QNetworkSessionPrivate::metaObject(void) const
	??_EQNetworkConfigurationManager@@UAE@I@Z @ 1020 NONAME ; QNetworkConfigurationManager::~QNetworkConfigurationManager(unsigned int)
	?trUtf8@QNetworkSessionPrivate@@SA?AVQString@@PBD0@Z @ 1021 NONAME ; class QString QNetworkSessionPrivate::trUtf8(char const *, char const *)
	?bearerName@QNetworkConfiguration@@QBE?AVQString@@XZ @ 1022 NONAME ; class QString QNetworkConfiguration::bearerName(void) const
	?trUtf8@QNetworkConfigurationManagerPrivate@@SA?AVQString@@PBD0H@Z @ 1023 NONAME ; class QString QNetworkConfigurationManagerPrivate::trUtf8(char const *, char const *, int)
	?setSessionProperty@QNetworkSession@@QAEXABVQString@@ABVQVariant@@@Z @ 1024 NONAME ; void QNetworkSession::setSessionProperty(class QString const &, class QVariant const &)
	?qt_metacall@QNetworkSession@@UAEHW4Call@QMetaObject@@HPAPAX@Z @ 1025 NONAME ; int QNetworkSession::qt_metacall(enum QMetaObject::Call, int, void * *)
	?staticMetaObject@QBearerEngine@@2UQMetaObject@@B @ 1026 NONAME ; struct QMetaObject const QBearerEngine::staticMetaObject
	?networkSessionConnected@QNetworkAccessManager@@IAEXXZ @ 1027 NONAME ; void QNetworkAccessManager::networkSessionConnected(void)
	??1QBearerEngine@@UAE@XZ @ 1028 NONAME ; QBearerEngine::~QBearerEngine(void)
	?capabilities@QNetworkConfigurationManagerPrivate@@QAE?AV?$QFlags@W4Capability@QNetworkConfigurationManager@@@@XZ @ 1029 NONAME ABSENT ; class QFlags<enum QNetworkConfigurationManager::Capability> QNetworkConfigurationManagerPrivate::capabilities(void)
	??1QNetworkConfiguration@@QAE@XZ @ 1030 NONAME ; QNetworkConfiguration::~QNetworkConfiguration(void)
	?bearerTypeName@QNetworkConfiguration@@QBE?AVQString@@XZ @ 1031 NONAME ; class QString QNetworkConfiguration::bearerTypeName(void) const
	??0QNetworkConfigurationManagerPrivate@@QAE@XZ @ 1032 NONAME ; QNetworkConfigurationManagerPrivate::QNetworkConfigurationManagerPrivate(void)
	?preferredConfigurationChanged@QNetworkSession@@IAEXABVQNetworkConfiguration@@_N@Z @ 1033 NONAME ; void QNetworkSession::preferredConfigurationChanged(class QNetworkConfiguration const &, bool)
	?isValid@QNetworkConfiguration@@QBE_NXZ @ 1034 NONAME ; bool QNetworkConfiguration::isValid(void) const
	?configurationAdded@QBearerEngine@@IAEXV?$QExplicitlySharedDataPointer@VQNetworkConfigurationPrivate@@@@@Z @ 1035 NONAME ; void QBearerEngine::configurationAdded(class QExplicitlySharedDataPointer<class QNetworkConfigurationPrivate>)
	??1QNetworkSession@@UAE@XZ @ 1036 NONAME ; QNetworkSession::~QNetworkSession(void)
	?qt_metacast@QBearerEnginePlugin@@UAEPAXPBD@Z @ 1037 NONAME ; void * QBearerEnginePlugin::qt_metacast(char const *)
	??0QNetworkSession@@QAE@ABVQNetworkConfiguration@@PAVQObject@@@Z @ 1038 NONAME ; QNetworkSession::QNetworkSession(class QNetworkConfiguration const &, class QObject *)
	?error@QNetworkSessionPrivate@@IAEXW4SessionError@QNetworkSession@@@Z @ 1039 NONAME ; void QNetworkSessionPrivate::error(enum QNetworkSession::SessionError)
	?name@QNetworkConfiguration@@QBE?AVQString@@XZ @ 1040 NONAME ; class QString QNetworkConfiguration::name(void) const
	?close@QNetworkSession@@QAEXXZ @ 1041 NONAME ; void QNetworkSession::close(void)
	?sessionProperty@QNetworkSession@@QBE?AVQVariant@@ABVQString@@@Z @ 1042 NONAME ; class QVariant QNetworkSession::sessionProperty(class QString const &) const
	?engines@QNetworkConfigurationManagerPrivate@@QAE?AV?$QList@PAVQBearerEngine@@@@XZ @ 1043 NONAME ABSENT ; class QList<class QBearerEngine *> QNetworkConfigurationManagerPrivate::engines(void)
	?isOnline@QNetworkConfigurationManager@@QBE_NXZ @ 1044 NONAME ; bool QNetworkConfigurationManager::isOnline(void) const
	?capabilities@QNetworkConfigurationManager@@QBE?AV?$QFlags@W4Capability@QNetworkConfigurationManager@@@@XZ @ 1045 NONAME ; class QFlags<enum QNetworkConfigurationManager::Capability> QNetworkConfigurationManager::capabilities(void) const
	?configurationRemoved@QNetworkConfigurationManagerPrivate@@AAEXV?$QExplicitlySharedDataPointer@VQNetworkConfigurationPrivate@@@@@Z @ 1046 NONAME ; void QNetworkConfigurationManagerPrivate::configurationRemoved(class QExplicitlySharedDataPointer<class QNetworkConfigurationPrivate>)
	??0QNetworkConfiguration@@QAE@ABV0@@Z @ 1047 NONAME ; QNetworkConfiguration::QNetworkConfiguration(class QNetworkConfiguration const &)
	?setPriority@QNetworkRequest@@QAEXW4Priority@1@@Z @ 1048 NONAME ; void QNetworkRequest::setPriority(enum QNetworkRequest::Priority)
	?disconnectNotify@QNetworkSession@@MAEXPBD@Z @ 1049 NONAME ; void QNetworkSession::disconnectNotify(char const *)
	?metaObject@QNetworkSession@@UBEPBUQMetaObject@@XZ @ 1050 NONAME ; struct QMetaObject const * QNetworkSession::metaObject(void) const
	?trUtf8@QBearerEngine@@SA?AVQString@@PBD0H@Z @ 1051 NONAME ; class QString QBearerEngine::trUtf8(char const *, char const *, int)
	?configuration@QNetworkSession@@QBE?AVQNetworkConfiguration@@XZ @ 1052 NONAME ; class QNetworkConfiguration QNetworkSession::configuration(void) const
	?closed@QNetworkSessionPrivate@@IAEXXZ @ 1053 NONAME ; void QNetworkSessionPrivate::closed(void)
	??1QNetworkSessionPrivate@@UAE@XZ @ 1054 NONAME ; QNetworkSessionPrivate::~QNetworkSessionPrivate(void)
	?staticMetaObject@QNetworkConfigurationManager@@2UQMetaObject@@B @ 1055 NONAME ; struct QMetaObject const QNetworkConfigurationManager::staticMetaObject
	?tr@QNetworkConfigurationManager@@SA?AVQString@@PBD0H@Z @ 1056 NONAME ; class QString QNetworkConfigurationManager::tr(char const *, char const *, int)
	?tr@QNetworkConfigurationManagerPrivate@@SA?AVQString@@PBD0H@Z @ 1057 NONAME ; class QString QNetworkConfigurationManagerPrivate::tr(char const *, char const *, int)
	?configurationChanged@QBearerEngine@@IAEXV?$QExplicitlySharedDataPointer@VQNetworkConfigurationPrivate@@@@@Z @ 1058 NONAME ; void QBearerEngine::configurationChanged(class QExplicitlySharedDataPointer<class QNetworkConfigurationPrivate>)
	?tr@QBearerEngine@@SA?AVQString@@PBD0@Z @ 1059 NONAME ; class QString QBearerEngine::tr(char const *, char const *)
	??0QNetworkConfiguration@@QAE@XZ @ 1060 NONAME ; QNetworkConfiguration::QNetworkConfiguration(void)
	?configurationRemoved@QNetworkConfigurationManager@@IAEXABVQNetworkConfiguration@@@Z @ 1061 NONAME ; void QNetworkConfigurationManager::configurationRemoved(class QNetworkConfiguration const &)
	?preferredConfigurationChanged@QNetworkSessionPrivate@@IAEXABVQNetworkConfiguration@@_N@Z @ 1062 NONAME ; void QNetworkSessionPrivate::preferredConfigurationChanged(class QNetworkConfiguration const &, bool)
	??1QBearerEnginePlugin@@UAE@XZ @ 1063 NONAME ; QBearerEnginePlugin::~QBearerEnginePlugin(void)
	?tr@QNetworkSession@@SA?AVQString@@PBD0@Z @ 1064 NONAME ; class QString QNetworkSession::tr(char const *, char const *)
	??0QNetworkConfigurationManager@@QAE@PAVQObject@@@Z @ 1065 NONAME ; QNetworkConfigurationManager::QNetworkConfigurationManager(class QObject *)
	?qt_metacall@QNetworkConfigurationManagerPrivate@@UAEHW4Call@QMetaObject@@HPAPAX@Z @ 1066 NONAME ; int QNetworkConfigurationManagerPrivate::qt_metacall(enum QMetaObject::Call, int, void * *)
	??_EQNetworkSession@@UAE@I@Z @ 1067 NONAME ; QNetworkSession::~QNetworkSession(unsigned int)
	??9QNetworkConfiguration@@QBE_NABV0@@Z @ 1068 NONAME ; bool QNetworkConfiguration::operator!=(class QNetworkConfiguration const &) const
	?configurationsInUse@QBearerEngine@@QBE_NXZ @ 1069 NONAME ; bool QBearerEngine::configurationsInUse(void) const
	?tr@QBearerEngine@@SA?AVQString@@PBD0H@Z @ 1070 NONAME ; class QString QBearerEngine::tr(char const *, char const *, int)
	?configuration@QNetworkAccessManager@@QBE?AVQNetworkConfiguration@@XZ @ 1071 NONAME ; class QNetworkConfiguration QNetworkAccessManager::configuration(void) const
	?tr@QNetworkSessionPrivate@@SA?AVQString@@PBD0@Z @ 1072 NONAME ; class QString QNetworkSessionPrivate::tr(char const *, char const *)
	?activeTime@QNetworkSession@@QBE_KXZ @ 1073 NONAME ; unsigned long long QNetworkSession::activeTime(void) const
	?state@QNetworkSession@@QBE?AW4State@1@XZ @ 1074 NONAME ; enum QNetworkSession::State QNetworkSession::state(void) const
	?disablePolling@QNetworkConfigurationManagerPrivate@@QAEXXZ @ 1075 NONAME ; void QNetworkConfigurationManagerPrivate::disablePolling(void)
	?getStaticMetaObject@QNetworkSessionPrivate@@SAABUQMetaObject@@XZ @ 1076 NONAME ; struct QMetaObject const & QNetworkSessionPrivate::getStaticMetaObject(void)
	?configurationAdded@QNetworkConfigurationManager@@IAEXABVQNetworkConfiguration@@@Z @ 1077 NONAME ; void QNetworkConfigurationManager::configurationAdded(class QNetworkConfiguration const &)
	?tr@QNetworkSessionPrivate@@SA?AVQString@@PBD0H@Z @ 1078 NONAME ; class QString QNetworkSessionPrivate::tr(char const *, char const *, int)
	?performAsyncConfigurationUpdate@QNetworkConfigurationManagerPrivate@@QAEXXZ @ 1079 NONAME ; void QNetworkConfigurationManagerPrivate::performAsyncConfigurationUpdate(void)
	?trUtf8@QNetworkConfigurationManagerPrivate@@SA?AVQString@@PBD0@Z @ 1080 NONAME ; class QString QNetworkConfigurationManagerPrivate::trUtf8(char const *, char const *)
	?networkAccessible@QNetworkAccessManager@@QBE?AW4NetworkAccessibility@1@XZ @ 1081 NONAME ; enum QNetworkAccessManager::NetworkAccessibility QNetworkAccessManager::networkAccessible(void) const
	?setOption@QAuthenticator@@QAEXABVQString@@ABVQVariant@@@Z @ 1082 NONAME ; void QAuthenticator::setOption(class QString const &, class QVariant const &)
	?trUtf8@QBearerEnginePlugin@@SA?AVQString@@PBD0H@Z @ 1083 NONAME ; class QString QBearerEnginePlugin::trUtf8(char const *, char const *, int)
	?trUtf8@QNetworkConfigurationManager@@SA?AVQString@@PBD0@Z @ 1084 NONAME ; class QString QNetworkConfigurationManager::trUtf8(char const *, char const *)
	?allConfigurations@QNetworkConfigurationManager@@QBE?AV?$QList@VQNetworkConfiguration@@@@V?$QFlags@W4StateFlag@QNetworkConfiguration@@@@@Z @ 1085 NONAME ; class QList<class QNetworkConfiguration> QNetworkConfigurationManager::allConfigurations(class QFlags<enum QNetworkConfiguration::StateFlag>) const
	?requiresPolling@QBearerEngine@@UBE_NXZ @ 1086 NONAME ; bool QBearerEngine::requiresPolling(void) const
	?bearerType@QNetworkConfiguration@@QBE?AW4BearerType@1@XZ @ 1087 NONAME ; enum QNetworkConfiguration::BearerType QNetworkConfiguration::bearerType(void) const
	?priority@QNetworkRequest@@QBE?AW4Priority@1@XZ @ 1088 NONAME ; enum QNetworkRequest::Priority QNetworkRequest::priority(void) const
	?networkAccessibleChanged@QNetworkAccessManager@@IAEXW4NetworkAccessibility@1@@Z @ 1089 NONAME ; void QNetworkAccessManager::networkAccessibleChanged(enum QNetworkAccessManager::NetworkAccessibility)
	??8QNetworkConfiguration@@QBE_NABV0@@Z @ 1090 NONAME ; bool QNetworkConfiguration::operator==(class QNetworkConfiguration const &) const
	?option@QAuthenticator@@QBE?AVQVariant@@ABVQString@@@Z @ 1091 NONAME ; class QVariant QAuthenticator::option(class QString const &) const
	?tr@QBearerEnginePlugin@@SA?AVQString@@PBD0@Z @ 1092 NONAME ; class QString QBearerEnginePlugin::tr(char const *, char const *)
	?configurationFromIdentifier@QNetworkConfigurationManager@@QBE?AVQNetworkConfiguration@@ABVQString@@@Z @ 1093 NONAME ; class QNetworkConfiguration QNetworkConfigurationManager::configurationFromIdentifier(class QString const &) const
	??_EQBearerEnginePlugin@@UAE@I@Z @ 1094 NONAME ; QBearerEnginePlugin::~QBearerEnginePlugin(unsigned int)
	?children@QNetworkConfiguration@@QBE?AV?$QList@VQNetworkConfiguration@@@@XZ @ 1095 NONAME ; class QList<class QNetworkConfiguration> QNetworkConfiguration::children(void) const
	?activeConfiguration@QNetworkAccessManager@@QBE?AVQNetworkConfiguration@@XZ @ 1096 NONAME ; class QNetworkConfiguration QNetworkAccessManager::activeConfiguration(void) const
	?defaultConfiguration@QNetworkConfigurationManagerPrivate@@QAE?AVQNetworkConfiguration@@XZ @ 1097 NONAME ABSENT ; class QNetworkConfiguration QNetworkConfigurationManagerPrivate::defaultConfiguration(void)
	?getStaticMetaObject@QNetworkSession@@SAABUQMetaObject@@XZ @ 1098 NONAME ; struct QMetaObject const & QNetworkSession::getStaticMetaObject(void)
	?qt_metacast@QNetworkSession@@UAEPAXPBD@Z @ 1099 NONAME ; void * QNetworkSession::qt_metacast(char const *)
	?updateCompleted@QBearerEngine@@IAEXXZ @ 1100 NONAME ; void QBearerEngine::updateCompleted(void)
	?qt_metacall@QNetworkSessionPrivate@@UAEHW4Call@QMetaObject@@HPAPAX@Z @ 1101 NONAME ; int QNetworkSessionPrivate::qt_metacall(enum QMetaObject::Call, int, void * *)
	?onlineStateChanged@QNetworkConfigurationManager@@IAEX_N@Z @ 1102 NONAME ; void QNetworkConfigurationManager::onlineStateChanged(bool)
	?getStaticMetaObject@QNetworkConfigurationManager@@SAABUQMetaObject@@XZ @ 1103 NONAME ; struct QMetaObject const & QNetworkConfigurationManager::getStaticMetaObject(void)
	??0QNetworkSessionPrivate@@QAE@XZ @ 1104 NONAME ; QNetworkSessionPrivate::QNetworkSessionPrivate(void)
	?qt_metacast@QNetworkConfigurationManager@@UAEPAXPBD@Z @ 1105 NONAME ; void * QNetworkConfigurationManager::qt_metacast(char const *)
	?configurationChanged@QNetworkConfigurationManagerPrivate@@IAEXABVQNetworkConfiguration@@@Z @ 1106 NONAME ; void QNetworkConfigurationManagerPrivate::configurationChanged(class QNetworkConfiguration const &)
	?staticMetaObject@QBearerEnginePlugin@@2UQMetaObject@@B @ 1107 NONAME ; struct QMetaObject const QBearerEnginePlugin::staticMetaObject
	?qt_metacast@QNetworkConfigurationManagerPrivate@@UAEPAXPBD@Z @ 1108 NONAME ; void * QNetworkConfigurationManagerPrivate::qt_metacast(char const *)
	?newConfigurationActivated@QNetworkSessionPrivate@@IAEXXZ @ 1109 NONAME ; void QNetworkSessionPrivate::newConfigurationActivated(void)
	?qt_metacast@QNetworkSessionPrivate@@UAEPAXPBD@Z @ 1110 NONAME ; void * QNetworkSessionPrivate::qt_metacast(char const *)
	?startPolling@QNetworkConfigurationManagerPrivate@@QAEXXZ @ 1111 NONAME ABSENT ; void QNetworkConfigurationManagerPrivate::startPolling(void)
	?allConfigurations@QNetworkConfigurationManagerPrivate@@QAE?AV?$QList@VQNetworkConfiguration@@@@V?$QFlags@W4StateFlag@QNetworkConfiguration@@@@@Z @ 1112 NONAME ABSENT ; class QList<class QNetworkConfiguration> QNetworkConfigurationManagerPrivate::allConfigurations(class QFlags<enum QNetworkConfiguration::StateFlag>)
	?connectNotify@QNetworkSession@@MAEXPBD@Z @ 1113 NONAME ; void QNetworkSession::connectNotify(char const *)
	?onlineStateChanged@QNetworkConfigurationManagerPrivate@@IAEX_N@Z @ 1114 NONAME ; void QNetworkConfigurationManagerPrivate::onlineStateChanged(bool)
	?bytesWritten@QNetworkSession@@QBE_KXZ @ 1115 NONAME ; unsigned long long QNetworkSession::bytesWritten(void) const
	?sendCustomRequest@QNetworkAccessManager@@QAEPAVQNetworkReply@@ABVQNetworkRequest@@ABVQByteArray@@PAVQIODevice@@@Z @ 1116 NONAME ; class QNetworkReply * QNetworkAccessManager::sendCustomRequest(class QNetworkRequest const &, class QByteArray const &, class QIODevice *)
	?addPendingConnection@QTcpServer@@IAEXPAVQTcpSocket@@@Z @ 1117 NONAME ; void QTcpServer::addPendingConnection(class QTcpSocket *)
	?ignore@QNetworkSession@@QAEXXZ @ 1118 NONAME ; void QNetworkSession::ignore(void)
	?updateConfigurations@QNetworkConfigurationManager@@QAEXXZ @ 1119 NONAME ; void QNetworkConfigurationManager::updateConfigurations(void)
	?stateChanged@QNetworkSessionPrivate@@IAEXW4State@QNetworkSession@@@Z @ 1120 NONAME ; void QNetworkSessionPrivate::stateChanged(enum QNetworkSession::State)
	?setALREnabled@QNetworkSessionPrivate@@UAEX_N@Z @ 1121 NONAME ; void QNetworkSessionPrivate::setALREnabled(bool)
	?configurationRemoved@QNetworkConfigurationManagerPrivate@@IAEXABVQNetworkConfiguration@@@Z @ 1122 NONAME ; void QNetworkConfigurationManagerPrivate::configurationRemoved(class QNetworkConfiguration const &)
	?qt_metacall@QBearerEngine@@UAEHW4Call@QMetaObject@@HPAPAX@Z @ 1123 NONAME ; int QBearerEngine::qt_metacall(enum QMetaObject::Call, int, void * *)
	?interface@QNetworkSession@@QBE?AVQNetworkInterface@@XZ @ 1124 NONAME ; class QNetworkInterface QNetworkSession::interface(void) const
	?opened@QNetworkSession@@IAEXXZ @ 1125 NONAME ; void QNetworkSession::opened(void)
	?type@QNetworkConfiguration@@QBE?AW4Type@1@XZ @ 1126 NONAME ; enum QNetworkConfiguration::Type QNetworkConfiguration::type(void) const
	?migrate@QNetworkSession@@QAEXXZ @ 1127 NONAME ; void QNetworkSession::migrate(void)
	?closed@QNetworkSession@@IAEXXZ @ 1128 NONAME ; void QNetworkSession::closed(void)
	?pollEngines@QNetworkConfigurationManagerPrivate@@AAEXXZ @ 1129 NONAME ; void QNetworkConfigurationManagerPrivate::pollEngines(void)
	?staticMetaObject@QNetworkConfigurationManagerPrivate@@2UQMetaObject@@B @ 1130 NONAME ; struct QMetaObject const QNetworkConfigurationManagerPrivate::staticMetaObject
	?reject@QNetworkSession@@QAEXXZ @ 1131 NONAME ; void QNetworkSession::reject(void)
	?options@QAuthenticator@@QBE?AV?$QHash@VQString@@VQVariant@@@@XZ @ 1132 NONAME ; class QHash<class QString, class QVariant> QAuthenticator::options(void) const
	?purpose@QNetworkConfiguration@@QBE?AW4Purpose@1@XZ @ 1133 NONAME ; enum QNetworkConfiguration::Purpose QNetworkConfiguration::purpose(void) const
	?configurationFromIdentifier@QNetworkConfigurationManagerPrivate@@QAE?AVQNetworkConfiguration@@ABVQString@@@Z @ 1134 NONAME ABSENT ; class QNetworkConfiguration QNetworkConfigurationManagerPrivate::configurationFromIdentifier(class QString const &)
	?abort@QNetworkConfigurationManagerPrivate@@IAEXXZ @ 1135 NONAME ABSENT ; void QNetworkConfigurationManagerPrivate::abort(void)
	?tr@QNetworkConfigurationManager@@SA?AVQString@@PBD0@Z @ 1136 NONAME ; class QString QNetworkConfigurationManager::tr(char const *, char const *)
	?trUtf8@QNetworkSession@@SA?AVQString@@PBD0H@Z @ 1137 NONAME ; class QString QNetworkSession::trUtf8(char const *, char const *, int)
	?trUtf8@QBearerEnginePlugin@@SA?AVQString@@PBD0@Z @ 1138 NONAME ; class QString QBearerEnginePlugin::trUtf8(char const *, char const *)
	??_EQNetworkSessionPrivate@@UAE@I@Z @ 1139 NONAME ; QNetworkSessionPrivate::~QNetworkSessionPrivate(unsigned int)
	?configurationUpdateComplete@QNetworkConfigurationManagerPrivate@@IAEXXZ @ 1140 NONAME ; void QNetworkConfigurationManagerPrivate::configurationUpdateComplete(void)
	?metaObject@QNetworkConfigurationManager@@UBEPBUQMetaObject@@XZ @ 1141 NONAME ; struct QMetaObject const * QNetworkConfigurationManager::metaObject(void) const
	?tr@QNetworkConfigurationManagerPrivate@@SA?AVQString@@PBD0@Z @ 1142 NONAME ; class QString QNetworkConfigurationManagerPrivate::tr(char const *, char const *)
	?updateCompleted@QNetworkConfigurationManager@@IAEXXZ @ 1143 NONAME ; void QNetworkConfigurationManager::updateCompleted(void)
	?setNetworkAccessible@QNetworkAccessManager@@QAEXW4NetworkAccessibility@1@@Z @ 1144 NONAME ; void QNetworkAccessManager::setNetworkAccessible(enum QNetworkAccessManager::NetworkAccessibility)
	??_EQBearerEngineFactoryInterface@@UAE@I@Z @ 1145 NONAME ; QBearerEngineFactoryInterface::~QBearerEngineFactoryInterface(unsigned int)
	?enablePolling@QNetworkConfigurationManagerPrivate@@QAEXXZ @ 1146 NONAME ; void QNetworkConfigurationManagerPrivate::enablePolling(void)
	?joinMulticastGroup@QUdpSocket@@QAE_NABVQHostAddress@@ABVQNetworkInterface@@@Z @ 1147 NONAME ; bool QUdpSocket::joinMulticastGroup(class QHostAddress const &, class QNetworkInterface const &)
	?setMulticastInterface@QUdpSocket@@QAEXABVQNetworkInterface@@@Z @ 1148 NONAME ; void QUdpSocket::setMulticastInterface(class QNetworkInterface const &)
	?setFinished@QNetworkReply@@IAEX_N@Z @ 1149 NONAME ; void QNetworkReply::setFinished(bool)
	?multicastInterface@QUdpSocket@@QBE?AVQNetworkInterface@@XZ @ 1150 NONAME ; class QNetworkInterface QUdpSocket::multicastInterface(void) const
	?joinMulticastGroup@QUdpSocket@@QAE_NABVQHostAddress@@@Z @ 1151 NONAME ; bool QUdpSocket::joinMulticastGroup(class QHostAddress const &)
	?leaveMulticastGroup@QUdpSocket@@QAE_NABVQHostAddress@@ABVQNetworkInterface@@@Z @ 1152 NONAME ; bool QUdpSocket::leaveMulticastGroup(class QHostAddress const &, class QNetworkInterface const &)
	?leaveMulticastGroup@QUdpSocket@@QAE_NABVQHostAddress@@@Z @ 1153 NONAME ; bool QUdpSocket::leaveMulticastGroup(class QHostAddress const &)
	?allConfigurations@QNetworkConfigurationManagerPrivate@@QBE?AV?$QList@VQNetworkConfiguration@@@@V?$QFlags@W4StateFlag@QNetworkConfiguration@@@@@Z @ 1154 NONAME ; class QList<class QNetworkConfiguration> QNetworkConfigurationManagerPrivate::allConfigurations(class QFlags<enum QNetworkConfiguration::StateFlag>) const
	?capabilities@QNetworkConfigurationManagerPrivate@@QBE?AV?$QFlags@W4Capability@QNetworkConfigurationManager@@@@XZ @ 1155 NONAME ; class QFlags<enum QNetworkConfigurationManager::Capability> QNetworkConfigurationManagerPrivate::capabilities(void) const
	?configurationFromIdentifier@QNetworkConfigurationManagerPrivate@@QBE?AVQNetworkConfiguration@@ABVQString@@@Z @ 1156 NONAME ; class QNetworkConfiguration QNetworkConfigurationManagerPrivate::configurationFromIdentifier(class QString const &) const
	?defaultConfiguration@QNetworkConfigurationManagerPrivate@@QBE?AVQNetworkConfiguration@@XZ @ 1157 NONAME ; class QNetworkConfiguration QNetworkConfigurationManagerPrivate::defaultConfiguration(void) const
	?engines@QNetworkConfigurationManagerPrivate@@QBE?AV?$QList@PAVQBearerEngine@@@@XZ @ 1158 NONAME ; class QList<class QBearerEngine *> QNetworkConfigurationManagerPrivate::engines(void) const
	?isOnline@QNetworkConfigurationManagerPrivate@@QBE_NXZ @ 1159 NONAME ; bool QNetworkConfigurationManagerPrivate::isOnline(void) const
	?startPolling@QNetworkConfigurationManagerPrivate@@AAEXXZ @ 1160 NONAME ; void QNetworkConfigurationManagerPrivate::startPolling(void)
	?peerVerifyName@QSslSocket@@QBE?AVQString@@XZ @ 1161 NONAME ; class QString QSslSocket::peerVerifyName(void) const
	?setPeerVerifyName@QSslSocket@@QAEXABVQString@@@Z @ 1162 NONAME ; void QSslSocket::setPeerVerifyName(class QString const &)
	?nativeSession@QNetworkSessionPrivate@@SAPAVRConnection@@AAVQNetworkSession@@@Z @ 1163 NONAME ; class RConnection * QNetworkSessionPrivate::nativeSession(class QNetworkSession &)
	?nativeOpenSocket@QNetworkSessionPrivate@@SAHAAVQNetworkSession@@AAVRSocket@@III@Z @ 1164 NONAME ; int QNetworkSessionPrivate::nativeOpenSocket(class QNetworkSession &, class RSocket &, unsigned int, unsigned int, unsigned int)
	?nativeOpenHostResolver@QNetworkSessionPrivate@@SAHAAVQNetworkSession@@AAVRHostResolver@@II@Z @ 1165 NONAME ; int QNetworkSessionPrivate::nativeOpenHostResolver(class QNetworkSession &, class RHostResolver &, unsigned int, unsigned int)
	??_EQHttpMultiPart@@UAE@I@Z @ 1166 NONAME ; QHttpMultiPart::~QHttpMultiPart(unsigned int)
	??1QHttpPart@@QAE@XZ @ 1167 NONAME ; QHttpPart::~QHttpPart(void)
	?trUtf8@QHttpMultiPart@@SA?AVQString@@PBD0@Z @ 1168 NONAME ; class QString QHttpMultiPart::trUtf8(char const *, char const *)
	??0QHttpPart@@QAE@ABV0@@Z @ 1169 NONAME ; QHttpPart::QHttpPart(class QHttpPart const &)
	?setBody@QHttpPart@@QAEXABVQByteArray@@@Z @ 1170 NONAME ; void QHttpPart::setBody(class QByteArray const &)
	?trUtf8@QHttpMultiPart@@SA?AVQString@@PBD0H@Z @ 1171 NONAME ; class QString QHttpMultiPart::trUtf8(char const *, char const *, int)
	?staticMetaObject@QHttpMultiPart@@2UQMetaObject@@B @ 1172 NONAME ; struct QMetaObject const QHttpMultiPart::staticMetaObject
	??4QHttpPart@@QAEAAV0@ABV0@@Z @ 1173 NONAME ; class QHttpPart & QHttpPart::operator=(class QHttpPart const &)
	?append@QHttpMultiPart@@QAEXABVQHttpPart@@@Z @ 1174 NONAME ; void QHttpMultiPart::append(class QHttpPart const &)
	?setContentType@QHttpMultiPart@@QAEXW4ContentType@1@@Z @ 1175 NONAME ; void QHttpMultiPart::setContentType(enum QHttpMultiPart::ContentType)
	?d_func@QHttpMultiPart@@AAEPAVQHttpMultiPartPrivate@@XZ @ 1176 NONAME ; class QHttpMultiPartPrivate * QHttpMultiPart::d_func(void)
	??9QHttpPart@@QBE_NABV0@@Z @ 1177 NONAME ; bool QHttpPart::operator!=(class QHttpPart const &) const
	??0QHttpMultiPart@@QAE@W4ContentType@0@PAVQObject@@@Z @ 1178 NONAME ; QHttpMultiPart::QHttpMultiPart(enum QHttpMultiPart::ContentType, class QObject *)
	??0QHttpPart@@QAE@XZ @ 1179 NONAME ; QHttpPart::QHttpPart(void)
	?post@QNetworkAccessManager@@QAEPAVQNetworkReply@@ABVQNetworkRequest@@PAVQHttpMultiPart@@@Z @ 1180 NONAME ; class QNetworkReply * QNetworkAccessManager::post(class QNetworkRequest const &, class QHttpMultiPart *)
	??0QHttpMultiPart@@QAE@PAVQObject@@@Z @ 1181 NONAME ; QHttpMultiPart::QHttpMultiPart(class QObject *)
	??8QHttpPart@@QBE_NABV0@@Z @ 1182 NONAME ; bool QHttpPart::operator==(class QHttpPart const &) const
	?setBodyDevice@QHttpPart@@QAEXPAVQIODevice@@@Z @ 1183 NONAME ; void QHttpPart::setBodyDevice(class QIODevice *)
	?getStaticMetaObject@QHttpMultiPart@@SAABUQMetaObject@@XZ @ 1184 NONAME ; struct QMetaObject const & QHttpMultiPart::getStaticMetaObject(void)
	?qt_metacast@QHttpMultiPart@@UAEPAXPBD@Z @ 1185 NONAME ; void * QHttpMultiPart::qt_metacast(char const *)
	?put@QNetworkAccessManager@@QAEPAVQNetworkReply@@ABVQNetworkRequest@@PAVQHttpMultiPart@@@Z @ 1186 NONAME ; class QNetworkReply * QNetworkAccessManager::put(class QNetworkRequest const &, class QHttpMultiPart *)
	?tr@QHttpMultiPart@@SA?AVQString@@PBD0@Z @ 1187 NONAME ; class QString QHttpMultiPart::tr(char const *, char const *)
	?qt_metacall@QHttpMultiPart@@UAEHW4Call@QMetaObject@@HPAPAX@Z @ 1188 NONAME ; int QHttpMultiPart::qt_metacall(enum QMetaObject::Call, int, void * *)
	?boundary@QHttpMultiPart@@QBE?AVQByteArray@@XZ @ 1189 NONAME ; class QByteArray QHttpMultiPart::boundary(void) const
	?setRawHeader@QHttpPart@@QAEXABVQByteArray@@0@Z @ 1190 NONAME ; void QHttpPart::setRawHeader(class QByteArray const &, class QByteArray const &)
	?metaObject@QHttpMultiPart@@UBEPBUQMetaObject@@XZ @ 1191 NONAME ; struct QMetaObject const * QHttpMultiPart::metaObject(void) const
	?setHeader@QHttpPart@@QAEXW4KnownHeaders@QNetworkRequest@@ABVQVariant@@@Z @ 1192 NONAME ; void QHttpPart::setHeader(enum QNetworkRequest::KnownHeaders, class QVariant const &)
	??1QHttpMultiPart@@UAE@XZ @ 1193 NONAME ; QHttpMultiPart::~QHttpMultiPart(void)
	?d_func@QHttpMultiPart@@ABEPBVQHttpMultiPartPrivate@@XZ @ 1194 NONAME ; class QHttpMultiPartPrivate const * QHttpMultiPart::d_func(void) const
	?tr@QHttpMultiPart@@SA?AVQString@@PBD0H@Z @ 1195 NONAME ; class QString QHttpMultiPart::tr(char const *, char const *, int)
	?setBoundary@QHttpMultiPart@@QAEXABVQByteArray@@@Z @ 1196 NONAME ; void QHttpMultiPart::setBoundary(class QByteArray const &)
	?qt_static_metacall@QNetworkSessionPrivate@@CAXPAVQObject@@W4Call@QMetaObject@@HPAPAX@Z @ 1197 NONAME ; void QNetworkSessionPrivate::qt_static_metacall(class QObject *, enum QMetaObject::Call, int, void * *)
	?staticMetaObjectExtraData@QUdpSocket@@0UQMetaObjectExtraData@@B @ 1198 NONAME ; struct QMetaObjectExtraData const QUdpSocket::staticMetaObjectExtraData
	?qt_static_metacall@QLocalSocket@@CAXPAVQObject@@W4Call@QMetaObject@@HPAPAX@Z @ 1199 NONAME ; void QLocalSocket::qt_static_metacall(class QObject *, enum QMetaObject::Call, int, void * *)
	?qt_static_metacall@QFtp@@CAXPAVQObject@@W4Call@QMetaObject@@HPAPAX@Z @ 1200 NONAME ; void QFtp::qt_static_metacall(class QObject *, enum QMetaObject::Call, int, void * *)
	?staticMetaObjectExtraData@QTcpServer@@0UQMetaObjectExtraData@@B @ 1201 NONAME ; struct QMetaObjectExtraData const QTcpServer::staticMetaObjectExtraData
	?qt_static_metacall@QSslSocket@@CAXPAVQObject@@W4Call@QMetaObject@@HPAPAX@Z @ 1202 NONAME ; void QSslSocket::qt_static_metacall(class QObject *, enum QMetaObject::Call, int, void * *)
	?staticMetaObjectExtraData@QNetworkSession@@0UQMetaObjectExtraData@@B @ 1203 NONAME ; struct QMetaObjectExtraData const QNetworkSession::staticMetaObjectExtraData
	?staticMetaObjectExtraData@QNetworkAccessManager@@0UQMetaObjectExtraData@@B @ 1204 NONAME ; struct QMetaObjectExtraData const QNetworkAccessManager::staticMetaObjectExtraData
	?staticMetaObjectExtraData@QAbstractSocket@@0UQMetaObjectExtraData@@B @ 1205 NONAME ; struct QMetaObjectExtraData const QAbstractSocket::staticMetaObjectExtraData
	?staticMetaObjectExtraData@QTcpSocket@@0UQMetaObjectExtraData@@B @ 1206 NONAME ; struct QMetaObjectExtraData const QTcpSocket::staticMetaObjectExtraData
	?qt_static_metacall@QTcpServer@@CAXPAVQObject@@W4Call@QMetaObject@@HPAPAX@Z @ 1207 NONAME ; void QTcpServer::qt_static_metacall(class QObject *, enum QMetaObject::Call, int, void * *)
	?staticMetaObjectExtraData@QNetworkSessionPrivate@@0UQMetaObjectExtraData@@B @ 1208 NONAME ; struct QMetaObjectExtraData const QNetworkSessionPrivate::staticMetaObjectExtraData
	?qt_static_metacall@QNetworkConfigurationManagerPrivate@@CAXPAVQObject@@W4Call@QMetaObject@@HPAPAX@Z @ 1209 NONAME ; void QNetworkConfigurationManagerPrivate::qt_static_metacall(class QObject *, enum QMetaObject::Call, int, void * *)
	?staticMetaObjectExtraData@QHttp@@0UQMetaObjectExtraData@@B @ 1210 NONAME ; struct QMetaObjectExtraData const QHttp::staticMetaObjectExtraData
	?staticMetaObjectExtraData@QSslSocket@@0UQMetaObjectExtraData@@B @ 1211 NONAME ; struct QMetaObjectExtraData const QSslSocket::staticMetaObjectExtraData
	?qt_static_metacall@QNetworkReply@@CAXPAVQObject@@W4Call@QMetaObject@@HPAPAX@Z @ 1212 NONAME ; void QNetworkReply::qt_static_metacall(class QObject *, enum QMetaObject::Call, int, void * *)
	?qt_static_metacall@QLocalServer@@CAXPAVQObject@@W4Call@QMetaObject@@HPAPAX@Z @ 1213 NONAME ; void QLocalServer::qt_static_metacall(class QObject *, enum QMetaObject::Call, int, void * *)
	?qt_static_metacall@QNetworkConfigurationManager@@CAXPAVQObject@@W4Call@QMetaObject@@HPAPAX@Z @ 1214 NONAME ; void QNetworkConfigurationManager::qt_static_metacall(class QObject *, enum QMetaObject::Call, int, void * *)
	?qt_static_metacall@QAbstractNetworkCache@@CAXPAVQObject@@W4Call@QMetaObject@@HPAPAX@Z @ 1215 NONAME ; void QAbstractNetworkCache::qt_static_metacall(class QObject *, enum QMetaObject::Call, int, void * *)
	?qt_static_metacall@QNetworkCookieJar@@CAXPAVQObject@@W4Call@QMetaObject@@HPAPAX@Z @ 1216 NONAME ; void QNetworkCookieJar::qt_static_metacall(class QObject *, enum QMetaObject::Call, int, void * *)
	?staticMetaObjectExtraData@QAbstractNetworkCache@@0UQMetaObjectExtraData@@B @ 1217 NONAME ; struct QMetaObjectExtraData const QAbstractNetworkCache::staticMetaObjectExtraData
	?qt_static_metacall@QHttpMultiPart@@CAXPAVQObject@@W4Call@QMetaObject@@HPAPAX@Z @ 1218 NONAME ; void QHttpMultiPart::qt_static_metacall(class QObject *, enum QMetaObject::Call, int, void * *)
	?qt_static_metacall@QBearerEngine@@CAXPAVQObject@@W4Call@QMetaObject@@HPAPAX@Z @ 1219 NONAME ; void QBearerEngine::qt_static_metacall(class QObject *, enum QMetaObject::Call, int, void * *)
	?staticMetaObjectExtraData@QLocalSocket@@0UQMetaObjectExtraData@@B @ 1220 NONAME ; struct QMetaObjectExtraData const QLocalSocket::staticMetaObjectExtraData
	?staticMetaObjectExtraData@QHttpMultiPart@@0UQMetaObjectExtraData@@B @ 1221 NONAME ; struct QMetaObjectExtraData const QHttpMultiPart::staticMetaObjectExtraData
	?staticMetaObjectExtraData@QNetworkConfigurationManagerPrivate@@0UQMetaObjectExtraData@@B @ 1222 NONAME ; struct QMetaObjectExtraData const QNetworkConfigurationManagerPrivate::staticMetaObjectExtraData
	?qt_static_metacall@QHttp@@CAXPAVQObject@@W4Call@QMetaObject@@HPAPAX@Z @ 1223 NONAME ; void QHttp::qt_static_metacall(class QObject *, enum QMetaObject::Call, int, void * *)
	?staticMetaObjectExtraData@QLocalServer@@0UQMetaObjectExtraData@@B @ 1224 NONAME ; struct QMetaObjectExtraData const QLocalServer::staticMetaObjectExtraData
	?qt_static_metacall@QUdpSocket@@CAXPAVQObject@@W4Call@QMetaObject@@HPAPAX@Z @ 1225 NONAME ; void QUdpSocket::qt_static_metacall(class QObject *, enum QMetaObject::Call, int, void * *)
	?staticMetaObjectExtraData@QBearerEngine@@0UQMetaObjectExtraData@@B @ 1226 NONAME ; struct QMetaObjectExtraData const QBearerEngine::staticMetaObjectExtraData
	?staticMetaObjectExtraData@QBearerEnginePlugin@@0UQMetaObjectExtraData@@B @ 1227 NONAME ; struct QMetaObjectExtraData const QBearerEnginePlugin::staticMetaObjectExtraData
	?qt_static_metacall@QNetworkAccessManager@@CAXPAVQObject@@W4Call@QMetaObject@@HPAPAX@Z @ 1228 NONAME ; void QNetworkAccessManager::qt_static_metacall(class QObject *, enum QMetaObject::Call, int, void * *)
	?staticMetaObjectExtraData@QNetworkCookieJar@@0UQMetaObjectExtraData@@B @ 1229 NONAME ; struct QMetaObjectExtraData const QNetworkCookieJar::staticMetaObjectExtraData
	?staticMetaObjectExtraData@QNetworkReply@@0UQMetaObjectExtraData@@B @ 1230 NONAME ; struct QMetaObjectExtraData const QNetworkReply::staticMetaObjectExtraData
	?qt_static_metacall@QNetworkSession@@CAXPAVQObject@@W4Call@QMetaObject@@HPAPAX@Z @ 1231 NONAME ; void QNetworkSession::qt_static_metacall(class QObject *, enum QMetaObject::Call, int, void * *)
	?qt_static_metacall@QAbstractSocket@@CAXPAVQObject@@W4Call@QMetaObject@@HPAPAX@Z @ 1232 NONAME ; void QAbstractSocket::qt_static_metacall(class QObject *, enum QMetaObject::Call, int, void * *)
	?staticMetaObjectExtraData@QNetworkDiskCache@@0UQMetaObjectExtraData@@B @ 1233 NONAME ; struct QMetaObjectExtraData const QNetworkDiskCache::staticMetaObjectExtraData
	?staticMetaObjectExtraData@QFtp@@0UQMetaObjectExtraData@@B @ 1234 NONAME ; struct QMetaObjectExtraData const QFtp::staticMetaObjectExtraData
	?qt_static_metacall@QNetworkDiskCache@@CAXPAVQObject@@W4Call@QMetaObject@@HPAPAX@Z @ 1235 NONAME ; void QNetworkDiskCache::qt_static_metacall(class QObject *, enum QMetaObject::Call, int, void * *)
	?qt_static_metacall@QBearerEnginePlugin@@CAXPAVQObject@@W4Call@QMetaObject@@HPAPAX@Z @ 1236 NONAME ; void QBearerEnginePlugin::qt_static_metacall(class QObject *, enum QMetaObject::Call, int, void * *)
	?staticMetaObjectExtraData@QNetworkConfigurationManager@@0UQMetaObjectExtraData@@B @ 1237 NONAME ; struct QMetaObjectExtraData const QNetworkConfigurationManager::staticMetaObjectExtraData
	?qt_static_metacall@QTcpSocket@@CAXPAVQObject@@W4Call@QMetaObject@@HPAPAX@Z @ 1238 NONAME ; void QTcpSocket::qt_static_metacall(class QObject *, enum QMetaObject::Call, int, void * *)
	??0QNetworkProxyQuery@@QAE@ABVQNetworkConfiguration@@GABVQString@@W4QueryType@0@@Z @ 1239 NONAME ; QNetworkProxyQuery::QNetworkProxyQuery(class QNetworkConfiguration const &, unsigned short, class QString const &, enum QNetworkProxyQuery::QueryType)
	??0QNetworkProxyQuery@@QAE@ABVQNetworkConfiguration@@ABVQString@@H1W4QueryType@0@@Z @ 1240 NONAME ; QNetworkProxyQuery::QNetworkProxyQuery(class QNetworkConfiguration const &, class QString const &, int, class QString const &, enum QNetworkProxyQuery::QueryType)
	?networkConfiguration@QNetworkProxyQuery@@QBE?AVQNetworkConfiguration@@XZ @ 1241 NONAME ; class QNetworkConfiguration QNetworkProxyQuery::networkConfiguration(void) const
	?setNetworkConfiguration@QNetworkProxyQuery@@QAEXABVQNetworkConfiguration@@@Z @ 1242 NONAME ; void QNetworkProxyQuery::setNetworkConfiguration(class QNetworkConfiguration const &)
	??0QNetworkProxyQuery@@QAE@ABVQNetworkConfiguration@@ABVQUrl@@W4QueryType@0@@Z @ 1243 NONAME ; QNetworkProxyQuery::QNetworkProxyQuery(class QNetworkConfiguration const &, class QUrl const &, enum QNetworkProxyQuery::QueryType)

