EXPORTS
	?size@QVGPixmapData@@QBE?AVQSize@@XZ @ 1 NONAME ; class QSize QVGPixmapData::size(void) const
	?toVGImage@QVGPixmapData@@UAEKM@Z @ 2 NONAME ; unsigned long QVGPixmapData::toVGImage(float)
	?drawEllipse@QVGPaintEngine@@UAEXABVQRect@@@Z @ 3 NONAME ; void QVGPaintEngine::drawEllipse(class QRect const &)
	?setState@QVGPaintEngine@@UAEXPAVQPainterState@@@Z @ 4 NONAME ; void QVGPaintEngine::setState(class QPainterState *)
	?penChanged@QVGPaintEngine@@UAEXXZ @ 5 NONAME ; void QVGPaintEngine::penChanged(void)
	?defaultClipRegion@QVGPaintEngine@@AAE?AVQRegion@@XZ @ 6 NONAME ; class QRegion QVGPaintEngine::defaultClipRegion(void)
	??0QVGEGLWindowSurfaceVGImage@@QAE@PAVQWindowSurface@@@Z @ 7 NONAME ; QVGEGLWindowSurfaceVGImage::QVGEGLWindowSurfaceVGImage(class QWindowSurface *)
	?paintEngine@QVGPixmapData@@UBEPAVQPaintEngine@@XZ @ 8 NONAME ; class QPaintEngine * QVGPixmapData::paintEngine(void) const
	?drawRoundedRect@QVGPaintEngine@@UAEXABVQRectF@@MMW4SizeMode@Qt@@@Z @ 9 NONAME ; void QVGPaintEngine::drawRoundedRect(class QRectF const &, float, float, enum Qt::SizeMode)
	?qt_vg_image_to_vg_format@@YA?AW4VGImageFormat@@W4Format@QImage@@@Z @ 10 NONAME ; enum VGImageFormat qt_vg_image_to_vg_format(enum QImage::Format)
	?surfaceImage@QVGEGLWindowSurfacePrivate@@UBEKXZ @ 11 NONAME ; unsigned long QVGEGLWindowSurfacePrivate::surfaceImage(void) const
	?state@QVGPaintEngine@@QBEPBVQVGPainterState@@XZ @ 12 NONAME ; class QVGPainterState const * QVGPaintEngine::state(void) const
	??_EQVGEGLWindowSurfaceDirect@@UAE@I@Z @ 13 NONAME ; QVGEGLWindowSurfaceDirect::~QVGEGLWindowSurfaceDirect(unsigned int)
	?updateScissor@QVGPaintEngine@@AAEXXZ @ 14 NONAME ; void QVGPaintEngine::updateScissor(void)
	??_EQVGCompositionHelper@@UAE@I@Z @ 15 NONAME ; QVGCompositionHelper::~QVGCompositionHelper(unsigned int)
	?fill@QVGPixmapData@@UAEXABVQColor@@@Z @ 16 NONAME ; void QVGPixmapData::fill(class QColor const &)
	?toImage@QVGPixmapData@@UBE?AVQImage@@XZ @ 17 NONAME ; class QImage QVGPixmapData::toImage(void) const
	?renderHintsChanged@QVGPaintEngine@@UAEXXZ @ 18 NONAME ; void QVGPaintEngine::renderHintsChanged(void)
	?clearRect@QVGPaintEngine@@AAE_NABVQRectF@@ABVQColor@@@Z @ 19 NONAME ; bool QVGPaintEngine::clearRect(class QRectF const &, class QColor const &)
	??1QVGEGLWindowSurfaceVGImage@@UAE@XZ @ 20 NONAME ; QVGEGLWindowSurfaceVGImage::~QVGEGLWindowSurfaceVGImage(void)
	?state@QVGPaintEngine@@QAEPAVQVGPainterState@@XZ @ 21 NONAME ; class QVGPainterState * QVGPaintEngine::state(void)
	??0QVGPaintEngine@@IAE@AAVQVGPaintEnginePrivate@@@Z @ 22 NONAME ; QVGPaintEngine::QVGPaintEngine(class QVGPaintEnginePrivate &)
	?blitWindow@QVGCompositionHelper@@QAEXKABVQSize@@ABVQRect@@ABVQPoint@@H@Z @ 23 NONAME ; void QVGCompositionHelper::blitWindow(unsigned long, class QSize const &, class QRect const &, class QPoint const &, int)
	?ensureContext@QVGEGLWindowSurfaceVGImage@@UAEPAVQEglContext@@PAVQWidget@@@Z @ 24 NONAME ; class QEglContext * QVGEGLWindowSurfaceVGImage::ensureContext(class QWidget *)
	??0QVGCompositionHelper@@QAE@XZ @ 25 NONAME ; QVGCompositionHelper::QVGCompositionHelper(void)
	?sourceFormat@QVGPixmapData@@IBE?AW4Format@QImage@@XZ @ 26 NONAME ; enum QImage::Format QVGPixmapData::sourceFormat(void) const
	?beginNativePainting@QVGPaintEngine@@UAEXXZ @ 27 NONAME ; void QVGPaintEngine::beginNativePainting(void)
	?clipEnabledChanged@QVGPaintEngine@@UAEXXZ @ 28 NONAME ; void QVGPaintEngine::clipEnabledChanged(void)
	?metric@QVGPixmapData@@MBEHW4PaintDeviceMetric@QPaintDevice@@@Z @ 29 NONAME ; int QVGPixmapData::metric(enum QPaintDevice::PaintDeviceMetric) const
	?draw@QVGPaintEngine@@UAEXABVQVectorPath@@@Z @ 30 NONAME ; void QVGPaintEngine::draw(class QVectorPath const &)
	?drawRects@QVGPaintEngine@@UAEXPBVQRect@@H@Z @ 31 NONAME ; void QVGPaintEngine::drawRects(class QRect const *, int)
	??0QVGPixmapData@@QAE@W4PixelType@QPixmapData@@@Z @ 32 NONAME ; QVGPixmapData::QVGPixmapData(enum QPixmapData::PixelType)
	??0QVGWindowSurface@@QAE@PAVQWidget@@PAVQVGEGLWindowSurfacePrivate@@@Z @ 33 NONAME ; QVGWindowSurface::QVGWindowSurface(class QWidget *, class QVGEGLWindowSurfacePrivate *)
	?fillBackground@QVGCompositionHelper@@QAEXABVQRegion@@ABVQBrush@@@Z @ 34 NONAME ; void QVGCompositionHelper::fillBackground(class QRegion const &, class QBrush const &)
	?drawLines@QVGPaintEngine@@UAEXPBVQLine@@H@Z @ 35 NONAME ; void QVGPaintEngine::drawLines(class QLine const *, int)
	?ensureContext@QVGEGLWindowSurfaceDirect@@UAEPAVQEglContext@@PAVQWidget@@@Z @ 36 NONAME ; class QEglContext * QVGEGLWindowSurfaceDirect::ensureContext(class QWidget *)
	??0QVGPaintEngine@@QAE@XZ @ 37 NONAME ; QVGPaintEngine::QVGPaintEngine(void)
	?cleanup@QVGPixmapData@@IAEXXZ @ 38 NONAME ; void QVGPixmapData::cleanup(void)
	?drawPixmap@QVGPaintEngine@@UAEXABVQPointF@@ABVQPixmap@@@Z @ 39 NONAME ; void QVGPaintEngine::drawPixmap(class QPointF const &, class QPixmap const &)
	?drawImage@QVGPaintEngine@@UAEXABVQRectF@@ABVQImage@@0V?$QFlags@W4ImageConversionFlag@Qt@@@@@Z @ 40 NONAME ; void QVGPaintEngine::drawImage(class QRectF const &, class QImage const &, class QRectF const &, class QFlags<enum Qt::ImageConversionFlag>)
	?drawTiledPixmap@QVGPaintEngine@@UAEXABVQRectF@@ABVQPixmap@@ABVQPointF@@@Z @ 41 NONAME ; void QVGPaintEngine::drawTiledPixmap(class QRectF const &, class QPixmap const &, class QPointF const &)
	?drawEllipse@QVGPaintEngine@@UAEXABVQRectF@@@Z @ 42 NONAME ; void QVGPaintEngine::drawEllipse(class QRectF const &)
	?endCompositing@QVGCompositionHelper@@QAEXXZ @ 43 NONAME ; void QVGCompositionHelper::endCompositing(void)
	??_EQVGEGLWindowSurfaceVGImage@@UAE@I@Z @ 44 NONAME ; QVGEGLWindowSurfaceVGImage::~QVGEGLWindowSurfaceVGImage(unsigned int)
	?begin@QVGPaintEngine@@UAE_NPAVQPaintDevice@@@Z @ 45 NONAME ; bool QVGPaintEngine::begin(class QPaintDevice *)
	?fillRect@QVGPaintEngine@@UAEXABVQRectF@@ABVQBrush@@@Z @ 46 NONAME ; void QVGPaintEngine::fillRect(class QRectF const &, class QBrush const &)
	?paintEngine@QVGWindowSurface@@UBEPAVQPaintEngine@@XZ @ 47 NONAME ; class QPaintEngine * QVGWindowSurface::paintEngine(void) const
	??0QVGPainterState@@QAE@XZ @ 48 NONAME ; QVGPainterState::QVGPainterState(void)
	?d_func@QVGPaintEngine@@ABEPBVQVGPaintEnginePrivate@@XZ @ 49 NONAME ; class QVGPaintEnginePrivate const * QVGPaintEngine::d_func(void) const
	?qt_vg_create_context@@YAPAVQEglContext@@PAVQPaintDevice@@@Z @ 50 NONAME ABSENT ; class QEglContext * qt_vg_create_context(class QPaintDevice *)
	?clip@QVGPaintEngine@@UAEXABVQRegion@@W4ClipOperation@Qt@@@Z @ 51 NONAME ; void QVGPaintEngine::clip(class QRegion const &, enum Qt::ClipOperation)
	?endNativePainting@QVGPaintEngine@@UAEXXZ @ 52 NONAME ; void QVGPaintEngine::endNativePainting(void)
	?brushChanged@QVGPaintEngine@@UAEXXZ @ 53 NONAME ; void QVGPaintEngine::brushChanged(void)
	?setGeometry@QVGWindowSurface@@UAEXABVQRect@@@Z @ 54 NONAME ; void QVGWindowSurface::setGeometry(class QRect const &)
	?createCompatiblePixmapData@QVGPixmapData@@UBEPAVQPixmapData@@XZ @ 55 NONAME ; class QPixmapData * QVGPixmapData::createCompatiblePixmapData(void) const
	?endPaint@QVGWindowSurface@@UAEXABVQRegion@@@Z @ 56 NONAME ; void QVGWindowSurface::endPaint(class QRegion const &)
	?resize@QVGPixmapData@@UAEXHH@Z @ 57 NONAME ; void QVGPixmapData::resize(int, int)
	?mainSurface@QVGEGLWindowSurfaceVGImage@@IBEHXZ @ 58 NONAME ; int QVGEGLWindowSurfaceVGImage::mainSurface(void) const
	??0QVGEGLWindowSurfaceDirect@@QAE@PAVQWindowSurface@@@Z @ 59 NONAME ; QVGEGLWindowSurfaceDirect::QVGEGLWindowSurfaceDirect(class QWindowSurface *)
	?clip@QVGPaintEngine@@UAEXABVQRect@@W4ClipOperation@Qt@@@Z @ 60 NONAME ; void QVGPaintEngine::clip(class QRect const &, enum Qt::ClipOperation)
	?fillRegion@QVGPaintEngine@@QAEXABVQRegion@@ABVQColor@@ABVQSize@@@Z @ 61 NONAME ; void QVGPaintEngine::fillRegion(class QRegion const &, class QColor const &, class QSize const &)
	?surfaceSize@QVGEGLWindowSurfaceDirect@@UBE?AVQSize@@XZ @ 62 NONAME ; class QSize QVGEGLWindowSurfaceDirect::surfaceSize(void) const
	?drawPoints@QVGPaintEngine@@UAEXPBVQPointF@@H@Z @ 63 NONAME ; void QVGPaintEngine::drawPoints(class QPointF const *, int)
	?paintEngine@QVGEGLWindowSurfacePrivate@@QAEPAVQVGPaintEngine@@XZ @ 64 NONAME ; class QVGPaintEngine * QVGEGLWindowSurfacePrivate::paintEngine(void)
	?stroke@QVGPaintEngine@@UAEXABVQVectorPath@@ABVQPen@@@Z @ 65 NONAME ; void QVGPaintEngine::stroke(class QVectorPath const &, class QPen const &)
	??0QVGPainterState@@QAE@AAV0@@Z @ 66 NONAME ; QVGPainterState::QVGPainterState(class QVGPainterState &)
	?startCompositing@QVGCompositionHelper@@QAEXABVQSize@@@Z @ 67 NONAME ; void QVGCompositionHelper::startCompositing(class QSize const &)
	??1QVGEGLWindowSurfacePrivate@@UAE@XZ @ 68 NONAME ; QVGEGLWindowSurfacePrivate::~QVGEGLWindowSurfacePrivate(void)
	?qt_vg_destroy_paint_engine@@YAXPAVQVGPaintEngine@@@Z @ 69 NONAME ; void qt_vg_destroy_paint_engine(class QVGPaintEngine *)
	?compositionModeChanged@QVGPaintEngine@@UAEXXZ @ 70 NONAME ; void QVGPaintEngine::compositionModeChanged(void)
	?type@QVGPaintEngine@@UBE?AW4Type@QPaintEngine@@XZ @ 71 NONAME ; enum QPaintEngine::Type QVGPaintEngine::type(void) const
	?fillRect@QVGPaintEngine@@UAEXABVQRectF@@ABVQColor@@@Z @ 72 NONAME ; void QVGPaintEngine::fillRect(class QRectF const &, class QColor const &)
	??0QVGEGLWindowSurfacePrivate@@QAE@PAVQWindowSurface@@@Z @ 73 NONAME ; QVGEGLWindowSurfacePrivate::QVGEGLWindowSurfacePrivate(class QWindowSurface *)
	?drawImage@QVGPaintEngine@@UAEXABVQPointF@@ABVQImage@@@Z @ 74 NONAME ; void QVGPaintEngine::drawImage(class QPointF const &, class QImage const &)
	?flush@QVGWindowSurface@@UAEXPAVQWidget@@ABVQRegion@@ABVQPoint@@@Z @ 75 NONAME ; void QVGWindowSurface::flush(class QWidget *, class QRegion const &, class QPoint const &)
	?isValid@QVGPixmapData@@QBE_NXZ @ 76 NONAME ; bool QVGPixmapData::isValid(void) const
	?beginPaint@QVGEGLWindowSurfaceVGImage@@UAEXPAVQWidget@@@Z @ 77 NONAME ; void QVGEGLWindowSurfaceVGImage::beginPaint(class QWidget *)
	?createState@QVGPaintEngine@@UBEPAVQPainterState@@PAV2@@Z @ 78 NONAME ; class QPainterState * QVGPaintEngine::createState(class QPainterState *) const
	?buffer@QVGPixmapData@@UAEPAVQImage@@XZ @ 79 NONAME ; class QImage * QVGPixmapData::buffer(void)
	?qt_vg_destroy_context@@YAXPAVQEglContext@@@Z @ 80 NONAME ABSENT ; void qt_vg_destroy_context(class QEglContext *)
	?clip@QVGPaintEngine@@UAEXABVQVectorPath@@W4ClipOperation@Qt@@@Z @ 81 NONAME ; void QVGPaintEngine::clip(class QVectorPath const &, enum Qt::ClipOperation)
	?drawPolygon@QVGPaintEngine@@UAEXPBVQPoint@@HW4PolygonDrawMode@QPaintEngine@@@Z @ 82 NONAME ; void QVGPaintEngine::drawPolygon(class QPoint const *, int, enum QPaintEngine::PolygonDrawMode)
	?fromImage@QVGPixmapData@@UAEXABVQImage@@V?$QFlags@W4ImageConversionFlag@Qt@@@@@Z @ 83 NONAME ; void QVGPixmapData::fromImage(class QImage const &, class QFlags<enum Qt::ImageConversionFlag>)
	??1QVGPainterState@@UAE@XZ @ 84 NONAME ; QVGPainterState::~QVGPainterState(void)
	??1QVGPaintEngine@@UAE@XZ @ 85 NONAME ; QVGPaintEngine::~QVGPaintEngine(void)
	?hasAlphaChannel@QVGPixmapData@@UBE_NXZ @ 86 NONAME ; bool QVGPixmapData::hasAlphaChannel(void) const
	?endPaint@QVGEGLWindowSurfaceVGImage@@UAEXPAVQWidget@@ABVQRegion@@PAVQImage@@@Z @ 87 NONAME ; void QVGEGLWindowSurfaceVGImage::endPaint(class QWidget *, class QRegion const &, class QImage *)
	?beginPaint@QVGEGLWindowSurfaceDirect@@UAEXPAVQWidget@@@Z @ 88 NONAME ; void QVGEGLWindowSurfaceDirect::beginPaint(class QWidget *)
	?qt_vg_config_to_image_format@@YA?AW4Format@QImage@@PAVQEglContext@@@Z @ 89 NONAME ; enum QImage::Format qt_vg_config_to_image_format(class QEglContext *)
	?qt_vg_config_to_vg_format@@YA?AW4VGImageFormat@@PAVQEglContext@@@Z @ 90 NONAME ; enum VGImageFormat qt_vg_config_to_vg_format(class QEglContext *)
	?setScissor@QVGCompositionHelper@@QAEXABVQRegion@@@Z @ 91 NONAME ; void QVGCompositionHelper::setScissor(class QRegion const &)
	?drawPath@QVGPaintEngine@@UAEXABVQPainterPath@@@Z @ 92 NONAME ; void QVGPaintEngine::drawPath(class QPainterPath const &)
	?drawLines@QVGPaintEngine@@UAEXPBVQLineF@@H@Z @ 93 NONAME ; void QVGPaintEngine::drawLines(class QLineF const *, int)
	?toNativeType@QVGPixmapData@@UAEPAXW4NativeType@QPixmapData@@@Z @ 94 NONAME ; void * QVGPixmapData::toNativeType(enum QPixmapData::NativeType)
	??1QVGWindowSurface@@UAE@XZ @ 95 NONAME ; QVGWindowSurface::~QVGWindowSurface(void)
	?metric@QVGWindowSurface@@MBEHW4PaintDeviceMetric@QPaintDevice@@@Z @ 96 NONAME ; int QVGWindowSurface::metric(enum QPaintDevice::PaintDeviceMetric) const
	??1QVGPixmapData@@UAE@XZ @ 97 NONAME ; QVGPixmapData::~QVGPixmapData(void)
	??1QVGEGLWindowSurfaceDirect@@UAE@XZ @ 98 NONAME ; QVGEGLWindowSurfaceDirect::~QVGEGLWindowSurfaceDirect(void)
	??_EQVGPixmapData@@UAE@I@Z @ 99 NONAME ; QVGPixmapData::~QVGPixmapData(unsigned int)
	?restoreState@QVGPaintEngine@@AAEXV?$QFlags@W4DirtyFlag@QPaintEngine@@@@@Z @ 100 NONAME ; void QVGPaintEngine::restoreState(class QFlags<enum QPaintEngine::DirtyFlag>)
	??1QVGCompositionHelper@@UAE@XZ @ 101 NONAME ; QVGCompositionHelper::~QVGCompositionHelper(void)
	??0QVGWindowSurface@@QAE@PAVQWidget@@@Z @ 102 NONAME ; QVGWindowSurface::QVGWindowSurface(class QWidget *)
	?isDefaultClipRegion@QVGPaintEngine@@AAE_NABVQRegion@@@Z @ 103 NONAME ; bool QVGPaintEngine::isDefaultClipRegion(class QRegion const &)
	?transformChanged@QVGPaintEngine@@UAEXXZ @ 104 NONAME ; void QVGPaintEngine::transformChanged(void)
	?fromNativeType@QVGPixmapData@@UAEXPAXW4NativeType@QPixmapData@@@Z @ 105 NONAME ; void QVGPixmapData::fromNativeType(void *, enum QPixmapData::NativeType)
	?setAlphaChannel@QVGPixmapData@@UAEXABVQPixmap@@@Z @ 106 NONAME ; void QVGPixmapData::setAlphaChannel(class QPixmap const &)
	??_EQVGWindowSurface@@UAE@I@Z @ 107 NONAME ; QVGWindowSurface::~QVGWindowSurface(unsigned int)
	?qPixmapToVGImage@@YAKABVQPixmap@@@Z @ 108 NONAME ; unsigned long qPixmapToVGImage(class QPixmap const &)
	?opacityChanged@QVGPaintEngine@@UAEXXZ @ 109 NONAME ; void QVGPaintEngine::opacityChanged(void)
	?surfaceSize@QVGEGLWindowSurfaceVGImage@@UBE?AVQSize@@XZ @ 110 NONAME ; class QSize QVGEGLWindowSurfaceVGImage::surfaceSize(void) const
	?paintDevice@QVGWindowSurface@@UAEPAVQPaintDevice@@XZ @ 111 NONAME ; class QPaintDevice * QVGWindowSurface::paintDevice(void)
	?qt_vg_create_paint_engine@@YAPAVQVGPaintEngine@@XZ @ 112 NONAME ; class QVGPaintEngine * qt_vg_create_paint_engine(void)
	?drawPixmap@QVGPaintEngine@@UAEXABVQRectF@@ABVQPixmap@@0@Z @ 113 NONAME ; void QVGPaintEngine::drawPixmap(class QRectF const &, class QPixmap const &, class QRectF const &)
	?beginPaint@QVGWindowSurface@@UAEXABVQRegion@@@Z @ 114 NONAME ; void QVGWindowSurface::beginPaint(class QRegion const &)
	??_EQVGEGLWindowSurfacePrivate@@UAE@I@Z @ 115 NONAME ; QVGEGLWindowSurfacePrivate::~QVGEGLWindowSurfacePrivate(unsigned int)
	?endPaint@QVGEGLWindowSurfaceDirect@@UAEXPAVQWidget@@ABVQRegion@@PAVQImage@@@Z @ 116 NONAME ; void QVGEGLWindowSurfaceDirect::endPaint(class QWidget *, class QRegion const &, class QImage *)
	?scroll@QVGWindowSurface@@UAE_NABVQRegion@@HH@Z @ 117 NONAME ; bool QVGWindowSurface::scroll(class QRegion const &, int, int)
	?surfaceImage@QVGEGLWindowSurfaceVGImage@@UBEKXZ @ 118 NONAME ; unsigned long QVGEGLWindowSurfaceVGImage::surfaceImage(void) const
	?isDefaultClipRect@QVGPaintEngine@@AAE_NABVQRect@@@Z @ 119 NONAME ; bool QVGPaintEngine::isDefaultClipRect(class QRect const &)
	?windowSurfaceSize@QVGEGLWindowSurfacePrivate@@IBE?AVQSize@@PAVQWidget@@@Z @ 120 NONAME ; class QSize QVGEGLWindowSurfacePrivate::windowSurfaceSize(class QWidget *) const
	?pixmapFilter@QVGPaintEngine@@UAEPAVQPixmapFilter@@HPBV2@@Z @ 121 NONAME ; class QPixmapFilter * QVGPaintEngine::pixmapFilter(int, class QPixmapFilter const *)
	?destroyPaintEngine@QVGEGLWindowSurfacePrivate@@IAEXXZ @ 122 NONAME ; void QVGEGLWindowSurfacePrivate::destroyPaintEngine(void)
	?qt_vg_shared_surface@@YAHXZ @ 123 NONAME ; int qt_vg_shared_surface(void)
	?drawCursorPixmap@QVGCompositionHelper@@QAEXABVQPixmap@@ABVQPoint@@@Z @ 124 NONAME ; void QVGCompositionHelper::drawCursorPixmap(class QPixmap const &, class QPoint const &)
	?drawPixmaps@QVGPaintEngine@@UAEXPBUData@QDrawPixmaps@@HABVQPixmap@@V?$QFlags@W4DrawingHint@QDrawPixmaps@@@@@Z @ 125 NONAME ABSENT ; void QVGPaintEngine::drawPixmaps(struct QDrawPixmaps::Data const *, int, class QPixmap const &, class QFlags<enum QDrawPixmaps::DrawingHint>)
	?drawPolygon@QVGPaintEngine@@UAEXPBVQPointF@@HW4PolygonDrawMode@QPaintEngine@@@Z @ 126 NONAME ; void QVGPaintEngine::drawPolygon(class QPointF const *, int, enum QPaintEngine::PolygonDrawMode)
	?toVGImage@QVGPixmapData@@UAEKXZ @ 127 NONAME ; unsigned long QVGPixmapData::toVGImage(void)
	?end@QVGPaintEngine@@UAE_NXZ @ 128 NONAME ; bool QVGPaintEngine::end(void)
	??_EQVGPainterState@@UAE@I@Z @ 129 NONAME ; QVGPainterState::~QVGPainterState(unsigned int)
	?drawRects@QVGPaintEngine@@UAEXPBVQRectF@@H@Z @ 130 NONAME ; void QVGPaintEngine::drawRects(class QRectF const *, int)
	?d_func@QVGPaintEngine@@AAEPAVQVGPaintEnginePrivate@@XZ @ 131 NONAME ; class QVGPaintEnginePrivate * QVGPaintEngine::d_func(void)
	?brushOriginChanged@QVGPaintEngine@@UAEXXZ @ 132 NONAME ; void QVGPaintEngine::brushOriginChanged(void)
	?drawTextItem@QVGPaintEngine@@UAEXABVQPointF@@ABVQTextItem@@@Z @ 133 NONAME ; void QVGPaintEngine::drawTextItem(class QPointF const &, class QTextItem const &)
	?clearScissor@QVGCompositionHelper@@QAEXXZ @ 134 NONAME ; void QVGCompositionHelper::clearScissor(void)
	?fill@QVGPaintEngine@@UAEXABVQVectorPath@@ABVQBrush@@@Z @ 135 NONAME ; void QVGPaintEngine::fill(class QVectorPath const &, class QBrush const &)
	?forceToImage@QVGPixmapData@@IAEXXZ @ 136 NONAME ABSENT ; void QVGPixmapData::forceToImage(void)
	?drawPoints@QVGPaintEngine@@UAEXPBVQPoint@@H@Z @ 137 NONAME ; void QVGPaintEngine::drawPoints(class QPoint const *, int)
	??_EQVGPaintEngine@@UAE@I@Z @ 138 NONAME ; QVGPaintEngine::~QVGPaintEngine(unsigned int)
	?clip@QVGPaintEngine@@UAEXABVQPainterPath@@W4ClipOperation@Qt@@@Z @ 139 NONAME ; void QVGPaintEngine::clip(class QPainterPath const &, enum Qt::ClipOperation)
	?vgPrivate@QVGPaintEngine@@QAEPAVQVGPaintEnginePrivate@@XZ @ 140 NONAME ; class QVGPaintEnginePrivate * QVGPaintEngine::vgPrivate(void)
	?removeFromLRU@QVGImagePool@@IAEXPAVQVGPixmapData@@@Z @ 141 NONAME ; void QVGImagePool::removeFromLRU(class QVGPixmapData *)
	?releaseImage@QVGImagePool@@UAEXPAVQVGPixmapData@@K@Z @ 142 NONAME ; void QVGImagePool::releaseImage(class QVGPixmapData *, unsigned long)
	?d_func@QVGImagePool@@AAEPAVQVGImagePoolPrivate@@XZ @ 143 NONAME ; class QVGImagePoolPrivate * QVGImagePool::d_func(void)
	?detachImageFromPool@QVGPixmapData@@UAEXXZ @ 144 NONAME ; void QVGPixmapData::detachImageFromPool(void)
	?createImageForPixmap@QVGImagePool@@UAEKW4VGImageFormat@@JJKPAVQVGPixmapData@@@Z @ 145 NONAME ; unsigned long QVGImagePool::createImageForPixmap(enum VGImageFormat, long, long, unsigned long, class QVGPixmapData *)
	?destroyImageAndContext@QVGPixmapData@@IAEXXZ @ 146 NONAME ; void QVGPixmapData::destroyImageAndContext(void)
	?moveToHeadOfLRU@QVGImagePool@@IAEXPAVQVGPixmapData@@@Z @ 147 NONAME ; void QVGImagePool::moveToHeadOfLRU(class QVGPixmapData *)
	?instance@QVGImagePool@@SAPAV1@XZ @ 148 NONAME ; class QVGImagePool * QVGImagePool::instance(void)
	?useImage@QVGImagePool@@UAEXPAVQVGPixmapData@@@Z @ 149 NONAME ; void QVGImagePool::useImage(class QVGPixmapData *)
	??1QVGImagePool@@UAE@XZ @ 150 NONAME ; QVGImagePool::~QVGImagePool(void)
	?destroyImages@QVGPixmapData@@IAEXXZ @ 151 NONAME ; void QVGPixmapData::destroyImages(void)
	?reclaimSpace@QVGImagePool@@UAE_NW4VGImageFormat@@JJPAVQVGPixmapData@@@Z @ 152 NONAME ; bool QVGImagePool::reclaimSpace(enum VGImageFormat, long, long, class QVGPixmapData *)
	?detachImage@QVGImagePool@@UAEXPAVQVGPixmapData@@@Z @ 153 NONAME ; void QVGImagePool::detachImage(class QVGPixmapData *)
	?createPermanentImage@QVGImagePool@@UAEKW4VGImageFormat@@JJK@Z @ 154 NONAME ; unsigned long QVGImagePool::createPermanentImage(enum VGImageFormat, long, long, unsigned long)
	?d_func@QVGImagePool@@ABEPBVQVGImagePoolPrivate@@XZ @ 155 NONAME ; class QVGImagePoolPrivate const * QVGImagePool::d_func(void) const
	?createTemporaryImage@QVGImagePool@@UAEKW4VGImageFormat@@JJKPAVQVGPixmapData@@@Z @ 156 NONAME ; unsigned long QVGImagePool::createTemporaryImage(enum VGImageFormat, long, long, unsigned long, class QVGPixmapData *)
	??_EQVGImagePool@@UAE@I@Z @ 157 NONAME ; QVGImagePool::~QVGImagePool(unsigned int)
	?hibernate@QVGImagePool@@UAEXXZ @ 158 NONAME ; void QVGImagePool::hibernate(void)
	?qt_vg_destroy_context@@YAXPAVQEglContext@@H@Z @ 159 NONAME ; void qt_vg_destroy_context(class QEglContext *, int)
	??0QVGImagePool@@QAE@XZ @ 160 NONAME ; QVGImagePool::QVGImagePool(void)
	?setImagePool@QVGImagePool@@SAXPAV1@@Z @ 161 NONAME ; void QVGImagePool::setImagePool(class QVGImagePool *)
	?pixmapLRU@QVGImagePool@@IAEPAVQVGPixmapData@@XZ @ 162 NONAME ; class QVGPixmapData * QVGImagePool::pixmapLRU(void)
	?qt_vg_create_context@@YAPAVQEglContext@@PAVQPaintDevice@@H@Z @ 163 NONAME ; class QEglContext * qt_vg_create_context(class QPaintDevice *, int)
	?reclaimImages@QVGPixmapData@@UAEXXZ @ 164 NONAME ; void QVGPixmapData::reclaimImages(void)
	?hibernate@QVGPixmapData@@UAEXXZ @ 165 NONAME ; void QVGPixmapData::hibernate(void)
	?supportsStaticContents@QVGEGLWindowSurfaceDirect@@UBE_NXZ @ 166 NONAME ; bool QVGEGLWindowSurfaceDirect::supportsStaticContents(void) const
	?scroll@QVGEGLWindowSurfacePrivate@@UAE_NPAVQWidget@@ABVQRegion@@HH@Z @ 167 NONAME ; bool QVGEGLWindowSurfacePrivate::scroll(class QWidget *, class QRegion const &, int, int)
	?scroll@QVGEGLWindowSurfaceDirect@@UAE_NPAVQWidget@@ABVQRegion@@HH@Z @ 168 NONAME ; bool QVGEGLWindowSurfaceDirect::scroll(class QWidget *, class QRegion const &, int, int)
	?supportsStaticContents@QVGEGLWindowSurfacePrivate@@UBE_NXZ @ 169 NONAME ; bool QVGEGLWindowSurfacePrivate::supportsStaticContents(void) const
	?drawCachedGlyphs@QVGPaintEngine@@QAE_NHPBIABVQFont@@PAVQFontEngine@@ABVQPointF@@PBUQFixedPoint@@@Z @ 170 NONAME ; bool QVGPaintEngine::drawCachedGlyphs(int, unsigned int const *, class QFont const &, class QFontEngine *, class QPointF const &, struct QFixedPoint const *)
	?drawPixmapFragments@QVGPaintEngine@@UAEXPBVPixmapFragment@QPainter@@HABVQPixmap@@V?$QFlags@W4PixmapFragmentHint@QPainter@@@@@Z @ 171 NONAME ; void QVGPaintEngine::drawPixmapFragments(class QPainter::PixmapFragment const *, int, class QPixmap const &, class QFlags<enum QPainter::PixmapFragmentHint>)
	?drawStaticTextItem@QVGPaintEngine@@UAEXPAVQStaticTextItem@@@Z @ 172 NONAME ; void QVGPaintEngine::drawStaticTextItem(class QStaticTextItem *)
	?fromFile@QVGPixmapData@@UAE_NABVQString@@PBDV?$QFlags@W4ImageConversionFlag@Qt@@@@@Z @ 173 NONAME ; bool QVGPixmapData::fromFile(class QString const &, char const *, class QFlags<enum Qt::ImageConversionFlag>)
	?createPixmapForImage@QVGPixmapData@@IAEXAAVQImage@@V?$QFlags@W4ImageConversionFlag@Qt@@@@_N@Z @ 174 NONAME ; void QVGPixmapData::createPixmapForImage(class QImage &, class QFlags<enum Qt::ImageConversionFlag>, bool)
	?fromData@QVGPixmapData@@UAE_NPBEIPBDV?$QFlags@W4ImageConversionFlag@Qt@@@@@Z @ 175 NONAME ; bool QVGPixmapData::fromData(unsigned char const *, unsigned int, char const *, class QFlags<enum Qt::ImageConversionFlag>)
	?fromImageReader@QVGPixmapData@@UAEXPAVQImageReader@@V?$QFlags@W4ImageConversionFlag@Qt@@@@@Z @ 176 NONAME ; void QVGPixmapData::fromImageReader(class QImageReader *, class QFlags<enum Qt::ImageConversionFlag>)
	?canVgWritePixels@QVGPaintEngine@@ABE_NABVQImage@@@Z @ 177 NONAME ; bool QVGPaintEngine::canVgWritePixels(class QImage const &) const
	?updateSerial@QVGPixmapData@@IAEXXZ @ 178 NONAME ; void QVGPixmapData::updateSerial(void)
	?copy@QVGPixmapData@@UAEXPBVQPixmapData@@ABVQRect@@@Z @ 179 NONAME ; void QVGPixmapData::copy(class QPixmapData const *, class QRect const &)
	?idealFormat@QVGPixmapData@@IBE?AW4Format@QImage@@PAV3@V?$QFlags@W4ImageConversionFlag@Qt@@@@@Z @ 180 NONAME ; enum QImage::Format QVGPixmapData::idealFormat(class QImage *, class QFlags<enum Qt::ImageConversionFlag>) const
	?ensureReadback@QVGPixmapData@@UBEX_N@Z @ 181 NONAME ; void QVGPixmapData::ensureReadback(bool) const
	?initFromNativeImageHandle@QVGPixmapData@@QAE_NPAXABVQString@@@Z @ 182 NONAME ; bool QVGPixmapData::initFromNativeImageHandle(void *, class QString const &)
	?createFromNativeImageHandleProvider@QVGPixmapData@@QAEXXZ @ 183 NONAME ; void QVGPixmapData::createFromNativeImageHandleProvider(void)
	?releaseNativeImageHandle@QVGPixmapData@@QAEXXZ @ 184 NONAME ; void QVGPixmapData::releaseNativeImageHandle(void)
	?forceToImage@QVGPixmapData@@IAEX_N@Z @ 185 NONAME ; void QVGPixmapData::forceToImage(bool)
	?features@QVGWindowSurface@@UBE?AV?$QFlags@W4WindowSurfaceFeature@QWindowSurface@@@@XZ @ 186 NONAME ; class QFlags<enum QWindowSurface::WindowSurfaceFeature> QVGWindowSurface::features(void) const

