EXPORTS
	??0PersistentIdentifier@QScriptDeclarativeClass@@AAE@_N@Z @ 1 NONAME ABSENT ; QScriptDeclarativeClass::PersistentIdentifier::PersistentIdentifier(bool)
	??0PersistentIdentifier@QScriptDeclarativeClass@@QAE@ABV01@@Z @ 2 NONAME ; QScriptDeclarativeClass::PersistentIdentifier::PersistentIdentifier(class QScriptDeclarativeClass::PersistentIdentifier const &)
	??0PersistentIdentifier@QScriptDeclarativeClass@@QAE@XZ @ 3 NONAME ; QScriptDeclarativeClass::PersistentIdentifier::PersistentIdentifier(void)
	??0QScriptClass@@IAE@PAVQScriptEngine@@AAVQScriptClassPrivate@@@Z @ 4 NONAME ; QScriptClass::QScriptClass(class QScriptEngine *, class QScriptClassPrivate &)
	??0QScriptClass@@QAE@PAVQScriptEngine@@@Z @ 5 NONAME ; QScriptClass::QScriptClass(class QScriptEngine *)
	??0QScriptClassPropertyIterator@@IAE@ABVQScriptValue@@@Z @ 6 NONAME ; QScriptClassPropertyIterator::QScriptClassPropertyIterator(class QScriptValue const &)
	??0QScriptClassPropertyIterator@@IAE@ABVQScriptValue@@AAVQScriptClassPropertyIteratorPrivate@@@Z @ 7 NONAME ; QScriptClassPropertyIterator::QScriptClassPropertyIterator(class QScriptValue const &, class QScriptClassPropertyIteratorPrivate &)
	??0QScriptContext@@AAE@XZ @ 8 NONAME ; QScriptContext::QScriptContext(void)
	??0QScriptContextInfo@@QAE@ABV0@@Z @ 9 NONAME ; QScriptContextInfo::QScriptContextInfo(class QScriptContextInfo const &)
	??0QScriptContextInfo@@QAE@PBVQScriptContext@@@Z @ 10 NONAME ; QScriptContextInfo::QScriptContextInfo(class QScriptContext const *)
	??0QScriptContextInfo@@QAE@XZ @ 11 NONAME ; QScriptContextInfo::QScriptContextInfo(void)
	??0QScriptDeclarativeClass@@QAE@PAVQScriptEngine@@@Z @ 12 NONAME ; QScriptDeclarativeClass::QScriptDeclarativeClass(class QScriptEngine *)
	??0QScriptEngine@@IAE@AAVQScriptEnginePrivate@@PAVQObject@@@Z @ 13 NONAME ; QScriptEngine::QScriptEngine(class QScriptEnginePrivate &, class QObject *)
	??0QScriptEngine@@QAE@PAVQObject@@@Z @ 14 NONAME ; QScriptEngine::QScriptEngine(class QObject *)
	??0QScriptEngine@@QAE@XZ @ 15 NONAME ; QScriptEngine::QScriptEngine(void)
	??0QScriptEngineAgent@@IAE@AAVQScriptEngineAgentPrivate@@PAVQScriptEngine@@@Z @ 16 NONAME ; QScriptEngineAgent::QScriptEngineAgent(class QScriptEngineAgentPrivate &, class QScriptEngine *)
	??0QScriptEngineAgent@@QAE@PAVQScriptEngine@@@Z @ 17 NONAME ; QScriptEngineAgent::QScriptEngineAgent(class QScriptEngine *)
	??0QScriptEngineAgentPrivate@@QAE@XZ @ 18 NONAME ; QScriptEngineAgentPrivate::QScriptEngineAgentPrivate(void)
	??0QScriptExtensionPlugin@@QAE@PAVQObject@@@Z @ 19 NONAME ; QScriptExtensionPlugin::QScriptExtensionPlugin(class QObject *)
	??0QScriptProgram@@QAE@ABV0@@Z @ 20 NONAME ; QScriptProgram::QScriptProgram(class QScriptProgram const &)
	??0QScriptProgram@@QAE@ABVQString@@V1@H@Z @ 21 NONAME ; QScriptProgram::QScriptProgram(class QString const &, class QString, int)
	??0QScriptProgram@@QAE@XZ @ 22 NONAME ; QScriptProgram::QScriptProgram(void)
	??0QScriptString@@QAE@ABV0@@Z @ 23 NONAME ; QScriptString::QScriptString(class QScriptString const &)
	??0QScriptString@@QAE@XZ @ 24 NONAME ; QScriptString::QScriptString(void)
	??0QScriptSyntaxCheckResult@@AAE@PAVQScriptSyntaxCheckResultPrivate@@@Z @ 25 NONAME ; QScriptSyntaxCheckResult::QScriptSyntaxCheckResult(class QScriptSyntaxCheckResultPrivate *)
	??0QScriptSyntaxCheckResult@@AAE@XZ @ 26 NONAME ; QScriptSyntaxCheckResult::QScriptSyntaxCheckResult(void)
	??0QScriptSyntaxCheckResult@@QAE@ABV0@@Z @ 27 NONAME ; QScriptSyntaxCheckResult::QScriptSyntaxCheckResult(class QScriptSyntaxCheckResult const &)
	??0QScriptValue@@AAE@PAVQScriptValuePrivate@@@Z @ 28 NONAME ; QScriptValue::QScriptValue(class QScriptValuePrivate *)
	??0QScriptValue@@QAE@ABV0@@Z @ 29 NONAME ; QScriptValue::QScriptValue(class QScriptValue const &)
	??0QScriptValue@@QAE@ABVQLatin1String@@@Z @ 30 NONAME ; QScriptValue::QScriptValue(class QLatin1String const &)
	??0QScriptValue@@QAE@ABVQString@@@Z @ 31 NONAME ; QScriptValue::QScriptValue(class QString const &)
	??0QScriptValue@@QAE@H@Z @ 32 NONAME ; QScriptValue::QScriptValue(int)
	??0QScriptValue@@QAE@I@Z @ 33 NONAME ; QScriptValue::QScriptValue(unsigned int)
	??0QScriptValue@@QAE@N@Z @ 34 NONAME ; QScriptValue::QScriptValue(double)
	??0QScriptValue@@QAE@PAVQScriptEngine@@ABVQString@@@Z @ 35 NONAME ; QScriptValue::QScriptValue(class QScriptEngine *, class QString const &)
	??0QScriptValue@@QAE@PAVQScriptEngine@@H@Z @ 36 NONAME ; QScriptValue::QScriptValue(class QScriptEngine *, int)
	??0QScriptValue@@QAE@PAVQScriptEngine@@I@Z @ 37 NONAME ; QScriptValue::QScriptValue(class QScriptEngine *, unsigned int)
	??0QScriptValue@@QAE@PAVQScriptEngine@@N@Z @ 38 NONAME ; QScriptValue::QScriptValue(class QScriptEngine *, double)
	??0QScriptValue@@QAE@PAVQScriptEngine@@PBD@Z @ 39 NONAME ; QScriptValue::QScriptValue(class QScriptEngine *, char const *)
	??0QScriptValue@@QAE@PAVQScriptEngine@@W4SpecialValue@0@@Z @ 40 NONAME ; QScriptValue::QScriptValue(class QScriptEngine *, enum QScriptValue::SpecialValue)
	??0QScriptValue@@QAE@PAVQScriptEngine@@_N@Z @ 41 NONAME ; QScriptValue::QScriptValue(class QScriptEngine *, bool)
	??0QScriptValue@@QAE@PBD@Z @ 42 NONAME ; QScriptValue::QScriptValue(char const *)
	??0QScriptValue@@QAE@W4SpecialValue@0@@Z @ 43 NONAME ; QScriptValue::QScriptValue(enum QScriptValue::SpecialValue)
	??0QScriptValue@@QAE@XZ @ 44 NONAME ; QScriptValue::QScriptValue(void)
	??0QScriptValue@@QAE@_N@Z @ 45 NONAME ; QScriptValue::QScriptValue(bool)
	??0QScriptValueIterator@@QAE@ABVQScriptValue@@@Z @ 46 NONAME ; QScriptValueIterator::QScriptValueIterator(class QScriptValue const &)
	??0QScriptable@@QAE@XZ @ 47 NONAME ; QScriptable::QScriptable(void)
	??1PersistentIdentifier@QScriptDeclarativeClass@@QAE@XZ @ 48 NONAME ; QScriptDeclarativeClass::PersistentIdentifier::~PersistentIdentifier(void)
	??1QScriptClass@@UAE@XZ @ 49 NONAME ; QScriptClass::~QScriptClass(void)
	??1QScriptClassPropertyIterator@@UAE@XZ @ 50 NONAME ; QScriptClassPropertyIterator::~QScriptClassPropertyIterator(void)
	??1QScriptContext@@QAE@XZ @ 51 NONAME ; QScriptContext::~QScriptContext(void)
	??1QScriptContextInfo@@QAE@XZ @ 52 NONAME ; QScriptContextInfo::~QScriptContextInfo(void)
	??1QScriptDeclarativeClass@@UAE@XZ @ 53 NONAME ; QScriptDeclarativeClass::~QScriptDeclarativeClass(void)
	??1QScriptEngine@@UAE@XZ @ 54 NONAME ; QScriptEngine::~QScriptEngine(void)
	??1QScriptEngineAgent@@UAE@XZ @ 55 NONAME ; QScriptEngineAgent::~QScriptEngineAgent(void)
	??1QScriptEngineAgentPrivate@@UAE@XZ @ 56 NONAME ; QScriptEngineAgentPrivate::~QScriptEngineAgentPrivate(void)
	??1QScriptExtensionInterface@@UAE@XZ @ 57 NONAME ; QScriptExtensionInterface::~QScriptExtensionInterface(void)
	??1QScriptExtensionPlugin@@UAE@XZ @ 58 NONAME ; QScriptExtensionPlugin::~QScriptExtensionPlugin(void)
	??1QScriptProgram@@QAE@XZ @ 59 NONAME ; QScriptProgram::~QScriptProgram(void)
	??1QScriptString@@QAE@XZ @ 60 NONAME ; QScriptString::~QScriptString(void)
	??1QScriptSyntaxCheckResult@@QAE@XZ @ 61 NONAME ; QScriptSyntaxCheckResult::~QScriptSyntaxCheckResult(void)
	??1QScriptValue@@QAE@XZ @ 62 NONAME ; QScriptValue::~QScriptValue(void)
	??1QScriptValueIterator@@QAE@XZ @ 63 NONAME ; QScriptValueIterator::~QScriptValueIterator(void)
	??1QScriptable@@QAE@XZ @ 64 NONAME ; QScriptable::~QScriptable(void)
	??4PersistentIdentifier@QScriptDeclarativeClass@@QAEAAV01@ABV01@@Z @ 65 NONAME ; class QScriptDeclarativeClass::PersistentIdentifier & QScriptDeclarativeClass::PersistentIdentifier::operator=(class QScriptDeclarativeClass::PersistentIdentifier const &)
	??4QScriptContextInfo@@QAEAAV0@ABV0@@Z @ 66 NONAME ; class QScriptContextInfo & QScriptContextInfo::operator=(class QScriptContextInfo const &)
	??4QScriptProgram@@QAEAAV0@ABV0@@Z @ 67 NONAME ; class QScriptProgram & QScriptProgram::operator=(class QScriptProgram const &)
	??4QScriptString@@QAEAAV0@ABV0@@Z @ 68 NONAME ; class QScriptString & QScriptString::operator=(class QScriptString const &)
	??4QScriptSyntaxCheckResult@@QAEAAV0@ABV0@@Z @ 69 NONAME ; class QScriptSyntaxCheckResult & QScriptSyntaxCheckResult::operator=(class QScriptSyntaxCheckResult const &)
	??4QScriptValue@@QAEAAV0@ABV0@@Z @ 70 NONAME ; class QScriptValue & QScriptValue::operator=(class QScriptValue const &)
	??4QScriptValueIterator@@QAEAAV0@AAVQScriptValue@@@Z @ 71 NONAME ; class QScriptValueIterator & QScriptValueIterator::operator=(class QScriptValue &)
	??5@YAAAVQDataStream@@AAV0@AAVQScriptContextInfo@@@Z @ 72 NONAME ; class QDataStream & operator>>(class QDataStream &, class QScriptContextInfo &)
	??6@YAAAVQDataStream@@AAV0@ABVQScriptContextInfo@@@Z @ 73 NONAME ; class QDataStream & operator<<(class QDataStream &, class QScriptContextInfo const &)
	??8QScriptContextInfo@@QBE_NABV0@@Z @ 74 NONAME ; bool QScriptContextInfo::operator==(class QScriptContextInfo const &) const
	??8QScriptProgram@@QBE_NABV0@@Z @ 75 NONAME ; bool QScriptProgram::operator==(class QScriptProgram const &) const
	??8QScriptString@@QBE_NABV0@@Z @ 76 NONAME ; bool QScriptString::operator==(class QScriptString const &) const
	??9QScriptContextInfo@@QBE_NABV0@@Z @ 77 NONAME ; bool QScriptContextInfo::operator!=(class QScriptContextInfo const &) const
	??9QScriptProgram@@QBE_NABV0@@Z @ 78 NONAME ; bool QScriptProgram::operator!=(class QScriptProgram const &) const
	??9QScriptString@@QBE_NABV0@@Z @ 79 NONAME ; bool QScriptString::operator!=(class QScriptString const &) const
	??BQScriptString@@QBE?AVQString@@XZ @ 80 NONAME ; QScriptString::operator class QString(void) const
	??_EQScriptClass@@UAE@I@Z @ 81 NONAME ; QScriptClass::~QScriptClass(unsigned int)
	??_EQScriptClassPropertyIterator@@UAE@I@Z @ 82 NONAME ; QScriptClassPropertyIterator::~QScriptClassPropertyIterator(unsigned int)
	??_EQScriptDeclarativeClass@@UAE@I@Z @ 83 NONAME ; QScriptDeclarativeClass::~QScriptDeclarativeClass(unsigned int)
	??_EQScriptEngine@@UAE@I@Z @ 84 NONAME ; QScriptEngine::~QScriptEngine(unsigned int)
	??_EQScriptEngineAgent@@UAE@I@Z @ 85 NONAME ; QScriptEngineAgent::~QScriptEngineAgent(unsigned int)
	??_EQScriptEngineAgentPrivate@@UAE@I@Z @ 86 NONAME ; QScriptEngineAgentPrivate::~QScriptEngineAgentPrivate(unsigned int)
	??_EQScriptExtensionInterface@@UAE@I@Z @ 87 NONAME ; QScriptExtensionInterface::~QScriptExtensionInterface(unsigned int)
	??_EQScriptExtensionPlugin@@UAE@I@Z @ 88 NONAME ; QScriptExtensionPlugin::~QScriptExtensionPlugin(unsigned int)
	?abortEvaluation@QScriptEngine@@QAEXABVQScriptValue@@@Z @ 89 NONAME ; void QScriptEngine::abortEvaluation(class QScriptValue const &)
	?activationObject@QScriptContext@@QBE?AVQScriptValue@@XZ @ 90 NONAME ; class QScriptValue QScriptContext::activationObject(void) const
	?agent@QScriptEngine@@QBEPAVQScriptEngineAgent@@XZ @ 91 NONAME ; class QScriptEngineAgent * QScriptEngine::agent(void) const
	?argument@QScriptContext@@QBE?AVQScriptValue@@H@Z @ 92 NONAME ; class QScriptValue QScriptContext::argument(int) const
	?argument@QScriptable@@QBE?AVQScriptValue@@H@Z @ 93 NONAME ; class QScriptValue QScriptable::argument(int) const
	?argumentCount@QScriptContext@@QBEHXZ @ 94 NONAME ; int QScriptContext::argumentCount(void) const
	?argumentCount@QScriptable@@QBEHXZ @ 95 NONAME ; int QScriptable::argumentCount(void) const
	?argumentsObject@QScriptContext@@QBE?AVQScriptValue@@XZ @ 96 NONAME ; class QScriptValue QScriptContext::argumentsObject(void) const
	?atStatement@QScriptEngineAgentPrivate@@UAEXABVDebuggerCallFrame@QTJSC@@HHH@Z @ 97 NONAME ABSENT ; void QScriptEngineAgentPrivate::atStatement(class QTJSC::DebuggerCallFrame const &, int, int, int)
	?attach@QScriptEngineAgentPrivate@@QAEXXZ @ 98 NONAME ; void QScriptEngineAgentPrivate::attach(void)
	?availableExtensions@QScriptEngine@@QBE?AVQStringList@@XZ @ 99 NONAME ; class QStringList QScriptEngine::availableExtensions(void) const
	?backtrace@QScriptContext@@QBE?AVQStringList@@XZ @ 100 NONAME ; class QStringList QScriptContext::backtrace(void) const
	?call@QScriptValue@@QAE?AV1@ABV1@0@Z @ 101 NONAME ; class QScriptValue QScriptValue::call(class QScriptValue const &, class QScriptValue const &)
	?call@QScriptValue@@QAE?AV1@ABV1@ABV?$QList@VQScriptValue@@@@@Z @ 102 NONAME ; class QScriptValue QScriptValue::call(class QScriptValue const &, class QList<class QScriptValue> const &)
	?callEvent@QScriptEngineAgentPrivate@@UAEXABVDebuggerCallFrame@QTJSC@@HH@Z @ 103 NONAME ; void QScriptEngineAgentPrivate::callEvent(class QTJSC::DebuggerCallFrame const &, int, int)
	?callee@QScriptContext@@QBE?AVQScriptValue@@XZ @ 104 NONAME ; class QScriptValue QScriptContext::callee(void) const
	?canEvaluate@QScriptEngine@@QBE_NABVQString@@@Z @ 105 NONAME ; bool QScriptEngine::canEvaluate(class QString const &) const
	?checkSyntax@QScriptEngine@@SA?AVQScriptSyntaxCheckResult@@ABVQString@@@Z @ 106 NONAME ; class QScriptSyntaxCheckResult QScriptEngine::checkSyntax(class QString const &)
	?clearExceptions@QScriptEngine@@QAEXXZ @ 107 NONAME ; void QScriptEngine::clearExceptions(void)
	?collectGarbage@QScriptEngine@@QAEXXZ @ 108 NONAME ; void QScriptEngine::collectGarbage(void)
	?columnNumber@QScriptContextInfo@@QBEHXZ @ 109 NONAME ; int QScriptContextInfo::columnNumber(void) const
	?construct@QScriptValue@@QAE?AV1@ABV1@@Z @ 110 NONAME ; class QScriptValue QScriptValue::construct(class QScriptValue const &)
	?construct@QScriptValue@@QAE?AV1@ABV?$QList@VQScriptValue@@@@@Z @ 111 NONAME ; class QScriptValue QScriptValue::construct(class QList<class QScriptValue> const &)
	?context@QScriptDeclarativeClass@@QBEPAVQScriptContext@@XZ @ 112 NONAME ; class QScriptContext * QScriptDeclarativeClass::context(void) const
	?context@QScriptable@@QBEPAVQScriptContext@@XZ @ 113 NONAME ; class QScriptContext * QScriptable::context(void) const
	?contextPop@QScriptEngineAgent@@UAEXXZ @ 114 NONAME ; void QScriptEngineAgent::contextPop(void)
	?contextPush@QScriptEngineAgent@@UAEXXZ @ 115 NONAME ; void QScriptEngineAgent::contextPush(void)
	?convert@QScriptEngine@@AAE_NABVQScriptValue@@HPAX@Z @ 116 NONAME ; bool QScriptEngine::convert(class QScriptValue const &, int, void *)
	?convertV2@QScriptEngine@@CA_NABVQScriptValue@@HPAX@Z @ 117 NONAME ; bool QScriptEngine::convertV2(class QScriptValue const &, int, void *)
	?create@QScriptEngine@@AAE?AVQScriptValue@@HPBX@Z @ 118 NONAME ; class QScriptValue QScriptEngine::create(int, void const *)
	?createPersistentIdentifier@QScriptDeclarativeClass@@QAE?AVPersistentIdentifier@1@ABQAX@Z @ 119 NONAME ; class QScriptDeclarativeClass::PersistentIdentifier QScriptDeclarativeClass::createPersistentIdentifier(void * const const &)
	?createPersistentIdentifier@QScriptDeclarativeClass@@QAE?AVPersistentIdentifier@1@ABVQString@@@Z @ 120 NONAME ; class QScriptDeclarativeClass::PersistentIdentifier QScriptDeclarativeClass::createPersistentIdentifier(class QString const &)
	?currentContext@QScriptEngine@@QBEPAVQScriptContext@@XZ @ 121 NONAME ; class QScriptContext * QScriptEngine::currentContext(void) const
	?d_func@QScriptClass@@AAEPAVQScriptClassPrivate@@XZ @ 122 NONAME ; class QScriptClassPrivate * QScriptClass::d_func(void)
	?d_func@QScriptClass@@ABEPBVQScriptClassPrivate@@XZ @ 123 NONAME ; class QScriptClassPrivate const * QScriptClass::d_func(void) const
	?d_func@QScriptClassPropertyIterator@@AAEPAVQScriptClassPropertyIteratorPrivate@@XZ @ 124 NONAME ; class QScriptClassPropertyIteratorPrivate * QScriptClassPropertyIterator::d_func(void)
	?d_func@QScriptClassPropertyIterator@@ABEPBVQScriptClassPropertyIteratorPrivate@@XZ @ 125 NONAME ; class QScriptClassPropertyIteratorPrivate const * QScriptClassPropertyIterator::d_func(void) const
	?d_func@QScriptContext@@AAEPAVQScriptContextPrivate@@XZ @ 126 NONAME ; class QScriptContextPrivate * QScriptContext::d_func(void)
	?d_func@QScriptContext@@ABEPBVQScriptContextPrivate@@XZ @ 127 NONAME ; class QScriptContextPrivate const * QScriptContext::d_func(void) const
	?d_func@QScriptContextInfo@@AAEPAVQScriptContextInfoPrivate@@XZ @ 128 NONAME ; class QScriptContextInfoPrivate * QScriptContextInfo::d_func(void)
	?d_func@QScriptContextInfo@@ABEPBVQScriptContextInfoPrivate@@XZ @ 129 NONAME ; class QScriptContextInfoPrivate const * QScriptContextInfo::d_func(void) const
	?d_func@QScriptEngine@@AAEPAVQScriptEnginePrivate@@XZ @ 130 NONAME ; class QScriptEnginePrivate * QScriptEngine::d_func(void)
	?d_func@QScriptEngine@@ABEPBVQScriptEnginePrivate@@XZ @ 131 NONAME ; class QScriptEnginePrivate const * QScriptEngine::d_func(void) const
	?d_func@QScriptEngineAgent@@AAEPAVQScriptEngineAgentPrivate@@XZ @ 132 NONAME ; class QScriptEngineAgentPrivate * QScriptEngineAgent::d_func(void)
	?d_func@QScriptEngineAgent@@ABEPBVQScriptEngineAgentPrivate@@XZ @ 133 NONAME ; class QScriptEngineAgentPrivate const * QScriptEngineAgent::d_func(void) const
	?d_func@QScriptProgram@@AAEPAVQScriptProgramPrivate@@XZ @ 134 NONAME ; class QScriptProgramPrivate * QScriptProgram::d_func(void)
	?d_func@QScriptProgram@@ABEPBVQScriptProgramPrivate@@XZ @ 135 NONAME ; class QScriptProgramPrivate const * QScriptProgram::d_func(void) const
	?d_func@QScriptString@@AAEPAVQScriptStringPrivate@@XZ @ 136 NONAME ; class QScriptStringPrivate * QScriptString::d_func(void)
	?d_func@QScriptString@@ABEPBVQScriptStringPrivate@@XZ @ 137 NONAME ; class QScriptStringPrivate const * QScriptString::d_func(void) const
	?d_func@QScriptSyntaxCheckResult@@AAEPAVQScriptSyntaxCheckResultPrivate@@XZ @ 138 NONAME ; class QScriptSyntaxCheckResultPrivate * QScriptSyntaxCheckResult::d_func(void)
	?d_func@QScriptSyntaxCheckResult@@ABEPBVQScriptSyntaxCheckResultPrivate@@XZ @ 139 NONAME ; class QScriptSyntaxCheckResultPrivate const * QScriptSyntaxCheckResult::d_func(void) const
	?d_func@QScriptValue@@AAEPAVQScriptValuePrivate@@XZ @ 140 NONAME ; class QScriptValuePrivate * QScriptValue::d_func(void)
	?d_func@QScriptValue@@ABEPBVQScriptValuePrivate@@XZ @ 141 NONAME ; class QScriptValuePrivate const * QScriptValue::d_func(void) const
	?d_func@QScriptValueIterator@@AAEPAVQScriptValueIteratorPrivate@@XZ @ 142 NONAME ; class QScriptValueIteratorPrivate * QScriptValueIterator::d_func(void)
	?d_func@QScriptValueIterator@@ABEPBVQScriptValueIteratorPrivate@@XZ @ 143 NONAME ; class QScriptValueIteratorPrivate const * QScriptValueIterator::d_func(void) const
	?d_func@QScriptable@@AAEPAVQScriptablePrivate@@XZ @ 144 NONAME ; class QScriptablePrivate * QScriptable::d_func(void)
	?d_func@QScriptable@@ABEPBVQScriptablePrivate@@XZ @ 145 NONAME ; class QScriptablePrivate const * QScriptable::d_func(void) const
	?data@QScriptValue@@QBE?AV1@XZ @ 146 NONAME ; class QScriptValue QScriptValue::data(void) const
	?defaultPrototype@QScriptEngine@@QBE?AVQScriptValue@@H@Z @ 147 NONAME ; class QScriptValue QScriptEngine::defaultPrototype(int) const
	?detach@QScriptEngineAgentPrivate@@QAEXXZ @ 148 NONAME ; void QScriptEngineAgentPrivate::detach(void)
	?didExecuteProgram@QScriptEngineAgentPrivate@@UAEXABVDebuggerCallFrame@QTJSC@@HH@Z @ 149 NONAME ; void QScriptEngineAgentPrivate::didExecuteProgram(class QTJSC::DebuggerCallFrame const &, int, int)
	?didReachBreakpoint@QScriptEngineAgentPrivate@@UAEXABVDebuggerCallFrame@QTJSC@@HHH@Z @ 150 NONAME ABSENT ; void QScriptEngineAgentPrivate::didReachBreakpoint(class QTJSC::DebuggerCallFrame const &, int, int, int)
	?engine@QScriptClass@@QBEPAVQScriptEngine@@XZ @ 151 NONAME ; class QScriptEngine * QScriptClass::engine(void) const
	?engine@QScriptContext@@QBEPAVQScriptEngine@@XZ @ 152 NONAME ; class QScriptEngine * QScriptContext::engine(void) const
	?engine@QScriptDeclarativeClass@@QBEPAVQScriptEngine@@XZ @ 153 NONAME ; class QScriptEngine * QScriptDeclarativeClass::engine(void) const
	?engine@QScriptEngineAgent@@QBEPAVQScriptEngine@@XZ @ 154 NONAME ; class QScriptEngine * QScriptEngineAgent::engine(void) const
	?engine@QScriptValue@@QBEPAVQScriptEngine@@XZ @ 155 NONAME ; class QScriptEngine * QScriptValue::engine(void) const
	?engine@QScriptable@@QBEPAVQScriptEngine@@XZ @ 156 NONAME ; class QScriptEngine * QScriptable::engine(void) const
	?equals@QScriptValue@@QBE_NABV1@@Z @ 157 NONAME ; bool QScriptValue::equals(class QScriptValue const &) const
	?errorColumnNumber@QScriptSyntaxCheckResult@@QBEHXZ @ 158 NONAME ; int QScriptSyntaxCheckResult::errorColumnNumber(void) const
	?errorLineNumber@QScriptSyntaxCheckResult@@QBEHXZ @ 159 NONAME ; int QScriptSyntaxCheckResult::errorLineNumber(void) const
	?errorMessage@QScriptSyntaxCheckResult@@QBE?AVQString@@XZ @ 160 NONAME ; class QString QScriptSyntaxCheckResult::errorMessage(void) const
	?evaluate@QScriptEngine@@QAE?AVQScriptValue@@ABVQScriptProgram@@@Z @ 161 NONAME ; class QScriptValue QScriptEngine::evaluate(class QScriptProgram const &)
	?evaluate@QScriptEngine@@QAE?AVQScriptValue@@ABVQString@@0H@Z @ 162 NONAME ; class QScriptValue QScriptEngine::evaluate(class QString const &, class QString const &, int)
	?evaluateStart@QScriptEngineAgentPrivate@@UAEXH@Z @ 163 NONAME ; void QScriptEngineAgentPrivate::evaluateStart(int)
	?evaluateStop@QScriptEngineAgentPrivate@@UAEXABVJSValue@QTJSC@@H@Z @ 164 NONAME ; void QScriptEngineAgentPrivate::evaluateStop(class QTJSC::JSValue const &, int)
	?exception@QScriptEngineAgentPrivate@@UAEXABVDebuggerCallFrame@QTJSC@@HH@Z @ 165 NONAME ABSENT ; void QScriptEngineAgentPrivate::exception(class QTJSC::DebuggerCallFrame const &, int, int)
	?exceptionCatch@QScriptEngineAgent@@UAEX_JABVQScriptValue@@@Z @ 166 NONAME ; void QScriptEngineAgent::exceptionCatch(long long, class QScriptValue const &)
	?exceptionCatch@QScriptEngineAgentPrivate@@UAEXABVDebuggerCallFrame@QTJSC@@H@Z @ 167 NONAME ; void QScriptEngineAgentPrivate::exceptionCatch(class QTJSC::DebuggerCallFrame const &, int)
	?exceptionThrow@QScriptEngineAgent@@UAEX_JABVQScriptValue@@_N@Z @ 168 NONAME ; void QScriptEngineAgent::exceptionThrow(long long, class QScriptValue const &, bool)
	?exceptionThrow@QScriptEngineAgentPrivate@@UAEXABVDebuggerCallFrame@QTJSC@@H_N@Z @ 169 NONAME ; void QScriptEngineAgentPrivate::exceptionThrow(class QTJSC::DebuggerCallFrame const &, int, bool)
	?extension@QScriptClass@@UAE?AVQVariant@@W4Extension@1@ABV2@@Z @ 170 NONAME ; class QVariant QScriptClass::extension(enum QScriptClass::Extension, class QVariant const &)
	?extension@QScriptEngineAgent@@UAE?AVQVariant@@W4Extension@1@ABV2@@Z @ 171 NONAME ; class QVariant QScriptEngineAgent::extension(enum QScriptEngineAgent::Extension, class QVariant const &)
	?fileName@QScriptContextInfo@@QBE?AVQString@@XZ @ 172 NONAME ; class QString QScriptContextInfo::fileName(void) const
	?fileName@QScriptProgram@@QBE?AVQString@@XZ @ 173 NONAME ; class QString QScriptProgram::fileName(void) const
	?firstLineNumber@QScriptProgram@@QBEHXZ @ 174 NONAME ; int QScriptProgram::firstLineNumber(void) const
	?flags@QScriptClassPropertyIterator@@UBE?AV?$QFlags@W4PropertyFlag@QScriptValue@@@@XZ @ 175 NONAME ; class QFlags<enum QScriptValue::PropertyFlag> QScriptClassPropertyIterator::flags(void) const
	?flags@QScriptValueIterator@@QBE?AV?$QFlags@W4PropertyFlag@QScriptValue@@@@XZ @ 176 NONAME ; class QFlags<enum QScriptValue::PropertyFlag> QScriptValueIterator::flags(void) const
	?function@QScriptDeclarativeClass@@SA?AVQScriptValue@@ABV2@ABQAX@Z @ 177 NONAME ; class QScriptValue QScriptDeclarativeClass::function(class QScriptValue const &, void * const const &)
	?functionEndLineNumber@QScriptContextInfo@@QBEHXZ @ 178 NONAME ; int QScriptContextInfo::functionEndLineNumber(void) const
	?functionEntry@QScriptEngineAgent@@UAEX_J@Z @ 179 NONAME ; void QScriptEngineAgent::functionEntry(long long)
	?functionExit@QScriptEngineAgent@@UAEX_JABVQScriptValue@@@Z @ 180 NONAME ; void QScriptEngineAgent::functionExit(long long, class QScriptValue const &)
	?functionExit@QScriptEngineAgentPrivate@@UAEXABVJSValue@QTJSC@@H@Z @ 181 NONAME ; void QScriptEngineAgentPrivate::functionExit(class QTJSC::JSValue const &, int)
	?functionMetaIndex@QScriptContextInfo@@QBEHXZ @ 182 NONAME ; int QScriptContextInfo::functionMetaIndex(void) const
	?functionName@QScriptContextInfo@@QBE?AVQString@@XZ @ 183 NONAME ; class QString QScriptContextInfo::functionName(void) const
	?functionParameterNames@QScriptContextInfo@@QBE?AVQStringList@@XZ @ 184 NONAME ; class QStringList QScriptContextInfo::functionParameterNames(void) const
	?functionStartLineNumber@QScriptContextInfo@@QBEHXZ @ 185 NONAME ; int QScriptContextInfo::functionStartLineNumber(void) const
	?functionType@QScriptContextInfo@@QBE?AW4FunctionType@1@XZ @ 186 NONAME ; enum QScriptContextInfo::FunctionType QScriptContextInfo::functionType(void) const
	?get@QScriptEngineAgentPrivate@@SAPAV1@PAVQScriptEngineAgent@@@Z @ 187 NONAME ; class QScriptEngineAgentPrivate * QScriptEngineAgentPrivate::get(class QScriptEngineAgent *)
	?get@QScriptEngineAgentPrivate@@SAPAVQScriptEngineAgent@@PAV1@@Z @ 188 NONAME ; class QScriptEngineAgent * QScriptEngineAgentPrivate::get(class QScriptEngineAgentPrivate *)
	?getStaticMetaObject@QScriptEngine@@SAABUQMetaObject@@XZ @ 189 NONAME ; struct QMetaObject const & QScriptEngine::getStaticMetaObject(void)
	?getStaticMetaObject@QScriptExtensionPlugin@@SAABUQMetaObject@@XZ @ 190 NONAME ; struct QMetaObject const & QScriptExtensionPlugin::getStaticMetaObject(void)
	?globalObject@QScriptEngine@@QBE?AVQScriptValue@@XZ @ 191 NONAME ; class QScriptValue QScriptEngine::globalObject(void) const
	?hasNext@QScriptValueIterator@@QBE_NXZ @ 192 NONAME ; bool QScriptValueIterator::hasNext(void) const
	?hasPrevious@QScriptValueIterator@@QBE_NXZ @ 193 NONAME ; bool QScriptValueIterator::hasPrevious(void) const
	?hasUncaughtException@QScriptEngine@@QBE_NXZ @ 194 NONAME ; bool QScriptEngine::hasUncaughtException(void) const
	?id@QScriptClassPropertyIterator@@UBEIXZ @ 195 NONAME ; unsigned int QScriptClassPropertyIterator::id(void) const
	?importExtension@QScriptEngine@@QAE?AVQScriptValue@@ABVQString@@@Z @ 196 NONAME ; class QScriptValue QScriptEngine::importExtension(class QString const &)
	?importedExtensions@QScriptEngine@@QBE?AVQStringList@@XZ @ 197 NONAME ; class QStringList QScriptEngine::importedExtensions(void) const
	?installTranslatorFunctions@QScriptEngine@@QAEXABVQScriptValue@@@Z @ 198 NONAME ; void QScriptEngine::installTranslatorFunctions(class QScriptValue const &)
	?instanceOf@QScriptValue@@QBE_NABV1@@Z @ 199 NONAME ; bool QScriptValue::instanceOf(class QScriptValue const &) const
	?isArray@QScriptValue@@QBE_NXZ @ 200 NONAME ; bool QScriptValue::isArray(void) const
	?isBool@QScriptValue@@QBE_NXZ @ 201 NONAME ; bool QScriptValue::isBool(void) const
	?isBoolean@QScriptValue@@QBE_NXZ @ 202 NONAME ; bool QScriptValue::isBoolean(void) const
	?isCalledAsConstructor@QScriptContext@@QBE_NXZ @ 203 NONAME ; bool QScriptContext::isCalledAsConstructor(void) const
	?isDate@QScriptValue@@QBE_NXZ @ 204 NONAME ; bool QScriptValue::isDate(void) const
	?isError@QScriptValue@@QBE_NXZ @ 205 NONAME ; bool QScriptValue::isError(void) const
	?isEvaluating@QScriptEngine@@QBE_NXZ @ 206 NONAME ; bool QScriptEngine::isEvaluating(void) const
	?isFunction@QScriptValue@@QBE_NXZ @ 207 NONAME ; bool QScriptValue::isFunction(void) const
	?isNull@QScriptContextInfo@@QBE_NXZ @ 208 NONAME ; bool QScriptContextInfo::isNull(void) const
	?isNull@QScriptProgram@@QBE_NXZ @ 209 NONAME ; bool QScriptProgram::isNull(void) const
	?isNull@QScriptValue@@QBE_NXZ @ 210 NONAME ; bool QScriptValue::isNull(void) const
	?isNumber@QScriptValue@@QBE_NXZ @ 211 NONAME ; bool QScriptValue::isNumber(void) const
	?isObject@QScriptValue@@QBE_NXZ @ 212 NONAME ; bool QScriptValue::isObject(void) const
	?isQMetaObject@QScriptValue@@QBE_NXZ @ 213 NONAME ; bool QScriptValue::isQMetaObject(void) const
	?isQObject@QScriptValue@@QBE_NXZ @ 214 NONAME ; bool QScriptValue::isQObject(void) const
	?isRegExp@QScriptValue@@QBE_NXZ @ 215 NONAME ; bool QScriptValue::isRegExp(void) const
	?isString@QScriptValue@@QBE_NXZ @ 216 NONAME ; bool QScriptValue::isString(void) const
	?isUndefined@QScriptValue@@QBE_NXZ @ 217 NONAME ; bool QScriptValue::isUndefined(void) const
	?isValid@QScriptString@@QBE_NXZ @ 218 NONAME ; bool QScriptString::isValid(void) const
	?isValid@QScriptValue@@QBE_NXZ @ 219 NONAME ; bool QScriptValue::isValid(void) const
	?isVariant@QScriptValue@@QBE_NXZ @ 220 NONAME ; bool QScriptValue::isVariant(void) const
	?lessThan@QScriptValue@@QBE_NABV1@@Z @ 221 NONAME ; bool QScriptValue::lessThan(class QScriptValue const &) const
	?lineNumber@QScriptContextInfo@@QBEHXZ @ 222 NONAME ; int QScriptContextInfo::lineNumber(void) const
	?metaObject@QScriptEngine@@UBEPBUQMetaObject@@XZ @ 223 NONAME ; struct QMetaObject const * QScriptEngine::metaObject(void) const
	?metaObject@QScriptExtensionPlugin@@UBEPBUQMetaObject@@XZ @ 224 NONAME ; struct QMetaObject const * QScriptExtensionPlugin::metaObject(void) const
	?name@QScriptClass@@UBE?AVQString@@XZ @ 225 NONAME ; class QString QScriptClass::name(void) const
	?name@QScriptValueIterator@@QBE?AVQString@@XZ @ 226 NONAME ; class QString QScriptValueIterator::name(void) const
	?newActivationObject@QScriptEngine@@QAE?AVQScriptValue@@XZ @ 227 NONAME ; class QScriptValue QScriptEngine::newActivationObject(void)
	?newArray@QScriptEngine@@QAE?AVQScriptValue@@I@Z @ 228 NONAME ; class QScriptValue QScriptEngine::newArray(unsigned int)
	?newDate@QScriptEngine@@QAE?AVQScriptValue@@ABVQDateTime@@@Z @ 229 NONAME ; class QScriptValue QScriptEngine::newDate(class QDateTime const &)
	?newDate@QScriptEngine@@QAE?AVQScriptValue@@N@Z @ 230 NONAME ; class QScriptValue QScriptEngine::newDate(double)
	?newFunction@QScriptEngine@@QAE?AVQScriptValue@@P6A?AV2@PAVQScriptContext@@PAV1@@ZABV2@H@Z @ 231 NONAME ; class QScriptValue QScriptEngine::newFunction(class QScriptValue (*)(class QScriptContext *, class QScriptEngine *), class QScriptValue const &, int)
	?newFunction@QScriptEngine@@QAE?AVQScriptValue@@P6A?AV2@PAVQScriptContext@@PAV1@@ZH@Z @ 232 NONAME ; class QScriptValue QScriptEngine::newFunction(class QScriptValue (*)(class QScriptContext *, class QScriptEngine *), int)
	?newFunction@QScriptEngine@@QAE?AVQScriptValue@@P6A?AV2@PAVQScriptContext@@PAV1@PAX@Z2@Z @ 233 NONAME ; class QScriptValue QScriptEngine::newFunction(class QScriptValue (*)(class QScriptContext *, class QScriptEngine *, void *), void *)
	?newIterator@QScriptClass@@UAEPAVQScriptClassPropertyIterator@@ABVQScriptValue@@@Z @ 234 NONAME ; class QScriptClassPropertyIterator * QScriptClass::newIterator(class QScriptValue const &)
	?newObject@QScriptDeclarativeClass@@SA?AVQScriptValue@@PAVQScriptEngine@@PAV1@PAUObject@1@@Z @ 235 NONAME ; class QScriptValue QScriptDeclarativeClass::newObject(class QScriptEngine *, class QScriptDeclarativeClass *, struct QScriptDeclarativeClass::Object *)
	?newObject@QScriptEngine@@QAE?AVQScriptValue@@PAVQScriptClass@@ABV2@@Z @ 236 NONAME ; class QScriptValue QScriptEngine::newObject(class QScriptClass *, class QScriptValue const &)
	?newObject@QScriptEngine@@QAE?AVQScriptValue@@XZ @ 237 NONAME ; class QScriptValue QScriptEngine::newObject(void)
	?newQMetaObject@QScriptEngine@@QAE?AVQScriptValue@@PBUQMetaObject@@ABV2@@Z @ 238 NONAME ; class QScriptValue QScriptEngine::newQMetaObject(struct QMetaObject const *, class QScriptValue const &)
	?newQObject@QScriptEngine@@QAE?AVQScriptValue@@ABV2@PAVQObject@@W4ValueOwnership@1@ABV?$QFlags@W4QObjectWrapOption@QScriptEngine@@@@@Z @ 239 NONAME ; class QScriptValue QScriptEngine::newQObject(class QScriptValue const &, class QObject *, enum QScriptEngine::ValueOwnership, class QFlags<enum QScriptEngine::QObjectWrapOption> const &)
	?newQObject@QScriptEngine@@QAE?AVQScriptValue@@PAVQObject@@W4ValueOwnership@1@ABV?$QFlags@W4QObjectWrapOption@QScriptEngine@@@@@Z @ 240 NONAME ; class QScriptValue QScriptEngine::newQObject(class QObject *, enum QScriptEngine::ValueOwnership, class QFlags<enum QScriptEngine::QObjectWrapOption> const &)
	?newRegExp@QScriptEngine@@QAE?AVQScriptValue@@ABVQRegExp@@@Z @ 241 NONAME ; class QScriptValue QScriptEngine::newRegExp(class QRegExp const &)
	?newRegExp@QScriptEngine@@QAE?AVQScriptValue@@ABVQString@@0@Z @ 242 NONAME ; class QScriptValue QScriptEngine::newRegExp(class QString const &, class QString const &)
	?newVariant@QScriptEngine@@QAE?AVQScriptValue@@ABV2@ABVQVariant@@@Z @ 243 NONAME ; class QScriptValue QScriptEngine::newVariant(class QScriptValue const &, class QVariant const &)
	?newVariant@QScriptEngine@@QAE?AVQScriptValue@@ABVQVariant@@@Z @ 244 NONAME ; class QScriptValue QScriptEngine::newVariant(class QVariant const &)
	?next@QScriptValueIterator@@QAEXXZ @ 245 NONAME ; void QScriptValueIterator::next(void)
	?nullValue@QScriptEngine@@QAE?AVQScriptValue@@XZ @ 246 NONAME ; class QScriptValue QScriptEngine::nullValue(void)
	?object@QScriptClassPropertyIterator@@QBE?AVQScriptValue@@XZ @ 247 NONAME ; class QScriptValue QScriptClassPropertyIterator::object(void) const
	?object@QScriptDeclarativeClass@@SAPAUObject@1@ABVQScriptValue@@@Z @ 248 NONAME ; struct QScriptDeclarativeClass::Object * QScriptDeclarativeClass::object(class QScriptValue const &)
	?objectById@QScriptEngine@@QBE?AVQScriptValue@@_J@Z @ 249 NONAME ; class QScriptValue QScriptEngine::objectById(long long) const
	?objectId@QScriptValue@@QBE_JXZ @ 250 NONAME ; long long QScriptValue::objectId(void) const
	?parentContext@QScriptContext@@QBEPAV1@XZ @ 251 NONAME ; class QScriptContext * QScriptContext::parentContext(void) const
	?popContext@QScriptEngine@@QAEXXZ @ 252 NONAME ; void QScriptEngine::popContext(void)
	?popScope@QScriptContext@@QAE?AVQScriptValue@@XZ @ 253 NONAME ; class QScriptValue QScriptContext::popScope(void)
	?positionChange@QScriptEngineAgent@@UAEX_JHH@Z @ 254 NONAME ; void QScriptEngineAgent::positionChange(long long, int, int)
	?previous@QScriptValueIterator@@QAEXXZ @ 255 NONAME ; void QScriptValueIterator::previous(void)
	?processEventsInterval@QScriptEngine@@QBEHXZ @ 256 NONAME ; int QScriptEngine::processEventsInterval(void) const
	?property@QScriptClass@@UAE?AVQScriptValue@@ABV2@ABVQScriptString@@I@Z @ 257 NONAME ; class QScriptValue QScriptClass::property(class QScriptValue const &, class QScriptString const &, unsigned int)
	?property@QScriptDeclarativeClass@@SA?AVQScriptValue@@ABV2@ABQAX@Z @ 258 NONAME ; class QScriptValue QScriptDeclarativeClass::property(class QScriptValue const &, void * const const &)
	?property@QScriptDeclarativeClass@@UAE?AVQScriptValue@@PAUObject@1@ABQAX@Z @ 259 NONAME ABSENT ; class QScriptValue QScriptDeclarativeClass::property(struct QScriptDeclarativeClass::Object *, void * const const &)
	?property@QScriptValue@@QBE?AV1@ABVQScriptString@@ABV?$QFlags@W4ResolveFlag@QScriptValue@@@@@Z @ 260 NONAME ; class QScriptValue QScriptValue::property(class QScriptString const &, class QFlags<enum QScriptValue::ResolveFlag> const &) const
	?property@QScriptValue@@QBE?AV1@ABVQString@@ABV?$QFlags@W4ResolveFlag@QScriptValue@@@@@Z @ 261 NONAME ; class QScriptValue QScriptValue::property(class QString const &, class QFlags<enum QScriptValue::ResolveFlag> const &) const
	?property@QScriptValue@@QBE?AV1@IABV?$QFlags@W4ResolveFlag@QScriptValue@@@@@Z @ 262 NONAME ; class QScriptValue QScriptValue::property(unsigned int, class QFlags<enum QScriptValue::ResolveFlag> const &) const
	?propertyFlags@QScriptClass@@UAE?AV?$QFlags@W4PropertyFlag@QScriptValue@@@@ABVQScriptValue@@ABVQScriptString@@I@Z @ 263 NONAME ; class QFlags<enum QScriptValue::PropertyFlag> QScriptClass::propertyFlags(class QScriptValue const &, class QScriptString const &, unsigned int)
	?propertyFlags@QScriptDeclarativeClass@@UAE?AV?$QFlags@W4PropertyFlag@QScriptValue@@@@PAUObject@1@ABQAX@Z @ 264 NONAME ; class QFlags<enum QScriptValue::PropertyFlag> QScriptDeclarativeClass::propertyFlags(struct QScriptDeclarativeClass::Object *, void * const const &)
	?propertyFlags@QScriptValue@@QBE?AV?$QFlags@W4PropertyFlag@QScriptValue@@@@ABVQScriptString@@ABV?$QFlags@W4ResolveFlag@QScriptValue@@@@@Z @ 265 NONAME ; class QFlags<enum QScriptValue::PropertyFlag> QScriptValue::propertyFlags(class QScriptString const &, class QFlags<enum QScriptValue::ResolveFlag> const &) const
	?propertyFlags@QScriptValue@@QBE?AV?$QFlags@W4PropertyFlag@QScriptValue@@@@ABVQString@@ABV?$QFlags@W4ResolveFlag@QScriptValue@@@@@Z @ 266 NONAME ; class QFlags<enum QScriptValue::PropertyFlag> QScriptValue::propertyFlags(class QString const &, class QFlags<enum QScriptValue::ResolveFlag> const &) const
	?propertyNames@QScriptDeclarativeClass@@UAE?AVQStringList@@PAUObject@1@@Z @ 267 NONAME ; class QStringList QScriptDeclarativeClass::propertyNames(struct QScriptDeclarativeClass::Object *)
	?prototype@QScriptClass@@UBE?AVQScriptValue@@XZ @ 268 NONAME ; class QScriptValue QScriptClass::prototype(void) const
	?prototype@QScriptValue@@QBE?AV1@XZ @ 269 NONAME ; class QScriptValue QScriptValue::prototype(void) const
	?pushCleanContext@QScriptDeclarativeClass@@SAPAVQScriptContext@@PAVQScriptEngine@@@Z @ 270 NONAME ; class QScriptContext * QScriptDeclarativeClass::pushCleanContext(class QScriptEngine *)
	?pushContext@QScriptEngine@@QAEPAVQScriptContext@@XZ @ 271 NONAME ; class QScriptContext * QScriptEngine::pushContext(void)
	?pushScope@QScriptContext@@QAEXABVQScriptValue@@@Z @ 272 NONAME ; void QScriptContext::pushScope(class QScriptValue const &)
	?qHash@@YAIABVQScriptString@@@Z @ 273 NONAME ; unsigned int qHash(class QScriptString const &)
	?qScriptConnect@@YA_NPAVQObject@@PBDABVQScriptValue@@2@Z @ 274 NONAME ; bool qScriptConnect(class QObject *, char const *, class QScriptValue const &, class QScriptValue const &)
	?qScriptDisconnect@@YA_NPAVQObject@@PBDABVQScriptValue@@2@Z @ 275 NONAME ; bool qScriptDisconnect(class QObject *, char const *, class QScriptValue const &, class QScriptValue const &)
	?q_func@QScriptEngineAgentPrivate@@AAEPAVQScriptEngineAgent@@XZ @ 276 NONAME ; class QScriptEngineAgent * QScriptEngineAgentPrivate::q_func(void)
	?q_func@QScriptEngineAgentPrivate@@ABEPBVQScriptEngineAgent@@XZ @ 277 NONAME ; class QScriptEngineAgent const * QScriptEngineAgentPrivate::q_func(void) const
	?qt_metacall@QScriptEngine@@UAEHW4Call@QMetaObject@@HPAPAX@Z @ 278 NONAME ; int QScriptEngine::qt_metacall(enum QMetaObject::Call, int, void * *)
	?qt_metacall@QScriptExtensionPlugin@@UAEHW4Call@QMetaObject@@HPAPAX@Z @ 279 NONAME ; int QScriptExtensionPlugin::qt_metacall(enum QMetaObject::Call, int, void * *)
	?qt_metacast@QScriptEngine@@UAEPAXPBD@Z @ 280 NONAME ; void * QScriptEngine::qt_metacast(char const *)
	?qt_metacast@QScriptExtensionPlugin@@UAEPAXPBD@Z @ 281 NONAME ; void * QScriptExtensionPlugin::qt_metacast(char const *)
	?queryProperty@QScriptClass@@UAE?AV?$QFlags@W4QueryFlag@QScriptClass@@@@ABVQScriptValue@@ABVQScriptString@@V2@PAI@Z @ 282 NONAME ; class QFlags<enum QScriptClass::QueryFlag> QScriptClass::queryProperty(class QScriptValue const &, class QScriptString const &, class QFlags<enum QScriptClass::QueryFlag>, unsigned int *)
	?queryProperty@QScriptDeclarativeClass@@UAE?AV?$QFlags@W4QueryFlag@QScriptClass@@@@PAUObject@1@ABQAXV2@@Z @ 283 NONAME ; class QFlags<enum QScriptClass::QueryFlag> QScriptDeclarativeClass::queryProperty(struct QScriptDeclarativeClass::Object *, void * const const &, class QFlags<enum QScriptClass::QueryFlag>)
	?registerCustomType@QScriptEngine@@AAEXHP6A?AVQScriptValue@@PAV1@PBX@ZP6AXABV2@PAX@Z3@Z @ 284 NONAME ; void QScriptEngine::registerCustomType(int, class QScriptValue (*)(class QScriptEngine *, void const *), void (*)(class QScriptValue const &, void *), class QScriptValue const &)
	?remove@QScriptValueIterator@@QAEXXZ @ 285 NONAME ; void QScriptValueIterator::remove(void)
	?returnEvent@QScriptEngineAgentPrivate@@UAEXABVDebuggerCallFrame@QTJSC@@HH@Z @ 286 NONAME ; void QScriptEngineAgentPrivate::returnEvent(class QTJSC::DebuggerCallFrame const &, int, int)
	?returnValue@QScriptContext@@QBE?AVQScriptValue@@XZ @ 287 NONAME ; class QScriptValue QScriptContext::returnValue(void) const
	?scope@QScriptValue@@QBE?AV1@XZ @ 288 NONAME ; class QScriptValue QScriptValue::scope(void) const
	?scopeChain@QScriptContext@@QBE?AV?$QList@VQScriptValue@@@@XZ @ 289 NONAME ; class QList<class QScriptValue> QScriptContext::scopeChain(void) const
	?scopeChainValue@QScriptDeclarativeClass@@SA?AVQScriptValue@@PAVQScriptContext@@H@Z @ 290 NONAME ; class QScriptValue QScriptDeclarativeClass::scopeChainValue(class QScriptContext *, int)
	?scriptClass@QScriptDeclarativeClass@@SAPAV1@ABVQScriptValue@@@Z @ 291 NONAME ; class QScriptDeclarativeClass * QScriptDeclarativeClass::scriptClass(class QScriptValue const &)
	?scriptClass@QScriptValue@@QBEPAVQScriptClass@@XZ @ 292 NONAME ; class QScriptClass * QScriptValue::scriptClass(void) const
	?scriptId@QScriptContextInfo@@QBE_JXZ @ 293 NONAME ; long long QScriptContextInfo::scriptId(void) const
	?scriptLoad@QScriptEngineAgent@@UAEX_JABVQString@@1H@Z @ 294 NONAME ; void QScriptEngineAgent::scriptLoad(long long, class QString const &, class QString const &, int)
	?scriptLoad@QScriptEngineAgentPrivate@@UAEX_JABVUString@QTJSC@@1H@Z @ 295 NONAME ; void QScriptEngineAgentPrivate::scriptLoad(long long, class QTJSC::UString const &, class QTJSC::UString const &, int)
	?scriptName@QScriptValueIterator@@QBE?AVQScriptString@@XZ @ 296 NONAME ; class QScriptString QScriptValueIterator::scriptName(void) const
	?scriptUnload@QScriptEngineAgent@@UAEX_J@Z @ 297 NONAME ; void QScriptEngineAgent::scriptUnload(long long)
	?scriptUnload@QScriptEngineAgentPrivate@@UAEX_J@Z @ 298 NONAME ; void QScriptEngineAgentPrivate::scriptUnload(long long)
	?setActivationObject@QScriptContext@@QAEXABVQScriptValue@@@Z @ 299 NONAME ; void QScriptContext::setActivationObject(class QScriptValue const &)
	?setAgent@QScriptEngine@@QAEXPAVQScriptEngineAgent@@@Z @ 300 NONAME ; void QScriptEngine::setAgent(class QScriptEngineAgent *)
	?setData@QScriptValue@@QAEXABV1@@Z @ 301 NONAME ; void QScriptValue::setData(class QScriptValue const &)
	?setDefaultPrototype@QScriptEngine@@QAEXHABVQScriptValue@@@Z @ 302 NONAME ; void QScriptEngine::setDefaultPrototype(int, class QScriptValue const &)
	?setGlobalObject@QScriptEngine@@QAEXABVQScriptValue@@@Z @ 303 NONAME ; void QScriptEngine::setGlobalObject(class QScriptValue const &)
	?setProcessEventsInterval@QScriptEngine@@QAEXH@Z @ 304 NONAME ; void QScriptEngine::setProcessEventsInterval(int)
	?setProperty@QScriptClass@@UAEXAAVQScriptValue@@ABVQScriptString@@IABV2@@Z @ 305 NONAME ; void QScriptClass::setProperty(class QScriptValue &, class QScriptString const &, unsigned int, class QScriptValue const &)
	?setProperty@QScriptDeclarativeClass@@UAEXPAUObject@1@ABQAXABVQScriptValue@@@Z @ 306 NONAME ; void QScriptDeclarativeClass::setProperty(struct QScriptDeclarativeClass::Object *, void * const const &, class QScriptValue const &)
	?setProperty@QScriptValue@@QAEXABVQScriptString@@ABV1@ABV?$QFlags@W4PropertyFlag@QScriptValue@@@@@Z @ 307 NONAME ; void QScriptValue::setProperty(class QScriptString const &, class QScriptValue const &, class QFlags<enum QScriptValue::PropertyFlag> const &)
	?setProperty@QScriptValue@@QAEXABVQString@@ABV1@ABV?$QFlags@W4PropertyFlag@QScriptValue@@@@@Z @ 308 NONAME ; void QScriptValue::setProperty(class QString const &, class QScriptValue const &, class QFlags<enum QScriptValue::PropertyFlag> const &)
	?setProperty@QScriptValue@@QAEXIABV1@ABV?$QFlags@W4PropertyFlag@QScriptValue@@@@@Z @ 309 NONAME ; void QScriptValue::setProperty(unsigned int, class QScriptValue const &, class QFlags<enum QScriptValue::PropertyFlag> const &)
	?setPrototype@QScriptValue@@QAEXABV1@@Z @ 310 NONAME ; void QScriptValue::setPrototype(class QScriptValue const &)
	?setReturnValue@QScriptContext@@QAEXABVQScriptValue@@@Z @ 311 NONAME ; void QScriptContext::setReturnValue(class QScriptValue const &)
	?setScope@QScriptValue@@QAEXABV1@@Z @ 312 NONAME ; void QScriptValue::setScope(class QScriptValue const &)
	?setScriptClass@QScriptValue@@QAEXPAVQScriptClass@@@Z @ 313 NONAME ; void QScriptValue::setScriptClass(class QScriptClass *)
	?setThisObject@QScriptContext@@QAEXABVQScriptValue@@@Z @ 314 NONAME ; void QScriptContext::setThisObject(class QScriptValue const &)
	?setValue@QScriptValueIterator@@QAEXABVQScriptValue@@@Z @ 315 NONAME ; void QScriptValueIterator::setValue(class QScriptValue const &)
	?setupPackage@QScriptExtensionPlugin@@QBE?AVQScriptValue@@ABVQString@@PAVQScriptEngine@@@Z @ 316 NONAME ; class QScriptValue QScriptExtensionPlugin::setupPackage(class QString const &, class QScriptEngine *) const
	?signalHandlerException@QScriptEngine@@IAEXABVQScriptValue@@@Z @ 317 NONAME ; void QScriptEngine::signalHandlerException(class QScriptValue const &)
	?sourceCode@QScriptProgram@@QBE?AVQString@@XZ @ 318 NONAME ; class QString QScriptProgram::sourceCode(void) const
	?sourceParsed@QScriptEngineAgentPrivate@@UAEXPAVExecState@QTJSC@@ABVSourceCode@3@HABVUString@3@@Z @ 319 NONAME ; void QScriptEngineAgentPrivate::sourceParsed(class QTJSC::ExecState *, class QTJSC::SourceCode const &, int, class QTJSC::UString const &)
	?state@QScriptContext@@QBE?AW4ExecutionState@1@XZ @ 320 NONAME ; enum QScriptContext::ExecutionState QScriptContext::state(void) const
	?state@QScriptSyntaxCheckResult@@QBE?AW4State@1@XZ @ 321 NONAME ; enum QScriptSyntaxCheckResult::State QScriptSyntaxCheckResult::state(void) const
	?strictlyEquals@QScriptValue@@QBE_NABV1@@Z @ 322 NONAME ; bool QScriptValue::strictlyEquals(class QScriptValue const &) const
	?supportsExtension@QScriptClass@@UBE_NW4Extension@1@@Z @ 323 NONAME ; bool QScriptClass::supportsExtension(enum QScriptClass::Extension) const
	?supportsExtension@QScriptEngineAgent@@UBE_NW4Extension@1@@Z @ 324 NONAME ; bool QScriptEngineAgent::supportsExtension(enum QScriptEngineAgent::Extension) const
	?thisObject@QScriptContext@@QBE?AVQScriptValue@@XZ @ 325 NONAME ; class QScriptValue QScriptContext::thisObject(void) const
	?thisObject@QScriptable@@QBE?AVQScriptValue@@XZ @ 326 NONAME ; class QScriptValue QScriptable::thisObject(void) const
	?throwError@QScriptContext@@QAE?AVQScriptValue@@ABVQString@@@Z @ 327 NONAME ; class QScriptValue QScriptContext::throwError(class QString const &)
	?throwError@QScriptContext@@QAE?AVQScriptValue@@W4Error@1@ABVQString@@@Z @ 328 NONAME ; class QScriptValue QScriptContext::throwError(enum QScriptContext::Error, class QString const &)
	?throwValue@QScriptContext@@QAE?AVQScriptValue@@ABV2@@Z @ 329 NONAME ; class QScriptValue QScriptContext::throwValue(class QScriptValue const &)
	?toArrayIndex@QScriptDeclarativeClass@@QAEIABQAXPA_N@Z @ 330 NONAME ; unsigned int QScriptDeclarativeClass::toArrayIndex(void * const const &, bool *)
	?toArrayIndex@QScriptString@@QBEIPA_N@Z @ 331 NONAME ; unsigned int QScriptString::toArrayIndex(bool *) const
	?toBack@QScriptValueIterator@@QAEXXZ @ 332 NONAME ; void QScriptValueIterator::toBack(void)
	?toBool@QScriptValue@@QBE_NXZ @ 333 NONAME ; bool QScriptValue::toBool(void) const
	?toBoolean@QScriptValue@@QBE_NXZ @ 334 NONAME ; bool QScriptValue::toBoolean(void) const
	?toDateTime@QScriptValue@@QBE?AVQDateTime@@XZ @ 335 NONAME ; class QDateTime QScriptValue::toDateTime(void) const
	?toFront@QScriptValueIterator@@QAEXXZ @ 336 NONAME ; void QScriptValueIterator::toFront(void)
	?toInt32@QScriptValue@@QBEHXZ @ 337 NONAME ; int QScriptValue::toInt32(void) const
	?toInteger@QScriptValue@@QBENXZ @ 338 NONAME ; double QScriptValue::toInteger(void) const
	?toNumber@QScriptValue@@QBENXZ @ 339 NONAME ; double QScriptValue::toNumber(void) const
	?toObject@QScriptEngine@@QAE?AVQScriptValue@@ABV2@@Z @ 340 NONAME ; class QScriptValue QScriptEngine::toObject(class QScriptValue const &)
	?toObject@QScriptValue@@QBE?AV1@XZ @ 341 NONAME ; class QScriptValue QScriptValue::toObject(void) const
	?toQMetaObject@QScriptValue@@QBEPBUQMetaObject@@XZ @ 342 NONAME ; struct QMetaObject const * QScriptValue::toQMetaObject(void) const
	?toQObject@QScriptDeclarativeClass@@UAEPAVQObject@@PAUObject@1@PA_N@Z @ 343 NONAME ; class QObject * QScriptDeclarativeClass::toQObject(struct QScriptDeclarativeClass::Object *, bool *)
	?toQObject@QScriptValue@@QBEPAVQObject@@XZ @ 344 NONAME ; class QObject * QScriptValue::toQObject(void) const
	?toRegExp@QScriptValue@@QBE?AVQRegExp@@XZ @ 345 NONAME ; class QRegExp QScriptValue::toRegExp(void) const
	?toString@QScriptContext@@QBE?AVQString@@XZ @ 346 NONAME ; class QString QScriptContext::toString(void) const
	?toString@QScriptDeclarativeClass@@QAE?AVQString@@ABQAX@Z @ 347 NONAME ; class QString QScriptDeclarativeClass::toString(void * const const &)
	?toString@QScriptString@@QBE?AVQString@@XZ @ 348 NONAME ; class QString QScriptString::toString(void) const
	?toString@QScriptValue@@QBE?AVQString@@XZ @ 349 NONAME ; class QString QScriptValue::toString(void) const
	?toStringHandle@QScriptEngine@@QAE?AVQScriptString@@ABVQString@@@Z @ 350 NONAME ; class QScriptString QScriptEngine::toStringHandle(class QString const &)
	?toUInt16@QScriptValue@@QBEGXZ @ 351 NONAME ; unsigned short QScriptValue::toUInt16(void) const
	?toUInt32@QScriptValue@@QBEIXZ @ 352 NONAME ; unsigned int QScriptValue::toUInt32(void) const
	?toVariant@QScriptDeclarativeClass@@UAE?AVQVariant@@PAUObject@1@PA_N@Z @ 353 NONAME ; class QVariant QScriptDeclarativeClass::toVariant(struct QScriptDeclarativeClass::Object *, bool *)
	?toVariant@QScriptValue@@QBE?AVQVariant@@XZ @ 354 NONAME ; class QVariant QScriptValue::toVariant(void) const
	?tr@QScriptEngine@@SA?AVQString@@PBD0@Z @ 355 NONAME ; class QString QScriptEngine::tr(char const *, char const *)
	?tr@QScriptEngine@@SA?AVQString@@PBD0H@Z @ 356 NONAME ; class QString QScriptEngine::tr(char const *, char const *, int)
	?tr@QScriptExtensionPlugin@@SA?AVQString@@PBD0@Z @ 357 NONAME ; class QString QScriptExtensionPlugin::tr(char const *, char const *)
	?tr@QScriptExtensionPlugin@@SA?AVQString@@PBD0H@Z @ 358 NONAME ; class QString QScriptExtensionPlugin::tr(char const *, char const *, int)
	?trUtf8@QScriptEngine@@SA?AVQString@@PBD0@Z @ 359 NONAME ; class QString QScriptEngine::trUtf8(char const *, char const *)
	?trUtf8@QScriptEngine@@SA?AVQString@@PBD0H@Z @ 360 NONAME ; class QString QScriptEngine::trUtf8(char const *, char const *, int)
	?trUtf8@QScriptExtensionPlugin@@SA?AVQString@@PBD0@Z @ 361 NONAME ; class QString QScriptExtensionPlugin::trUtf8(char const *, char const *)
	?trUtf8@QScriptExtensionPlugin@@SA?AVQString@@PBD0H@Z @ 362 NONAME ; class QString QScriptExtensionPlugin::trUtf8(char const *, char const *, int)
	?uncaughtException@QScriptEngine@@QBE?AVQScriptValue@@XZ @ 363 NONAME ; class QScriptValue QScriptEngine::uncaughtException(void) const
	?uncaughtExceptionBacktrace@QScriptEngine@@QBE?AVQStringList@@XZ @ 364 NONAME ; class QStringList QScriptEngine::uncaughtExceptionBacktrace(void) const
	?uncaughtExceptionLineNumber@QScriptEngine@@QBEHXZ @ 365 NONAME ; int QScriptEngine::uncaughtExceptionLineNumber(void) const
	?undefinedValue@QScriptEngine@@QAE?AVQScriptValue@@XZ @ 366 NONAME ; class QScriptValue QScriptEngine::undefinedValue(void)
	?value@QScriptValueIterator@@QBE?AVQScriptValue@@XZ @ 367 NONAME ; class QScriptValue QScriptValueIterator::value(void) const
	?willExecuteProgram@QScriptEngineAgentPrivate@@UAEXABVDebuggerCallFrame@QTJSC@@HH@Z @ 368 NONAME ; void QScriptEngineAgentPrivate::willExecuteProgram(class QTJSC::DebuggerCallFrame const &, int, int)
	?staticMetaObject@QScriptExtensionPlugin@@2UQMetaObject@@B @ 369 NONAME ; struct QMetaObject const QScriptExtensionPlugin::staticMetaObject
	?staticMetaObject@QScriptEngine@@2UQMetaObject@@B @ 370 NONAME ; struct QMetaObject const QScriptEngine::staticMetaObject
	?isQObject@QScriptDeclarativeClass@@UBE_NXZ @ 371 NONAME ; bool QScriptDeclarativeClass::isQObject(void) const
	?toScriptValue@Value@QScriptDeclarativeClass@@QBE?AVQScriptValue@@PAVQScriptEngine@@@Z @ 372 NONAME ; class QScriptValue QScriptDeclarativeClass::Value::toScriptValue(class QScriptEngine *) const
	??0Value@QScriptDeclarativeClass@@QAE@PAVQScriptContext@@N@Z @ 373 NONAME ; QScriptDeclarativeClass::Value::Value(class QScriptContext *, double)
	?newStaticScopeObject@QScriptDeclarativeClass@@SA?AVQScriptValue@@PAVQScriptEngine@@@Z @ 374 NONAME ; class QScriptValue QScriptDeclarativeClass::newStaticScopeObject(class QScriptEngine *)
	?call@QScriptDeclarativeClass@@UAE?AVValue@1@PAUObject@1@PAVQScriptContext@@@Z @ 375 NONAME ; class QScriptDeclarativeClass::Value QScriptDeclarativeClass::call(struct QScriptDeclarativeClass::Object *, class QScriptContext *)
	??0Value@QScriptDeclarativeClass@@QAE@XZ @ 376 NONAME ; QScriptDeclarativeClass::Value::Value(void)
	??0Value@QScriptDeclarativeClass@@QAE@PAVQScriptContext@@I@Z @ 377 NONAME ; QScriptDeclarativeClass::Value::Value(class QScriptContext *, unsigned int)
	??1Value@QScriptDeclarativeClass@@QAE@XZ @ 378 NONAME ; QScriptDeclarativeClass::Value::~Value(void)
	?newObjectValue@QScriptDeclarativeClass@@SA?AVValue@1@PAVQScriptEngine@@PAV1@PAUObject@1@@Z @ 379 NONAME ; class QScriptDeclarativeClass::Value QScriptDeclarativeClass::newObjectValue(class QScriptEngine *, class QScriptDeclarativeClass *, struct QScriptDeclarativeClass::Object *)
	??0Value@QScriptDeclarativeClass@@QAE@PAVQScriptEngine@@ABVQScriptValue@@@Z @ 380 NONAME ; QScriptDeclarativeClass::Value::Value(class QScriptEngine *, class QScriptValue const &)
	?atStatement@QScriptEngineAgentPrivate@@UAEXABVDebuggerCallFrame@QTJSC@@HH@Z @ 381 NONAME ; void QScriptEngineAgentPrivate::atStatement(class QTJSC::DebuggerCallFrame const &, int, int)
	?exception@QScriptEngineAgentPrivate@@UAEXABVDebuggerCallFrame@QTJSC@@HH_N@Z @ 382 NONAME ; void QScriptEngineAgentPrivate::exception(class QTJSC::DebuggerCallFrame const &, int, int, bool)
	??0Value@QScriptDeclarativeClass@@QAE@PAVQScriptEngine@@M@Z @ 383 NONAME ; QScriptDeclarativeClass::Value::Value(class QScriptEngine *, float)
	??0Value@QScriptDeclarativeClass@@QAE@PAVQScriptEngine@@H@Z @ 384 NONAME ; QScriptDeclarativeClass::Value::Value(class QScriptEngine *, int)
	?functionValue@QScriptDeclarativeClass@@SA?AVValue@1@ABVQScriptValue@@ABQAX@Z @ 385 NONAME ; class QScriptDeclarativeClass::Value QScriptDeclarativeClass::functionValue(class QScriptValue const &, void * const const &)
	?setSupportsCall@QScriptDeclarativeClass@@QAEX_N@Z @ 386 NONAME ; void QScriptDeclarativeClass::setSupportsCall(bool)
	?property@QScriptDeclarativeClass@@UAE?AVValue@1@PAUObject@1@ABQAX@Z @ 387 NONAME ; class QScriptDeclarativeClass::Value QScriptDeclarativeClass::property(struct QScriptDeclarativeClass::Object *, void * const const &)
	??0Value@QScriptDeclarativeClass@@QAE@PAVQScriptEngine@@_N@Z @ 388 NONAME ; QScriptDeclarativeClass::Value::Value(class QScriptEngine *, bool)
	?newStaticScopeObject@QScriptDeclarativeClass@@SA?AVQScriptValue@@PAVQScriptEngine@@HPBVQString@@PBV2@PBV?$QFlags@W4PropertyFlag@QScriptValue@@@@@Z @ 389 NONAME ; class QScriptValue QScriptDeclarativeClass::newStaticScopeObject(class QScriptEngine *, int, class QString const *, class QScriptValue const *, class QFlags<enum QScriptValue::PropertyFlag> const *)
	??0Value@QScriptDeclarativeClass@@QAE@PAVQScriptEngine@@ABVQString@@@Z @ 390 NONAME ; QScriptDeclarativeClass::Value::Value(class QScriptEngine *, class QString const &)
	??0Value@QScriptDeclarativeClass@@QAE@PAVQScriptEngine@@N@Z @ 391 NONAME ; QScriptDeclarativeClass::Value::Value(class QScriptEngine *, double)
	?supportsCall@QScriptDeclarativeClass@@QBE_NXZ @ 392 NONAME ; bool QScriptDeclarativeClass::supportsCall(void) const
	??0Value@QScriptDeclarativeClass@@QAE@PAVQScriptEngine@@I@Z @ 393 NONAME ; QScriptDeclarativeClass::Value::Value(class QScriptEngine *, unsigned int)
	??0Value@QScriptDeclarativeClass@@QAE@PAVQScriptContext@@_N@Z @ 394 NONAME ; QScriptDeclarativeClass::Value::Value(class QScriptContext *, bool)
	?didReachBreakpoint@QScriptEngineAgentPrivate@@UAEXABVDebuggerCallFrame@QTJSC@@HH@Z @ 395 NONAME ; void QScriptEngineAgentPrivate::didReachBreakpoint(class QTJSC::DebuggerCallFrame const &, int, int)
	??0Value@QScriptDeclarativeClass@@QAE@PAVQScriptContext@@ABVQScriptValue@@@Z @ 396 NONAME ; QScriptDeclarativeClass::Value::Value(class QScriptContext *, class QScriptValue const &)
	??0Value@QScriptDeclarativeClass@@QAE@PAVQScriptContext@@ABVQString@@@Z @ 397 NONAME ; QScriptDeclarativeClass::Value::Value(class QScriptContext *, class QString const &)
	?propertyValue@QScriptDeclarativeClass@@SA?AVValue@1@ABVQScriptValue@@ABQAX@Z @ 398 NONAME ; class QScriptDeclarativeClass::Value QScriptDeclarativeClass::propertyValue(class QScriptValue const &, void * const const &)
	??0Value@QScriptDeclarativeClass@@QAE@ABV01@@Z @ 399 NONAME ; QScriptDeclarativeClass::Value::Value(class QScriptDeclarativeClass::Value const &)
	??0Value@QScriptDeclarativeClass@@QAE@PAVQScriptContext@@M@Z @ 400 NONAME ; QScriptDeclarativeClass::Value::Value(class QScriptContext *, float)
	?reportAdditionalMemoryCost@QScriptEngine@@QAEXH@Z @ 401 NONAME ; void QScriptEngine::reportAdditionalMemoryCost(int)
	??0Value@QScriptDeclarativeClass@@QAE@PAVQScriptContext@@H@Z @ 402 NONAME ; QScriptDeclarativeClass::Value::Value(class QScriptContext *, int)
	??0PersistentIdentifier@QScriptDeclarativeClass@@AAE@PAVQScriptEnginePrivate@@@Z @ 403 NONAME ; QScriptDeclarativeClass::PersistentIdentifier::PersistentIdentifier(class QScriptEnginePrivate *)
	?compare@QScriptDeclarativeClass@@UAE_NPAUObject@1@0@Z @ 404 NONAME ; bool QScriptDeclarativeClass::compare(struct QScriptDeclarativeClass::Object *, struct QScriptDeclarativeClass::Object *)
	?toString@PersistentIdentifier@QScriptDeclarativeClass@@QBE?AVQString@@XZ @ 405 NONAME ; class QString QScriptDeclarativeClass::PersistentIdentifier::toString(void) const
	?startsWithUpper@QScriptDeclarativeClass@@QAE_NABQAX@Z @ 406 NONAME ; bool QScriptDeclarativeClass::startsWithUpper(void * const const &)
	?qt_static_metacall@QScriptEngine@@CAXPAVQObject@@W4Call@QMetaObject@@HPAPAX@Z @ 407 NONAME ; void QScriptEngine::qt_static_metacall(class QObject *, enum QMetaObject::Call, int, void * *)
	?staticMetaObjectExtraData@QScriptEngine@@0UQMetaObjectExtraData@@B @ 408 NONAME ; struct QMetaObjectExtraData const QScriptEngine::staticMetaObjectExtraData
	?staticMetaObjectExtraData@QScriptExtensionPlugin@@0UQMetaObjectExtraData@@B @ 409 NONAME ; struct QMetaObjectExtraData const QScriptExtensionPlugin::staticMetaObjectExtraData
	?qt_static_metacall@QScriptExtensionPlugin@@CAXPAVQObject@@W4Call@QMetaObject@@HPAPAX@Z @ 410 NONAME ; void QScriptExtensionPlugin::qt_static_metacall(class QObject *, enum QMetaObject::Call, int, void * *)

