EXPORTS
	??0QBenchmarkIterationController@QTest@@QAE@W4RunMode@01@@Z @ 1 NONAME ; QTest::QBenchmarkIterationController::QBenchmarkIterationController(enum QTest::QBenchmarkIterationController::RunMode)
	??0QBenchmarkIterationController@QTest@@QAE@XZ @ 2 NONAME ; QTest::QBenchmarkIterationController::QBenchmarkIterationController(void)
	??0QTestData@@AAE@PBDPAVQTestTable@@@Z @ 3 NONAME ; QTestData::QTestData(char const *, class QTestTable *)
	??0QTestEventLoop@@QAE@PAVQObject@@@Z @ 4 NONAME ; QTestEventLoop::QTestEventLoop(class QObject *)
	??1QBenchmarkIterationController@QTest@@QAE@XZ @ 5 NONAME ; QTest::QBenchmarkIterationController::~QBenchmarkIterationController(void)
	??1QTestData@@QAE@XZ @ 6 NONAME ; QTestData::~QTestData(void)
	??1QTestEventLoop@@UAE@XZ @ 7 NONAME ; QTestEventLoop::~QTestEventLoop(void)
	??_EQTestEventLoop@@UAE@I@Z @ 8 NONAME ; QTestEventLoop::~QTestEventLoop(unsigned int)
	?addColumnInternal@QTest@@YAXHPBD@Z @ 9 NONAME ; void QTest::addColumnInternal(int, char const *)
	?append@QTestData@@QAEXHPBX@Z @ 10 NONAME ; void QTestData::append(int, void const *)
	?asciiToKey@QTest@@YA?AW4Key@Qt@@D@Z @ 11 NONAME ; enum Qt::Key QTest::asciiToKey(char)
	?beginBenchmarkMeasurement@QTest@@YAXXZ @ 12 NONAME ; void QTest::beginBenchmarkMeasurement(void)
	?changeInterval@QTestEventLoop@@QAEXH@Z @ 13 NONAME ; void QTestEventLoop::changeInterval(int)
	?compare_helper@QTest@@YA_N_NPBD1H@Z @ 14 NONAME ; bool QTest::compare_helper(bool, char const *, char const *, int)
	?compare_helper@QTest@@YA_N_NPBDPAD2111H@Z @ 15 NONAME ; bool QTest::compare_helper(bool, char const *, char *, char *, char const *, char const *, char const *, int)
	?compare_string_helper@QTest@@YA_NPBD0000H@Z @ 16 NONAME ; bool QTest::compare_string_helper(char const *, char const *, char const *, char const *, char const *, int)
	?currentDataTag@QTest@@YAPBDXZ @ 17 NONAME ; char const * QTest::currentDataTag(void)
	?currentTestFailed@QTest@@YA_NXZ @ 18 NONAME ; bool QTest::currentTestFailed(void)
	?currentTestFunction@QTest@@YAPBDXZ @ 19 NONAME ; char const * QTest::currentTestFunction(void)
	?data@QTestData@@QBEPAXH@Z @ 20 NONAME ; void * QTestData::data(int) const
	?dataCount@QTestData@@QBEHXZ @ 21 NONAME ; int QTestData::dataCount(void) const
	?dataTag@QTestData@@QBEPBDXZ @ 22 NONAME ; char const * QTestData::dataTag(void) const
	?defaultKeyDelay@QTest@@YAHXZ @ 23 NONAME ; int QTest::defaultKeyDelay(void)
	?defaultKeyVerbose@QTest@@YA_NXZ @ 24 NONAME ; bool QTest::defaultKeyVerbose(void)
	?defaultMouseDelay@QTest@@YAHXZ @ 25 NONAME ; int QTest::defaultMouseDelay(void)
	?endBenchmarkMeasurement@QTest@@YA_JXZ @ 26 NONAME ABSENT ; long long QTest::endBenchmarkMeasurement(void)
	?enterLoop@QTestEventLoop@@QAEXH@Z @ 27 NONAME ; void QTestEventLoop::enterLoop(int)
	?exitLoop@QTestEventLoop@@QAEXXZ @ 28 NONAME ; void QTestEventLoop::exitLoop(void)
	?getStaticMetaObject@QTestEventLoop@@SAABUQMetaObject@@XZ @ 29 NONAME ; struct QMetaObject const & QTestEventLoop::getStaticMetaObject(void)
	?ignoreMessage@QTest@@YAXW4QtMsgType@@PBD@Z @ 30 NONAME ; void QTest::ignoreMessage(enum QtMsgType, char const *)
	?instance@QTestEventLoop@@SAAAV1@XZ @ 31 NONAME ; class QTestEventLoop & QTestEventLoop::instance(void)
	?isDone@QBenchmarkIterationController@QTest@@QAE_NXZ @ 32 NONAME ; bool QTest::QBenchmarkIterationController::isDone(void)
	?keyToAscii@QTest@@YADW4Key@Qt@@@Z @ 33 NONAME ; char QTest::keyToAscii(enum Qt::Key)
	?metaObject@QTestEventLoop@@UBEPBUQMetaObject@@XZ @ 34 NONAME ; struct QMetaObject const * QTestEventLoop::metaObject(void) const
	?newRow@QTest@@YAAAVQTestData@@PBD@Z @ 35 NONAME ; class QTestData & QTest::newRow(char const *)
	?next@QBenchmarkIterationController@QTest@@QAEXXZ @ 36 NONAME ; void QTest::QBenchmarkIterationController::next(void)
	?parent@QTestData@@QBEPAVQTestTable@@XZ @ 37 NONAME ; class QTestTable * QTestData::parent(void) const
	?qCompare@?$@M@QTest@@YA_NABM0PBD11H@Z @ 38 NONAME ; bool QTest::qCompare<float>(float const &, float const &, char const *, char const *, char const *, int)
	?qCompare@?$@N@QTest@@YA_NABN0PBD11H@Z @ 39 NONAME ; bool QTest::qCompare<double>(double const &, double const &, char const *, char const *, char const *, int)
	?qData@QTest@@YAPAXPBDH@Z @ 40 NONAME ; void * QTest::qData(char const *, int)
	?qElementData@QTest@@YAPAXPBDH@Z @ 41 NONAME ; void * QTest::qElementData(char const *, int)
	?qExec@QTest@@YAHPAVQObject@@ABVQStringList@@@Z @ 42 NONAME ; int QTest::qExec(class QObject *, class QStringList const &)
	?qExec@QTest@@YAHPAVQObject@@HPAPAD@Z @ 43 NONAME ; int QTest::qExec(class QObject *, int, char * *)
	?qExpectFail@QTest@@YA_NPBD0W4TestFailMode@1@0H@Z @ 44 NONAME ; bool QTest::qExpectFail(char const *, char const *, enum QTest::TestFailMode, char const *, int)
	?qFail@QTest@@YAXPBD0H@Z @ 45 NONAME ; void QTest::qFail(char const *, char const *, int)
	?qGlobalData@QTest@@YAPAXPBDH@Z @ 46 NONAME ; void * QTest::qGlobalData(char const *, int)
	?qSkip@QTest@@YAXPBDW4SkipMode@1@0H@Z @ 47 NONAME ; void QTest::qSkip(char const *, enum QTest::SkipMode, char const *, int)
	?qSleep@QTest@@YAXH@Z @ 48 NONAME ; void QTest::qSleep(int)
	?qVerify@QTest@@YA_N_NPBD11H@Z @ 49 NONAME ; bool QTest::qVerify(bool, char const *, char const *, char const *, int)
	?qWarn@QTest@@YAXPBD@Z @ 50 NONAME ; void QTest::qWarn(char const *)
	?qt_metacall@QTestEventLoop@@UAEHW4Call@QMetaObject@@HPAPAX@Z @ 51 NONAME ; int QTestEventLoop::qt_metacall(enum QMetaObject::Call, int, void * *)
	?qt_metacast@QTestEventLoop@@UAEPAXPBD@Z @ 52 NONAME ; void * QTestEventLoop::qt_metacast(char const *)
	?qt_snprintf@QTest@@YAHPADHPBDZZ @ 53 NONAME ; int QTest::qt_snprintf(char *, int, char const *, ...)
	?testObject@QTest@@YAPAVQObject@@XZ @ 54 NONAME ; class QObject * QTest::testObject(void)
	?timeout@QTestEventLoop@@QBE_NXZ @ 55 NONAME ; bool QTestEventLoop::timeout(void) const
	?timerEvent@QTestEventLoop@@MAEXPAVQTimerEvent@@@Z @ 56 NONAME ; void QTestEventLoop::timerEvent(class QTimerEvent *)
	?toHexRepresentation@QTest@@YAPADPBDH@Z @ 57 NONAME ; char * QTest::toHexRepresentation(char const *, int)
	?toString@?$@D@QTest@@YAPADABD@Z @ 58 NONAME ; char * QTest::toString<char>(char const &)
	?toString@?$@F@QTest@@YAPADABF@Z @ 59 NONAME ; char * QTest::toString<short>(short const &)
	?toString@?$@G@QTest@@YAPADABG@Z @ 60 NONAME ; char * QTest::toString<unsigned short>(unsigned short const &)
	?toString@?$@H@QTest@@YAPADABH@Z @ 61 NONAME ; char * QTest::toString<int>(int const &)
	?toString@?$@I@QTest@@YAPADABI@Z @ 62 NONAME ; char * QTest::toString<unsigned int>(unsigned int const &)
	?toString@?$@J@QTest@@YAPADABJ@Z @ 63 NONAME ; char * QTest::toString<long>(long const &)
	?toString@?$@K@QTest@@YAPADABK@Z @ 64 NONAME ; char * QTest::toString<unsigned long>(unsigned long const &)
	?toString@?$@M@QTest@@YAPADABM@Z @ 65 NONAME ; char * QTest::toString<float>(float const &)
	?toString@?$@N@QTest@@YAPADABN@Z @ 66 NONAME ; char * QTest::toString<double>(double const &)
	?toString@?$@_J@QTest@@YAPADAB_J@Z @ 67 NONAME ; char * QTest::toString<long long>(long long const &)
	?toString@?$@_K@QTest@@YAPADAB_K@Z @ 68 NONAME ; char * QTest::toString<unsigned long long>(unsigned long long const &)
	?toString@?$@_N@QTest@@YAPADAB_N@Z @ 69 NONAME ; char * QTest::toString<bool>(bool const &)
	?toString@QTest@@YAPADPBD@Z @ 70 NONAME ; char * QTest::toString(char const *)
	?toString@QTest@@YAPADPBX@Z @ 71 NONAME ; char * QTest::toString(void const *)
	?tr@QTestEventLoop@@SA?AVQString@@PBD0@Z @ 72 NONAME ; class QString QTestEventLoop::tr(char const *, char const *)
	?tr@QTestEventLoop@@SA?AVQString@@PBD0H@Z @ 73 NONAME ; class QString QTestEventLoop::tr(char const *, char const *, int)
	?trUtf8@QTestEventLoop@@SA?AVQString@@PBD0@Z @ 74 NONAME ; class QString QTestEventLoop::trUtf8(char const *, char const *)
	?trUtf8@QTestEventLoop@@SA?AVQString@@PBD0H@Z @ 75 NONAME ; class QString QTestEventLoop::trUtf8(char const *, char const *, int)
	?staticMetaObject@QTestEventLoop@@2UQMetaObject@@B @ 76 NONAME ; struct QMetaObject const QTestEventLoop::staticMetaObject
	?setBenchmarkResult@QTest@@YAXMW4QBenchmarkMetric@1@@Z @ 77 NONAME ; void QTest::setBenchmarkResult(float, enum QTest::QBenchmarkMetric)
	?endBenchmarkMeasurement@QTest@@YA_KXZ @ 78 NONAME ; unsigned long long QTest::endBenchmarkMeasurement(void)
	?addXFail@QTestLog@@SAXPBD0H@Z @ 79 NONAME ; void QTestLog::addXFail(char const *, char const *, int)
	?leaveTestFunction@QTestLog@@SAXXZ @ 80 NONAME ; void QTestLog::leaveTestFunction(void)
	?setCurrentTestFunction@QTestResult@@SAXPBD@Z @ 81 NONAME ; void QTestResult::setCurrentTestFunction(char const *)
	?currentTestObjectName@QTestResult@@SAPBDXZ @ 82 NONAME ; char const * QTestResult::currentTestObjectName(void)
	?allDataPassed@QTestResult@@SA_NXZ @ 83 NONAME ; bool QTestResult::allDataPassed(void)
	?redirectOutput@QTestLog@@SAXPBD@Z @ 84 NONAME ; void QTestLog::redirectOutput(char const *)
	?testData@QTestTable@@QBEPAVQTestData@@H@Z @ 85 NONAME ; class QTestData * QTestTable::testData(int) const
	?isEmpty@QTestTable@@QBE_NXZ @ 86 NONAME ; bool QTestTable::isEmpty(void) const
	?logMode@QTestLog@@SA?AW4LogMode@1@XZ @ 87 NONAME ; enum QTestLog::LogMode QTestLog::logMode(void)
	?dataCount@QTestTable@@QBEHXZ @ 88 NONAME ; int QTestTable::dataCount(void) const
	?addFailure@QTestResult@@SAXPBD0H@Z @ 89 NONAME ; void QTestResult::addFailure(char const *, char const *, int)
	?setCurrentTestData@QTestResult@@SAXPAVQTestData@@@Z @ 90 NONAME ; void QTestResult::setCurrentTestData(class QTestData *)
	?setMode@QBenchmarkGlobalData@@QAEXW4Mode@1@@Z @ 91 NONAME ; void QBenchmarkGlobalData::setMode(enum QBenchmarkGlobalData::Mode)
	??1QTestTable@@QAE@XZ @ 92 NONAME ; QTestTable::~QTestTable(void)
	?setLogMode@QTestLog@@SAXW4LogMode@1@@Z @ 93 NONAME ; void QTestLog::setLogMode(enum QTestLog::LogMode)
	?addBenchmarkResult@QTestLog@@SAXABVQBenchmarkResult@@@Z @ 94 NONAME ; void QTestLog::addBenchmarkResult(class QBenchmarkResult const &)
	?setVerboseLevel@QTestLog@@SAXH@Z @ 95 NONAME ; void QTestLog::setVerboseLevel(int)
	??0QBenchmarkGlobalData@@QAE@XZ @ 96 NONAME ; QBenchmarkGlobalData::QBenchmarkGlobalData(void)
	?stopLogging@QTestLog@@SAXXZ @ 97 NONAME ; void QTestLog::stopLogging(void)
	?setCurrentGlobalTestData@QTestResult@@SAXPAVQTestData@@@Z @ 98 NONAME ; void QTestResult::setCurrentGlobalTestData(class QTestData *)
	?currentTestLocation@QTestResult@@SA?AW4TestLocation@1@XZ @ 99 NONAME ; enum QTestResult::TestLocation QTestResult::currentTestLocation(void)
	?currentTestFunction@QTestResult@@SAPBDXZ @ 100 NONAME ; char const * QTestResult::currentTestFunction(void)
	?dataTag@QTestTable@@QBEPBDH@Z @ 101 NONAME ; char const * QTestTable::dataTag(int) const
	?expectFail@QTestResult@@SA_NPBD0W4TestFailMode@QTest@@0H@Z @ 102 NONAME ; bool QTestResult::expectFail(char const *, char const *, enum QTest::TestFailMode, char const *, int)
	?currentDataTag@QTestResult@@SAPBDXZ @ 103 NONAME ; char const * QTestResult::currentDataTag(void)
	??0QTestTable@@QAE@XZ @ 104 NONAME ; QTestTable::QTestTable(void)
	?setFlushMode@QTestLog@@SAXW4FlushMode@1@@Z @ 105 NONAME ; void QTestLog::setFlushMode(enum QTestLog::FlushMode)
	?setCurrentTestObject@QTestResult@@SAXPBD@Z @ 106 NONAME ; void QTestResult::setCurrentTestObject(char const *)
	?beginDataRun@QBenchmarkTestMethodData@@QAEXXZ @ 107 NONAME ; void QBenchmarkTestMethodData::beginDataRun(void)
	?qtest_qParseArgs@QTest@@YAXHQAPAD_N@Z @ 108 NONAME ; void QTest::qtest_qParseArgs(int, char * * const, bool)
	?enterTestFunction@QTestLog@@SAXPBD@Z @ 109 NONAME ; void QTestLog::enterTestFunction(char const *)
	?clearGlobalTestTable@QTestTable@@SAXXZ @ 110 NONAME ; void QTestTable::clearGlobalTestTable(void)
	?addPass@QTestLog@@SAXPBD@Z @ 111 NONAME ; void QTestLog::addPass(char const *)
	?printUnhandledIgnoreMessages@QTestLog@@SAXXZ @ 112 NONAME ; void QTestLog::printUnhandledIgnoreMessages(void)
	?addColumn@QTestTable@@QAEXHPBD@Z @ 113 NONAME ; void QTestTable::addColumn(int, char const *)
	?setSkipCurrentTest@QTestResult@@SAX_N@Z @ 114 NONAME ; void QTestResult::setSkipCurrentTest(bool)
	?currentTestFailed@QTestResult@@SA_NXZ @ 115 NONAME ; bool QTestResult::currentTestFailed(void)
	?createMeasurer@QBenchmarkGlobalData@@QAEPAVQBenchmarkMeasurerBase@@XZ @ 116 NONAME ; class QBenchmarkMeasurerBase * QBenchmarkGlobalData::createMeasurer(void)
	?startLogging@QTestLog@@SAXXZ @ 117 NONAME ; void QTestLog::startLogging(void)
	?printAvailableFunctions@QTest@@3_NA @ 118 NONAME ; bool QTest::printAvailableFunctions
	?testFailed@QTestResult@@SA_NXZ @ 119 NONAME ; bool QTestResult::testFailed(void)
	?current@QBenchmarkTestMethodData@@2PAV1@A @ 120 NONAME ; class QBenchmarkTestMethodData * QBenchmarkTestMethodData::current
	?currentGlobalDataTag@QTestResult@@SAPBDXZ @ 121 NONAME ; char const * QTestResult::currentGlobalDataTag(void)
	?adjustIterationCount@QBenchmarkTestMethodData@@QAEHH@Z @ 122 NONAME ; int QBenchmarkTestMethodData::adjustIterationCount(int)
	?current@QBenchmarkGlobalData@@2PAV1@A @ 123 NONAME ; class QBenchmarkGlobalData * QBenchmarkGlobalData::current
	?warn@QTestLog@@SAXPBD@Z @ 124 NONAME ; void QTestLog::warn(char const *)
	?testFunctions@QTest@@3VQStringList@@A @ 125 NONAME ; class QStringList QTest::testFunctions
	?elementTypeId@QTestTable@@QBEHH@Z @ 126 NONAME ; int QTestTable::elementTypeId(int) const
	?ignoreMessage@QTestResult@@SAXW4QtMsgType@@PBD@Z @ 127 NONAME ; void QTestResult::ignoreMessage(enum QtMsgType, char const *)
	?globalTestTable@QTestTable@@SAPAV1@XZ @ 128 NONAME ; class QTestTable * QTestTable::globalTestTable(void)
	??0QBenchmarkTestMethodData@@QAE@XZ @ 129 NONAME ; QBenchmarkTestMethodData::QBenchmarkTestMethodData(void)
	?currentTestTable@QTestTable@@SAPAV1@XZ @ 130 NONAME ; class QTestTable * QTestTable::currentTestTable(void)
	?addFail@QTestLog@@SAXPBD0H@Z @ 131 NONAME ; void QTestLog::addFail(char const *, char const *, int)
	?endDataRun@QBenchmarkTestMethodData@@QAEXXZ @ 132 NONAME ; void QBenchmarkTestMethodData::endDataRun(void)
	?resultsAccepted@QBenchmarkTestMethodData@@QBE_NXZ @ 133 NONAME ; bool QBenchmarkTestMethodData::resultsAccepted(void) const
	?verify@QTestResult@@SA_N_NPBD11H@Z @ 134 NONAME ; bool QTestResult::verify(bool, char const *, char const *, char const *, int)
	??1QBenchmarkTestMethodData@@QAE@XZ @ 135 NONAME ; QBenchmarkTestMethodData::~QBenchmarkTestMethodData(void)
	?addIgnoreMessage@QTestLog@@SAXW4QtMsgType@@PBD@Z @ 136 NONAME ; void QTestLog::addIgnoreMessage(enum QtMsgType, char const *)
	?newData@QTestTable@@QAEPAVQTestData@@PBD@Z @ 137 NONAME ; class QTestData * QTestTable::newData(char const *)
	?reset@QTestResult@@SAXXZ @ 138 NONAME ; void QTestResult::reset(void)
	?currentTestData@QTestResult@@SAPAVQTestData@@XZ @ 139 NONAME ; class QTestData * QTestResult::currentTestData(void)
	?skipCurrentTest@QTestResult@@SA_NXZ @ 140 NONAME ; bool QTestResult::skipCurrentTest(void)
	?outputFileName@QTestLog@@SAPBDXZ @ 141 NONAME ; char const * QTestLog::outputFileName(void)
	?adjustMedianIterationCount@QBenchmarkGlobalData@@QAEHXZ @ 142 NONAME ; int QBenchmarkGlobalData::adjustMedianIterationCount(void)
	??0QTestLog@@AAE@XZ @ 143 NONAME ; QTestLog::QTestLog(void)
	?compare@QTestResult@@SA_N_NPBDPAD2111H@Z @ 144 NONAME ; bool QTestResult::compare(bool, char const *, char *, char *, char const *, char const *, char const *, int)
	?elementCount@QTestTable@@QBEHXZ @ 145 NONAME ; int QTestTable::elementCount(void) const
	?setResult@QBenchmarkTestMethodData@@QAEXMW4QBenchmarkMetric@QTest@@_N@Z @ 146 NONAME ; void QBenchmarkTestMethodData::setResult(float, enum QTest::QBenchmarkMetric, bool)
	?finishedCurrentTestFunction@QTestResult@@SAXXZ @ 147 NONAME ; void QTestResult::finishedCurrentTestFunction(void)
	?setCurrentTestLocation@QTestResult@@SAXW4TestLocation@1@@Z @ 148 NONAME ; void QTestResult::setCurrentTestLocation(enum QTestResult::TestLocation)
	?currentGlobalTestData@QTestResult@@SAPAVQTestData@@XZ @ 149 NONAME ; class QTestData * QTestResult::currentGlobalTestData(void)
	?mode@QBenchmarkGlobalData@@QBE?AW4Mode@1@XZ @ 150 NONAME ; enum QBenchmarkGlobalData::Mode QBenchmarkGlobalData::mode(void) const
	?setMaxWarnings@QTestLog@@SAXH@Z @ 151 NONAME ; void QTestLog::setMaxWarnings(int)
	?failCount@QTestResult@@SAHXZ @ 152 NONAME ; int QTestResult::failCount(void)
	?verboseLevel@QTestLog@@SAHXZ @ 153 NONAME ; int QTestLog::verboseLevel(void)
	?passCount@QTestResult@@SAHXZ @ 154 NONAME ; int QTestResult::passCount(void)
	?indexOf@QTestTable@@QBEHPBD@Z @ 155 NONAME ; int QTestTable::indexOf(char const *) const
	?compare@QTestResult@@SA_N_NPBD1H@Z @ 156 NONAME ; bool QTestResult::compare(bool, char const *, char const *, int)
	?startLogging@QTestLog@@SAXI@Z @ 157 NONAME ; void QTestLog::startLogging(unsigned int)
	?addSkip@QTestLog@@SAXPBDW4SkipMode@QTest@@0H@Z @ 158 NONAME ; void QTestLog::addSkip(char const *, enum QTest::SkipMode, char const *, int)
	?testTags@QTest@@3VQStringList@@A @ 159 NONAME ; class QStringList QTest::testTags
	??1QTestLog@@AAE@XZ @ 160 NONAME ; QTestLog::~QTestLog(void)
	?unhandledIgnoreMessages@QTestLog@@SAHXZ @ 161 NONAME ; int QTestLog::unhandledIgnoreMessages(void)
	?info@QTestLog@@SAXPBD0H@Z @ 162 NONAME ; void QTestLog::info(char const *, char const *, int)
	??1QBenchmarkGlobalData@@QAE@XZ @ 163 NONAME ; QBenchmarkGlobalData::~QBenchmarkGlobalData(void)
	?isBenchmark@QBenchmarkTestMethodData@@QBE_NXZ @ 164 NONAME ; bool QBenchmarkTestMethodData::isBenchmark(void) const
	?addSkip@QTestResult@@SAXPBDW4SkipMode@QTest@@0H@Z @ 165 NONAME ; void QTestResult::addSkip(char const *, enum QTest::SkipMode, char const *, int)
	?skipCount@QTestResult@@SAHXZ @ 166 NONAME ; int QTestResult::skipCount(void)
	?addXPass@QTestLog@@SAXPBD0H@Z @ 167 NONAME ; void QTestLog::addXPass(char const *, char const *, int)
	?qt_static_metacall@QTestEventLoop@@CAXPAVQObject@@W4Call@QMetaObject@@HPAPAX@Z @ 168 NONAME ; void QTestEventLoop::qt_static_metacall(class QObject *, enum QMetaObject::Call, int, void * *)
	?staticMetaObjectExtraData@QTestEventLoop@@0UQMetaObjectExtraData@@B @ 169 NONAME ; struct QMetaObjectExtraData const QTestEventLoop::staticMetaObjectExtraData

