Certificate:
    Data:
        Version: 3 (0x2)
        Serial Number: 11 (0xb)
        Signature Algorithm: sha1WithRSAEncryption
        Issuer: CN=Westpoint Certificate Test CA, ST=Lancashire, C=UK/emailAddress=ca@example.com, O=Westpoint Certificate Test Root Certification Authority
        Validity
            Not Before: Jun 26 19:36:40 2011 GMT
            Not After : Jun 23 19:36:40 2021 GMT
        Subject: CN=example.com/emailAddress=test@example.com/favouriteDrink=tequila
        Subject Public Key Info:
            Public Key Algorithm: rsaEncryption
                Public-Key: (1024 bit)
                Modulus:
                    00:a5:88:9c:fd:1b:8d:26:90:7d:ed:b2:66:14:09:
                    88:9f:c5:96:87:97:84:33:db:fd:a9:32:20:d0:4d:
                    03:ce:34:a6:b3:e2:db:33:27:e5:5b:09:3b:6f:49:
                    36:c8:99:63:88:4c:33:f2:55:bc:04:02:07:50:59:
                    6a:34:52:4c:83:74:cb:d5:54:b5:a9:41:91:07:0e:
                    cf:50:3b:87:09:a5:5f:d8:71:f3:ee:d8:10:6d:5c:
                    5d:69:ab:dc:98:d7:1a:38:63:c6:15:4e:d7:31:19:
                    96:4c:db:be:d3:32:9d:ad:8b:1d:85:1b:aa:cf:d1:
                    b1:a4:ce:bf:5a:0f:30:a0:63
                Exponent: 65537 (0x10001)
        X509v3 extensions:
            X509v3 Basic Constraints: 
                CA:FALSE
            Authority Information Access: 
                OCSP - URI:http://ocsp.example.com:8888/

    Signature Algorithm: sha1WithRSAEncryption
        21:55:2f:82:17:e6:8c:2c:39:af:2a:ce:b7:83:7f:cf:76:ce:
        25:39:b5:08:3c:9b:33:a2:9b:f7:3f:df:7d:67:7b:11:c7:e3:
        ac:6f:59:c0:4f:25:3b:6d:3c:ec:3e:c2:0d:4c:a4:43:dd:4f:
        c4:4c:5a:67:9d:a9:7a:91:c3:48:ed:40:5e:4d:6f:18:46:38:
        9c:e2:9a:7f:c9:d8:26:0c:35:fa:60:87:67:45:56:42:81:ba:
        4b:b6:03:6f:6c:7d:d1:f9:78:a1:08:9e:4a:f1:00:07:4b:ca:
        ec:a4:1d:26:ad:63:46:63:5f:b2:64:2e:d3:cd:80:35:87:4f:
        c4:16:1a:91:97:50:95:16:31:c5:97:49:70:19:68:a9:a8:6c:
        0f:c3:5b:8f:6a:1f:3f:e7:3b:ba:48:76:2c:b0:8d:b3:de:ce:
        7b:c7:bf:0f:80:34:7c:73:d5:d6:45:63:83:02:c5:4d:73:9b:
        66:8a:3a:66:dc:0c:9f:75:1a:a7:15:d1:1d:7f:12:af:f4:5d:
        9c:80:99:55:9b:26:69:ec:76:11:fe:4e:65:f7:57:7d:32:bb:
        9a:25:51:76:f5:68:99:2a:d2:a5:53:17:87:b6:ad:08:f1:24:
        db:6f:45:07:d2:f1:60:50:ac:a0:d0:b7:0b:45:aa:e2:27:38:
        1f:4c:41:a3
-----BEGIN CERTIFICATE-----
MIIDOzCCAiOgAwIBAgIBCzANBgkqhkiG9w0BAQUFADCBqzEmMCQGA1UEAxMdV2Vz
dHBvaW50IENlcnRpZmljYXRlIFRlc3QgQ0ExEzARBgNVBAgTCkxhbmNhc2hpcmUx
CzAJBgNVBAYTAlVLMR0wGwYJKoZIhvcNAQkBFg5jYUBleGFtcGxlLmNvbTFAMD4G
A1UEChM3V2VzdHBvaW50IENlcnRpZmljYXRlIFRlc3QgUm9vdCBDZXJ0aWZpY2F0
aW9uIEF1dGhvcml0eTAeFw0xMTA2MjYxOTM2NDBaFw0yMTA2MjMxOTM2NDBaMFAx
FDASBgNVBAMTC2V4YW1wbGUuY29tMR8wHQYJKoZIhvcNAQkBFhB0ZXN0QGV4YW1w
bGUuY29tMRcwFQYKCZImiZPyLGQBBRMHdGVxdWlsYTCBnzANBgkqhkiG9w0BAQEF
AAOBjQAwgYkCgYEApYic/RuNJpB97bJmFAmIn8WWh5eEM9v9qTIg0E0DzjSms+Lb
MyflWwk7b0k2yJljiEwz8lW8BAIHUFlqNFJMg3TL1VS1qUGRBw7PUDuHCaVf2HHz
7tgQbVxdaavcmNcaOGPGFU7XMRmWTNu+0zKdrYsdhRuqz9GxpM6/Wg8woGMCAwEA
AaNIMEYwCQYDVR0TBAIwADA5BggrBgEFBQcBAQQtMCswKQYIKwYBBQUHMAGGHWh0
dHA6Ly9vY3NwLmV4YW1wbGUuY29tOjg4ODgvMA0GCSqGSIb3DQEBBQUAA4IBAQAh
VS+CF+aMLDmvKs63g3/Pds4lObUIPJszopv3P999Z3sRx+Osb1nATyU7bTzsPsIN
TKRD3U/ETFpnnal6kcNI7UBeTW8YRjic4pp/ydgmDDX6YIdnRVZCgbpLtgNvbH3R
+XihCJ5K8QAHS8rspB0mrWNGY1+yZC7TzYA1h0/EFhqRl1CVFjHFl0lwGWipqGwP
w1uPah8/5zu6SHYssI2z3s57x78PgDR8c9XWRWODAsVNc5tmijpm3AyfdRqnFdEd
fxKv9F2cgJlVmyZp7HYR/k5l91d9MruaJVF29WiZKtKlUxeHtq0I8STbb0UH0vFg
UKyg0LcLRariJzgfTEGj
-----END CERTIFICATE-----
