Certificate:
    Data:
        Version: 3 (0x2)
        Serial Number: 11 (0xb)
        Signature Algorithm: sha1WithRSAEncryption
        Issuer: CN=Westpoint Certificate Test CA, ST=Lancashire, C=UK/emailAddress=ca@example.com, O=Westpoint Certificate Test Root Certification Authority
        Validity
            Not Before: Jul 31 21:01:17 2011 GMT
            Not After : Jul 28 21:01:17 2021 GMT
        Subject: CN=example.com/emailAddress=test@example.com/favouriteDrink=tequila
        Subject Public Key Info:
            Public Key Algorithm: rsaEncryption
                Public-Key: (1024 bit)
                Modulus:
                    00:b8:2a:88:dd:a3:5b:4a:44:69:03:d5:6e:18:e9:
                    9e:55:0d:35:d0:e6:9a:c2:cc:f8:b5:c5:b6:15:00:
                    a1:24:33:af:e8:fb:93:b9:cc:b9:22:28:ef:69:57:
                    b0:a2:d0:e3:9e:e5:73:3e:90:55:5b:91:26:0b:c4:
                    1a:a6:b6:9d:a2:68:5b:e8:5b:45:3f:21:ff:84:64:
                    a7:84:bb:61:b7:72:e7:ea:cb:49:66:40:23:be:bf:
                    f0:8d:60:f2:fb:71:b2:fc:fe:6b:e7:07:94:35:65:
                    66:d8:06:90:82:4d:b1:ba:6c:78:f4:42:17:cb:3c:
                    0e:10:70:21:a9:31:3b:88:41
                Exponent: 65537 (0x10001)
        X509v3 extensions:
            X509v3 Basic Constraints: 
                CA:FALSE
            Authority Information Access: 
                OCSP - URI:http://ocsp.example.com:8888/

    Signature Algorithm: sha1WithRSAEncryption
        4b:a3:3d:37:e4:fa:61:3b:8c:94:c7:b1:49:55:a6:63:c4:b8:
        13:33:8c:0b:ad:c9:f6:38:d1:a6:d3:5e:7f:10:23:be:d5:4c:
        63:de:15:9b:eb:f1:08:0c:32:95:ff:87:bc:c7:41:c3:17:af:
        73:c9:ac:18:2c:3d:6d:87:9b:41:71:92:e4:57:f0:da:b7:f4:
        f3:92:dd:db:a0:b3:82:1a:8d:88:d4:ff:b2:8e:ac:65:6f:b0:
        59:0a:4e:cf:12:cd:fe:ce:35:85:da:13:1c:5e:d0:30:38:8a:
        ec:46:eb:d7:a7:87:93:1b:08:a0:28:b0:2d:fc:7d:36:51:2f:
        df:6b:67:57:15:b3:a7:cf:dd:55:ee:81:fc:66:fc:a7:22:5f:
        e7:86:91:0b:3f:35:56:5f:fa:41:9c:71:06:03:d0:62:d2:3b:
        e2:08:ab:af:42:2b:1f:68:9f:17:0a:20:3b:de:a1:fa:0a:44:
        a8:67:67:c2:96:7a:ec:fa:92:4d:8f:c8:ba:be:d7:0c:c7:c8:
        6d:9f:b1:6c:c8:1d:e9:b9:5c:30:f3:a2:52:43:e5:43:2a:54:
        24:15:b3:d5:95:af:f8:01:ab:f3:c3:3f:1d:8e:35:58:11:6c:
        12:82:6f:ad:c3:78:c1:cd:43:ff:93:90:25:9f:97:17:36:8e:
        74:28:e8:a9
-----BEGIN CERTIFICATE-----
MIIDOzCCAiOgAwIBAgIBCzANBgkqhkiG9w0BAQUFADCBqzEmMCQGA1UEAxMdV2Vz
dHBvaW50IENlcnRpZmljYXRlIFRlc3QgQ0ExEzARBgNVBAgTCkxhbmNhc2hpcmUx
CzAJBgNVBAYTAlVLMR0wGwYJKoZIhvcNAQkBFg5jYUBleGFtcGxlLmNvbTFAMD4G
A1UEChM3V2VzdHBvaW50IENlcnRpZmljYXRlIFRlc3QgUm9vdCBDZXJ0aWZpY2F0
aW9uIEF1dGhvcml0eTAeFw0xMTA3MzEyMTAxMTdaFw0yMTA3MjgyMTAxMTdaMFAx
FDASBgNVBAMTC2V4YW1wbGUuY29tMR8wHQYJKoZIhvcNAQkBFhB0ZXN0QGV4YW1w
bGUuY29tMRcwFQYKCZImiZPyLGQBBRMHdGVxdWlsYTCBnzANBgkqhkiG9w0BAQEF
AAOBjQAwgYkCgYEAuCqI3aNbSkRpA9VuGOmeVQ010Oaawsz4tcW2FQChJDOv6PuT
ucy5IijvaVewotDjnuVzPpBVW5EmC8Qapradomhb6FtFPyH/hGSnhLtht3Ln6stJ
ZkAjvr/wjWDy+3Gy/P5r5weUNWVm2AaQgk2xumx49EIXyzwOEHAhqTE7iEECAwEA
AaNIMEYwCQYDVR0TBAIwADA5BggrBgEFBQcBAQQtMCswKQYIKwYBBQUHMAGGHWh0
dHA6Ly9vY3NwLmV4YW1wbGUuY29tOjg4ODgvMA0GCSqGSIb3DQEBBQUAA4IBAQBL
oz035PphO4yUx7FJVaZjxLgTM4wLrcn2ONGm015/ECO+1Uxj3hWb6/EIDDKV/4e8
x0HDF69zyawYLD1th5tBcZLkV/Dat/Tzkt3boLOCGo2I1P+yjqxlb7BZCk7PEs3+
zjWF2hMcXtAwOIrsRuvXp4eTGwigKLAt/H02US/fa2dXFbOnz91V7oH8ZvynIl/n
hpELPzVWX/pBnHEGA9Bi0jviCKuvQisfaJ8XCiA73qH6CkSoZ2fClnrs+pJNj8i6
vtcMx8htn7FsyB3puVww86JSQ+VDKlQkFbPVla/4Aavzwz8djjVYEWwSgm+tw3jB
zUP/k5Aln5cXNo50KOip
-----END CERTIFICATE-----
