Certificate:
    Data:
        Version: 3 (0x2)
        Serial Number: 1 (0x1)
        Signature Algorithm: sha1WithRSAEncryption
        Issuer: CN=Westpoint Certificate Test CA, ST=Lancashire, C=UK/emailAddress=ca@example.com, O=Westpoint Certificate Test Root Certification Authority
        Validity
            Not Before: Jul 31 21:01:16 2011 GMT
            Not After : Jul 28 21:01:16 2021 GMT
        Subject: CN=example.com, ST=Lancashire, C=UK/emailAddress=test@example.com, O=Some organisation
        Subject Public Key Info:
            Public Key Algorithm: rsaEncryption
                Public-Key: (1024 bit)
                Modulus:
                    00:97:c9:92:27:81:a7:4c:64:82:a2:30:d6:07:b7:
                    57:e0:9c:ea:cd:eb:53:be:ea:b6:b5:47:66:d0:68:
                    54:25:a7:ed:21:5c:dc:fd:da:41:f6:c7:c0:35:ae:
                    97:72:fd:8b:af:29:3d:38:5a:67:8b:39:8a:ce:86:
                    25:0f:38:a7:b5:38:b3:8e:81:f0:ea:79:99:cb:f5:
                    23:64:55:f3:4b:a4:b6:23:64:29:ea:ba:f3:29:52:
                    a7:7f:32:dc:0d:b6:d9:d4:e6:13:de:01:41:86:9a:
                    2d:8f:bb:0c:18:88:09:ac:d4:6a:e9:cb:8a:17:8a:
                    85:09:a6:ae:a6:1c:05:e9:55
                Exponent: 65537 (0x10001)
        X509v3 extensions:
            X509v3 Basic Constraints: 
                CA:FALSE
            Authority Information Access: 
                OCSP - URI:http://ocsp.example.com:8888/

    Signature Algorithm: sha1WithRSAEncryption
        8b:9b:96:fb:8e:1b:77:f5:70:39:fe:76:51:ac:a9:6b:80:a5:
        b7:95:8b:c3:1a:9c:1f:bb:d1:d1:68:43:40:96:62:d6:a6:da:
        d9:fd:9d:9a:9e:8a:84:fa:f5:54:ce:a8:d7:37:c7:0c:95:fc:
        11:8b:e9:32:53:e5:59:61:0a:53:70:f3:d6:ed:3f:b1:f4:49:
        bf:86:c1:77:0d:b1:ac:65:7e:62:d2:f2:5a:31:50:a7:ed:28:
        bb:63:d5:f3:4f:43:3a:3f:bf:3b:d0:94:aa:a1:74:95:be:a4:
        0f:8b:e0:6f:d8:33:84:76:71:b2:da:f4:0e:1e:d2:eb:f0:c3:
        1e:33:79:21:35:93:18:05:38:db:63:85:1a:e4:84:41:0a:c3:
        fb:fd:5c:69:3d:18:0a:38:b8:16:18:d3:23:b9:51:47:2e:54:
        08:d1:fc:2e:b6:63:62:78:9c:26:59:c2:5e:5a:38:76:47:e7:
        f0:f8:7b:b7:00:46:34:b0:44:28:a9:33:d7:e5:1d:52:c8:fb:
        32:a5:25:86:21:0c:80:f0:4b:37:60:a0:45:69:9f:6b:b0:34:
        91:5e:4c:62:45:99:83:1d:80:48:78:bb:ee:d4:83:39:76:c3:
        e6:fb:31:e9:20:f0:64:90:24:4e:c6:07:75:40:1f:7e:97:77:
        1f:bf:a2:ef
-----BEGIN CERTIFICATE-----
MIIDYDCCAkigAwIBAgIBATANBgkqhkiG9w0BAQUFADCBqzEmMCQGA1UEAxMdV2Vz
dHBvaW50IENlcnRpZmljYXRlIFRlc3QgQ0ExEzARBgNVBAgTCkxhbmNhc2hpcmUx
CzAJBgNVBAYTAlVLMR0wGwYJKoZIhvcNAQkBFg5jYUBleGFtcGxlLmNvbTFAMD4G
A1UEChM3V2VzdHBvaW50IENlcnRpZmljYXRlIFRlc3QgUm9vdCBDZXJ0aWZpY2F0
aW9uIEF1dGhvcml0eTAeFw0xMTA3MzEyMTAxMTZaFw0yMTA3MjgyMTAxMTZaMHUx
FDASBgNVBAMTC2V4YW1wbGUuY29tMRMwEQYDVQQIEwpMYW5jYXNoaXJlMQswCQYD
VQQGEwJVSzEfMB0GCSqGSIb3DQEJARYQdGVzdEBleGFtcGxlLmNvbTEaMBgGA1UE
ChMRU29tZSBvcmdhbmlzYXRpb24wgZ8wDQYJKoZIhvcNAQEBBQADgY0AMIGJAoGB
AJfJkieBp0xkgqIw1ge3V+Cc6s3rU77qtrVHZtBoVCWn7SFc3P3aQfbHwDWul3L9
i68pPThaZ4s5is6GJQ84p7U4s46B8Op5mcv1I2RV80uktiNkKeq68ylSp38y3A22
2dTmE94BQYaaLY+7DBiICazUaunLiheKhQmmrqYcBelVAgMBAAGjSDBGMAkGA1Ud
EwQCMAAwOQYIKwYBBQUHAQEELTArMCkGCCsGAQUFBzABhh1odHRwOi8vb2NzcC5l
eGFtcGxlLmNvbTo4ODg4LzANBgkqhkiG9w0BAQUFAAOCAQEAi5uW+44bd/VwOf52
Uaypa4Clt5WLwxqcH7vR0WhDQJZi1qba2f2dmp6KhPr1VM6o1zfHDJX8EYvpMlPl
WWEKU3Dz1u0/sfRJv4bBdw2xrGV+YtLyWjFQp+0ou2PV809DOj+/O9CUqqF0lb6k
D4vgb9gzhHZxstr0Dh7S6/DDHjN5ITWTGAU422OFGuSEQQrD+/1caT0YCji4FhjT
I7lRRy5UCNH8LrZjYnicJlnCXlo4dkfn8Ph7twBGNLBEKKkz1+UdUsj7MqUlhiEM
gPBLN2CgRWmfa7A0kV5MYkWZgx2ASHi77tSDOXbD5vsx6SDwZJAkTsYHdUAffpd3
H7+i7w==
-----END CERTIFICATE-----
