Certificate:
    Data:
        Version: 3 (0x2)
        Serial Number: 28 (0x1c)
        Signature Algorithm: sha1WithRSAEncryption
        Issuer: CN=Westpoint Certificate Test CA, ST=Lancashire, C=UK/emailAddress=ca@example.com, O=Westpoint Certificate Test Root Certification Authority
        Validity
            Not Before: Jun 26 19:36:42 2011 GMT
            Not After : Jun 23 19:36:42 2021 GMT
        Subject: ST=Lancashire, C=UK/emailAddress=test@example.com, O=Test intermediate CA
        Subject Public Key Info:
            Public Key Algorithm: rsaEncryption
                Public-Key: (1024 bit)
                Modulus:
                    00:a7:ed:3f:86:ee:ad:f8:b7:60:44:63:fc:1b:2c:
                    79:3c:90:8b:47:b8:51:b5:3e:96:6d:5d:f1:97:b3:
                    de:90:b2:9a:aa:9e:54:7e:2b:b1:6d:91:ae:20:29:
                    b6:69:7b:8a:e5:6c:41:10:b6:d3:73:4c:20:30:38:
                    57:c9:c8:ef:67:7e:76:39:c4:1c:df:6b:73:4e:2b:
                    21:2d:79:5a:c5:60:5e:85:11:52:3b:8e:ef:b0:e5:
                    2f:0c:e8:a3:fc:05:27:91:08:64:ea:2e:5a:f2:82:
                    0c:08:48:bc:bc:ca:60:02:1c:6a:38:eb:c8:02:a6:
                    f7:e8:c8:31:20:29:e6:e4:8d
                Exponent: 65537 (0x10001)
        X509v3 extensions:
            Authority Information Access: 
                OCSP - URI:http://ocsp.example.com:8888/

            X509v3 Basic Constraints: 
                CA:TRUE
    Signature Algorithm: sha1WithRSAEncryption
        94:1a:91:6a:05:41:0c:40:f9:46:35:e9:46:15:f1:3e:e4:d9:
        50:d6:0e:14:d8:1f:85:9e:a6:98:a2:db:db:ee:ff:56:55:6c:
        46:fd:0e:b0:03:79:a6:96:0f:c1:85:c3:3e:68:e0:17:10:a6:
        9c:10:34:88:96:f7:c8:ef:32:31:24:f4:3c:2d:eb:51:08:d6:
        87:83:f7:db:68:43:ed:d9:af:46:a2:48:74:d2:9d:c9:af:0f:
        29:42:ad:a2:cf:1e:ab:50:6f:ef:33:18:d3:07:ef:13:13:10:
        50:db:a9:56:db:f4:38:c1:db:05:fa:5a:67:92:72:69:fb:7a:
        5b:ec:d4:dd:fd:a2:21:06:59:b0:0d:48:5f:53:c1:65:94:aa:
        d4:4e:1c:e8:9f:b4:7d:9b:10:85:4a:b6:be:df:d8:33:b5:72:
        b0:ac:46:a9:67:55:1e:3e:58:a5:52:ed:b6:4a:cb:e9:d2:e5:
        f8:fe:56:b4:2c:5e:9f:3c:d1:7f:b4:eb:05:8d:46:1f:47:32:
        2b:4f:2e:ac:8d:c3:3c:eb:f1:0c:2f:3a:e0:fa:46:0b:e4:c5:
        f2:03:24:70:fc:ef:1a:fd:7b:a9:9c:d9:b6:4f:0e:74:07:52:
        23:eb:cd:66:61:67:a1:91:7f:76:a2:9d:42:54:d4:c6:5e:10:
        26:eb:37:e7
-----BEGIN CERTIFICATE-----
MIIDUDCCAjigAwIBAgIBHDANBgkqhkiG9w0BAQUFADCBqzEmMCQGA1UEAxMdV2Vz
dHBvaW50IENlcnRpZmljYXRlIFRlc3QgQ0ExEzARBgNVBAgTCkxhbmNhc2hpcmUx
CzAJBgNVBAYTAlVLMR0wGwYJKoZIhvcNAQkBFg5jYUBleGFtcGxlLmNvbTFAMD4G
A1UEChM3V2VzdHBvaW50IENlcnRpZmljYXRlIFRlc3QgUm9vdCBDZXJ0aWZpY2F0
aW9uIEF1dGhvcml0eTAeFw0xMTA2MjYxOTM2NDJaFw0yMTA2MjMxOTM2NDJaMGIx
EzARBgNVBAgTCkxhbmNhc2hpcmUxCzAJBgNVBAYTAlVLMR8wHQYJKoZIhvcNAQkB
FhB0ZXN0QGV4YW1wbGUuY29tMR0wGwYDVQQKExRUZXN0IGludGVybWVkaWF0ZSBD
QTCBnzANBgkqhkiG9w0BAQEFAAOBjQAwgYkCgYEAp+0/hu6t+LdgRGP8Gyx5PJCL
R7hRtT6WbV3xl7PekLKaqp5UfiuxbZGuICm2aXuK5WxBELbTc0wgMDhXycjvZ352
OcQc32tzTishLXlaxWBehRFSO47vsOUvDOij/AUnkQhk6i5a8oIMCEi8vMpgAhxq
OOvIAqb36MgxICnm5I0CAwEAAaNLMEkwOQYIKwYBBQUHAQEELTArMCkGCCsGAQUF
BzABhh1odHRwOi8vb2NzcC5leGFtcGxlLmNvbTo4ODg4LzAMBgNVHRMEBTADAQH/
MA0GCSqGSIb3DQEBBQUAA4IBAQCUGpFqBUEMQPlGNelGFfE+5NlQ1g4U2B+FnqaY
otvb7v9WVWxG/Q6wA3mmlg/BhcM+aOAXEKacEDSIlvfI7zIxJPQ8LetRCNaHg/fb
aEPt2a9Gokh00p3Jrw8pQq2izx6rUG/vMxjTB+8TExBQ26lW2/Q4wdsF+lpnknJp
+3pb7NTd/aIhBlmwDUhfU8FllKrUThzon7R9mxCFSra+39gztXKwrEapZ1UePlil
Uu22Ssvp0uX4/la0LF6fPNF/tOsFjUYfRzIrTy6sjcM86/EMLzrg+kYL5MXyAyRw
/O8a/XupnNm2Tw50B1Ij681mYWehkX92op1CVNTGXhAm6zfn
-----END CERTIFICATE-----
