Certificate:
    Data:
        Version: 3 (0x2)
        Serial Number: 1 (0x1)
        Signature Algorithm: sha1WithRSAEncryption
        Issuer: CN=Westpoint Certificate Test CA, ST=Lancashire, C=UK/emailAddress=ca@example.com, O=Westpoint Certificate Test Root Certification Authority
        Validity
            Not Before: Jun 26 19:36:39 2011 GMT
            Not After : Jun 23 19:36:39 2021 GMT
        Subject: CN=example.com, ST=Lancashire, C=UK/emailAddress=test@example.com, O=Some organisation
        Subject Public Key Info:
            Public Key Algorithm: rsaEncryption
                Public-Key: (1024 bit)
                Modulus:
                    00:c7:d8:d4:a7:c0:a0:e7:82:b4:ec:67:52:bf:50:
                    bf:b9:a6:f2:10:19:67:53:8c:99:5e:c8:fc:03:07:
                    71:24:a3:a9:c4:49:f8:15:34:4a:45:ee:92:81:aa:
                    3c:5a:1a:42:2b:db:d7:30:9e:85:e6:b8:74:bc:ae:
                    f0:ae:7d:05:4e:c9:0f:00:33:b2:86:ba:b6:49:9a:
                    07:18:92:f9:35:69:d2:ac:39:b9:85:ac:78:99:81:
                    06:f5:fa:2e:5b:18:f7:6a:16:d0:e6:f9:71:0f:b0:
                    05:c4:f0:5f:ed:90:81:3c:96:f5:e3:45:73:72:5f:
                    ce:dc:ce:0b:56:2e:be:d2:eb
                Exponent: 65537 (0x10001)
        X509v3 extensions:
            X509v3 Basic Constraints: 
                CA:FALSE
            Authority Information Access: 
                OCSP - URI:http://ocsp.example.com:8888/

    Signature Algorithm: sha1WithRSAEncryption
        76:84:40:52:b8:1d:6c:64:58:f1:10:30:03:db:16:91:da:b1:
        70:28:54:6f:0f:32:1c:84:65:b3:14:99:c6:59:f9:ec:f9:3f:
        46:1f:12:77:4e:f1:26:ad:46:4b:ee:48:78:bd:bf:2a:11:01:
        5b:02:cd:d2:6e:2d:8c:08:ea:a7:5a:18:16:71:e8:5d:c8:e7:
        7d:f2:4f:23:6c:59:3c:17:93:02:60:c0:d0:62:09:d2:a3:7d:
        90:77:6c:f7:0c:b2:e4:9e:73:d2:f8:dd:a3:0c:70:36:2f:5a:
        58:2b:2d:3e:0e:71:43:b2:14:00:e2:eb:2d:0e:09:91:47:83:
        e8:02:d4:7d:5c:1f:ce:d8:f5:ad:1f:ee:82:4f:23:47:db:f4:
        71:48:1b:e1:82:f1:d1:86:db:0f:b6:bb:3a:8f:40:05:48:b7:
        f2:a8:c7:c9:46:e1:ea:28:b2:02:00:90:04:00:19:32:6f:8d:
        3e:c2:67:ca:b0:80:3a:32:e3:35:92:18:a2:62:30:9d:7a:f5:
        13:3b:c7:00:3f:4e:17:a9:01:5d:a1:2c:71:76:d7:37:c8:16:
        92:f8:82:69:15:5f:7d:5e:b0:ba:0b:9f:bd:53:ad:e5:a6:b3:
        bc:6b:e4:1a:79:29:31:ff:ff:a1:2d:0b:30:46:d3:a5:2d:62:
        e6:be:68:df
-----BEGIN CERTIFICATE-----
MIIDYDCCAkigAwIBAgIBATANBgkqhkiG9w0BAQUFADCBqzEmMCQGA1UEAxMdV2Vz
dHBvaW50IENlcnRpZmljYXRlIFRlc3QgQ0ExEzARBgNVBAgTCkxhbmNhc2hpcmUx
CzAJBgNVBAYTAlVLMR0wGwYJKoZIhvcNAQkBFg5jYUBleGFtcGxlLmNvbTFAMD4G
A1UEChM3V2VzdHBvaW50IENlcnRpZmljYXRlIFRlc3QgUm9vdCBDZXJ0aWZpY2F0
aW9uIEF1dGhvcml0eTAeFw0xMTA2MjYxOTM2MzlaFw0yMTA2MjMxOTM2MzlaMHUx
FDASBgNVBAMTC2V4YW1wbGUuY29tMRMwEQYDVQQIEwpMYW5jYXNoaXJlMQswCQYD
VQQGEwJVSzEfMB0GCSqGSIb3DQEJARYQdGVzdEBleGFtcGxlLmNvbTEaMBgGA1UE
ChMRU29tZSBvcmdhbmlzYXRpb24wgZ8wDQYJKoZIhvcNAQEBBQADgY0AMIGJAoGB
AMfY1KfAoOeCtOxnUr9Qv7mm8hAZZ1OMmV7I/AMHcSSjqcRJ+BU0SkXukoGqPFoa
Qivb1zCehea4dLyu8K59BU7JDwAzsoa6tkmaBxiS+TVp0qw5uYWseJmBBvX6LlsY
92oW0Ob5cQ+wBcTwX+2QgTyW9eNFc3JfztzOC1YuvtLrAgMBAAGjSDBGMAkGA1Ud
EwQCMAAwOQYIKwYBBQUHAQEELTArMCkGCCsGAQUFBzABhh1odHRwOi8vb2NzcC5l
eGFtcGxlLmNvbTo4ODg4LzANBgkqhkiG9w0BAQUFAAOCAQEAdoRAUrgdbGRY8RAw
A9sWkdqxcChUbw8yHIRlsxSZxln57Pk/Rh8Sd07xJq1GS+5IeL2/KhEBWwLN0m4t
jAjqp1oYFnHoXcjnffJPI2xZPBeTAmDA0GIJ0qN9kHds9wyy5J5z0vjdowxwNi9a
WCstPg5xQ7IUAOLrLQ4JkUeD6ALUfVwfztj1rR/ugk8jR9v0cUgb4YLx0YbbD7a7
Oo9ABUi38qjHyUbh6iiyAgCQBAAZMm+NPsJnyrCAOjLjNZIYomIwnXr1EzvHAD9O
F6kBXaEscXbXN8gWkviCaRVffV6wugufvVOt5aazvGvkGnkpMf//oS0LMEbTpS1i
5r5o3w==
-----END CERTIFICATE-----
