Certificate:
    Data:
        Version: 3 (0x2)
        Serial Number: 27 (0x1b)
        Signature Algorithm: sha1WithRSAEncryption
        Issuer: CN=example.com, ST=Lancashire, C=UK/emailAddress=test@example.com, O=Some organisation
        Validity
            Not Before: Jun 26 19:36:42 2011 GMT
            Not After : Jun 23 19:36:42 2021 GMT
        Subject: CN=example.com
        Subject Public Key Info:
            Public Key Algorithm: rsaEncryption
                Public-Key: (1024 bit)
                Modulus:
                    00:d7:b6:a8:07:83:27:b8:72:da:85:ad:50:bf:c2:
                    3f:cc:d4:e7:97:55:b5:45:aa:d2:cb:df:b6:34:6f:
                    c2:8f:86:e2:15:8a:cd:3e:af:f5:c0:f9:2e:61:80:
                    70:17:d3:db:0f:8a:e6:2c:a8:e3:12:2d:92:e1:8d:
                    10:e0:e7:30:94:98:ec:b0:21:c3:86:f7:ff:29:58:
                    2b:ab:b1:23:e4:ca:66:66:6a:18:b5:73:dc:c7:44:
                    04:30:55:bf:f9:3b:74:f6:de:bd:d9:ef:46:b0:15:
                    56:3b:43:cc:55:c2:cc:2e:5d:17:f8:04:dc:3d:bf:
                    1b:cc:0a:41:61:c8:35:02:1b
                Exponent: 65537 (0x10001)
        X509v3 extensions:
            X509v3 Basic Constraints: 
                CA:FALSE
            Authority Information Access: 
                OCSP - URI:http://ocsp.example.com:8888/

    Signature Algorithm: sha1WithRSAEncryption
        18:e2:06:f3:4b:42:46:b6:29:d1:8d:50:ef:5b:8b:e5:33:24:
        f3:f1:3e:58:4d:7f:3e:51:e9:c4:a2:cb:64:5f:d1:51:ce:8d:
        b6:15:63:23:30:4b:7c:70:30:61:ce:1f:70:bb:99:63:5b:15:
        d9:ce:aa:da:65:87:66:ab:ad:64:e8:09:37:ea:79:d0:3a:a2:
        e0:cf:0b:1b:a7:35:3d:f8:45:4c:4b:96:15:ec:fe:64:9f:e0:
        1d:04:52:35:a1:b4:7e:31:34:84:7e:e6:e0:58:1e:14:02:df:
        68:f6:b6:eb:dc:10:eb:da:fe:8e:06:ab:52:b7:ca:15:c3:8d:
        5a:8a
-----BEGIN CERTIFICATE-----
MIICSTCCAbKgAwIBAgIBGzANBgkqhkiG9w0BAQUFADB1MRQwEgYDVQQDEwtleGFt
cGxlLmNvbTETMBEGA1UECBMKTGFuY2FzaGlyZTELMAkGA1UEBhMCVUsxHzAdBgkq
hkiG9w0BCQEWEHRlc3RAZXhhbXBsZS5jb20xGjAYBgNVBAoTEVNvbWUgb3JnYW5p
c2F0aW9uMB4XDTExMDYyNjE5MzY0MloXDTIxMDYyMzE5MzY0MlowFjEUMBIGA1UE
AxMLZXhhbXBsZS5jb20wgZ8wDQYJKoZIhvcNAQEBBQADgY0AMIGJAoGBANe2qAeD
J7hy2oWtUL/CP8zU55dVtUWq0svftjRvwo+G4hWKzT6v9cD5LmGAcBfT2w+K5iyo
4xItkuGNEODnMJSY7LAhw4b3/ylYK6uxI+TKZmZqGLVz3MdEBDBVv/k7dPbevdnv
RrAVVjtDzFXCzC5dF/gE3D2/G8wKQWHINQIbAgMBAAGjSDBGMAkGA1UdEwQCMAAw
OQYIKwYBBQUHAQEELTArMCkGCCsGAQUFBzABhh1odHRwOi8vb2NzcC5leGFtcGxl
LmNvbTo4ODg4LzANBgkqhkiG9w0BAQUFAAOBgQAY4gbzS0JGtinRjVDvW4vlMyTz
8T5YTX8+UenEostkX9FRzo22FWMjMEt8cDBhzh9wu5ljWxXZzqraZYdmq61k6Ak3
6nnQOqLgzwsbpzU9+EVMS5YV7P5kn+AdBFI1obR+MTSEfubgWB4UAt9o9rbr3BDr
2v6OBqtSt8oVw41aig==
-----END CERTIFICATE-----
