Certificate:
    Data:
        Version: 3 (0x2)
        Serial Number: 29 (0x1d)
        Signature Algorithm: sha1WithRSAEncryption
        Issuer: ST=Lancashire, C=UK/emailAddress=test@example.com, O=Test intermediate CA
        Validity
            Not Before: Jun 26 19:36:42 2011 GMT
            Not After : Jun 23 19:36:42 2021 GMT
        Subject: CN=example.com
        Subject Public Key Info:
            Public Key Algorithm: rsaEncryption
                Public-Key: (1024 bit)
                Modulus:
                    00:ba:f2:dc:f9:77:b0:ad:fd:9d:42:4f:22:15:6d:
                    87:40:ed:30:8a:04:ad:ac:7a:0b:d4:7a:a4:a7:ef:
                    e0:e7:9b:f2:5e:62:56:24:ed:88:bd:bd:e3:64:d2:
                    d4:b4:01:39:b8:9e:6f:c7:b0:fc:b9:fd:a8:4d:46:
                    c8:9e:6a:43:82:ca:56:83:d4:4b:ea:63:d5:56:d1:
                    99:46:4f:8b:28:d0:2f:db:bf:04:65:64:82:c2:61:
                    aa:66:50:27:e5:7a:57:e3:72:e3:ae:22:8d:92:7e:
                    25:90:a2:7c:0c:04:79:c5:ab:64:58:a9:83:79:67:
                    7f:72:33:cc:5f:5b:cd:74:bb
                Exponent: 65537 (0x10001)
        X509v3 extensions:
            X509v3 Basic Constraints: 
                CA:FALSE
            Authority Information Access: 
                OCSP - URI:http://ocsp.example.com:8888/

    Signature Algorithm: sha1WithRSAEncryption
        19:e8:ce:9d:4d:ef:cc:4f:6c:e5:ab:df:aa:e2:3c:d8:6b:a8:
        dd:b8:fa:50:e4:b6:04:fc:66:92:fb:e8:11:73:81:60:1a:88:
        b2:18:0b:8c:89:05:47:16:50:09:be:bc:a6:3c:fe:2e:45:01:
        00:e3:27:30:72:f6:93:49:7f:d0:3b:a8:0e:cb:e7:01:95:28:
        8b:40:95:f7:b1:5b:c9:ff:26:ff:ad:4a:c4:e4:99:f7:65:fc:
        e4:5e:d2:56:ea:98:42:dc:93:62:46:1a:33:53:0d:43:9d:ef:
        14:03:35:a7:13:fa:27:24:92:2f:9a:f9:0a:62:99:cc:c0:80:
        79:10
-----BEGIN CERTIFICATE-----
MIICNjCCAZ+gAwIBAgIBHTANBgkqhkiG9w0BAQUFADBiMRMwEQYDVQQIEwpMYW5j
YXNoaXJlMQswCQYDVQQGEwJVSzEfMB0GCSqGSIb3DQEJARYQdGVzdEBleGFtcGxl
LmNvbTEdMBsGA1UEChMUVGVzdCBpbnRlcm1lZGlhdGUgQ0EwHhcNMTEwNjI2MTkz
NjQyWhcNMjEwNjIzMTkzNjQyWjAWMRQwEgYDVQQDEwtleGFtcGxlLmNvbTCBnzAN
BgkqhkiG9w0BAQEFAAOBjQAwgYkCgYEAuvLc+Xewrf2dQk8iFW2HQO0wigStrHoL
1Hqkp+/g55vyXmJWJO2Ivb3jZNLUtAE5uJ5vx7D8uf2oTUbInmpDgspWg9RL6mPV
VtGZRk+LKNAv278EZWSCwmGqZlAn5XpX43LjriKNkn4lkKJ8DAR5xatkWKmDeWd/
cjPMX1vNdLsCAwEAAaNIMEYwCQYDVR0TBAIwADA5BggrBgEFBQcBAQQtMCswKQYI
KwYBBQUHMAGGHWh0dHA6Ly9vY3NwLmV4YW1wbGUuY29tOjg4ODgvMA0GCSqGSIb3
DQEBBQUAA4GBABnozp1N78xPbOWr36riPNhrqN24+lDktgT8ZpL76BFzgWAaiLIY
C4yJBUcWUAm+vKY8/i5FAQDjJzBy9pNJf9A7qA7L5wGVKItAlfexW8n/Jv+tSsTk
mfdl/ORe0lbqmELck2JGGjNTDUOd7xQDNacT+ickki+a+QpimczAgHkQ
-----END CERTIFICATE-----
