EXPORTS
	_ZN6Phonon10SeekSlider11qt_metacallEN11QMetaObject4CallEiPPv @ 1 NONAME
	_ZN6Phonon10SeekSlider11qt_metacastEPKc @ 2 NONAME
	_ZN6Phonon10SeekSlider11setIconSizeERK5QSize @ 3 NONAME
	_ZN6Phonon10SeekSlider11setPageStepEi @ 4 NONAME
	_ZN6Phonon10SeekSlider11setTrackingEb @ 5 NONAME
	_ZN6Phonon10SeekSlider13setSingleStepEi @ 6 NONAME
	_ZN6Phonon10SeekSlider14setIconVisibleEb @ 7 NONAME
	_ZN6Phonon10SeekSlider14setMediaObjectEPNS_11MediaObjectE @ 8 NONAME
	_ZN6Phonon10SeekSlider14setOrientationEN2Qt11OrientationE @ 9 NONAME
	_ZN6Phonon10SeekSlider16staticMetaObjectE @ 10 NONAME DATA 16
	_ZN6Phonon10SeekSlider19getStaticMetaObjectEv @ 11 NONAME
	_ZN6Phonon10SeekSliderC1EP7QWidget @ 12 NONAME
	_ZN6Phonon10SeekSliderC1EPNS_11MediaObjectEP7QWidget @ 13 NONAME
	_ZN6Phonon10SeekSliderC2EP7QWidget @ 14 NONAME
	_ZN6Phonon10SeekSliderC2EPNS_11MediaObjectEP7QWidget @ 15 NONAME
	_ZN6Phonon10SeekSliderD0Ev @ 16 NONAME
	_ZN6Phonon10SeekSliderD1Ev @ 17 NONAME
	_ZN6Phonon10SeekSliderD2Ev @ 18 NONAME
	_ZN6Phonon10createPathEPNS_9MediaNodeES1_ @ 19 NONAME
	_ZN6Phonon11AudioOutput11qt_metacallEN11QMetaObject4CallEiPPv @ 20 NONAME
	_ZN6Phonon11AudioOutput11qt_metacastEPKc @ 21 NONAME
	_ZN6Phonon11AudioOutput12mutedChangedEb @ 22 NONAME
	_ZN6Phonon11AudioOutput13volumeChangedEf @ 23 NONAME
	_ZN6Phonon11AudioOutput15setOutputDeviceERKNS_17ObjectDescriptionILNS_21ObjectDescriptionTypeE0EEE @ 24 NONAME
	_ZN6Phonon11AudioOutput16setVolumeDecibelEf @ 25 NONAME
	_ZN6Phonon11AudioOutput16staticMetaObjectE @ 26 NONAME DATA 16
	_ZN6Phonon11AudioOutput19getStaticMetaObjectEv @ 27 NONAME
	_ZN6Phonon11AudioOutput19outputDeviceChangedERKNS_17ObjectDescriptionILNS_21ObjectDescriptionTypeE0EEE @ 28 NONAME
	_ZN6Phonon11AudioOutput7setNameERK7QString @ 29 NONAME
	_ZN6Phonon11AudioOutput8setMutedEb @ 30 NONAME
	_ZN6Phonon11AudioOutput9setVolumeEf @ 31 NONAME
	_ZN6Phonon11AudioOutputC1ENS_8CategoryEP7QObject @ 32 NONAME
	_ZN6Phonon11AudioOutputC1EP7QObject @ 33 NONAME
	_ZN6Phonon11AudioOutputC2ENS_8CategoryEP7QObject @ 34 NONAME
	_ZN6Phonon11AudioOutputC2EP7QObject @ 35 NONAME
	_ZN6Phonon11MediaObject10clearQueueEv @ 36 NONAME
	_ZN6Phonon11MediaObject11qt_metacallEN11QMetaObject4CallEiPPv @ 37 NONAME
	_ZN6Phonon11MediaObject11qt_metacastEPKc @ 38 NONAME
	_ZN6Phonon11MediaObject12bufferStatusEi @ 39 NONAME
	_ZN6Phonon11MediaObject12stateChangedENS_5StateES1_ @ 40 NONAME
	_ZN6Phonon11MediaObject13aboutToFinishEv @ 41 NONAME
	_ZN6Phonon11MediaObject15hasVideoChangedEb @ 42 NONAME
	_ZN6Phonon11MediaObject15metaDataChangedEv @ 43 NONAME
	_ZN6Phonon11MediaObject15seekableChangedEb @ 44 NONAME
	_ZN6Phonon11MediaObject15setTickIntervalEi @ 45 NONAME
	_ZN6Phonon11MediaObject16setCurrentSourceERKNS_11MediaSourceE @ 46 NONAME
	_ZN6Phonon11MediaObject16setPrefinishMarkEi @ 47 NONAME
	_ZN6Phonon11MediaObject16staticMetaObjectE @ 48 NONAME DATA 16
	_ZN6Phonon11MediaObject16totalTimeChangedEx @ 49 NONAME
	_ZN6Phonon11MediaObject17setTransitionTimeEi @ 50 NONAME
	_ZN6Phonon11MediaObject19getStaticMetaObjectEv @ 51 NONAME
	_ZN6Phonon11MediaObject20currentSourceChangedERKNS_11MediaSourceE @ 52 NONAME
	_ZN6Phonon11MediaObject20prefinishMarkReachedEi @ 53 NONAME
	_ZN6Phonon11MediaObject4playEv @ 54 NONAME
	_ZN6Phonon11MediaObject4seekEx @ 55 NONAME
	_ZN6Phonon11MediaObject4stopEv @ 56 NONAME
	_ZN6Phonon11MediaObject4tickEx @ 57 NONAME
	_ZN6Phonon11MediaObject5clearEv @ 58 NONAME
	_ZN6Phonon11MediaObject5pauseEv @ 59 NONAME
	_ZN6Phonon11MediaObject7enqueueERK5QListI4QUrlE @ 60 NONAME
	_ZN6Phonon11MediaObject7enqueueERK5QListINS_11MediaSourceEE @ 61 NONAME
	_ZN6Phonon11MediaObject7enqueueERKNS_11MediaSourceE @ 62 NONAME
	_ZN6Phonon11MediaObject8finishedEv @ 63 NONAME
	_ZN6Phonon11MediaObject8setQueueERK5QListI4QUrlE @ 64 NONAME
	_ZN6Phonon11MediaObject8setQueueERK5QListINS_11MediaSourceEE @ 65 NONAME
	_ZN6Phonon11MediaObjectC1EP7QObject @ 66 NONAME
	_ZN6Phonon11MediaObjectC2EP7QObject @ 67 NONAME
	_ZN6Phonon11MediaObjectD0Ev @ 68 NONAME
	_ZN6Phonon11MediaObjectD1Ev @ 69 NONAME
	_ZN6Phonon11MediaObjectD2Ev @ 70 NONAME
	_ZN6Phonon11MediaSource13setAutoDeleteEb @ 71 NONAME
	_ZN6Phonon11MediaSourceC1ENS_8DiscTypeERK7QString @ 72 NONAME
	_ZN6Phonon11MediaSourceC1EP9QIODevice @ 73 NONAME
	_ZN6Phonon11MediaSourceC1EPNS_19AbstractMediaStreamE @ 74 NONAME
	_ZN6Phonon11MediaSourceC1ERK4QUrl @ 75 NONAME
	_ZN6Phonon11MediaSourceC1ERK7QString @ 76 NONAME
	_ZN6Phonon11MediaSourceC1ERKS0_ @ 77 NONAME
	_ZN6Phonon11MediaSourceC1ERNS_18MediaSourcePrivateE @ 78 NONAME
	_ZN6Phonon11MediaSourceC1Ev @ 79 NONAME
	_ZN6Phonon11MediaSourceC2ENS_8DiscTypeERK7QString @ 80 NONAME
	_ZN6Phonon11MediaSourceC2EP9QIODevice @ 81 NONAME
	_ZN6Phonon11MediaSourceC2EPNS_19AbstractMediaStreamE @ 82 NONAME
	_ZN6Phonon11MediaSourceC2ERK4QUrl @ 83 NONAME
	_ZN6Phonon11MediaSourceC2ERK7QString @ 84 NONAME
	_ZN6Phonon11MediaSourceC2ERKS0_ @ 85 NONAME
	_ZN6Phonon11MediaSourceC2ERNS_18MediaSourcePrivateE @ 86 NONAME
	_ZN6Phonon11MediaSourceC2Ev @ 87 NONAME
	_ZN6Phonon11MediaSourceD1Ev @ 88 NONAME
	_ZN6Phonon11MediaSourceD2Ev @ 89 NONAME
	_ZN6Phonon11MediaSourceaSERKS0_ @ 90 NONAME
	_ZN6Phonon11VideoPlayer11qt_metacallEN11QMetaObject4CallEiPPv @ 91 NONAME
	_ZN6Phonon11VideoPlayer11qt_metacastEPKc @ 92 NONAME
	_ZN6Phonon11VideoPlayer16staticMetaObjectE @ 93 NONAME DATA 16
	_ZN6Phonon11VideoPlayer19getStaticMetaObjectEv @ 94 NONAME
	_ZN6Phonon11VideoPlayer4loadERKNS_11MediaSourceE @ 95 NONAME
	_ZN6Phonon11VideoPlayer4playERKNS_11MediaSourceE @ 96 NONAME
	_ZN6Phonon11VideoPlayer4playEv @ 97 NONAME
	_ZN6Phonon11VideoPlayer4seekEx @ 98 NONAME
	_ZN6Phonon11VideoPlayer4stopEv @ 99 NONAME
	_ZN6Phonon11VideoPlayer5pauseEv @ 100 NONAME
	_ZN6Phonon11VideoPlayer8finishedEv @ 101 NONAME
	_ZN6Phonon11VideoPlayer9setVolumeEf @ 102 NONAME
	_ZN6Phonon11VideoPlayerC1ENS_8CategoryEP7QWidget @ 103 NONAME
	_ZN6Phonon11VideoPlayerC1EP7QWidget @ 104 NONAME
	_ZN6Phonon11VideoPlayerC2ENS_8CategoryEP7QWidget @ 105 NONAME
	_ZN6Phonon11VideoPlayerC2EP7QWidget @ 106 NONAME
	_ZN6Phonon11VideoPlayerD0Ev @ 107 NONAME
	_ZN6Phonon11VideoPlayerD1Ev @ 108 NONAME
	_ZN6Phonon11VideoPlayerD2Ev @ 109 NONAME
	_ZN6Phonon11VideoWidget11qt_metacallEN11QMetaObject4CallEiPPv @ 110 NONAME
	_ZN6Phonon11VideoWidget11qt_metacastEPKc @ 111 NONAME
	_ZN6Phonon11VideoWidget11setContrastEf @ 112 NONAME
	_ZN6Phonon11VideoWidget12setScaleModeENS0_9ScaleModeE @ 113 NONAME
	_ZN6Phonon11VideoWidget13setBrightnessEf @ 114 NONAME
	_ZN6Phonon11VideoWidget13setFullScreenEb @ 115 NONAME
	_ZN6Phonon11VideoWidget13setSaturationEf @ 116 NONAME
	_ZN6Phonon11VideoWidget14exitFullScreenEv @ 117 NONAME
	_ZN6Phonon11VideoWidget14mouseMoveEventEP11QMouseEvent @ 118 NONAME
	_ZN6Phonon11VideoWidget14setAspectRatioENS0_11AspectRatioE @ 119 NONAME
	_ZN6Phonon11VideoWidget15enterFullScreenEv @ 120 NONAME
	_ZN6Phonon11VideoWidget16staticMetaObjectE @ 121 NONAME DATA 16
	_ZN6Phonon11VideoWidget19getStaticMetaObjectEv @ 122 NONAME
	_ZN6Phonon11VideoWidget5eventEP6QEvent @ 123 NONAME
	_ZN6Phonon11VideoWidget6setHueEf @ 124 NONAME
	_ZN6Phonon11VideoWidgetC1EP7QWidget @ 125 NONAME
	_ZN6Phonon11VideoWidgetC1ERNS_18VideoWidgetPrivateEP7QWidget @ 126 NONAME
	_ZN6Phonon11VideoWidgetC2EP7QWidget @ 127 NONAME
	_ZN6Phonon11VideoWidgetC2ERNS_18VideoWidgetPrivateEP7QWidget @ 128 NONAME
	_ZN6Phonon12EffectWidget11qt_metacallEN11QMetaObject4CallEiPPv @ 129 NONAME
	_ZN6Phonon12EffectWidget11qt_metacastEPKc @ 130 NONAME
	_ZN6Phonon12EffectWidget16staticMetaObjectE @ 131 NONAME DATA 16
	_ZN6Phonon12EffectWidget19getStaticMetaObjectEv @ 132 NONAME
	_ZN6Phonon12EffectWidgetC1EPNS_6EffectEP7QWidget @ 133 NONAME
	_ZN6Phonon12EffectWidgetC2EPNS_6EffectEP7QWidget @ 134 NONAME
	_ZN6Phonon12EffectWidgetD0Ev @ 135 NONAME
	_ZN6Phonon12EffectWidgetD1Ev @ 136 NONAME
	_ZN6Phonon12EffectWidgetD2Ev @ 137 NONAME
	_ZN6Phonon12GlobalConfigC1Ev @ 138 NONAME
	_ZN6Phonon12GlobalConfigC2Ev @ 139 NONAME
	_ZN6Phonon12GlobalConfigD0Ev @ 140 NONAME
	_ZN6Phonon12GlobalConfigD1Ev @ 141 NONAME
	_ZN6Phonon12GlobalConfigD2Ev @ 142 NONAME
	_ZN6Phonon12VolumeSlider11qt_metacallEN11QMetaObject4CallEiPPv @ 143 NONAME
	_ZN6Phonon12VolumeSlider11qt_metacastEPKc @ 144 NONAME
	_ZN6Phonon12VolumeSlider11setIconSizeERK5QSize @ 145 NONAME
	_ZN6Phonon12VolumeSlider11setPageStepEi @ 146 NONAME
	_ZN6Phonon12VolumeSlider11setTrackingEb @ 147 NONAME
	_ZN6Phonon12VolumeSlider13setSingleStepEi @ 148 NONAME
	_ZN6Phonon12VolumeSlider14setAudioOutputEPNS_11AudioOutputE @ 149 NONAME
	_ZN6Phonon12VolumeSlider14setMuteVisibleEb @ 150 NONAME
	_ZN6Phonon12VolumeSlider14setOrientationEN2Qt11OrientationE @ 151 NONAME
	_ZN6Phonon12VolumeSlider16setMaximumVolumeEf @ 152 NONAME
	_ZN6Phonon12VolumeSlider16staticMetaObjectE @ 153 NONAME DATA 16
	_ZN6Phonon12VolumeSlider19getStaticMetaObjectEv @ 154 NONAME
	_ZN6Phonon12VolumeSliderC1EP7QWidget @ 155 NONAME
	_ZN6Phonon12VolumeSliderC1EPNS_11AudioOutputEP7QWidget @ 156 NONAME
	_ZN6Phonon12VolumeSliderC2EP7QWidget @ 157 NONAME
	_ZN6Phonon12VolumeSliderC2EPNS_11AudioOutputEP7QWidget @ 158 NONAME
	_ZN6Phonon12VolumeSliderD0Ev @ 159 NONAME
	_ZN6Phonon12VolumeSliderD1Ev @ 160 NONAME
	_ZN6Phonon12VolumeSliderD2Ev @ 161 NONAME
	_ZN6Phonon12createPlayerENS_8CategoryERKNS_11MediaSourceE @ 162 NONAME
	_ZN6Phonon13phononVersionEv @ 163 NONAME
	_ZN6Phonon15EffectParameterC1ERKS0_ @ 164 NONAME
	_ZN6Phonon15EffectParameterC1EiRK7QString6QFlagsINS0_4HintEERK8QVariantS9_S9_RK5QListIS7_ES3_ @ 165 NONAME
	_ZN6Phonon15EffectParameterC1Ev @ 166 NONAME
	_ZN6Phonon15EffectParameterC2ERKS0_ @ 167 NONAME
	_ZN6Phonon15EffectParameterC2EiRK7QString6QFlagsINS0_4HintEERK8QVariantS9_S9_RK5QListIS7_ES3_ @ 168 NONAME
	_ZN6Phonon15EffectParameterC2Ev @ 169 NONAME
	_ZN6Phonon15EffectParameterD1Ev @ 170 NONAME
	_ZN6Phonon15EffectParameterD2Ev @ 171 NONAME
	_ZN6Phonon15EffectParameteraSERKS0_ @ 172 NONAME
	_ZN6Phonon15MediaController11qt_metacallEN11QMetaObject4CallEiPPv @ 173 NONAME
	_ZN6Phonon15MediaController11qt_metacastEPKc @ 174 NONAME
	_ZN6Phonon15MediaController12angleChangedEi @ 175 NONAME
	_ZN6Phonon15MediaController12titleChangedEi @ 176 NONAME
	_ZN6Phonon15MediaController13previousTitleEv @ 177 NONAME
	_ZN6Phonon15MediaController14chapterChangedEi @ 178 NONAME
	_ZN6Phonon15MediaController15setCurrentAngleEi @ 179 NONAME
	_ZN6Phonon15MediaController15setCurrentTitleEi @ 180 NONAME
	_ZN6Phonon15MediaController16staticMetaObjectE @ 181 NONAME DATA 16
	_ZN6Phonon15MediaController17setAutoplayTitlesEb @ 182 NONAME
	_ZN6Phonon15MediaController17setCurrentChapterEi @ 183 NONAME
	_ZN6Phonon15MediaController18setCurrentSubtitleERKNS_17ObjectDescriptionILNS_21ObjectDescriptionTypeE3EEE @ 184 NONAME
	_ZN6Phonon15MediaController19getStaticMetaObjectEv @ 185 NONAME
	_ZN6Phonon15MediaController22availableAnglesChangedEi @ 186 NONAME
	_ZN6Phonon15MediaController22availableTitlesChangedEi @ 187 NONAME
	_ZN6Phonon15MediaController22setCurrentAudioChannelERKNS_17ObjectDescriptionILNS_21ObjectDescriptionTypeE2EEE @ 188 NONAME
	_ZN6Phonon15MediaController24availableChaptersChangedEi @ 189 NONAME
	_ZN6Phonon15MediaController25availableSubtitlesChangedEv @ 190 NONAME
	_ZN6Phonon15MediaController29availableAudioChannelsChangedEv @ 191 NONAME
	_ZN6Phonon15MediaController9nextTitleEv @ 192 NONAME
	_ZN6Phonon15MediaControllerC1EPNS_11MediaObjectE @ 193 NONAME
	_ZN6Phonon15MediaControllerC2EPNS_11MediaObjectE @ 194 NONAME
	_ZN6Phonon15MediaControllerD0Ev @ 195 NONAME
	_ZN6Phonon15MediaControllerD1Ev @ 196 NONAME
	_ZN6Phonon15MediaControllerD2Ev @ 197 NONAME
	_ZN6Phonon15StreamInterface10enoughDataEv @ 198 NONAME
	_ZN6Phonon15StreamInterface10seekStreamEx @ 199 NONAME
	_ZN6Phonon15StreamInterface15connectToSourceERKNS_11MediaSourceE @ 200 NONAME
	_ZN6Phonon15StreamInterface5resetEv @ 201 NONAME
	_ZN6Phonon15StreamInterface8needDataEv @ 202 NONAME
	_ZN6Phonon15StreamInterfaceC2Ev @ 203 NONAME
	_ZN6Phonon15StreamInterfaceD0Ev @ 204 NONAME
	_ZN6Phonon15StreamInterfaceD1Ev @ 205 NONAME
	_ZN6Phonon15StreamInterfaceD2Ev @ 206 NONAME
	_ZN6Phonon16MediaNodePrivate12addInputPathERKNS_4PathE @ 207 NONAME
	_ZN6Phonon16MediaNodePrivate13addOutputPathERKNS_4PathE @ 208 NONAME
	_ZN6Phonon16MediaNodePrivate13backendObjectEv @ 209 NONAME
	_ZN6Phonon16MediaNodePrivate15removeInputPathERKNS_4PathE @ 210 NONAME
	_ZN6Phonon16MediaNodePrivate16removeOutputPathERKNS_4PathE @ 211 NONAME
	_ZN6Phonon16MediaNodePrivate19deleteBackendObjectEv @ 212 NONAME
	_ZN6Phonon16MediaNodePrivate21addDestructionHandlerEPNS_27MediaNodeDestructionHandlerE @ 213 NONAME
	_ZN6Phonon16MediaNodePrivate24removeDestructionHandlerEPNS_27MediaNodeDestructionHandlerE @ 214 NONAME
	_ZN6Phonon16MediaNodePrivateC2ENS0_6CastIdE @ 215 NONAME
	_ZN6Phonon16MediaNodePrivateD0Ev @ 216 NONAME
	_ZN6Phonon16MediaNodePrivateD1Ev @ 217 NONAME
	_ZN6Phonon16MediaNodePrivateD2Ev @ 218 NONAME
	_ZN6Phonon16categoryToStringENS_8CategoryE @ 219 NONAME
	_ZN6Phonon17VolumeFaderEffect11qt_metacallEN11QMetaObject4CallEiPPv @ 220 NONAME
	_ZN6Phonon17VolumeFaderEffect11qt_metacastEPKc @ 221 NONAME
	_ZN6Phonon17VolumeFaderEffect12setFadeCurveENS0_9FadeCurveE @ 222 NONAME
	_ZN6Phonon17VolumeFaderEffect16setVolumeDecibelEd @ 223 NONAME
	_ZN6Phonon17VolumeFaderEffect16staticMetaObjectE @ 224 NONAME DATA 16
	_ZN6Phonon17VolumeFaderEffect19getStaticMetaObjectEv @ 225 NONAME
	_ZN6Phonon17VolumeFaderEffect6fadeInEi @ 226 NONAME
	_ZN6Phonon17VolumeFaderEffect6fadeToEfi @ 227 NONAME
	_ZN6Phonon17VolumeFaderEffect7fadeOutEi @ 228 NONAME
	_ZN6Phonon17VolumeFaderEffect9setVolumeEf @ 229 NONAME
	_ZN6Phonon17VolumeFaderEffectC1EP7QObject @ 230 NONAME
	_ZN6Phonon17VolumeFaderEffectC2EP7QObject @ 231 NONAME
	_ZN6Phonon18MediaObjectPrivate15_k_stateChangedENS_5StateES1_ @ 232 NONAME
	_ZN6Phonon18MediaObjectPrivate18setupBackendObjectEv @ 233 NONAME
	_ZN6Phonon18MediaSourcePrivate9setStreamEPNS_19AbstractMediaStreamE @ 234 NONAME
	_ZN6Phonon18MediaSourcePrivateD0Ev @ 235 NONAME
	_ZN6Phonon18MediaSourcePrivateD1Ev @ 236 NONAME
	_ZN6Phonon18MediaSourcePrivateD2Ev @ 237 NONAME
	_ZN6Phonon19AbstractAudioOutput11qt_metacallEN11QMetaObject4CallEiPPv @ 238 NONAME
	_ZN6Phonon19AbstractAudioOutput11qt_metacastEPKc @ 239 NONAME
	_ZN6Phonon19AbstractAudioOutput16staticMetaObjectE @ 240 NONAME DATA 16
	_ZN6Phonon19AbstractAudioOutput19getStaticMetaObjectEv @ 241 NONAME
	_ZN6Phonon19AbstractAudioOutputC1ERNS_26AbstractAudioOutputPrivateEP7QObject @ 242 NONAME
	_ZN6Phonon19AbstractAudioOutputC2ERNS_26AbstractAudioOutputPrivateEP7QObject @ 243 NONAME
	_ZN6Phonon19AbstractAudioOutputD0Ev @ 244 NONAME
	_ZN6Phonon19AbstractAudioOutputD1Ev @ 245 NONAME
	_ZN6Phonon19AbstractAudioOutputD2Ev @ 246 NONAME
	_ZN6Phonon19AbstractMediaStream10enoughDataEv @ 247 NONAME
	_ZN6Phonon19AbstractMediaStream10seekStreamEx @ 248 NONAME
	_ZN6Phonon19AbstractMediaStream11qt_metacallEN11QMetaObject4CallEiPPv @ 249 NONAME
	_ZN6Phonon19AbstractMediaStream11qt_metacastEPKc @ 250 NONAME
	_ZN6Phonon19AbstractMediaStream13setStreamSizeEx @ 251 NONAME
	_ZN6Phonon19AbstractMediaStream16staticMetaObjectE @ 252 NONAME DATA 16
	_ZN6Phonon19AbstractMediaStream17setStreamSeekableEb @ 253 NONAME
	_ZN6Phonon19AbstractMediaStream19getStaticMetaObjectEv @ 254 NONAME
	_ZN6Phonon19AbstractMediaStream5errorENS_9ErrorTypeERK7QString @ 255 NONAME
	_ZN6Phonon19AbstractMediaStream9endOfDataEv @ 256 NONAME
	_ZN6Phonon19AbstractMediaStream9writeDataERK10QByteArray @ 257 NONAME
	_ZN6Phonon19AbstractMediaStreamC2EP7QObject @ 258 NONAME
	_ZN6Phonon19AbstractMediaStreamC2ERNS_26AbstractMediaStreamPrivateEP7QObject @ 259 NONAME
	_ZN6Phonon19AbstractMediaStreamD0Ev @ 260 NONAME
	_ZN6Phonon19AbstractMediaStreamD1Ev @ 261 NONAME
	_ZN6Phonon19AbstractMediaStreamD2Ev @ 262 NONAME
	_ZN6Phonon19AbstractVideoOutputC1ERNS_26AbstractVideoOutputPrivateE @ 263 NONAME
	_ZN6Phonon19AbstractVideoOutputC2ERNS_26AbstractVideoOutputPrivateE @ 264 NONAME
	_ZN6Phonon19BackendCapabilities18availableMimeTypesEv @ 265 NONAME
	_ZN6Phonon19BackendCapabilities19isMimeTypeAvailableERK7QString @ 266 NONAME
	_ZN6Phonon19BackendCapabilities21availableAudioEffectsEv @ 267 NONAME
	_ZN6Phonon19BackendCapabilities27availableAudioOutputDevicesEv @ 268 NONAME
	_ZN6Phonon19BackendCapabilities28availableAudioCaptureDevicesEv @ 269 NONAME
	_ZN6Phonon19BackendCapabilities8notifierEv @ 270 NONAME
	_ZN6Phonon21ObjectDescriptionData9fromIndexENS_21ObjectDescriptionTypeEi @ 271 NONAME
	_ZN6Phonon21ObjectDescriptionDataC1EPNS_24ObjectDescriptionPrivateE @ 272 NONAME
	_ZN6Phonon21ObjectDescriptionDataC1EiRK5QHashI10QByteArray8QVariantE @ 273 NONAME
	_ZN6Phonon21ObjectDescriptionDataC2EPNS_24ObjectDescriptionPrivateE @ 274 NONAME
	_ZN6Phonon21ObjectDescriptionDataC2EiRK5QHashI10QByteArray8QVariantE @ 275 NONAME
	_ZN6Phonon21ObjectDescriptionDataD1Ev @ 276 NONAME
	_ZN6Phonon21ObjectDescriptionDataD2Ev @ 277 NONAME
	_ZN6Phonon22ObjectDescriptionModelILNS_21ObjectDescriptionTypeE0EE11qt_metacastEPKc @ 278 NONAME
	_ZN6Phonon22ObjectDescriptionModelILNS_21ObjectDescriptionTypeE0EE16staticMetaObjectE @ 279 NONAME DATA 16
	_ZN6Phonon22ObjectDescriptionModelILNS_21ObjectDescriptionTypeE1EE11qt_metacastEPKc @ 280 NONAME
	_ZN6Phonon22ObjectDescriptionModelILNS_21ObjectDescriptionTypeE1EE16staticMetaObjectE @ 281 NONAME DATA 16
	_ZN6Phonon22ObjectDescriptionModelILNS_21ObjectDescriptionTypeE2EE11qt_metacastEPKc @ 282 NONAME
	_ZN6Phonon22ObjectDescriptionModelILNS_21ObjectDescriptionTypeE2EE16staticMetaObjectE @ 283 NONAME DATA 16
	_ZN6Phonon22ObjectDescriptionModelILNS_21ObjectDescriptionTypeE3EE11qt_metacastEPKc @ 284 NONAME
	_ZN6Phonon22ObjectDescriptionModelILNS_21ObjectDescriptionTypeE3EE16staticMetaObjectE @ 285 NONAME DATA 16
	_ZN6Phonon22ObjectDescriptionModelILNS_21ObjectDescriptionTypeE4EE11qt_metacastEPKc @ 286 NONAME
	_ZN6Phonon22ObjectDescriptionModelILNS_21ObjectDescriptionTypeE4EE16staticMetaObjectE @ 287 NONAME DATA 16
	_ZN6Phonon26AbstractMediaStreamPrivate13setStreamSizeEx @ 288 NONAME
	_ZN6Phonon26AbstractMediaStreamPrivate17setStreamSeekableEb @ 289 NONAME
	_ZN6Phonon26AbstractMediaStreamPrivate18setStreamInterfaceEPNS_15StreamInterfaceE @ 290 NONAME
	_ZN6Phonon26AbstractMediaStreamPrivate21phononObjectDestroyedEPNS_16MediaNodePrivateE @ 291 NONAME
	_ZN6Phonon26AbstractMediaStreamPrivate21setMediaObjectPrivateEPNS_18MediaObjectPrivateE @ 292 NONAME
	_ZN6Phonon26AbstractMediaStreamPrivate9endOfDataEv @ 293 NONAME
	_ZN6Phonon26AbstractMediaStreamPrivate9writeDataERK10QByteArray @ 294 NONAME
	_ZN6Phonon26AbstractMediaStreamPrivateD0Ev @ 295 NONAME
	_ZN6Phonon26AbstractMediaStreamPrivateD1Ev @ 296 NONAME
	_ZN6Phonon26AbstractMediaStreamPrivateD2Ev @ 297 NONAME
	_ZN6Phonon26ObjectDescriptionModelData10removeRowsEiiRK11QModelIndex @ 298 NONAME
	_ZN6Phonon26ObjectDescriptionModelData12dropMimeDataENS_21ObjectDescriptionTypeEPK9QMimeDataN2Qt10DropActionEiiRK11QModelIndex @ 299 NONAME
	_ZN6Phonon26ObjectDescriptionModelData12setModelDataERK5QListI28QExplicitlySharedDataPointerINS_21ObjectDescriptionDataEEE @ 300 NONAME
	_ZN6Phonon26ObjectDescriptionModelData6moveUpERK11QModelIndex @ 301 NONAME
	_ZN6Phonon26ObjectDescriptionModelData8moveDownERK11QModelIndex @ 302 NONAME
	_ZN6Phonon26ObjectDescriptionModelDataC1EP18QAbstractListModel @ 303 NONAME
	_ZN6Phonon26ObjectDescriptionModelDataC2EP18QAbstractListModel @ 304 NONAME
	_ZN6Phonon26ObjectDescriptionModelDataD1Ev @ 305 NONAME
	_ZN6Phonon26ObjectDescriptionModelDataD2Ev @ 306 NONAME
	_ZN6Phonon4Path10disconnectEv @ 307 NONAME
	_ZN6Phonon4Path12insertEffectEPNS_6EffectES2_ @ 308 NONAME
	_ZN6Phonon4Path12insertEffectERKNS_17ObjectDescriptionILNS_21ObjectDescriptionTypeE1EEEPNS_6EffectE @ 309 NONAME
	_ZN6Phonon4Path12removeEffectEPNS_6EffectE @ 310 NONAME
	_ZN6Phonon4Path9reconnectEPNS_9MediaNodeES2_ @ 311 NONAME
	_ZN6Phonon4PathC1ERKS0_ @ 312 NONAME
	_ZN6Phonon4PathC1Ev @ 313 NONAME
	_ZN6Phonon4PathC2ERKS0_ @ 314 NONAME
	_ZN6Phonon4PathC2Ev @ 315 NONAME
	_ZN6Phonon4PathD1Ev @ 316 NONAME
	_ZN6Phonon4PathD2Ev @ 317 NONAME
	_ZN6Phonon4PathaSERKS0_ @ 318 NONAME
	_ZN6Phonon5qHashERKNS_15EffectParameterE @ 319 NONAME
	_ZN6Phonon6Effect11qt_metacallEN11QMetaObject4CallEiPPv @ 320 NONAME
	_ZN6Phonon6Effect11qt_metacastEPKc @ 321 NONAME
	_ZN6Phonon6Effect16staticMetaObjectE @ 322 NONAME DATA 16
	_ZN6Phonon6Effect17setParameterValueERKNS_15EffectParameterERK8QVariant @ 323 NONAME
	_ZN6Phonon6Effect19getStaticMetaObjectEv @ 324 NONAME
	_ZN6Phonon6EffectC1ERKNS_17ObjectDescriptionILNS_21ObjectDescriptionTypeE1EEEP7QObject @ 325 NONAME
	_ZN6Phonon6EffectC1ERNS_13EffectPrivateEP7QObject @ 326 NONAME
	_ZN6Phonon6EffectC2ERKNS_17ObjectDescriptionILNS_21ObjectDescriptionTypeE1EEEP7QObject @ 327 NONAME
	_ZN6Phonon6EffectC2ERNS_13EffectPrivateEP7QObject @ 328 NONAME
	_ZN6Phonon6EffectD0Ev @ 329 NONAME
	_ZN6Phonon6EffectD1Ev @ 330 NONAME
	_ZN6Phonon6EffectD2Ev @ 331 NONAME
	_ZN6Phonon7Factory10setBackendEP7QObject @ 332 NONAME
	_ZN6Phonon7Factory11backendNameEv @ 333 NONAME
	_ZN6Phonon7Factory14platformPluginEv @ 334 NONAME
	_ZN6Phonon7Factory15registerQObjectEP7QObject @ 335 NONAME
	_ZN6Phonon7Factory22registerFrontendObjectEPNS_16MediaNodePrivateE @ 336 NONAME
	_ZN6Phonon7Factory24deregisterFrontendObjectEPNS_16MediaNodePrivateE @ 337 NONAME
	_ZN6Phonon7Factory6senderEv @ 338 NONAME
	_ZN6Phonon7Factory7backendEb @ 339 NONAME
	_ZN6Phonon9MediaNodeC1ERNS_16MediaNodePrivateE @ 340 NONAME
	_ZN6Phonon9MediaNodeC2ERNS_16MediaNodePrivateE @ 341 NONAME
	_ZN6Phonon9MediaNodeD0Ev @ 342 NONAME
	_ZN6Phonon9MediaNodeD1Ev @ 343 NONAME
	_ZN6Phonon9MediaNodeD2Ev @ 344 NONAME
	_ZNK6Phonon10SeekSlider10metaObjectEv @ 345 NONAME
	_ZNK6Phonon10SeekSlider10singleStepEv @ 346 NONAME
	_ZNK6Phonon10SeekSlider11hasTrackingEv @ 347 NONAME
	_ZNK6Phonon10SeekSlider11mediaObjectEv @ 348 NONAME
	_ZNK6Phonon10SeekSlider11orientationEv @ 349 NONAME
	_ZNK6Phonon10SeekSlider13isIconVisibleEv @ 350 NONAME
	_ZNK6Phonon10SeekSlider8iconSizeEv @ 351 NONAME
	_ZNK6Phonon10SeekSlider8pageStepEv @ 352 NONAME
	_ZNK6Phonon11AudioOutput10metaObjectEv @ 353 NONAME
	_ZNK6Phonon11AudioOutput12outputDeviceEv @ 354 NONAME
	_ZNK6Phonon11AudioOutput13volumeDecibelEv @ 355 NONAME
	_ZNK6Phonon11AudioOutput4nameEv @ 356 NONAME
	_ZNK6Phonon11AudioOutput6volumeEv @ 357 NONAME
	_ZNK6Phonon11AudioOutput7isMutedEv @ 358 NONAME
	_ZNK6Phonon11AudioOutput8categoryEv @ 359 NONAME
	_ZNK6Phonon11MediaObject10isSeekableEv @ 360 NONAME
	_ZNK6Phonon11MediaObject10metaObjectEv @ 361 NONAME
	_ZNK6Phonon11MediaObject11currentTimeEv @ 362 NONAME
	_ZNK6Phonon11MediaObject11errorStringEv @ 363 NONAME
	_ZNK6Phonon11MediaObject12tickIntervalEv @ 364 NONAME
	_ZNK6Phonon11MediaObject13currentSourceEv @ 365 NONAME
	_ZNK6Phonon11MediaObject13prefinishMarkEv @ 366 NONAME
	_ZNK6Phonon11MediaObject13remainingTimeEv @ 367 NONAME
	_ZNK6Phonon11MediaObject14transitionTimeEv @ 368 NONAME
	_ZNK6Phonon11MediaObject5queueEv @ 369 NONAME
	_ZNK6Phonon11MediaObject5stateEv @ 370 NONAME
	_ZNK6Phonon11MediaObject8hasVideoEv @ 371 NONAME
	_ZNK6Phonon11MediaObject8metaDataENS_8MetaDataE @ 372 NONAME
	_ZNK6Phonon11MediaObject8metaDataERK7QString @ 373 NONAME
	_ZNK6Phonon11MediaObject8metaDataEv @ 374 NONAME
	_ZNK6Phonon11MediaObject9errorTypeEv @ 375 NONAME
	_ZNK6Phonon11MediaObject9totalTimeEv @ 376 NONAME
	_ZNK6Phonon11MediaSource10autoDeleteEv @ 377 NONAME
	_ZNK6Phonon11MediaSource10deviceNameEv @ 378 NONAME
	_ZNK6Phonon11MediaSource3urlEv @ 379 NONAME
	_ZNK6Phonon11MediaSource4typeEv @ 380 NONAME
	_ZNK6Phonon11MediaSource6streamEv @ 381 NONAME
	_ZNK6Phonon11MediaSource8discTypeEv @ 382 NONAME
	_ZNK6Phonon11MediaSource8fileNameEv @ 383 NONAME
	_ZNK6Phonon11MediaSourceeqERKS0_ @ 384 NONAME
	_ZNK6Phonon11VideoPlayer10metaObjectEv @ 385 NONAME
	_ZNK6Phonon11VideoPlayer11audioOutputEv @ 386 NONAME
	_ZNK6Phonon11VideoPlayer11currentTimeEv @ 387 NONAME
	_ZNK6Phonon11VideoPlayer11mediaObjectEv @ 388 NONAME
	_ZNK6Phonon11VideoPlayer11videoWidgetEv @ 389 NONAME
	_ZNK6Phonon11VideoPlayer6volumeEv @ 390 NONAME
	_ZNK6Phonon11VideoPlayer8isPausedEv @ 391 NONAME
	_ZNK6Phonon11VideoPlayer9isPlayingEv @ 392 NONAME
	_ZNK6Phonon11VideoPlayer9totalTimeEv @ 393 NONAME
	_ZNK6Phonon11VideoWidget10brightnessEv @ 394 NONAME
	_ZNK6Phonon11VideoWidget10metaObjectEv @ 395 NONAME
	_ZNK6Phonon11VideoWidget10saturationEv @ 396 NONAME
	_ZNK6Phonon11VideoWidget11aspectRatioEv @ 397 NONAME
	_ZNK6Phonon11VideoWidget3hueEv @ 398 NONAME
	_ZNK6Phonon11VideoWidget8contrastEv @ 399 NONAME
	_ZNK6Phonon11VideoWidget9scaleModeEv @ 400 NONAME
	_ZNK6Phonon12EffectWidget10metaObjectEv @ 401 NONAME
	_ZNK6Phonon12GlobalConfig20audioOutputDeviceForENS_8CategoryEi @ 402 NONAME
	_ZNK6Phonon12GlobalConfig21audioCaptureDeviceForENS_8CategoryEi @ 403 NONAME
	_ZNK6Phonon12GlobalConfig24audioOutputDeviceListForENS_8CategoryEi @ 404 NONAME
	_ZNK6Phonon12GlobalConfig25audioCaptureDeviceListForENS_8CategoryEi @ 405 NONAME
	_ZNK6Phonon12VolumeSlider10metaObjectEv @ 406 NONAME
	_ZNK6Phonon12VolumeSlider10singleStepEv @ 407 NONAME
	_ZNK6Phonon12VolumeSlider11audioOutputEv @ 408 NONAME
	_ZNK6Phonon12VolumeSlider11hasTrackingEv @ 409 NONAME
	_ZNK6Phonon12VolumeSlider11orientationEv @ 410 NONAME
	_ZNK6Phonon12VolumeSlider13isMuteVisibleEv @ 411 NONAME
	_ZNK6Phonon12VolumeSlider13maximumVolumeEv @ 412 NONAME
	_ZNK6Phonon12VolumeSlider8iconSizeEv @ 413 NONAME
	_ZNK6Phonon12VolumeSlider8pageStepEv @ 414 NONAME
	_ZNK6Phonon15EffectParameter11descriptionEv @ 415 NONAME
	_ZNK6Phonon15EffectParameter12defaultValueEv @ 416 NONAME
	_ZNK6Phonon15EffectParameter12maximumValueEv @ 417 NONAME
	_ZNK6Phonon15EffectParameter12minimumValueEv @ 418 NONAME
	_ZNK6Phonon15EffectParameter14possibleValuesEv @ 419 NONAME
	_ZNK6Phonon15EffectParameter20isLogarithmicControlEv @ 420 NONAME
	_ZNK6Phonon15EffectParameter2idEv @ 421 NONAME
	_ZNK6Phonon15EffectParameter4nameEv @ 422 NONAME
	_ZNK6Phonon15EffectParameter4typeEv @ 423 NONAME
	_ZNK6Phonon15EffectParametereqERKS0_ @ 424 NONAME
	_ZNK6Phonon15EffectParametergtERKS0_ @ 425 NONAME
	_ZNK6Phonon15EffectParameterltERKS0_ @ 426 NONAME
	_ZNK6Phonon15MediaController10metaObjectEv @ 427 NONAME
	_ZNK6Phonon15MediaController12currentAngleEv @ 428 NONAME
	_ZNK6Phonon15MediaController12currentTitleEv @ 429 NONAME
	_ZNK6Phonon15MediaController14autoplayTitlesEv @ 430 NONAME
	_ZNK6Phonon15MediaController14currentChapterEv @ 431 NONAME
	_ZNK6Phonon15MediaController15availableAnglesEv @ 432 NONAME
	_ZNK6Phonon15MediaController15availableTitlesEv @ 433 NONAME
	_ZNK6Phonon15MediaController15currentSubtitleEv @ 434 NONAME
	_ZNK6Phonon15MediaController17availableChaptersEv @ 435 NONAME
	_ZNK6Phonon15MediaController17supportedFeaturesEv @ 436 NONAME
	_ZNK6Phonon15MediaController18availableSubtitlesEv @ 437 NONAME
	_ZNK6Phonon15MediaController19currentAudioChannelEv @ 438 NONAME
	_ZNK6Phonon15MediaController22availableAudioChannelsEv @ 439 NONAME
	_ZNK6Phonon17VolumeFaderEffect10metaObjectEv @ 440 NONAME
	_ZNK6Phonon17VolumeFaderEffect13volumeDecibelEv @ 441 NONAME
	_ZNK6Phonon17VolumeFaderEffect6volumeEv @ 442 NONAME
	_ZNK6Phonon17VolumeFaderEffect9fadeCurveEv @ 443 NONAME
	_ZNK6Phonon19AbstractAudioOutput10metaObjectEv @ 444 NONAME
	_ZNK6Phonon19AbstractMediaStream10metaObjectEv @ 445 NONAME
	_ZNK6Phonon19AbstractMediaStream10streamSizeEv @ 446 NONAME
	_ZNK6Phonon19AbstractMediaStream14streamSeekableEv @ 447 NONAME
	_ZNK6Phonon21ObjectDescriptionData11descriptionEv @ 448 NONAME
	_ZNK6Phonon21ObjectDescriptionData13propertyNamesEv @ 449 NONAME
	_ZNK6Phonon21ObjectDescriptionData4nameEv @ 450 NONAME
	_ZNK6Phonon21ObjectDescriptionData5indexEv @ 451 NONAME
	_ZNK6Phonon21ObjectDescriptionData7isValidEv @ 452 NONAME
	_ZNK6Phonon21ObjectDescriptionData8propertyEPKc @ 453 NONAME
	_ZNK6Phonon21ObjectDescriptionDataeqERKS0_ @ 454 NONAME
	_ZNK6Phonon22AudioOutputInterface4219deviceAccessListForERKNS_17ObjectDescriptionILNS_21ObjectDescriptionTypeE0EEE @ 455 NONAME
	_ZNK6Phonon22ObjectDescriptionModelILNS_21ObjectDescriptionTypeE0EE10metaObjectEv @ 456 NONAME
	_ZNK6Phonon22ObjectDescriptionModelILNS_21ObjectDescriptionTypeE1EE10metaObjectEv @ 457 NONAME
	_ZNK6Phonon22ObjectDescriptionModelILNS_21ObjectDescriptionTypeE2EE10metaObjectEv @ 458 NONAME
	_ZNK6Phonon22ObjectDescriptionModelILNS_21ObjectDescriptionTypeE3EE10metaObjectEv @ 459 NONAME
	_ZNK6Phonon22ObjectDescriptionModelILNS_21ObjectDescriptionTypeE4EE10metaObjectEv @ 460 NONAME
	_ZNK6Phonon26ObjectDescriptionModelData15tupleIndexOrderEv @ 461 NONAME
	_ZNK6Phonon26ObjectDescriptionModelData20supportedDropActionsEv @ 462 NONAME
	_ZNK6Phonon26ObjectDescriptionModelData25tupleIndexAtPositionIndexEi @ 463 NONAME
	_ZNK6Phonon26ObjectDescriptionModelData4dataERK11QModelIndexi @ 464 NONAME
	_ZNK6Phonon26ObjectDescriptionModelData5flagsERK11QModelIndex @ 465 NONAME
	_ZNK6Phonon26ObjectDescriptionModelData8mimeDataENS_21ObjectDescriptionTypeERK5QListI11QModelIndexE @ 466 NONAME
	_ZNK6Phonon26ObjectDescriptionModelData8rowCountERK11QModelIndex @ 467 NONAME
	_ZNK6Phonon26ObjectDescriptionModelData9mimeTypesENS_21ObjectDescriptionTypeE @ 468 NONAME
	_ZNK6Phonon26ObjectDescriptionModelData9modelDataERK11QModelIndex @ 469 NONAME
	_ZNK6Phonon26ObjectDescriptionModelData9modelDataEv @ 470 NONAME
	_ZNK6Phonon4Path4sinkEv @ 471 NONAME
	_ZNK6Phonon4Path6sourceEv @ 472 NONAME
	_ZNK6Phonon4Path7effectsEv @ 473 NONAME
	_ZNK6Phonon4Path7isValidEv @ 474 NONAME
	_ZNK6Phonon4PatheqERKS0_ @ 475 NONAME
	_ZNK6Phonon4PathneERKS0_ @ 476 NONAME
	_ZNK6Phonon6Effect10metaObjectEv @ 477 NONAME
	_ZNK6Phonon6Effect10parametersEv @ 478 NONAME
	_ZNK6Phonon6Effect11descriptionEv @ 479 NONAME
	_ZNK6Phonon6Effect14parameterValueERKNS_15EffectParameterE @ 480 NONAME
	_ZNK6Phonon9MediaNode10inputPathsEv @ 481 NONAME
	_ZNK6Phonon9MediaNode11outputPathsEv @ 482 NONAME
	_ZNK6Phonon9MediaNode7isValidEv @ 483 NONAME
	_ZTIN6Phonon10SeekSliderE @ 484 NONAME
	_ZTIN6Phonon11AudioOutputE @ 485 NONAME
	_ZTIN6Phonon11MediaObjectE @ 486 NONAME
	_ZTIN6Phonon11VideoPlayerE @ 487 NONAME
	_ZTIN6Phonon11VideoWidgetE @ 488 NONAME
	_ZTIN6Phonon12EffectWidgetE @ 489 NONAME
	_ZTIN6Phonon12GlobalConfigE @ 490 NONAME
	_ZTIN6Phonon12VolumeSliderE @ 491 NONAME
	_ZTIN6Phonon15MediaControllerE @ 492 NONAME
	_ZTIN6Phonon15StreamInterfaceE @ 493 NONAME
	_ZTIN6Phonon16MediaNodePrivateE @ 494 NONAME
	_ZTIN6Phonon17VolumeFaderEffectE @ 495 NONAME
	_ZTIN6Phonon18MediaSourcePrivateE @ 496 NONAME
	_ZTIN6Phonon19AbstractAudioOutputE @ 497 NONAME
	_ZTIN6Phonon19AbstractMediaStreamE @ 498 NONAME
	_ZTIN6Phonon19AbstractVideoOutputE @ 499 NONAME
	_ZTIN6Phonon26AbstractMediaStreamPrivateE @ 500 NONAME
	_ZTIN6Phonon6EffectE @ 501 NONAME
	_ZTIN6Phonon9MediaNodeE @ 502 NONAME
	_ZTVN6Phonon10SeekSliderE @ 503 NONAME
	_ZTVN6Phonon11AudioOutputE @ 504 NONAME
	_ZTVN6Phonon11MediaObjectE @ 505 NONAME
	_ZTVN6Phonon11VideoPlayerE @ 506 NONAME
	_ZTVN6Phonon11VideoWidgetE @ 507 NONAME
	_ZTVN6Phonon12EffectWidgetE @ 508 NONAME
	_ZTVN6Phonon12GlobalConfigE @ 509 NONAME
	_ZTVN6Phonon12VolumeSliderE @ 510 NONAME
	_ZTVN6Phonon15MediaControllerE @ 511 NONAME
	_ZTVN6Phonon15StreamInterfaceE @ 512 NONAME
	_ZTVN6Phonon16MediaNodePrivateE @ 513 NONAME
	_ZTVN6Phonon17VolumeFaderEffectE @ 514 NONAME
	_ZTVN6Phonon18MediaSourcePrivateE @ 515 NONAME
	_ZTVN6Phonon19AbstractAudioOutputE @ 516 NONAME
	_ZTVN6Phonon19AbstractMediaStreamE @ 517 NONAME
	_ZTVN6Phonon19AbstractVideoOutputE @ 518 NONAME
	_ZTVN6Phonon26AbstractMediaStreamPrivateE @ 519 NONAME
	_ZTVN6Phonon6EffectE @ 520 NONAME
	_ZTVN6Phonon9MediaNodeE @ 521 NONAME
	_ZThn8_N6Phonon10SeekSliderD0Ev @ 522 NONAME
	_ZThn8_N6Phonon10SeekSliderD1Ev @ 523 NONAME
	_ZThn8_N6Phonon11MediaObjectD0Ev @ 524 NONAME
	_ZThn8_N6Phonon11MediaObjectD1Ev @ 525 NONAME
	_ZThn8_N6Phonon11VideoPlayerD0Ev @ 526 NONAME
	_ZThn8_N6Phonon11VideoPlayerD1Ev @ 527 NONAME
	_ZThn8_N6Phonon12EffectWidgetD0Ev @ 528 NONAME
	_ZThn8_N6Phonon12EffectWidgetD1Ev @ 529 NONAME
	_ZThn8_N6Phonon12VolumeSliderD0Ev @ 530 NONAME
	_ZThn8_N6Phonon12VolumeSliderD1Ev @ 531 NONAME
	_ZThn8_N6Phonon19AbstractAudioOutputD0Ev @ 532 NONAME
	_ZThn8_N6Phonon19AbstractAudioOutputD1Ev @ 533 NONAME
	_ZThn8_N6Phonon6EffectD0Ev @ 534 NONAME
	_ZThn8_N6Phonon6EffectD1Ev @ 535 NONAME
	_ZTIN6Phonon22ObjectDescriptionModelILNS_21ObjectDescriptionTypeE0EEE @ 536 NONAME
	_ZTIN6Phonon22ObjectDescriptionModelILNS_21ObjectDescriptionTypeE1EEE @ 537 NONAME
	_ZTIN6Phonon22ObjectDescriptionModelILNS_21ObjectDescriptionTypeE2EEE @ 538 NONAME
	_ZTIN6Phonon22ObjectDescriptionModelILNS_21ObjectDescriptionTypeE3EEE @ 539 NONAME
	_ZTIN6Phonon22ObjectDescriptionModelILNS_21ObjectDescriptionTypeE4EEE @ 540 NONAME
	_ZTVN6Phonon22ObjectDescriptionModelILNS_21ObjectDescriptionTypeE0EEE @ 541 NONAME
	_ZTVN6Phonon22ObjectDescriptionModelILNS_21ObjectDescriptionTypeE1EEE @ 542 NONAME
	_ZTVN6Phonon22ObjectDescriptionModelILNS_21ObjectDescriptionTypeE2EEE @ 543 NONAME
	_ZTVN6Phonon22ObjectDescriptionModelILNS_21ObjectDescriptionTypeE3EEE @ 544 NONAME
	_ZTVN6Phonon22ObjectDescriptionModelILNS_21ObjectDescriptionTypeE4EEE @ 545 NONAME
	_ZN6Phonon12GlobalConfig22setHideAdvancedDevicesEb @ 546 NONAME
	_ZN6Phonon12GlobalConfig27setAudioOutputDeviceListForENS_8CategoryE5QListIiE @ 547 NONAME
	_ZN6Phonon12GlobalConfig28setAudioCaptureDeviceListForENS_8CategoryE5QListIiE @ 548 NONAME
	_ZN6Phonon12PulseSupport11getInstanceEv @ 549 NONAME
	_ZN6Phonon12PulseSupport11qt_metacallEN11QMetaObject4CallEiPPv @ 550 NONAME
	_ZN6Phonon12PulseSupport11qt_metacastEPKc @ 551 NONAME
	_ZN6Phonon12PulseSupport11usingDeviceE7QStringi @ 552 NONAME
	_ZN6Phonon12PulseSupport15emitUsingDeviceE7QStringi @ 553 NONAME
	_ZN6Phonon12PulseSupport15setOutputDeviceE7QStringi @ 554 NONAME
	_ZN6Phonon12PulseSupport16clearStreamCacheE7QString @ 555 NONAME
	_ZN6Phonon12PulseSupport16setCaptureDeviceE7QStringi @ 556 NONAME
	_ZN6Phonon12PulseSupport16staticMetaObjectE @ 557 NONAME DATA 16
	_ZN6Phonon12PulseSupport17setStreamPropListENS_8CategoryE7QString @ 558 NONAME
	_ZN6Phonon12PulseSupport19getStaticMetaObjectEv @ 559 NONAME
	_ZN6Phonon12PulseSupport24objectDescriptionChangedENS_21ObjectDescriptionTypeE @ 560 NONAME
	_ZN6Phonon12PulseSupport28emitObjectDescriptionChangedENS_21ObjectDescriptionTypeE @ 561 NONAME
	_ZN6Phonon12PulseSupport34setOutputDevicePriorityForCategoryENS_8CategoryE5QListIiE @ 562 NONAME
	_ZN6Phonon12PulseSupport35setCaptureDevicePriorityForCategoryENS_8CategoryE5QListIiE @ 563 NONAME
	_ZN6Phonon12PulseSupport6enableEb @ 564 NONAME
	_ZN6Phonon12PulseSupport8isActiveEv @ 565 NONAME
	_ZN6Phonon12PulseSupport8shutdownEv @ 566 NONAME
	_ZN6Phonon12PulseSupportC1Ev @ 567 NONAME
	_ZN6Phonon12PulseSupportC2Ev @ 568 NONAME
	_ZN6Phonon12PulseSupportD0Ev @ 569 NONAME
	_ZN6Phonon12PulseSupportD1Ev @ 570 NONAME
	_ZN6Phonon12PulseSupportD2Ev @ 571 NONAME
	_ZN6Phonon15AudioDataOutput10endOfMediaEi @ 572 NONAME
	_ZN6Phonon15AudioDataOutput11qt_metacallEN11QMetaObject4CallEiPPv @ 573 NONAME
	_ZN6Phonon15AudioDataOutput11qt_metacastEPKc @ 574 NONAME
	_ZN6Phonon15AudioDataOutput11setDataSizeEi @ 575 NONAME
	_ZN6Phonon15AudioDataOutput16staticMetaObjectE @ 576 NONAME DATA 16
	_ZN6Phonon15AudioDataOutput19getStaticMetaObjectEv @ 577 NONAME
	_ZN6Phonon15AudioDataOutput9dataReadyERK4QMapINS0_7ChannelE7QVectorIsEE @ 578 NONAME
	_ZN6Phonon15AudioDataOutputC1EP7QObject @ 579 NONAME
	_ZN6Phonon15AudioDataOutputC2EP7QObject @ 580 NONAME
	_ZN6Phonon7Factory21createAudioDataOutputEP7QObject @ 581 NONAME
	_ZNK6Phonon11VideoWidget8snapshotEv @ 582 NONAME
	_ZNK6Phonon12GlobalConfig19hideAdvancedDevicesEv @ 583 NONAME
	_ZNK6Phonon12PulseSupport10metaObjectEv @ 584 NONAME
	_ZNK6Phonon12PulseSupport23objectIndexesByCategoryENS_21ObjectDescriptionTypeENS_8CategoryE @ 585 NONAME
	_ZNK6Phonon12PulseSupport24objectDescriptionIndexesENS_21ObjectDescriptionTypeE @ 586 NONAME
	_ZNK6Phonon12PulseSupport27objectDescriptionPropertiesENS_21ObjectDescriptionTypeEi @ 587 NONAME
	_ZNK6Phonon15AudioDataOutput10metaObjectEv @ 588 NONAME
	_ZNK6Phonon15AudioDataOutput10sampleRateEv @ 589 NONAME
	_ZNK6Phonon15AudioDataOutput8dataSizeEv @ 590 NONAME
	_ZTIN6Phonon12PulseSupportE @ 591 NONAME
	_ZTIN6Phonon15AudioDataOutputE @ 592 NONAME
	_ZTVN6Phonon12PulseSupportE @ 593 NONAME
	_ZTVN6Phonon15AudioDataOutputE @ 594 NONAME
	_ZN6Phonon10SeekSlider18qt_static_metacallEP7QObjectN11QMetaObject4CallEiPPv @ 595 NONAME
	_ZN6Phonon10SeekSlider25staticMetaObjectExtraDataE @ 596 NONAME DATA 8
	_ZN6Phonon11AudioOutput18qt_static_metacallEP7QObjectN11QMetaObject4CallEiPPv @ 597 NONAME
	_ZN6Phonon11AudioOutput25staticMetaObjectExtraDataE @ 598 NONAME DATA 8
	_ZN6Phonon11MediaObject18qt_static_metacallEP7QObjectN11QMetaObject4CallEiPPv @ 599 NONAME
	_ZN6Phonon11MediaObject25staticMetaObjectExtraDataE @ 600 NONAME DATA 8
	_ZN6Phonon11VideoPlayer18qt_static_metacallEP7QObjectN11QMetaObject4CallEiPPv @ 601 NONAME
	_ZN6Phonon11VideoPlayer25staticMetaObjectExtraDataE @ 602 NONAME DATA 8
	_ZN6Phonon11VideoWidget18qt_static_metacallEP7QObjectN11QMetaObject4CallEiPPv @ 603 NONAME
	_ZN6Phonon11VideoWidget25staticMetaObjectExtraDataE @ 604 NONAME DATA 8
	_ZN6Phonon12EffectWidget18qt_static_metacallEP7QObjectN11QMetaObject4CallEiPPv @ 605 NONAME
	_ZN6Phonon12EffectWidget25staticMetaObjectExtraDataE @ 606 NONAME DATA 8
	_ZN6Phonon12PulseSupport18qt_static_metacallEP7QObjectN11QMetaObject4CallEiPPv @ 607 NONAME
	_ZN6Phonon12PulseSupport25staticMetaObjectExtraDataE @ 608 NONAME DATA 8
	_ZN6Phonon12VolumeSlider18qt_static_metacallEP7QObjectN11QMetaObject4CallEiPPv @ 609 NONAME
	_ZN6Phonon12VolumeSlider25staticMetaObjectExtraDataE @ 610 NONAME DATA 8
	_ZN6Phonon15AudioDataOutput18qt_static_metacallEP7QObjectN11QMetaObject4CallEiPPv @ 611 NONAME
	_ZN6Phonon15AudioDataOutput25staticMetaObjectExtraDataE @ 612 NONAME DATA 8
	_ZN6Phonon15MediaController18qt_static_metacallEP7QObjectN11QMetaObject4CallEiPPv @ 613 NONAME
	_ZN6Phonon15MediaController25staticMetaObjectExtraDataE @ 614 NONAME DATA 8
	_ZN6Phonon17VolumeFaderEffect18qt_static_metacallEP7QObjectN11QMetaObject4CallEiPPv @ 615 NONAME
	_ZN6Phonon17VolumeFaderEffect25staticMetaObjectExtraDataE @ 616 NONAME DATA 8
	_ZN6Phonon19AbstractAudioOutput18qt_static_metacallEP7QObjectN11QMetaObject4CallEiPPv @ 617 NONAME
	_ZN6Phonon19AbstractAudioOutput25staticMetaObjectExtraDataE @ 618 NONAME DATA 8
	_ZN6Phonon19AbstractMediaStream18qt_static_metacallEP7QObjectN11QMetaObject4CallEiPPv @ 619 NONAME
	_ZN6Phonon19AbstractMediaStream25staticMetaObjectExtraDataE @ 620 NONAME DATA 8
	_ZN6Phonon6Effect18qt_static_metacallEP7QObjectN11QMetaObject4CallEiPPv @ 621 NONAME
	_ZN6Phonon6Effect25staticMetaObjectExtraDataE @ 622 NONAME DATA 8

