EXPORTS
	_Z11qFadeEffectP7QWidgeti @ 1 NONAME
	_Z11qt_image_idRK6QImage @ 2 NONAME
	_Z12qDrawPixmapsP8QPainterPKN12QDrawPixmaps4DataEiRK7QPixmap6QFlagsINS1_11DrawingHintEE @ 3 NONAME ABSENT
	_Z12qt_pixmap_idRK7QPixmap @ 4 NONAME
	_Z13qDrawWinPanelP8QPainterRK5QRectRK8QPalettebPK6QBrush @ 5 NONAME
	_Z13qDrawWinPanelP8QPainteriiiiRK8QPalettebPK6QBrush @ 6 NONAME
	_Z13qScrollEffectP7QWidgetji @ 7 NONAME
	_Z13qSmartMaxSizePK11QWidgetItem6QFlagsIN2Qt13AlignmentFlagEE @ 8 NONAME
	_Z13qSmartMaxSizePK7QWidget6QFlagsIN2Qt13AlignmentFlagEE @ 9 NONAME
	_Z13qSmartMaxSizeRK5QSizeS1_S1_RK11QSizePolicy6QFlagsIN2Qt13AlignmentFlagEE @ 10 NONAME
	_Z13qSmartMinSizePK11QWidgetItem @ 11 NONAME
	_Z13qSmartMinSizePK7QWidget @ 12 NONAME
	_Z13qSmartMinSizeRK5QSizeS1_S1_S1_RK11QSizePolicy @ 13 NONAME
	_Z13qSmartSpacingPK7QLayoutN6QStyle11PixelMetricE @ 14 NONAME
	_Z13qt_defaultDpiv @ 15 NONAME
	_Z14qDrawPlainRectP8QPainterRK5QRectRK6QColoriPK6QBrush @ 16 NONAME
	_Z14qDrawPlainRectP8QPainteriiiiRK6QColoriPK6QBrush @ 17 NONAME
	_Z14qDrawShadeLineP8QPainterRK6QPointS3_RK8QPalettebii @ 18 NONAME
	_Z14qDrawShadeLineP8QPainteriiiiRK8QPalettebii @ 19 NONAME
	_Z14qDrawShadeRectP8QPainterRK5QRectRK8QPalettebiiPK6QBrush @ 20 NONAME
	_Z14qDrawShadeRectP8QPainteriiiiRK8QPalettebiiPK6QBrush @ 21 NONAME
	_Z14qDrawWinButtonP8QPainterRK5QRectRK8QPalettebPK6QBrush @ 22 NONAME
	_Z14qDrawWinButtonP8QPainteriiiiRK8QPalettebPK6QBrush @ 23 NONAME
	_Z14qt_defaultDpiXv @ 24 NONAME
	_Z14qt_defaultDpiYv @ 25 NONAME
	_Z14qt_draw_helperP15QPainterPrivateRK12QPainterPathNS_13DrawOperationE @ 26 NONAME
	_Z15qDrawShadePanelP8QPainterRK5QRectRK8QPalettebiPK6QBrush @ 27 NONAME
	_Z15qDrawShadePanelP8QPainteriiiiRK8QPalettebiPK6QBrush @ 28 NONAME
	_Z15qt_qwidget_dataP7QWidget @ 29 NONAME
	_Z16qt_imageForBrushib @ 30 NONAME
	_Z17qDrawBorderPixmapP8QPainterRK5QRectRK8QMarginsRK7QPixmapS3_S6_RK10QTileRules6QFlagsIN17QDrawBorderPixmap11DrawingHintEE @ 31 NONAME
	_Z17qHasPixmapTextureRK6QBrush @ 32 NONAME
	_Z17qt_tryModalHelperP7QWidgetPS0_ @ 33 NONAME
	_Z17qt_widget_privateP7QWidget @ 34 NONAME
	_Z19qtVectorPathForPathRK12QPainterPath @ 35 NONAME
	_Z20qt_scaleForTransformRK10QTransformPf @ 36 NONAME
	_Z21qt_qsliderStyleOptionP7QSlider @ 37 NONAME
	_Z22qt_find_ellipse_coordsRK6QRectFffP7QPointFS3_ @ 38 NONAME
	_Z24qt_qscrollbarStyleOptionP10QScrollBar @ 39 NONAME
	_Z25qt_translateRawTouchEventP7QWidgetN11QTouchEvent10DeviceTypeERK5QListINS1_10TouchPointEE @ 40 NONAME
	_Z29qt_set_sequence_auto_mnemonicb @ 41 NONAME
	_Z9qGeomCalcR7QVectorI13QLayoutStructEiiiii @ 42 NONAME
	_ZN10QBoxLayout10addSpacingEi @ 43 NONAME
	_ZN10QBoxLayout10addStretchEi @ 44 NONAME
	_ZN10QBoxLayout10insertItemEiP11QLayoutItem @ 45 NONAME
	_ZN10QBoxLayout10invalidateEv @ 46 NONAME
	_ZN10QBoxLayout10setSpacingEi @ 47 NONAME
	_ZN10QBoxLayout10setStretchEii @ 48 NONAME
	_ZN10QBoxLayout11qt_metacallEN11QMetaObject4CallEiPPv @ 49 NONAME
	_ZN10QBoxLayout11qt_metacastEPKc @ 50 NONAME
	_ZN10QBoxLayout11setGeometryERK5QRect @ 51 NONAME
	_ZN10QBoxLayout12insertLayoutEiP7QLayouti @ 52 NONAME
	_ZN10QBoxLayout12insertWidgetEiP7QWidgeti6QFlagsIN2Qt13AlignmentFlagEE @ 53 NONAME
	_ZN10QBoxLayout12setDirectionENS_9DirectionE @ 54 NONAME
	_ZN10QBoxLayout13addSpacerItemEP11QSpacerItem @ 55 NONAME
	_ZN10QBoxLayout13insertSpacingEii @ 56 NONAME
	_ZN10QBoxLayout13insertStretchEii @ 57 NONAME
	_ZN10QBoxLayout16insertSpacerItemEiP11QSpacerItem @ 58 NONAME
	_ZN10QBoxLayout16setStretchFactorEP7QLayouti @ 59 NONAME
	_ZN10QBoxLayout16setStretchFactorEP7QWidgeti @ 60 NONAME
	_ZN10QBoxLayout16staticMetaObjectE @ 61 NONAME DATA 16
	_ZN10QBoxLayout19getStaticMetaObjectEv @ 62 NONAME
	_ZN10QBoxLayout6takeAtEi @ 63 NONAME
	_ZN10QBoxLayout7addItemEP11QLayoutItem @ 64 NONAME
	_ZN10QBoxLayout8addStrutEi @ 65 NONAME
	_ZN10QBoxLayout9addLayoutEP7QLayouti @ 66 NONAME
	_ZN10QBoxLayout9addWidgetEP7QWidgeti6QFlagsIN2Qt13AlignmentFlagEE @ 67 NONAME
	_ZN10QBoxLayoutC1ENS_9DirectionEP7QWidget @ 68 NONAME
	_ZN10QBoxLayoutC2ENS_9DirectionEP7QWidget @ 69 NONAME
	_ZN10QBoxLayoutD0Ev @ 70 NONAME
	_ZN10QBoxLayoutD1Ev @ 71 NONAME
	_ZN10QBoxLayoutD2Ev @ 72 NONAME
	_ZN10QClipboard11dataChangedEv @ 73 NONAME
	_ZN10QClipboard11emitChangedENS_4ModeE @ 74 NONAME
	_ZN10QClipboard11qt_metacallEN11QMetaObject4CallEiPPv @ 75 NONAME
	_ZN10QClipboard11qt_metacastEPKc @ 76 NONAME
	_ZN10QClipboard11setMimeDataEP9QMimeDataNS_4ModeE @ 77 NONAME
	_ZN10QClipboard13connectNotifyEPKc @ 78 NONAME
	_ZN10QClipboard14ownerDestroyedEv @ 79 NONAME
	_ZN10QClipboard16selectionChangedEv @ 80 NONAME
	_ZN10QClipboard16staticMetaObjectE @ 81 NONAME DATA 16
	_ZN10QClipboard17findBufferChangedEv @ 82 NONAME
	_ZN10QClipboard19getStaticMetaObjectEv @ 83 NONAME
	_ZN10QClipboard5clearENS_4ModeE @ 84 NONAME
	_ZN10QClipboard5eventEP6QEvent @ 85 NONAME
	_ZN10QClipboard7changedENS_4ModeE @ 86 NONAME
	_ZN10QClipboard7setTextERK7QStringNS_4ModeE @ 87 NONAME
	_ZN10QClipboard8setImageERK6QImageNS_4ModeE @ 88 NONAME
	_ZN10QClipboard9setPixmapERK7QPixmapNS_4ModeE @ 89 NONAME
	_ZN10QClipboardC1EP7QObject @ 90 NONAME
	_ZN10QClipboardC2EP7QObject @ 91 NONAME
	_ZN10QClipboardD0Ev @ 92 NONAME
	_ZN10QClipboardD1Ev @ 93 NONAME
	_ZN10QClipboardD2Ev @ 94 NONAME
	_ZN10QCompleter11eventFilterEP7QObjectP6QEvent @ 95 NONAME
	_ZN10QCompleter11highlightedERK11QModelIndex @ 96 NONAME
	_ZN10QCompleter11highlightedERK7QString @ 97 NONAME
	_ZN10QCompleter11qt_metacallEN11QMetaObject4CallEiPPv @ 98 NONAME
	_ZN10QCompleter11qt_metacastEPKc @ 99 NONAME
	_ZN10QCompleter13setCurrentRowEi @ 100 NONAME
	_ZN10QCompleter13setWrapAroundEb @ 101 NONAME
	_ZN10QCompleter15setModelSortingENS_12ModelSortingE @ 102 NONAME
	_ZN10QCompleter16staticMetaObjectE @ 103 NONAME DATA 16
	_ZN10QCompleter17setCompletionModeENS_14CompletionModeE @ 104 NONAME
	_ZN10QCompleter17setCompletionRoleEi @ 105 NONAME
	_ZN10QCompleter18setCaseSensitivityEN2Qt15CaseSensitivityE @ 106 NONAME
	_ZN10QCompleter18setMaxVisibleItemsEi @ 107 NONAME
	_ZN10QCompleter19getStaticMetaObjectEv @ 108 NONAME
	_ZN10QCompleter19setCompletionColumnEi @ 109 NONAME
	_ZN10QCompleter19setCompletionPrefixERK7QString @ 110 NONAME
	_ZN10QCompleter5eventEP6QEvent @ 111 NONAME
	_ZN10QCompleter8completeERK5QRect @ 112 NONAME
	_ZN10QCompleter8setModelEP18QAbstractItemModel @ 113 NONAME
	_ZN10QCompleter8setPopupEP17QAbstractItemView @ 114 NONAME
	_ZN10QCompleter9activatedERK11QModelIndex @ 115 NONAME
	_ZN10QCompleter9activatedERK7QString @ 116 NONAME
	_ZN10QCompleter9setWidgetEP7QWidget @ 117 NONAME
	_ZN10QCompleterC1EP18QAbstractItemModelP7QObject @ 118 NONAME
	_ZN10QCompleterC1EP7QObject @ 119 NONAME
	_ZN10QCompleterC1ERK11QStringListP7QObject @ 120 NONAME
	_ZN10QCompleterC2EP18QAbstractItemModelP7QObject @ 121 NONAME
	_ZN10QCompleterC2EP7QObject @ 122 NONAME
	_ZN10QCompleterC2ERK11QStringListP7QObject @ 123 NONAME
	_ZN10QCompleterD0Ev @ 124 NONAME
	_ZN10QCompleterD1Ev @ 125 NONAME
	_ZN10QCompleterD2Ev @ 126 NONAME
	_ZN10QDropEvent13setDropActionEN2Qt10DropActionE @ 127 NONAME
	_ZN10QDropEventC1ERK6QPoint6QFlagsIN2Qt10DropActionEEPK9QMimeDataS3_INS4_11MouseButtonEES3_INS4_16KeyboardModifierEEN6QEvent4TypeE @ 128 NONAME
	_ZN10QDropEventC2ERK6QPoint6QFlagsIN2Qt10DropActionEEPK9QMimeDataS3_INS4_11MouseButtonEES3_INS4_16KeyboardModifierEEN6QEvent4TypeE @ 129 NONAME
	_ZN10QDropEventD0Ev @ 130 NONAME
	_ZN10QDropEventD1Ev @ 131 NONAME
	_ZN10QDropEventD2Ev @ 132 NONAME
	_ZN10QHelpEventC1EN6QEvent4TypeERK6QPointS4_ @ 133 NONAME
	_ZN10QHelpEventC2EN6QEvent4TypeERK6QPointS4_ @ 134 NONAME
	_ZN10QHelpEventD0Ev @ 135 NONAME
	_ZN10QHelpEventD1Ev @ 136 NONAME
	_ZN10QHelpEventD2Ev @ 137 NONAME
	_ZN10QHideEventC1Ev @ 138 NONAME
	_ZN10QHideEventC2Ev @ 139 NONAME
	_ZN10QHideEventD0Ev @ 140 NONAME
	_ZN10QHideEventD1Ev @ 141 NONAME
	_ZN10QHideEventD2Ev @ 142 NONAME
	_ZN10QImageData6createEPhiiiN6QImage6FormatEb @ 143 NONAME
	_ZN10QImageData6createERK5QSizeN6QImage6FormatEi @ 144 NONAME
	_ZN10QImageDataC1Ev @ 145 NONAME
	_ZN10QImageDataC2Ev @ 146 NONAME
	_ZN10QImageDataD1Ev @ 147 NONAME
	_ZN10QImageDataD2Ev @ 148 NONAME
	_ZN10QLCDNumber10paintEventEP11QPaintEvent @ 149 NONAME
	_ZN10QLCDNumber10setBinModeEv @ 150 NONAME
	_ZN10QLCDNumber10setDecModeEv @ 151 NONAME
	_ZN10QLCDNumber10setHexModeEv @ 152 NONAME
	_ZN10QLCDNumber10setOctModeEv @ 153 NONAME
	_ZN10QLCDNumber11qt_metacallEN11QMetaObject4CallEiPPv @ 154 NONAME
	_ZN10QLCDNumber11qt_metacastEPKc @ 155 NONAME
	_ZN10QLCDNumber12setNumDigitsEi @ 156 NONAME
	_ZN10QLCDNumber15setSegmentStyleENS_12SegmentStyleE @ 157 NONAME
	_ZN10QLCDNumber16staticMetaObjectE @ 158 NONAME DATA 16
	_ZN10QLCDNumber19getStaticMetaObjectEv @ 159 NONAME
	_ZN10QLCDNumber20setSmallDecimalPointEb @ 160 NONAME
	_ZN10QLCDNumber5eventEP6QEvent @ 161 NONAME
	_ZN10QLCDNumber7displayERK7QString @ 162 NONAME
	_ZN10QLCDNumber7displayEd @ 163 NONAME
	_ZN10QLCDNumber7displayEi @ 164 NONAME
	_ZN10QLCDNumber7setModeENS_4ModeE @ 165 NONAME
	_ZN10QLCDNumber8overflowEv @ 166 NONAME
	_ZN10QLCDNumberC1EP7QWidget @ 167 NONAME
	_ZN10QLCDNumberC1EjP7QWidget @ 168 NONAME
	_ZN10QLCDNumberC2EP7QWidget @ 169 NONAME
	_ZN10QLCDNumberC2EjP7QWidget @ 170 NONAME
	_ZN10QLCDNumberD0Ev @ 171 NONAME
	_ZN10QLCDNumberD1Ev @ 172 NONAME
	_ZN10QLCDNumberD2Ev @ 173 NONAME
	_ZN10QMatrix4x411perspectiveEffff @ 174 NONAME
	_ZN10QMatrix4x415flipCoordinatesEv @ 175 NONAME
	_ZN10QMatrix4x416inferSpecialTypeEv @ 176 NONAME ABSENT
	_ZN10QMatrix4x45orthoERK5QRect @ 177 NONAME
	_ZN10QMatrix4x45orthoERK6QRectF @ 178 NONAME
	_ZN10QMatrix4x45orthoEffffff @ 179 NONAME
	_ZN10QMatrix4x45scaleERK9QVector3D @ 180 NONAME
	_ZN10QMatrix4x45scaleEf @ 181 NONAME
	_ZN10QMatrix4x45scaleEff @ 182 NONAME
	_ZN10QMatrix4x45scaleEfff @ 183 NONAME
	_ZN10QMatrix4x46lookAtERK9QVector3DS2_S2_ @ 184 NONAME
	_ZN10QMatrix4x46rotateERK11QQuaternion @ 185 NONAME
	_ZN10QMatrix4x46rotateEfRK9QVector3D @ 186 NONAME
	_ZN10QMatrix4x46rotateEffff @ 187 NONAME
	_ZN10QMatrix4x47frustumEffffff @ 188 NONAME
	_ZN10QMatrix4x49translateERK9QVector3D @ 189 NONAME
	_ZN10QMatrix4x49translateEff @ 190 NONAME
	_ZN10QMatrix4x49translateEfff @ 191 NONAME
	_ZN10QMatrix4x4C1EPKf @ 192 NONAME
	_ZN10QMatrix4x4C1EPKfii @ 193 NONAME
	_ZN10QMatrix4x4C1ERK10QTransform @ 194 NONAME
	_ZN10QMatrix4x4C1ERK7QMatrix @ 195 NONAME
	_ZN10QMatrix4x4C2EPKf @ 196 NONAME
	_ZN10QMatrix4x4C2EPKfii @ 197 NONAME
	_ZN10QMatrix4x4C2ERK10QTransform @ 198 NONAME
	_ZN10QMatrix4x4C2ERK7QMatrix @ 199 NONAME
	_ZN10QMatrix4x4dVEf @ 200 NONAME
	_ZN10QMoveEventC1ERK6QPointS2_ @ 201 NONAME
	_ZN10QMoveEventC2ERK6QPointS2_ @ 202 NONAME
	_ZN10QMoveEventD0Ev @ 203 NONAME
	_ZN10QMoveEventD1Ev @ 204 NONAME
	_ZN10QMoveEventD2Ev @ 205 NONAME
	_ZN10QPictureIO10setPictureERK8QPicture @ 206 NONAME
	_ZN10QPictureIO10setQualityEi @ 207 NONAME
	_ZN10QPictureIO11setFileNameERK7QString @ 208 NONAME
	_ZN10QPictureIO11setIODeviceEP9QIODevice @ 209 NONAME
	_ZN10QPictureIO12inputFormatsEv @ 210 NONAME
	_ZN10QPictureIO13outputFormatsEv @ 211 NONAME
	_ZN10QPictureIO13pictureFormatEP9QIODevice @ 212 NONAME
	_ZN10QPictureIO13pictureFormatERK7QString @ 213 NONAME
	_ZN10QPictureIO13setParametersEPKc @ 214 NONAME
	_ZN10QPictureIO14setDescriptionERK7QString @ 215 NONAME
	_ZN10QPictureIO15defineIOHandlerEPKcS1_S1_PFvPS_ES4_ @ 216 NONAME
	_ZN10QPictureIO4initEv @ 217 NONAME
	_ZN10QPictureIO4readEv @ 218 NONAME
	_ZN10QPictureIO5writeEv @ 219 NONAME
	_ZN10QPictureIO8setGammaEf @ 220 NONAME
	_ZN10QPictureIO9setFormatEPKc @ 221 NONAME
	_ZN10QPictureIO9setStatusEi @ 222 NONAME
	_ZN10QPictureIOC1EP9QIODevicePKc @ 223 NONAME
	_ZN10QPictureIOC1ERK7QStringPKc @ 224 NONAME
	_ZN10QPictureIOC1Ev @ 225 NONAME
	_ZN10QPictureIOC2EP9QIODevicePKc @ 226 NONAME
	_ZN10QPictureIOC2ERK7QStringPKc @ 227 NONAME
	_ZN10QPictureIOC2Ev @ 228 NONAME
	_ZN10QPictureIOD1Ev @ 229 NONAME
	_ZN10QPictureIOD2Ev @ 230 NONAME
	_ZN10QScrollBar10paintEventEP11QPaintEvent @ 231 NONAME
	_ZN10QScrollBar11qt_metacallEN11QMetaObject4CallEiPPv @ 232 NONAME
	_ZN10QScrollBar11qt_metacastEPKc @ 233 NONAME
	_ZN10QScrollBar12sliderChangeEN15QAbstractSlider12SliderChangeE @ 234 NONAME
	_ZN10QScrollBar14mouseMoveEventEP11QMouseEvent @ 235 NONAME
	_ZN10QScrollBar15mousePressEventEP11QMouseEvent @ 236 NONAME
	_ZN10QScrollBar16contextMenuEventEP17QContextMenuEvent @ 237 NONAME
	_ZN10QScrollBar16staticMetaObjectE @ 238 NONAME DATA 16
	_ZN10QScrollBar17mouseReleaseEventEP11QMouseEvent @ 239 NONAME
	_ZN10QScrollBar19getStaticMetaObjectEv @ 240 NONAME
	_ZN10QScrollBar5eventEP6QEvent @ 241 NONAME
	_ZN10QScrollBar9hideEventEP10QHideEvent @ 242 NONAME
	_ZN10QScrollBarC1EN2Qt11OrientationEP7QWidget @ 243 NONAME
	_ZN10QScrollBarC1EP7QWidget @ 244 NONAME
	_ZN10QScrollBarC2EN2Qt11OrientationEP7QWidget @ 245 NONAME
	_ZN10QScrollBarC2EP7QWidget @ 246 NONAME
	_ZN10QScrollBarD0Ev @ 247 NONAME
	_ZN10QScrollBarD1Ev @ 248 NONAME
	_ZN10QScrollBarD2Ev @ 249 NONAME
	_ZN10QShowEventC1Ev @ 250 NONAME
	_ZN10QShowEventC2Ev @ 251 NONAME
	_ZN10QShowEventD0Ev @ 252 NONAME
	_ZN10QShowEventD1Ev @ 253 NONAME
	_ZN10QShowEventD2Ev @ 254 NONAME
	_ZN10QStatusBar10hideOrShowEv @ 255 NONAME
	_ZN10QStatusBar10paintEventEP11QPaintEvent @ 256 NONAME
	_ZN10QStatusBar11qt_metacallEN11QMetaObject4CallEiPPv @ 257 NONAME
	_ZN10QStatusBar11qt_metacastEPKc @ 258 NONAME
	_ZN10QStatusBar11resizeEventEP12QResizeEvent @ 259 NONAME
	_ZN10QStatusBar11showMessageERK7QStringi @ 260 NONAME
	_ZN10QStatusBar12clearMessageEv @ 261 NONAME
	_ZN10QStatusBar12insertWidgetEiP7QWidgeti @ 262 NONAME
	_ZN10QStatusBar12removeWidgetEP7QWidget @ 263 NONAME
	_ZN10QStatusBar14messageChangedERK7QString @ 264 NONAME
	_ZN10QStatusBar16staticMetaObjectE @ 265 NONAME DATA 16
	_ZN10QStatusBar18addPermanentWidgetEP7QWidgeti @ 266 NONAME
	_ZN10QStatusBar18setSizeGripEnabledEb @ 267 NONAME
	_ZN10QStatusBar19getStaticMetaObjectEv @ 268 NONAME
	_ZN10QStatusBar21insertPermanentWidgetEiP7QWidgeti @ 269 NONAME
	_ZN10QStatusBar5eventEP6QEvent @ 270 NONAME
	_ZN10QStatusBar8reformatEv @ 271 NONAME
	_ZN10QStatusBar9addWidgetEP7QWidgeti @ 272 NONAME
	_ZN10QStatusBar9showEventEP10QShowEvent @ 273 NONAME
	_ZN10QStatusBarC1EP7QWidget @ 274 NONAME
	_ZN10QStatusBarC2EP7QWidget @ 275 NONAME
	_ZN10QStatusBarD0Ev @ 276 NONAME
	_ZN10QStatusBarD1Ev @ 277 NONAME
	_ZN10QStatusBarD2Ev @ 278 NONAME
	_ZN10QTabWidget10paintEventEP11QPaintEvent @ 279 NONAME
	_ZN10QTabWidget10setMovableEb @ 280 NONAME
	_ZN10QTabWidget10setTabIconEiRK5QIcon @ 281 NONAME
	_ZN10QTabWidget10setTabTextEiRK7QString @ 282 NONAME
	_ZN10QTabWidget10tabRemovedEi @ 283 NONAME
	_ZN10QTabWidget11changeEventEP6QEvent @ 284 NONAME
	_ZN10QTabWidget11qt_metacallEN11QMetaObject4CallEiPPv @ 285 NONAME
	_ZN10QTabWidget11qt_metacastEPKc @ 286 NONAME
	_ZN10QTabWidget11resizeEventEP12QResizeEvent @ 287 NONAME
	_ZN10QTabWidget11setIconSizeERK5QSize @ 288 NONAME
	_ZN10QTabWidget11setTabShapeENS_8TabShapeE @ 289 NONAME
	_ZN10QTabWidget11setUpLayoutEb @ 290 NONAME
	_ZN10QTabWidget11tabInsertedEi @ 291 NONAME
	_ZN10QTabWidget12setElideModeEN2Qt13TextElideModeE @ 292 NONAME
	_ZN10QTabWidget13keyPressEventEP9QKeyEvent @ 293 NONAME
	_ZN10QTabWidget13setTabEnabledEib @ 294 NONAME
	_ZN10QTabWidget13setTabToolTipEiRK7QString @ 295 NONAME
	_ZN10QTabWidget14currentChangedEi @ 296 NONAME
	_ZN10QTabWidget14setTabPositionENS_11TabPositionE @ 297 NONAME
	_ZN10QTabWidget15setCornerWidgetEP7QWidgetN2Qt6CornerE @ 298 NONAME
	_ZN10QTabWidget15setCurrentIndexEi @ 299 NONAME
	_ZN10QTabWidget15setDocumentModeEb @ 300 NONAME
	_ZN10QTabWidget15setTabWhatsThisEiRK7QString @ 301 NONAME
	_ZN10QTabWidget15setTabsClosableEb @ 302 NONAME
	_ZN10QTabWidget16setCurrentWidgetEP7QWidget @ 303 NONAME
	_ZN10QTabWidget16staticMetaObjectE @ 304 NONAME DATA 16
	_ZN10QTabWidget17tabCloseRequestedEi @ 305 NONAME
	_ZN10QTabWidget19getStaticMetaObjectEv @ 306 NONAME
	_ZN10QTabWidget20setUsesScrollButtonsEb @ 307 NONAME
	_ZN10QTabWidget5clearEv @ 308 NONAME
	_ZN10QTabWidget5eventEP6QEvent @ 309 NONAME
	_ZN10QTabWidget6addTabEP7QWidgetRK5QIconRK7QString @ 310 NONAME
	_ZN10QTabWidget6addTabEP7QWidgetRK7QString @ 311 NONAME
	_ZN10QTabWidget9insertTabEiP7QWidgetRK5QIconRK7QString @ 312 NONAME
	_ZN10QTabWidget9insertTabEiP7QWidgetRK7QString @ 313 NONAME
	_ZN10QTabWidget9removeTabEi @ 314 NONAME
	_ZN10QTabWidget9setTabBarEP7QTabBar @ 315 NONAME
	_ZN10QTabWidget9showEventEP10QShowEvent @ 316 NONAME
	_ZN10QTabWidgetC1EP7QWidget @ 317 NONAME
	_ZN10QTabWidgetC2EP7QWidget @ 318 NONAME
	_ZN10QTabWidgetD0Ev @ 319 NONAME
	_ZN10QTabWidgetD1Ev @ 320 NONAME
	_ZN10QTabWidgetD2Ev @ 321 NONAME
	_ZN10QTableView10clearSpansEv @ 322 NONAME
	_ZN10QTableView10hideColumnEi @ 323 NONAME
	_ZN10QTableView10moveCursorEN17QAbstractItemView12CursorActionE6QFlagsIN2Qt16KeyboardModifierEE @ 324 NONAME
	_ZN10QTableView10paintEventEP11QPaintEvent @ 325 NONAME
	_ZN10QTableView10rowResizedEiii @ 326 NONAME
	_ZN10QTableView10showColumnEi @ 327 NONAME
	_ZN10QTableView10timerEventEP11QTimerEvent @ 328 NONAME
	_ZN10QTableView11columnMovedEiii @ 329 NONAME
	_ZN10QTableView11qt_metacallEN11QMetaObject4CallEiPPv @ 330 NONAME
	_ZN10QTableView11qt_metacastEPKc @ 331 NONAME
	_ZN10QTableView11setShowGridEb @ 332 NONAME
	_ZN10QTableView11setWordWrapEb @ 333 NONAME
	_ZN10QTableView12selectColumnEi @ 334 NONAME
	_ZN10QTableView12setGridStyleEN2Qt8PenStyleE @ 335 NONAME
	_ZN10QTableView12setRootIndexERK11QModelIndex @ 336 NONAME
	_ZN10QTableView12setRowHeightEii @ 337 NONAME
	_ZN10QTableView12setRowHiddenEib @ 338 NONAME
	_ZN10QTableView12setSelectionERK5QRect6QFlagsIN19QItemSelectionModel13SelectionFlagEE @ 339 NONAME
	_ZN10QTableView12sortByColumnEi @ 340 NONAME
	_ZN10QTableView12sortByColumnEiN2Qt9SortOrderE @ 341 NONAME
	_ZN10QTableView13columnResizedEiii @ 342 NONAME
	_ZN10QTableView14currentChangedERK11QModelIndexS2_ @ 343 NONAME
	_ZN10QTableView14setColumnWidthEii @ 344 NONAME
	_ZN10QTableView15rowCountChangedEii @ 345 NONAME
	_ZN10QTableView15setColumnHiddenEib @ 346 NONAME
	_ZN10QTableView16scrollContentsByEii @ 347 NONAME
	_ZN10QTableView16selectionChangedERK14QItemSelectionS2_ @ 348 NONAME
	_ZN10QTableView16staticMetaObjectE @ 349 NONAME DATA 16
	_ZN10QTableView16updateGeometriesEv @ 350 NONAME
	_ZN10QTableView17setSelectionModelEP19QItemSelectionModel @ 351 NONAME
	_ZN10QTableView17setSortingEnabledEb @ 352 NONAME
	_ZN10QTableView17setVerticalHeaderEP11QHeaderView @ 353 NONAME
	_ZN10QTableView18columnCountChangedEii @ 354 NONAME
	_ZN10QTableView19getStaticMetaObjectEv @ 355 NONAME
	_ZN10QTableView19resizeRowToContentsEi @ 356 NONAME
	_ZN10QTableView19setHorizontalHeaderEP11QHeaderView @ 357 NONAME
	_ZN10QTableView20resizeRowsToContentsEv @ 358 NONAME
	_ZN10QTableView22resizeColumnToContentsEi @ 359 NONAME
	_ZN10QTableView22setCornerButtonEnabledEb @ 360 NONAME
	_ZN10QTableView23resizeColumnsToContentsEv @ 361 NONAME
	_ZN10QTableView23verticalScrollbarActionEi @ 362 NONAME
	_ZN10QTableView25horizontalScrollbarActionEi @ 363 NONAME
	_ZN10QTableView7hideRowEi @ 364 NONAME
	_ZN10QTableView7setSpanEiiii @ 365 NONAME
	_ZN10QTableView7showRowEi @ 366 NONAME
	_ZN10QTableView8rowMovedEiii @ 367 NONAME
	_ZN10QTableView8scrollToERK11QModelIndexN17QAbstractItemView10ScrollHintE @ 368 NONAME
	_ZN10QTableView8setModelEP18QAbstractItemModel @ 369 NONAME
	_ZN10QTableView9selectRowEi @ 370 NONAME
	_ZN10QTableViewC1EP7QWidget @ 371 NONAME
	_ZN10QTableViewC1ER17QTableViewPrivateP7QWidget @ 372 NONAME
	_ZN10QTableViewC2EP7QWidget @ 373 NONAME
	_ZN10QTableViewC2ER17QTableViewPrivateP7QWidget @ 374 NONAME
	_ZN10QTableViewD0Ev @ 375 NONAME
	_ZN10QTableViewD1Ev @ 376 NONAME
	_ZN10QTableViewD2Ev @ 377 NONAME
	_ZN10QTextBlock10setVisibleEb @ 378 NONAME
	_ZN10QTextBlock11clearLayoutEv @ 379 NONAME
	_ZN10QTextBlock11setRevisionEi @ 380 NONAME
	_ZN10QTextBlock11setUserDataEP18QTextBlockUserData @ 381 NONAME
	_ZN10QTextBlock12setLineCountEi @ 382 NONAME
	_ZN10QTextBlock12setUserStateEi @ 383 NONAME
	_ZN10QTextBlock8iteratormmEv @ 384 NONAME
	_ZN10QTextBlock8iteratorppEv @ 385 NONAME
	_ZN10QTextFrame11qt_metacallEN11QMetaObject4CallEiPPv @ 386 NONAME
	_ZN10QTextFrame11qt_metacastEPKc @ 387 NONAME
	_ZN10QTextFrame13setLayoutDataEP20QTextFrameLayoutData @ 388 NONAME
	_ZN10QTextFrame16staticMetaObjectE @ 389 NONAME DATA 16
	_ZN10QTextFrame19getStaticMetaObjectEv @ 390 NONAME
	_ZN10QTextFrame8iteratorC1EPS_iii @ 391 NONAME
	_ZN10QTextFrame8iteratorC1ERKS0_ @ 392 NONAME
	_ZN10QTextFrame8iteratorC1Ev @ 393 NONAME
	_ZN10QTextFrame8iteratorC2EPS_iii @ 394 NONAME
	_ZN10QTextFrame8iteratorC2ERKS0_ @ 395 NONAME
	_ZN10QTextFrame8iteratorC2Ev @ 396 NONAME
	_ZN10QTextFrame8iteratoraSERKS0_ @ 397 NONAME
	_ZN10QTextFrame8iteratormmEv @ 398 NONAME
	_ZN10QTextFrame8iteratorppEv @ 399 NONAME
	_ZN10QTextFrameC1EP13QTextDocument @ 400 NONAME
	_ZN10QTextFrameC1ER17QTextFramePrivateP13QTextDocument @ 401 NONAME
	_ZN10QTextFrameC2EP13QTextDocument @ 402 NONAME
	_ZN10QTextFrameC2ER17QTextFramePrivateP13QTextDocument @ 403 NONAME
	_ZN10QTextFrameD0Ev @ 404 NONAME
	_ZN10QTextFrameD1Ev @ 405 NONAME
	_ZN10QTextFrameD2Ev @ 406 NONAME
	_ZN10QTextTable10appendRowsEi @ 407 NONAME
	_ZN10QTextTable10insertRowsEii @ 408 NONAME
	_ZN10QTextTable10mergeCellsERK11QTextCursor @ 409 NONAME
	_ZN10QTextTable10mergeCellsEiiii @ 410 NONAME
	_ZN10QTextTable10removeRowsEii @ 411 NONAME
	_ZN10QTextTable11qt_metacallEN11QMetaObject4CallEiPPv @ 412 NONAME
	_ZN10QTextTable11qt_metacastEPKc @ 413 NONAME
	_ZN10QTextTable13appendColumnsEi @ 414 NONAME
	_ZN10QTextTable13insertColumnsEii @ 415 NONAME
	_ZN10QTextTable13removeColumnsEii @ 416 NONAME
	_ZN10QTextTable16staticMetaObjectE @ 417 NONAME DATA 16
	_ZN10QTextTable19getStaticMetaObjectEv @ 418 NONAME
	_ZN10QTextTable6resizeEii @ 419 NONAME
	_ZN10QTextTable9setFormatERK16QTextTableFormat @ 420 NONAME
	_ZN10QTextTable9splitCellEiiii @ 421 NONAME
	_ZN10QTextTableC1EP13QTextDocument @ 422 NONAME
	_ZN10QTextTableC2EP13QTextDocument @ 423 NONAME
	_ZN10QTextTableD0Ev @ 424 NONAME
	_ZN10QTextTableD1Ev @ 425 NONAME
	_ZN10QTextTableD2Ev @ 426 NONAME
	_ZN10QTransform10quadToQuadERK9QPolygonFS2_RS_ @ 427 NONAME
	_ZN10QTransform12quadToSquareERK9QPolygonFRS_ @ 428 NONAME
	_ZN10QTransform12squareToQuadERK9QPolygonFRS_ @ 429 NONAME
	_ZN10QTransform13fromTranslateEff @ 430 NONAME
	_ZN10QTransform13rotateRadiansEfN2Qt4AxisE @ 431 NONAME
	_ZN10QTransform5resetEv @ 432 NONAME
	_ZN10QTransform5scaleEff @ 433 NONAME
	_ZN10QTransform5shearEff @ 434 NONAME
	_ZN10QTransform6rotateEfN2Qt4AxisE @ 435 NONAME
	_ZN10QTransform9fromScaleEff @ 436 NONAME
	_ZN10QTransform9setMatrixEfffffffff @ 437 NONAME
	_ZN10QTransform9translateEff @ 438 NONAME
	_ZN10QTransformC1ERK7QMatrix @ 439 NONAME
	_ZN10QTransformC1Effffff @ 440 NONAME
	_ZN10QTransformC1Efffffffff @ 441 NONAME
	_ZN10QTransformC1Ev @ 442 NONAME
	_ZN10QTransformC2ERK7QMatrix @ 443 NONAME
	_ZN10QTransformC2Effffff @ 444 NONAME
	_ZN10QTransformC2Efffffffff @ 445 NONAME
	_ZN10QTransformC2Ev @ 446 NONAME
	_ZN10QTransformaSERKS_ @ 447 NONAME
	_ZN10QTransformmLERKS_ @ 448 NONAME
	_ZN10QUndoGroup11qt_metacallEN11QMetaObject4CallEiPPv @ 449 NONAME
	_ZN10QUndoGroup11qt_metacastEPKc @ 450 NONAME
	_ZN10QUndoGroup11removeStackEP10QUndoStack @ 451 NONAME
	_ZN10QUndoGroup12cleanChangedEb @ 452 NONAME
	_ZN10QUndoGroup12indexChangedEi @ 453 NONAME
	_ZN10QUndoGroup14canRedoChangedEb @ 454 NONAME
	_ZN10QUndoGroup14canUndoChangedEb @ 455 NONAME
	_ZN10QUndoGroup14setActiveStackEP10QUndoStack @ 456 NONAME
	_ZN10QUndoGroup15redoTextChangedERK7QString @ 457 NONAME
	_ZN10QUndoGroup15undoTextChangedERK7QString @ 458 NONAME
	_ZN10QUndoGroup16staticMetaObjectE @ 459 NONAME DATA 16
	_ZN10QUndoGroup18activeStackChangedEP10QUndoStack @ 460 NONAME
	_ZN10QUndoGroup19getStaticMetaObjectEv @ 461 NONAME
	_ZN10QUndoGroup4redoEv @ 462 NONAME
	_ZN10QUndoGroup4undoEv @ 463 NONAME
	_ZN10QUndoGroup8addStackEP10QUndoStack @ 464 NONAME
	_ZN10QUndoGroupC1EP7QObject @ 465 NONAME
	_ZN10QUndoGroupC2EP7QObject @ 466 NONAME
	_ZN10QUndoGroupD0Ev @ 467 NONAME
	_ZN10QUndoGroupD1Ev @ 468 NONAME
	_ZN10QUndoGroupD2Ev @ 469 NONAME
	_ZN10QUndoStack10beginMacroERK7QString @ 470 NONAME
	_ZN10QUndoStack11qt_metacallEN11QMetaObject4CallEiPPv @ 471 NONAME
	_ZN10QUndoStack11qt_metacastEPKc @ 472 NONAME
	_ZN10QUndoStack12cleanChangedEb @ 473 NONAME
	_ZN10QUndoStack12indexChangedEi @ 474 NONAME
	_ZN10QUndoStack12setUndoLimitEi @ 475 NONAME
	_ZN10QUndoStack14canRedoChangedEb @ 476 NONAME
	_ZN10QUndoStack14canUndoChangedEb @ 477 NONAME
	_ZN10QUndoStack15redoTextChangedERK7QString @ 478 NONAME
	_ZN10QUndoStack15undoTextChangedERK7QString @ 479 NONAME
	_ZN10QUndoStack16staticMetaObjectE @ 480 NONAME DATA 16
	_ZN10QUndoStack19getStaticMetaObjectEv @ 481 NONAME
	_ZN10QUndoStack4pushEP12QUndoCommand @ 482 NONAME
	_ZN10QUndoStack4redoEv @ 483 NONAME
	_ZN10QUndoStack4undoEv @ 484 NONAME
	_ZN10QUndoStack5clearEv @ 485 NONAME
	_ZN10QUndoStack8endMacroEv @ 486 NONAME
	_ZN10QUndoStack8setCleanEv @ 487 NONAME
	_ZN10QUndoStack8setIndexEi @ 488 NONAME
	_ZN10QUndoStack9setActiveEb @ 489 NONAME
	_ZN10QUndoStackC1EP7QObject @ 490 NONAME
	_ZN10QUndoStackC2EP7QObject @ 491 NONAME
	_ZN10QUndoStackD0Ev @ 492 NONAME
	_ZN10QUndoStackD1Ev @ 493 NONAME
	_ZN10QUndoStackD2Ev @ 494 NONAME
	_ZN10QValidator11qt_metacallEN11QMetaObject4CallEiPPv @ 495 NONAME
	_ZN10QValidator11qt_metacastEPKc @ 496 NONAME
	_ZN10QValidator16staticMetaObjectE @ 497 NONAME DATA 16
	_ZN10QValidator19getStaticMetaObjectEv @ 498 NONAME
	_ZN10QValidator9setLocaleERK7QLocale @ 499 NONAME
	_ZN10QValidatorC2EP7QObject @ 500 NONAME
	_ZN10QValidatorC2ER14QObjectPrivateP7QObject @ 501 NONAME
	_ZN10QValidatorC2ER17QValidatorPrivateP7QObject @ 502 NONAME
	_ZN10QValidatorD0Ev @ 503 NONAME
	_ZN10QValidatorD1Ev @ 504 NONAME
	_ZN10QValidatorD2Ev @ 505 NONAME
	_ZN10QWhatsThis12createActionEP7QObject @ 506 NONAME
	_ZN10QWhatsThis15inWhatsThisModeEv @ 507 NONAME
	_ZN10QWhatsThis18enterWhatsThisModeEv @ 508 NONAME
	_ZN10QWhatsThis18leaveWhatsThisModeEv @ 509 NONAME
	_ZN10QWhatsThis8hideTextEv @ 510 NONAME
	_ZN10QWhatsThis8showTextERK6QPointRK7QStringP7QWidget @ 511 NONAME
	_ZN10QWhatsThisC1Ev @ 512 NONAME
	_ZN10QWhatsThisC2Ev @ 513 NONAME
	_ZN10QWorkspace10childEventEP11QChildEvent @ 514 NONAME
	_ZN10QWorkspace10paintEventEP11QPaintEvent @ 515 NONAME
	_ZN10QWorkspace10wheelEventEP11QWheelEvent @ 516 NONAME
	_ZN10QWorkspace11changeEventEP6QEvent @ 517 NONAME
	_ZN10QWorkspace11eventFilterEP7QObjectP6QEvent @ 518 NONAME
	_ZN10QWorkspace11qt_metacallEN11QMetaObject4CallEiPPv @ 519 NONAME
	_ZN10QWorkspace11qt_metacastEPKc @ 520 NONAME
	_ZN10QWorkspace11resizeEventEP12QResizeEvent @ 521 NONAME
	_ZN10QWorkspace12arrangeIconsEv @ 522 NONAME
	_ZN10QWorkspace13setBackgroundERK6QBrush @ 523 NONAME
	_ZN10QWorkspace15closeAllWindowsEv @ 524 NONAME
	_ZN10QWorkspace15setActiveWindowEP7QWidget @ 525 NONAME
	_ZN10QWorkspace15windowActivatedEP7QWidget @ 526 NONAME
	_ZN10QWorkspace16staticMetaObjectE @ 527 NONAME DATA 16
	_ZN10QWorkspace17closeActiveWindowEv @ 528 NONAME
	_ZN10QWorkspace18activateNextWindowEv @ 529 NONAME
	_ZN10QWorkspace19getStaticMetaObjectEv @ 530 NONAME
	_ZN10QWorkspace20setScrollBarsEnabledEb @ 531 NONAME
	_ZN10QWorkspace22activatePreviousWindowEv @ 532 NONAME
	_ZN10QWorkspace4tileEv @ 533 NONAME
	_ZN10QWorkspace5eventEP6QEvent @ 534 NONAME
	_ZN10QWorkspace7cascadeEv @ 535 NONAME
	_ZN10QWorkspace9addWindowEP7QWidget6QFlagsIN2Qt10WindowTypeEE @ 536 NONAME
	_ZN10QWorkspace9hideEventEP10QHideEvent @ 537 NONAME
	_ZN10QWorkspace9showEventEP10QShowEvent @ 538 NONAME
	_ZN10QWorkspaceC1EP7QWidget @ 539 NONAME
	_ZN10QWorkspaceC2EP7QWidget @ 540 NONAME
	_ZN10QWorkspaceD0Ev @ 541 NONAME
	_ZN10QWorkspaceD1Ev @ 542 NONAME
	_ZN10QWorkspaceD2Ev @ 543 NONAME
	_ZN11QCloseEventC1Ev @ 544 NONAME
	_ZN11QCloseEventC2Ev @ 545 NONAME
	_ZN11QCloseEventD0Ev @ 546 NONAME
	_ZN11QCloseEventD1Ev @ 547 NONAME
	_ZN11QCloseEventD2Ev @ 548 NONAME
	_ZN11QColumnView10moveCursorEN17QAbstractItemView12CursorActionE6QFlagsIN2Qt16KeyboardModifierEE @ 549 NONAME
	_ZN11QColumnView11qt_metacallEN11QMetaObject4CallEiPPv @ 550 NONAME
	_ZN11QColumnView11qt_metacastEPKc @ 551 NONAME
	_ZN11QColumnView11resizeEventEP12QResizeEvent @ 552 NONAME
	_ZN11QColumnView12createColumnERK11QModelIndex @ 553 NONAME
	_ZN11QColumnView12rowsInsertedERK11QModelIndexii @ 554 NONAME
	_ZN11QColumnView12setRootIndexERK11QModelIndex @ 555 NONAME
	_ZN11QColumnView12setSelectionERK5QRect6QFlagsIN19QItemSelectionModel13SelectionFlagEE @ 556 NONAME
	_ZN11QColumnView14currentChangedERK11QModelIndexS2_ @ 557 NONAME
	_ZN11QColumnView15setColumnWidthsERK5QListIiE @ 558 NONAME
	_ZN11QColumnView16scrollContentsByEii @ 559 NONAME
	_ZN11QColumnView16setPreviewWidgetEP7QWidget @ 560 NONAME
	_ZN11QColumnView16staticMetaObjectE @ 561 NONAME DATA 16
	_ZN11QColumnView17setSelectionModelEP19QItemSelectionModel @ 562 NONAME
	_ZN11QColumnView19getStaticMetaObjectEv @ 563 NONAME
	_ZN11QColumnView19updatePreviewWidgetERK11QModelIndex @ 564 NONAME
	_ZN11QColumnView21setResizeGripsVisibleEb @ 565 NONAME
	_ZN11QColumnView8scrollToERK11QModelIndexN17QAbstractItemView10ScrollHintE @ 566 NONAME
	_ZN11QColumnView8setModelEP18QAbstractItemModel @ 567 NONAME
	_ZN11QColumnView9selectAllEv @ 568 NONAME
	_ZN11QColumnViewC1EP7QWidget @ 569 NONAME
	_ZN11QColumnViewC1ER18QColumnViewPrivateP7QWidget @ 570 NONAME
	_ZN11QColumnViewC2EP7QWidget @ 571 NONAME
	_ZN11QColumnViewC2ER18QColumnViewPrivateP7QWidget @ 572 NONAME
	_ZN11QColumnViewD0Ev @ 573 NONAME
	_ZN11QColumnViewD1Ev @ 574 NONAME
	_ZN11QColumnViewD2Ev @ 575 NONAME
	_ZN11QDockWidget10closeEventEP11QCloseEvent @ 576 NONAME
	_ZN11QDockWidget10paintEventEP11QPaintEvent @ 577 NONAME
	_ZN11QDockWidget11changeEventEP6QEvent @ 578 NONAME
	_ZN11QDockWidget11qt_metacallEN11QMetaObject4CallEiPPv @ 579 NONAME
	_ZN11QDockWidget11qt_metacastEPKc @ 580 NONAME
	_ZN11QDockWidget11setFeaturesE6QFlagsINS_17DockWidgetFeatureEE @ 581 NONAME
	_ZN11QDockWidget11setFloatingEb @ 582 NONAME
	_ZN11QDockWidget15featuresChangedE6QFlagsINS_17DockWidgetFeatureEE @ 583 NONAME
	_ZN11QDockWidget15setAllowedAreasE6QFlagsIN2Qt14DockWidgetAreaEE @ 584 NONAME
	_ZN11QDockWidget15topLevelChangedEb @ 585 NONAME
	_ZN11QDockWidget16staticMetaObjectE @ 586 NONAME DATA 16
	_ZN11QDockWidget17setTitleBarWidgetEP7QWidget @ 587 NONAME
	_ZN11QDockWidget17visibilityChangedEb @ 588 NONAME
	_ZN11QDockWidget19allowedAreasChangedE6QFlagsIN2Qt14DockWidgetAreaEE @ 589 NONAME
	_ZN11QDockWidget19dockLocationChangedEN2Qt14DockWidgetAreaE @ 590 NONAME
	_ZN11QDockWidget19getStaticMetaObjectEv @ 591 NONAME
	_ZN11QDockWidget5eventEP6QEvent @ 592 NONAME
	_ZN11QDockWidget9setWidgetEP7QWidget @ 593 NONAME
	_ZN11QDockWidgetC1EP7QWidget6QFlagsIN2Qt10WindowTypeEE @ 594 NONAME
	_ZN11QDockWidgetC1ERK7QStringP7QWidget6QFlagsIN2Qt10WindowTypeEE @ 595 NONAME
	_ZN11QDockWidgetC2EP7QWidget6QFlagsIN2Qt10WindowTypeEE @ 596 NONAME
	_ZN11QDockWidgetC2ERK7QStringP7QWidget6QFlagsIN2Qt10WindowTypeEE @ 597 NONAME
	_ZN11QDockWidgetD0Ev @ 598 NONAME
	_ZN11QDockWidgetD1Ev @ 599 NONAME
	_ZN11QDockWidgetD2Ev @ 600 NONAME
	_ZN11QFileDialog10selectFileERK7QString @ 601 NONAME
	_ZN11QFileDialog10setFiltersERK11QStringList @ 602 NONAME
	_ZN11QFileDialog10setHistoryERK11QStringList @ 603 NONAME
	_ZN11QFileDialog10setOptionsE6QFlagsINS_6OptionEE @ 604 NONAME
	_ZN11QFileDialog10setVisibleEb @ 605 NONAME
	_ZN11QFileDialog11changeEventEP6QEvent @ 606 NONAME
	_ZN11QFileDialog11qt_metacallEN11QMetaObject4CallEiPPv @ 607 NONAME
	_ZN11QFileDialog11qt_metacastEPKc @ 608 NONAME
	_ZN11QFileDialog11setFileModeENS_8FileModeE @ 609 NONAME
	_ZN11QFileDialog11setReadOnlyEb @ 610 NONAME
	_ZN11QFileDialog11setViewModeENS_8ViewModeE @ 611 NONAME
	_ZN11QFileDialog12fileSelectedERK7QString @ 612 NONAME
	_ZN11QFileDialog12restoreStateERK10QByteArray @ 613 NONAME
	_ZN11QFileDialog12selectFilterERK7QString @ 614 NONAME
	_ZN11QFileDialog12setDirectoryERK7QString @ 615 NONAME
	_ZN11QFileDialog12setLabelTextENS_11DialogLabelERK7QString @ 616 NONAME
	_ZN11QFileDialog13filesSelectedERK11QStringList @ 617 NONAME
	_ZN11QFileDialog13setAcceptModeENS_10AcceptModeE @ 618 NONAME
	_ZN11QFileDialog13setNameFilterERK7QString @ 619 NONAME
	_ZN11QFileDialog13setProxyModelEP19QAbstractProxyModel @ 620 NONAME
	_ZN11QFileDialog14currentChangedERK7QString @ 621 NONAME
	_ZN11QFileDialog14filterSelectedERK7QString @ 622 NONAME
	_ZN11QFileDialog14setNameFiltersERK11QStringList @ 623 NONAME
	_ZN11QFileDialog14setSidebarUrlsERK5QListI4QUrlE @ 624 NONAME
	_ZN11QFileDialog15getOpenFileNameEP7QWidgetRK7QStringS4_S4_PS2_6QFlagsINS_6OptionEE @ 625 NONAME
	_ZN11QFileDialog15getSaveFileNameEP7QWidgetRK7QStringS4_S4_PS2_6QFlagsINS_6OptionEE @ 626 NONAME
	_ZN11QFileDialog15setIconProviderEP17QFileIconProvider @ 627 NONAME
	_ZN11QFileDialog15setItemDelegateEP21QAbstractItemDelegate @ 628 NONAME
	_ZN11QFileDialog16directoryEnteredERK7QString @ 629 NONAME
	_ZN11QFileDialog16getOpenFileNamesEP7QWidgetRK7QStringS4_S4_PS2_6QFlagsINS_6OptionEE @ 630 NONAME
	_ZN11QFileDialog16selectNameFilterERK7QString @ 631 NONAME
	_ZN11QFileDialog16setDefaultSuffixERK7QString @ 632 NONAME
	_ZN11QFileDialog16staticMetaObjectE @ 633 NONAME DATA 16
	_ZN11QFileDialog18setResolveSymlinksEb @ 634 NONAME
	_ZN11QFileDialog19getStaticMetaObjectEv @ 635 NONAME
	_ZN11QFileDialog19setConfirmOverwriteEb @ 636 NONAME
	_ZN11QFileDialog20getExistingDirectoryEP7QWidgetRK7QStringS4_6QFlagsINS_6OptionEE @ 637 NONAME
	_ZN11QFileDialog27setNameFilterDetailsVisibleEb @ 638 NONAME
	_ZN11QFileDialog4doneEi @ 639 NONAME
	_ZN11QFileDialog4openEP7QObjectPKc @ 640 NONAME
	_ZN11QFileDialog6acceptEv @ 641 NONAME
	_ZN11QFileDialog9setFilterE6QFlagsIN4QDir6FilterEE @ 642 NONAME
	_ZN11QFileDialog9setFilterERK7QString @ 643 NONAME
	_ZN11QFileDialog9setOptionENS_6OptionEb @ 644 NONAME
	_ZN11QFileDialogC1EP7QWidget6QFlagsIN2Qt10WindowTypeEE @ 645 NONAME
	_ZN11QFileDialogC1EP7QWidgetRK7QStringS4_S4_ @ 646 NONAME
	_ZN11QFileDialogC1ERK15QFileDialogArgs @ 647 NONAME
	_ZN11QFileDialogC2EP7QWidget6QFlagsIN2Qt10WindowTypeEE @ 648 NONAME
	_ZN11QFileDialogC2EP7QWidgetRK7QStringS4_S4_ @ 649 NONAME
	_ZN11QFileDialogC2ERK15QFileDialogArgs @ 650 NONAME
	_ZN11QFileDialogD0Ev @ 651 NONAME
	_ZN11QFileDialogD1Ev @ 652 NONAME
	_ZN11QFileDialogD2Ev @ 653 NONAME
	_ZN11QFocusEvent6reasonEv @ 654 NONAME
	_ZN11QFocusEventC1EN6QEvent4TypeEN2Qt11FocusReasonE @ 655 NONAME
	_ZN11QFocusEventC2EN6QEvent4TypeEN2Qt11FocusReasonE @ 656 NONAME
	_ZN11QFocusEventD0Ev @ 657 NONAME
	_ZN11QFocusEventD1Ev @ 658 NONAME
	_ZN11QFocusEventD2Ev @ 659 NONAME
	_ZN11QFocusFrame10paintEventEP11QPaintEvent @ 660 NONAME
	_ZN11QFocusFrame11eventFilterEP7QObjectP6QEvent @ 661 NONAME
	_ZN11QFocusFrame11qt_metacallEN11QMetaObject4CallEiPPv @ 662 NONAME
	_ZN11QFocusFrame11qt_metacastEPKc @ 663 NONAME
	_ZN11QFocusFrame16staticMetaObjectE @ 664 NONAME DATA 16
	_ZN11QFocusFrame19getStaticMetaObjectEv @ 665 NONAME
	_ZN11QFocusFrame5eventEP6QEvent @ 666 NONAME
	_ZN11QFocusFrame9setWidgetEP7QWidget @ 667 NONAME
	_ZN11QFocusFrameC1EP7QWidget @ 668 NONAME
	_ZN11QFocusFrameC2EP7QWidget @ 669 NONAME
	_ZN11QFocusFrameD0Ev @ 670 NONAME
	_ZN11QFocusFrameD1Ev @ 671 NONAME
	_ZN11QFocusFrameD2Ev @ 672 NONAME
	_ZN11QFontDialog10setOptionsE6QFlagsINS_16FontDialogOptionEE @ 673 NONAME
	_ZN11QFontDialog10setVisibleEb @ 674 NONAME
	_ZN11QFontDialog11changeEventEP6QEvent @ 675 NONAME
	_ZN11QFontDialog11eventFilterEP7QObjectP6QEvent @ 676 NONAME
	_ZN11QFontDialog11qt_metacallEN11QMetaObject4CallEiPPv @ 677 NONAME
	_ZN11QFontDialog11qt_metacastEPKc @ 678 NONAME
	_ZN11QFontDialog12fontSelectedERK5QFont @ 679 NONAME
	_ZN11QFontDialog14setCurrentFontERK5QFont @ 680 NONAME
	_ZN11QFontDialog16staticMetaObjectE @ 681 NONAME DATA 16
	_ZN11QFontDialog18currentFontChangedERK5QFont @ 682 NONAME
	_ZN11QFontDialog19getStaticMetaObjectEv @ 683 NONAME
	_ZN11QFontDialog4doneEi @ 684 NONAME
	_ZN11QFontDialog4openEP7QObjectPKc @ 685 NONAME
	_ZN11QFontDialog7getFontEPbP7QWidget @ 686 NONAME
	_ZN11QFontDialog7getFontEPbRK5QFontP7QWidget @ 687 NONAME
	_ZN11QFontDialog7getFontEPbRK5QFontP7QWidgetRK7QString @ 688 NONAME
	_ZN11QFontDialog7getFontEPbRK5QFontP7QWidgetRK7QString6QFlagsINS_16FontDialogOptionEE @ 689 NONAME
	_ZN11QFontDialog9setOptionENS_16FontDialogOptionEb @ 690 NONAME
	_ZN11QFontDialogC1EP7QWidget @ 691 NONAME
	_ZN11QFontDialogC1ERK5QFontP7QWidget @ 692 NONAME
	_ZN11QFontDialogC2EP7QWidget @ 693 NONAME
	_ZN11QFontDialogC2ERK5QFontP7QWidget @ 694 NONAME
	_ZN11QFontDialogD0Ev @ 695 NONAME
	_ZN11QFontDialogD1Ev @ 696 NONAME
	_ZN11QFontDialogD2Ev @ 697 NONAME
	_ZN11QFontEngine11boundingBoxEjRK10QTransform @ 698 NONAME
	_ZN11QFontEngine11grayPaletteEv @ 699 NONAME
	_ZN11QFontEngine13setGlyphCacheEN21QFontEngineGlyphCache4TypeEPS0_ @ 700 NONAME ABSENT
	_ZN11QFontEngine13setGlyphCacheEPvP21QFontEngineGlyphCache @ 701 NONAME
	_ZN11QFontEngine15addGlyphsToPathEPjP11QFixedPointiP12QPainterPath6QFlagsIN9QTextItem10RenderFlagEE @ 702 NONAME
	_ZN11QFontEngine16addOutlineToPathEffRK12QGlyphLayoutP12QPainterPath6QFlagsIN9QTextItem10RenderFlagEE @ 703 NONAME
	_ZN11QFontEngine16alphaMapForGlyphEj @ 704 NONAME
	_ZN11QFontEngine16alphaMapForGlyphEjRK10QTransform @ 705 NONAME
	_ZN11QFontEngine16expireGlyphCacheEv @ 706 NONAME ABSENT
	_ZN11QFontEngine16getUnscaledGlyphEjP12QPainterPathP15glyph_metrics_t @ 707 NONAME
	_ZN11QFontEngine16loadKerningPairsE6QFixed @ 708 NONAME
	_ZN11QFontEngine16tightBoundingBoxERK12QGlyphLayout @ 709 NONAME
	_ZN11QFontEngine17getGlyphPositionsERK12QGlyphLayoutRK10QTransform6QFlagsIN9QTextItem10RenderFlagEER15QVarLengthArrayIjLi256EERSA_I11QFixedPointLi256EE @ 710 NONAME
	_ZN11QFontEngine17getPointInOutlineEjijPiS0_Pj @ 711 NONAME
	_ZN11QFontEngine19addBitmapFontToPathEffRK12QGlyphLayoutP12QPainterPath6QFlagsIN9QTextItem10RenderFlagEE @ 712 NONAME
	_ZN11QFontEngine19alphaRGBMapForGlyphEjiRK10QTransform @ 713 NONAME ABSENT
	_ZN11QFontEngine20removeGlyphFromCacheEj @ 714 NONAME
	_ZN11QFontEngine21getTrueTypeGlyphIndexEPKhj @ 715 NONAME
	_ZN11QFontEngine7getCMapEPKhjPbPi @ 716 NONAME
	_ZN11QFontEngineC2Ev @ 717 NONAME
	_ZN11QFontEngineD0Ev @ 718 NONAME
	_ZN11QFontEngineD1Ev @ 719 NONAME
	_ZN11QFontEngineD2Ev @ 720 NONAME
	_ZN11QFormLayout10invalidateEv @ 721 NONAME
	_ZN11QFormLayout10setSpacingEi @ 722 NONAME
	_ZN11QFormLayout11qt_metacallEN11QMetaObject4CallEiPPv @ 723 NONAME
	_ZN11QFormLayout11qt_metacastEPKc @ 724 NONAME
	_ZN11QFormLayout11setGeometryERK5QRect @ 725 NONAME
	_ZN11QFormLayout16setFormAlignmentE6QFlagsIN2Qt13AlignmentFlagEE @ 726 NONAME
	_ZN11QFormLayout16setRowWrapPolicyENS_13RowWrapPolicyE @ 727 NONAME
	_ZN11QFormLayout16staticMetaObjectE @ 728 NONAME DATA 16
	_ZN11QFormLayout17setLabelAlignmentE6QFlagsIN2Qt13AlignmentFlagEE @ 729 NONAME
	_ZN11QFormLayout18resetFormAlignmentEv @ 730 NONAME
	_ZN11QFormLayout18resetRowWrapPolicyEv @ 731 NONAME
	_ZN11QFormLayout18setVerticalSpacingEi @ 732 NONAME
	_ZN11QFormLayout19getStaticMetaObjectEv @ 733 NONAME
	_ZN11QFormLayout19resetLabelAlignmentEv @ 734 NONAME
	_ZN11QFormLayout20setFieldGrowthPolicyENS_17FieldGrowthPolicyE @ 735 NONAME
	_ZN11QFormLayout20setHorizontalSpacingEi @ 736 NONAME
	_ZN11QFormLayout22resetFieldGrowthPolicyEv @ 737 NONAME
	_ZN11QFormLayout6addRowEP7QLayout @ 738 NONAME
	_ZN11QFormLayout6addRowEP7QWidget @ 739 NONAME
	_ZN11QFormLayout6addRowEP7QWidgetP7QLayout @ 740 NONAME
	_ZN11QFormLayout6addRowEP7QWidgetS1_ @ 741 NONAME
	_ZN11QFormLayout6addRowERK7QStringP7QLayout @ 742 NONAME
	_ZN11QFormLayout6addRowERK7QStringP7QWidget @ 743 NONAME
	_ZN11QFormLayout6takeAtEi @ 744 NONAME
	_ZN11QFormLayout7addItemEP11QLayoutItem @ 745 NONAME
	_ZN11QFormLayout7setItemEiNS_8ItemRoleEP11QLayoutItem @ 746 NONAME
	_ZN11QFormLayout9insertRowEiP7QLayout @ 747 NONAME
	_ZN11QFormLayout9insertRowEiP7QWidget @ 748 NONAME
	_ZN11QFormLayout9insertRowEiP7QWidgetP7QLayout @ 749 NONAME
	_ZN11QFormLayout9insertRowEiP7QWidgetS1_ @ 750 NONAME
	_ZN11QFormLayout9insertRowEiRK7QStringP7QLayout @ 751 NONAME
	_ZN11QFormLayout9insertRowEiRK7QStringP7QWidget @ 752 NONAME
	_ZN11QFormLayout9setLayoutEiNS_8ItemRoleEP7QLayout @ 753 NONAME
	_ZN11QFormLayout9setWidgetEiNS_8ItemRoleEP7QWidget @ 754 NONAME
	_ZN11QFormLayoutC1EP7QWidget @ 755 NONAME
	_ZN11QFormLayoutC2EP7QWidget @ 756 NONAME
	_ZN11QFormLayoutD0Ev @ 757 NONAME
	_ZN11QFormLayoutD1Ev @ 758 NONAME
	_ZN11QFormLayoutD2Ev @ 759 NONAME
	_ZN11QGridLayout10invalidateEv @ 760 NONAME
	_ZN11QGridLayout10setSpacingEi @ 761 NONAME
	_ZN11QGridLayout11qt_metacallEN11QMetaObject4CallEiPPv @ 762 NONAME
	_ZN11QGridLayout11qt_metacastEPKc @ 763 NONAME
	_ZN11QGridLayout11setGeometryERK5QRect @ 764 NONAME
	_ZN11QGridLayout13setRowStretchEii @ 765 NONAME
	_ZN11QGridLayout15getItemPositionEiPiS0_S0_S0_ @ 766 NONAME
	_ZN11QGridLayout15setOriginCornerEN2Qt6CornerE @ 767 NONAME
	_ZN11QGridLayout16setColumnStretchEii @ 768 NONAME
	_ZN11QGridLayout16staticMetaObjectE @ 769 NONAME DATA 16
	_ZN11QGridLayout18setVerticalSpacingEi @ 770 NONAME
	_ZN11QGridLayout19getStaticMetaObjectEv @ 771 NONAME
	_ZN11QGridLayout19setRowMinimumHeightEii @ 772 NONAME
	_ZN11QGridLayout20setHorizontalSpacingEi @ 773 NONAME
	_ZN11QGridLayout21setColumnMinimumWidthEii @ 774 NONAME
	_ZN11QGridLayout21setDefaultPositioningEiN2Qt11OrientationE @ 775 NONAME
	_ZN11QGridLayout6takeAtEi @ 776 NONAME
	_ZN11QGridLayout7addItemEP11QLayoutItem @ 777 NONAME
	_ZN11QGridLayout7addItemEP11QLayoutItemiiii6QFlagsIN2Qt13AlignmentFlagEE @ 778 NONAME
	_ZN11QGridLayout9addLayoutEP7QLayoutii6QFlagsIN2Qt13AlignmentFlagEE @ 779 NONAME
	_ZN11QGridLayout9addLayoutEP7QLayoutiiii6QFlagsIN2Qt13AlignmentFlagEE @ 780 NONAME
	_ZN11QGridLayout9addWidgetEP7QWidgetii6QFlagsIN2Qt13AlignmentFlagEE @ 781 NONAME
	_ZN11QGridLayout9addWidgetEP7QWidgetiiii6QFlagsIN2Qt13AlignmentFlagEE @ 782 NONAME
	_ZN11QGridLayoutC1EP7QWidget @ 783 NONAME
	_ZN11QGridLayoutC1Ev @ 784 NONAME
	_ZN11QGridLayoutC2EP7QWidget @ 785 NONAME
	_ZN11QGridLayoutC2Ev @ 786 NONAME
	_ZN11QGridLayoutD0Ev @ 787 NONAME
	_ZN11QGridLayoutD1Ev @ 788 NONAME
	_ZN11QGridLayoutD2Ev @ 789 NONAME
	_ZN11QHBoxLayout11qt_metacallEN11QMetaObject4CallEiPPv @ 790 NONAME
	_ZN11QHBoxLayout11qt_metacastEPKc @ 791 NONAME
	_ZN11QHBoxLayout16staticMetaObjectE @ 792 NONAME DATA 16
	_ZN11QHBoxLayout19getStaticMetaObjectEv @ 793 NONAME
	_ZN11QHBoxLayoutC1EP7QWidget @ 794 NONAME
	_ZN11QHBoxLayoutC1Ev @ 795 NONAME
	_ZN11QHBoxLayoutC2EP7QWidget @ 796 NONAME
	_ZN11QHBoxLayoutC2Ev @ 797 NONAME
	_ZN11QHBoxLayoutD0Ev @ 798 NONAME
	_ZN11QHBoxLayoutD1Ev @ 799 NONAME
	_ZN11QHBoxLayoutD2Ev @ 800 NONAME
	_ZN11QHeaderView10initializeEv @ 801 NONAME
	_ZN11QHeaderView10moveCursorEN17QAbstractItemView12CursorActionE6QFlagsIN2Qt16KeyboardModifierEE @ 802 NONAME
	_ZN11QHeaderView10paintEventEP11QPaintEvent @ 803 NONAME
	_ZN11QHeaderView10setMovableEb @ 804 NONAME
	_ZN11QHeaderView11dataChangedERK11QModelIndexS2_ @ 805 NONAME
	_ZN11QHeaderView11moveSectionEii @ 806 NONAME
	_ZN11QHeaderView11qt_metacallEN11QMetaObject4CallEiPPv @ 807 NONAME
	_ZN11QHeaderView11qt_metacastEPKc @ 808 NONAME
	_ZN11QHeaderView12restoreStateERK10QByteArray @ 809 NONAME
	_ZN11QHeaderView12rowsInsertedERK11QModelIndexii @ 810 NONAME
	_ZN11QHeaderView12sectionMovedEiii @ 811 NONAME
	_ZN11QHeaderView12setClickableEb @ 812 NONAME
	_ZN11QHeaderView12setSelectionERK5QRect6QFlagsIN19QItemSelectionModel13SelectionFlagEE @ 813 NONAME
	_ZN11QHeaderView12swapSectionsEii @ 814 NONAME
	_ZN11QHeaderView13doItemsLayoutEv @ 815 NONAME
	_ZN11QHeaderView13resizeSectionEii @ 816 NONAME
	_ZN11QHeaderView13setResizeModeENS_10ResizeModeE @ 817 NONAME
	_ZN11QHeaderView13setResizeModeEiNS_10ResizeModeE @ 818 NONAME
	_ZN11QHeaderView13updateSectionEi @ 819 NONAME
	_ZN11QHeaderView13viewportEventEP6QEvent @ 820 NONAME
	_ZN11QHeaderView14currentChangedERK11QModelIndexS2_ @ 821 NONAME
	_ZN11QHeaderView14mouseMoveEventEP11QMouseEvent @ 822 NONAME
	_ZN11QHeaderView14resizeSectionsENS_10ResizeModeE @ 823 NONAME
	_ZN11QHeaderView14resizeSectionsEv @ 824 NONAME
	_ZN11QHeaderView14sectionClickedEi @ 825 NONAME
	_ZN11QHeaderView14sectionEnteredEi @ 826 NONAME
	_ZN11QHeaderView14sectionPressedEi @ 827 NONAME
	_ZN11QHeaderView14sectionResizedEiii @ 828 NONAME
	_ZN11QHeaderView15mousePressEventEP11QMouseEvent @ 829 NONAME
	_ZN11QHeaderView16scrollContentsByEii @ 830 NONAME
	_ZN11QHeaderView16sectionsInsertedERK11QModelIndexii @ 831 NONAME
	_ZN11QHeaderView16setSectionHiddenEib @ 832 NONAME
	_ZN11QHeaderView16setSortIndicatorEiN2Qt9SortOrderE @ 833 NONAME
	_ZN11QHeaderView16staticMetaObjectE @ 834 NONAME DATA 16
	_ZN11QHeaderView16updateGeometriesEv @ 835 NONAME
	_ZN11QHeaderView17geometriesChangedEv @ 836 NONAME
	_ZN11QHeaderView17headerDataChangedEN2Qt11OrientationEii @ 837 NONAME
	_ZN11QHeaderView17mouseReleaseEventEP11QMouseEvent @ 838 NONAME
	_ZN11QHeaderView17sectionAutoResizeEiNS_10ResizeModeE @ 839 NONAME
	_ZN11QHeaderView18initializeSectionsEii @ 840 NONAME
	_ZN11QHeaderView18initializeSectionsEv @ 841 NONAME
	_ZN11QHeaderView19getStaticMetaObjectEv @ 842 NONAME
	_ZN11QHeaderView19sectionCountChangedEii @ 843 NONAME
	_ZN11QHeaderView19setDefaultAlignmentE6QFlagsIN2Qt13AlignmentFlagEE @ 844 NONAME
	_ZN11QHeaderView20sectionDoubleClickedEi @ 845 NONAME
	_ZN11QHeaderView20setHighlightSectionsEb @ 846 NONAME
	_ZN11QHeaderView20sortIndicatorChangedEiN2Qt9SortOrderE @ 847 NONAME
	_ZN11QHeaderView21mouseDoubleClickEventEP11QMouseEvent @ 848 NONAME
	_ZN11QHeaderView21setDefaultSectionSizeEi @ 849 NONAME
	_ZN11QHeaderView21setMinimumSectionSizeEi @ 850 NONAME
	_ZN11QHeaderView21setSortIndicatorShownEb @ 851 NONAME
	_ZN11QHeaderView21setStretchLastSectionEb @ 852 NONAME
	_ZN11QHeaderView22setOffsetToLastSectionEv @ 853 NONAME
	_ZN11QHeaderView24sectionsAboutToBeRemovedERK11QModelIndexii @ 854 NONAME
	_ZN11QHeaderView26sectionHandleDoubleClickedEi @ 855 NONAME
	_ZN11QHeaderView26setCascadingSectionResizesEb @ 856 NONAME
	_ZN11QHeaderView26setOffsetToSectionPositionEi @ 857 NONAME
	_ZN11QHeaderView5eventEP6QEvent @ 858 NONAME
	_ZN11QHeaderView5resetEv @ 859 NONAME
	_ZN11QHeaderView8scrollToERK11QModelIndexN17QAbstractItemView10ScrollHintE @ 860 NONAME
	_ZN11QHeaderView8setModelEP18QAbstractItemModel @ 861 NONAME
	_ZN11QHeaderView9setOffsetEi @ 862 NONAME
	_ZN11QHeaderViewC1EN2Qt11OrientationEP7QWidget @ 863 NONAME
	_ZN11QHeaderViewC1ER18QHeaderViewPrivateN2Qt11OrientationEP7QWidget @ 864 NONAME
	_ZN11QHeaderViewC2EN2Qt11OrientationEP7QWidget @ 865 NONAME
	_ZN11QHeaderViewC2ER18QHeaderViewPrivateN2Qt11OrientationEP7QWidget @ 866 NONAME
	_ZN11QHeaderViewD0Ev @ 867 NONAME
	_ZN11QHeaderViewD1Ev @ 868 NONAME
	_ZN11QHeaderViewD2Ev @ 869 NONAME
	_ZN11QHoverEventC1EN6QEvent4TypeERK6QPointS4_ @ 870 NONAME
	_ZN11QHoverEventC2EN6QEvent4TypeERK6QPointS4_ @ 871 NONAME
	_ZN11QHoverEventD0Ev @ 872 NONAME
	_ZN11QHoverEventD1Ev @ 873 NONAME
	_ZN11QHoverEventD2Ev @ 874 NONAME
	_ZN11QIconEngine10actualSizeERK5QSizeN5QIcon4ModeENS3_5StateE @ 875 NONAME
	_ZN11QIconEngine6pixmapERK5QSizeN5QIcon4ModeENS3_5StateE @ 876 NONAME
	_ZN11QIconEngine7addFileERK7QStringRK5QSizeN5QIcon4ModeENS6_5StateE @ 877 NONAME
	_ZN11QIconEngine9addPixmapERK7QPixmapN5QIcon4ModeENS3_5StateE @ 878 NONAME
	_ZN11QIconEngineD0Ev @ 879 NONAME
	_ZN11QIconEngineD1Ev @ 880 NONAME
	_ZN11QIconEngineD2Ev @ 881 NONAME
	_ZN11QInputEventC1EN6QEvent4TypeE6QFlagsIN2Qt16KeyboardModifierEE @ 882 NONAME
	_ZN11QInputEventC2EN6QEvent4TypeE6QFlagsIN2Qt16KeyboardModifierEE @ 883 NONAME
	_ZN11QInputEventD0Ev @ 884 NONAME
	_ZN11QInputEventD1Ev @ 885 NONAME
	_ZN11QInputEventD2Ev @ 886 NONAME
	_ZN11QLayoutItem10invalidateEv @ 887 NONAME
	_ZN11QLayoutItem10spacerItemEv @ 888 NONAME
	_ZN11QLayoutItem12setAlignmentE6QFlagsIN2Qt13AlignmentFlagEE @ 889 NONAME
	_ZN11QLayoutItem6layoutEv @ 890 NONAME
	_ZN11QLayoutItem6widgetEv @ 891 NONAME
	_ZN11QLayoutItemD0Ev @ 892 NONAME
	_ZN11QLayoutItemD1Ev @ 893 NONAME
	_ZN11QLayoutItemD2Ev @ 894 NONAME
	_ZN11QListWidget10insertItemEiP15QListWidgetItem @ 895 NONAME
	_ZN11QListWidget10insertItemEiRK7QString @ 896 NONAME
	_ZN11QListWidget11insertItemsEiRK11QStringList @ 897 NONAME
	_ZN11QListWidget11itemChangedEP15QListWidgetItem @ 898 NONAME
	_ZN11QListWidget11itemClickedEP15QListWidgetItem @ 899 NONAME
	_ZN11QListWidget11itemEnteredEP15QListWidgetItem @ 900 NONAME
	_ZN11QListWidget11itemPressedEP15QListWidgetItem @ 901 NONAME
	_ZN11QListWidget11qt_metacallEN11QMetaObject4CallEiPPv @ 902 NONAME
	_ZN11QListWidget11qt_metacastEPKc @ 903 NONAME
	_ZN11QListWidget12dropMimeDataEiPK9QMimeDataN2Qt10DropActionE @ 904 NONAME
	_ZN11QListWidget12scrollToItemEPK15QListWidgetItemN17QAbstractItemView10ScrollHintE @ 905 NONAME
	_ZN11QListWidget13itemActivatedEP15QListWidgetItem @ 906 NONAME
	_ZN11QListWidget13setCurrentRowEi @ 907 NONAME
	_ZN11QListWidget13setCurrentRowEi6QFlagsIN19QItemSelectionModel13SelectionFlagEE @ 908 NONAME
	_ZN11QListWidget13setItemHiddenEPK15QListWidgetItemb @ 909 NONAME
	_ZN11QListWidget13setItemWidgetEP15QListWidgetItemP7QWidget @ 910 NONAME
	_ZN11QListWidget14setCurrentItemEP15QListWidgetItem @ 911 NONAME
	_ZN11QListWidget14setCurrentItemEP15QListWidgetItem6QFlagsIN19QItemSelectionModel13SelectionFlagEE @ 912 NONAME
	_ZN11QListWidget15setItemSelectedEPK15QListWidgetItemb @ 913 NONAME
	_ZN11QListWidget16staticMetaObjectE @ 914 NONAME DATA 16
	_ZN11QListWidget17currentRowChangedEi @ 915 NONAME
	_ZN11QListWidget17itemDoubleClickedEP15QListWidgetItem @ 916 NONAME
	_ZN11QListWidget17setSortingEnabledEb @ 917 NONAME
	_ZN11QListWidget18currentItemChangedEP15QListWidgetItemS1_ @ 918 NONAME
	_ZN11QListWidget18currentTextChangedERK7QString @ 919 NONAME
	_ZN11QListWidget19getStaticMetaObjectEv @ 920 NONAME
	_ZN11QListWidget20itemSelectionChangedEv @ 921 NONAME
	_ZN11QListWidget20openPersistentEditorEP15QListWidgetItem @ 922 NONAME
	_ZN11QListWidget21closePersistentEditorEP15QListWidgetItem @ 923 NONAME
	_ZN11QListWidget5clearEv @ 924 NONAME
	_ZN11QListWidget5eventEP6QEvent @ 925 NONAME
	_ZN11QListWidget8editItemEP15QListWidgetItem @ 926 NONAME
	_ZN11QListWidget8setModelEP18QAbstractItemModel @ 927 NONAME
	_ZN11QListWidget8takeItemEi @ 928 NONAME
	_ZN11QListWidget9dropEventEP10QDropEvent @ 929 NONAME
	_ZN11QListWidget9sortItemsEN2Qt9SortOrderE @ 930 NONAME
	_ZN11QListWidgetC1EP7QWidget @ 931 NONAME
	_ZN11QListWidgetC2EP7QWidget @ 932 NONAME
	_ZN11QListWidgetD0Ev @ 933 NONAME
	_ZN11QListWidgetD1Ev @ 934 NONAME
	_ZN11QListWidgetD2Ev @ 935 NONAME
	_ZN11QMainWindow10addToolBarEN2Qt11ToolBarAreaEP8QToolBar @ 936 NONAME
	_ZN11QMainWindow10addToolBarEP8QToolBar @ 937 NONAME
	_ZN11QMainWindow10addToolBarERK7QString @ 938 NONAME
	_ZN11QMainWindow10setMenuBarEP8QMenuBar @ 939 NONAME
	_ZN11QMainWindow11qt_metacallEN11QMetaObject4CallEiPPv @ 940 NONAME
	_ZN11QMainWindow11qt_metacastEPKc @ 941 NONAME
	_ZN11QMainWindow11setAnimatedEb @ 942 NONAME
	_ZN11QMainWindow11setIconSizeERK5QSize @ 943 NONAME
	_ZN11QMainWindow11setTabShapeEN10QTabWidget8TabShapeE @ 944 NONAME
	_ZN11QMainWindow12restoreStateERK10QByteArrayi @ 945 NONAME
	_ZN11QMainWindow12setStatusBarEP10QStatusBar @ 946 NONAME
	_ZN11QMainWindow13addDockWidgetEN2Qt14DockWidgetAreaEP11QDockWidget @ 947 NONAME
	_ZN11QMainWindow13addDockWidgetEN2Qt14DockWidgetAreaEP11QDockWidgetNS0_11OrientationE @ 948 NONAME
	_ZN11QMainWindow13insertToolBarEP8QToolBarS1_ @ 949 NONAME
	_ZN11QMainWindow13removeToolBarEP8QToolBar @ 950 NONAME
	_ZN11QMainWindow13setMenuWidgetEP7QWidget @ 951 NONAME
	_ZN11QMainWindow14setDockOptionsE6QFlagsINS_10DockOptionEE @ 952 NONAME
	_ZN11QMainWindow14setTabPositionE6QFlagsIN2Qt14DockWidgetAreaEEN10QTabWidget11TabPositionE @ 953 NONAME
	_ZN11QMainWindow15addToolBarBreakEN2Qt11ToolBarAreaE @ 954 NONAME
	_ZN11QMainWindow15createPopupMenuEv @ 955 NONAME
	_ZN11QMainWindow15iconSizeChangedERK5QSize @ 956 NONAME
	_ZN11QMainWindow15setDocumentModeEb @ 957 NONAME
	_ZN11QMainWindow15splitDockWidgetEP11QDockWidgetS1_N2Qt11OrientationE @ 958 NONAME
	_ZN11QMainWindow16contextMenuEventEP17QContextMenuEvent @ 959 NONAME
	_ZN11QMainWindow16removeDockWidgetEP11QDockWidget @ 960 NONAME
	_ZN11QMainWindow16setCentralWidgetEP7QWidget @ 961 NONAME
	_ZN11QMainWindow16staticMetaObjectE @ 962 NONAME DATA 16
	_ZN11QMainWindow16tabifyDockWidgetEP11QDockWidgetS1_ @ 963 NONAME
	_ZN11QMainWindow17restoreDockWidgetEP11QDockWidget @ 964 NONAME
	_ZN11QMainWindow18insertToolBarBreakEP8QToolBar @ 965 NONAME
	_ZN11QMainWindow18removeToolBarBreakEP8QToolBar @ 966 NONAME
	_ZN11QMainWindow18setToolButtonStyleEN2Qt15ToolButtonStyleE @ 967 NONAME
	_ZN11QMainWindow19getStaticMetaObjectEv @ 968 NONAME
	_ZN11QMainWindow21setDockNestingEnabledEb @ 969 NONAME
	_ZN11QMainWindow22toolButtonStyleChangedEN2Qt15ToolButtonStyleE @ 970 NONAME
	_ZN11QMainWindow30setUnifiedTitleAndToolBarOnMacEb @ 971 NONAME
	_ZN11QMainWindow5eventEP6QEvent @ 972 NONAME
	_ZN11QMainWindow9setCornerEN2Qt6CornerENS0_14DockWidgetAreaE @ 973 NONAME
	_ZN11QMainWindowC1EP7QWidget6QFlagsIN2Qt10WindowTypeEE @ 974 NONAME
	_ZN11QMainWindowC2EP7QWidget6QFlagsIN2Qt10WindowTypeEE @ 975 NONAME
	_ZN11QMainWindowD0Ev @ 976 NONAME
	_ZN11QMainWindowD1Ev @ 977 NONAME
	_ZN11QMainWindowD2Ev @ 978 NONAME
	_ZN11QMessageBox10closeEventEP11QCloseEvent @ 979 NONAME
	_ZN11QMessageBox11changeEventEP6QEvent @ 980 NONAME
	_ZN11QMessageBox11informationEP7QWidgetRK7QStringS4_6QFlagsINS_14StandardButtonEES6_ @ 981 NONAME
	_ZN11QMessageBox11informationEP7QWidgetRK7QStringS4_S4_S4_S4_ii @ 982 NONAME
	_ZN11QMessageBox11informationEP7QWidgetRK7QStringS4_iii @ 983 NONAME
	_ZN11QMessageBox11qt_metacallEN11QMetaObject4CallEiPPv @ 984 NONAME
	_ZN11QMessageBox11qt_metacastEPKc @ 985 NONAME
	_ZN11QMessageBox11resizeEventEP12QResizeEvent @ 986 NONAME
	_ZN11QMessageBox12removeButtonEP15QAbstractButton @ 987 NONAME
	_ZN11QMessageBox12standardIconENS_4IconE @ 988 NONAME
	_ZN11QMessageBox13buttonClickedEP15QAbstractButton @ 989 NONAME
	_ZN11QMessageBox13keyPressEventEP9QKeyEvent @ 990 NONAME
	_ZN11QMessageBox13setButtonTextEiRK7QString @ 991 NONAME
	_ZN11QMessageBox13setIconPixmapERK7QPixmap @ 992 NONAME
	_ZN11QMessageBox13setTextFormatEN2Qt10TextFormatE @ 993 NONAME
	_ZN11QMessageBox14setWindowTitleERK7QString @ 994 NONAME
	_ZN11QMessageBox15setDetailedTextERK7QString @ 995 NONAME
	_ZN11QMessageBox15setEscapeButtonENS_14StandardButtonE @ 996 NONAME
	_ZN11QMessageBox15setEscapeButtonEP15QAbstractButton @ 997 NONAME
	_ZN11QMessageBox16setDefaultButtonENS_14StandardButtonE @ 998 NONAME
	_ZN11QMessageBox16setDefaultButtonEP11QPushButton @ 999 NONAME
	_ZN11QMessageBox16staticMetaObjectE @ 1000 NONAME DATA 16
	_ZN11QMessageBox17setWindowModalityEN2Qt14WindowModalityE @ 1001 NONAME
	_ZN11QMessageBox18setInformativeTextERK7QString @ 1002 NONAME
	_ZN11QMessageBox18setStandardButtonsE6QFlagsINS_14StandardButtonEE @ 1003 NONAME
	_ZN11QMessageBox19getStaticMetaObjectEv @ 1004 NONAME
	_ZN11QMessageBox4openEP7QObjectPKc @ 1005 NONAME
	_ZN11QMessageBox5aboutEP7QWidgetRK7QStringS4_ @ 1006 NONAME
	_ZN11QMessageBox5eventEP6QEvent @ 1007 NONAME
	_ZN11QMessageBox7aboutQtEP7QWidgetRK7QString @ 1008 NONAME
	_ZN11QMessageBox7setIconENS_4IconE @ 1009 NONAME
	_ZN11QMessageBox7setTextERK7QString @ 1010 NONAME
	_ZN11QMessageBox7warningEP7QWidgetRK7QStringS4_6QFlagsINS_14StandardButtonEES6_ @ 1011 NONAME
	_ZN11QMessageBox7warningEP7QWidgetRK7QStringS4_S4_S4_S4_ii @ 1012 NONAME
	_ZN11QMessageBox7warningEP7QWidgetRK7QStringS4_iii @ 1013 NONAME
	_ZN11QMessageBox8criticalEP7QWidgetRK7QStringS4_6QFlagsINS_14StandardButtonEES6_ @ 1014 NONAME
	_ZN11QMessageBox8criticalEP7QWidgetRK7QStringS4_S4_S4_S4_ii @ 1015 NONAME
	_ZN11QMessageBox8criticalEP7QWidgetRK7QStringS4_iii @ 1016 NONAME
	_ZN11QMessageBox8questionEP7QWidgetRK7QStringS4_6QFlagsINS_14StandardButtonEES6_ @ 1017 NONAME
	_ZN11QMessageBox8questionEP7QWidgetRK7QStringS4_S4_S4_S4_ii @ 1018 NONAME
	_ZN11QMessageBox8questionEP7QWidgetRK7QStringS4_iii @ 1019 NONAME
	_ZN11QMessageBox9addButtonENS_14StandardButtonE @ 1020 NONAME
	_ZN11QMessageBox9addButtonEP15QAbstractButtonNS_10ButtonRoleE @ 1021 NONAME
	_ZN11QMessageBox9addButtonERK7QStringNS_10ButtonRoleE @ 1022 NONAME
	_ZN11QMessageBox9showEventEP10QShowEvent @ 1023 NONAME
	_ZN11QMessageBoxC1ENS_4IconERK7QStringS3_6QFlagsINS_14StandardButtonEEP7QWidgetS4_IN2Qt10WindowTypeEE @ 1024 NONAME
	_ZN11QMessageBoxC1EP7QWidget @ 1025 NONAME
	_ZN11QMessageBoxC1ERK7QStringS2_NS_4IconEiiiP7QWidget6QFlagsIN2Qt10WindowTypeEE @ 1026 NONAME
	_ZN11QMessageBoxC2ENS_4IconERK7QStringS3_6QFlagsINS_14StandardButtonEEP7QWidgetS4_IN2Qt10WindowTypeEE @ 1027 NONAME
	_ZN11QMessageBoxC2EP7QWidget @ 1028 NONAME
	_ZN11QMessageBoxC2ERK7QStringS2_NS_4IconEiiiP7QWidget6QFlagsIN2Qt10WindowTypeEE @ 1029 NONAME
	_ZN11QMessageBoxD0Ev @ 1030 NONAME
	_ZN11QMessageBoxD1Ev @ 1031 NONAME
	_ZN11QMessageBoxD2Ev @ 1032 NONAME
	_ZN11QMimeSourceD0Ev @ 1033 NONAME
	_ZN11QMimeSourceD1Ev @ 1034 NONAME
	_ZN11QMimeSourceD2Ev @ 1035 NONAME
	_ZN11QMouseEvent24createExtendedMouseEventEN6QEvent4TypeERK7QPointFRK6QPointN2Qt11MouseButtonE6QFlagsIS9_ESA_INS8_16KeyboardModifierEE @ 1036 NONAME
	_ZN11QMouseEventC1EN6QEvent4TypeERK6QPointN2Qt11MouseButtonE6QFlagsIS6_ES7_INS5_16KeyboardModifierEE @ 1037 NONAME
	_ZN11QMouseEventC1EN6QEvent4TypeERK6QPointS4_N2Qt11MouseButtonE6QFlagsIS6_ES7_INS5_16KeyboardModifierEE @ 1038 NONAME
	_ZN11QMouseEventC2EN6QEvent4TypeERK6QPointN2Qt11MouseButtonE6QFlagsIS6_ES7_INS5_16KeyboardModifierEE @ 1039 NONAME
	_ZN11QMouseEventC2EN6QEvent4TypeERK6QPointS4_N2Qt11MouseButtonE6QFlagsIS6_ES7_INS5_16KeyboardModifierEE @ 1040 NONAME
	_ZN11QMouseEventD0Ev @ 1041 NONAME
	_ZN11QMouseEventD1Ev @ 1042 NONAME
	_ZN11QMouseEventD2Ev @ 1043 NONAME
	_ZN11QPaintEventC1ERK5QRect @ 1044 NONAME
	_ZN11QPaintEventC1ERK7QRegion @ 1045 NONAME
	_ZN11QPaintEventC2ERK5QRect @ 1046 NONAME
	_ZN11QPaintEventC2ERK7QRegion @ 1047 NONAME
	_ZN11QPaintEventD0Ev @ 1048 NONAME
	_ZN11QPaintEventD1Ev @ 1049 NONAME
	_ZN11QPaintEventD2Ev @ 1050 NONAME
	_ZN11QPanGesture11qt_metacallEN11QMetaObject4CallEiPPv @ 1051 NONAME
	_ZN11QPanGesture11qt_metacastEPKc @ 1052 NONAME
	_ZN11QPanGesture13setLastOffsetERK6QSizeF @ 1053 NONAME ABSENT
	_ZN11QPanGesture14setTotalOffsetERK6QSizeF @ 1054 NONAME ABSENT
	_ZN11QPanGesture15setAccelerationEf @ 1055 NONAME
	_ZN11QPanGesture16staticMetaObjectE @ 1056 NONAME DATA 16
	_ZN11QPanGesture19getStaticMetaObjectEv @ 1057 NONAME
	_ZN11QPanGesture9setOffsetERK6QSizeF @ 1058 NONAME ABSENT
	_ZN11QPanGestureC1EP7QObject @ 1059 NONAME
	_ZN11QPanGestureC2EP7QObject @ 1060 NONAME
	_ZN11QPixmapData12toNativeTypeENS_10NativeTypeE @ 1061 NONAME
	_ZN11QPixmapData14fromNativeTypeEPvNS_10NativeTypeE @ 1062 NONAME
	_ZN11QPixmapData15setAlphaChannelERK7QPixmap @ 1063 NONAME
	_ZN11QPixmapData15setSerialNumberEi @ 1064 NONAME
	_ZN11QPixmapData4copyEPKS_RK5QRect @ 1065 NONAME
	_ZN11QPixmapData6bufferEv @ 1066 NONAME
	_ZN11QPixmapData6scrollEiiRK5QRect @ 1067 NONAME
	_ZN11QPixmapData7setMaskERK7QBitmap @ 1068 NONAME
	_ZN11QPixmapData8fromDataEPKhjPKc6QFlagsIN2Qt19ImageConversionFlagEE @ 1069 NONAME
	_ZN11QPixmapData8fromFileERK7QStringPKc6QFlagsIN2Qt19ImageConversionFlagEE @ 1070 NONAME
	_ZN11QPixmapDataC2ENS_9PixelTypeEi @ 1071 NONAME
	_ZN11QPixmapDataD0Ev @ 1072 NONAME
	_ZN11QPixmapDataD1Ev @ 1073 NONAME
	_ZN11QPixmapDataD2Ev @ 1074 NONAME
	_ZN11QProxyModel10insertRowsEiiRK11QModelIndex @ 1075 NONAME
	_ZN11QProxyModel11qt_metacallEN11QMetaObject4CallEiPPv @ 1076 NONAME
	_ZN11QProxyModel11qt_metacastEPKc @ 1077 NONAME
	_ZN11QProxyModel12dropMimeDataEPK9QMimeDataN2Qt10DropActionEiiRK11QModelIndex @ 1078 NONAME
	_ZN11QProxyModel13insertColumnsEiiRK11QModelIndex @ 1079 NONAME
	_ZN11QProxyModel13setHeaderDataEiN2Qt11OrientationERK8QVarianti @ 1080 NONAME
	_ZN11QProxyModel16staticMetaObjectE @ 1081 NONAME DATA 16
	_ZN11QProxyModel19getStaticMetaObjectEv @ 1082 NONAME
	_ZN11QProxyModel4sortEiN2Qt9SortOrderE @ 1083 NONAME
	_ZN11QProxyModel6revertEv @ 1084 NONAME
	_ZN11QProxyModel6submitEv @ 1085 NONAME
	_ZN11QProxyModel7setDataERK11QModelIndexRK8QVarianti @ 1086 NONAME
	_ZN11QProxyModel8setModelEP18QAbstractItemModel @ 1087 NONAME
	_ZN11QProxyModel9fetchMoreERK11QModelIndex @ 1088 NONAME
	_ZN11QProxyModelC1EP7QObject @ 1089 NONAME
	_ZN11QProxyModelC1ER18QProxyModelPrivateP7QObject @ 1090 NONAME
	_ZN11QProxyModelC2EP7QObject @ 1091 NONAME
	_ZN11QProxyModelC2ER18QProxyModelPrivateP7QObject @ 1092 NONAME
	_ZN11QProxyModelD0Ev @ 1093 NONAME
	_ZN11QProxyModelD1Ev @ 1094 NONAME
	_ZN11QProxyModelD2Ev @ 1095 NONAME
	_ZN11QProxyStyle11qt_metacallEN11QMetaObject4CallEiPPv @ 1096 NONAME
	_ZN11QProxyStyle11qt_metacastEPKc @ 1097 NONAME
	_ZN11QProxyStyle12setBaseStyleEP6QStyle @ 1098 NONAME
	_ZN11QProxyStyle16staticMetaObjectE @ 1099 NONAME DATA 16
	_ZN11QProxyStyle19getStaticMetaObjectEv @ 1100 NONAME
	_ZN11QProxyStyle5eventEP6QEvent @ 1101 NONAME
	_ZN11QProxyStyle6polishEP12QApplication @ 1102 NONAME
	_ZN11QProxyStyle6polishEP7QWidget @ 1103 NONAME
	_ZN11QProxyStyle6polishER8QPalette @ 1104 NONAME
	_ZN11QProxyStyle8unpolishEP12QApplication @ 1105 NONAME
	_ZN11QProxyStyle8unpolishEP7QWidget @ 1106 NONAME
	_ZN11QProxyStyleC1EP6QStyle @ 1107 NONAME
	_ZN11QProxyStyleC2EP6QStyle @ 1108 NONAME
	_ZN11QProxyStyleD0Ev @ 1109 NONAME
	_ZN11QProxyStyleD1Ev @ 1110 NONAME
	_ZN11QProxyStyleD2Ev @ 1111 NONAME
	_ZN11QPushButton10paintEventEP11QPaintEvent @ 1112 NONAME
	_ZN11QPushButton10setDefaultEb @ 1113 NONAME
	_ZN11QPushButton11qt_metacallEN11QMetaObject4CallEiPPv @ 1114 NONAME
	_ZN11QPushButton11qt_metacastEPKc @ 1115 NONAME
	_ZN11QPushButton12focusInEventEP11QFocusEvent @ 1116 NONAME
	_ZN11QPushButton13focusOutEventEP11QFocusEvent @ 1117 NONAME
	_ZN11QPushButton13keyPressEventEP9QKeyEvent @ 1118 NONAME
	_ZN11QPushButton14setAutoDefaultEb @ 1119 NONAME
	_ZN11QPushButton16staticMetaObjectE @ 1120 NONAME DATA 16
	_ZN11QPushButton19getStaticMetaObjectEv @ 1121 NONAME
	_ZN11QPushButton5eventEP6QEvent @ 1122 NONAME
	_ZN11QPushButton7setFlatEb @ 1123 NONAME
	_ZN11QPushButton7setMenuEP5QMenu @ 1124 NONAME
	_ZN11QPushButton8showMenuEv @ 1125 NONAME
	_ZN11QPushButtonC1EP7QWidget @ 1126 NONAME
	_ZN11QPushButtonC1ER18QPushButtonPrivateP7QWidget @ 1127 NONAME
	_ZN11QPushButtonC1ERK5QIconRK7QStringP7QWidget @ 1128 NONAME
	_ZN11QPushButtonC1ERK7QStringP7QWidget @ 1129 NONAME
	_ZN11QPushButtonC2EP7QWidget @ 1130 NONAME
	_ZN11QPushButtonC2ER18QPushButtonPrivateP7QWidget @ 1131 NONAME
	_ZN11QPushButtonC2ERK5QIconRK7QStringP7QWidget @ 1132 NONAME
	_ZN11QPushButtonC2ERK7QStringP7QWidget @ 1133 NONAME
	_ZN11QPushButtonD0Ev @ 1134 NONAME
	_ZN11QPushButtonD1Ev @ 1135 NONAME
	_ZN11QPushButtonD2Ev @ 1136 NONAME
	_ZN11QQuaternion16fromAxisAndAngleERK9QVector3Df @ 1137 NONAME
	_ZN11QQuaternion16fromAxisAndAngleEffff @ 1138 NONAME
	_ZN11QQuaternion5nlerpERKS_S1_f @ 1139 NONAME
	_ZN11QQuaternion5slerpERKS_S1_f @ 1140 NONAME
	_ZN11QQuaternion9normalizeEv @ 1141 NONAME
	_ZN11QRubberBand10paintEventEP11QPaintEvent @ 1142 NONAME
	_ZN11QRubberBand11changeEventEP6QEvent @ 1143 NONAME
	_ZN11QRubberBand11qt_metacallEN11QMetaObject4CallEiPPv @ 1144 NONAME
	_ZN11QRubberBand11qt_metacastEPKc @ 1145 NONAME
	_ZN11QRubberBand11resizeEventEP12QResizeEvent @ 1146 NONAME
	_ZN11QRubberBand11setGeometryERK5QRect @ 1147 NONAME
	_ZN11QRubberBand16staticMetaObjectE @ 1148 NONAME DATA 16
	_ZN11QRubberBand19getStaticMetaObjectEv @ 1149 NONAME
	_ZN11QRubberBand5eventEP6QEvent @ 1150 NONAME
	_ZN11QRubberBand9moveEventEP10QMoveEvent @ 1151 NONAME
	_ZN11QRubberBand9showEventEP10QShowEvent @ 1152 NONAME
	_ZN11QRubberBandC1ENS_5ShapeEP7QWidget @ 1153 NONAME
	_ZN11QRubberBandC2ENS_5ShapeEP7QWidget @ 1154 NONAME
	_ZN11QRubberBandD0Ev @ 1155 NONAME
	_ZN11QRubberBandD1Ev @ 1156 NONAME
	_ZN11QRubberBandD2Ev @ 1157 NONAME
	_ZN11QScrollArea10takeWidgetEv @ 1158 NONAME
	_ZN11QScrollArea11eventFilterEP7QObjectP6QEvent @ 1159 NONAME
	_ZN11QScrollArea11qt_metacallEN11QMetaObject4CallEiPPv @ 1160 NONAME
	_ZN11QScrollArea11qt_metacastEPKc @ 1161 NONAME
	_ZN11QScrollArea11resizeEventEP12QResizeEvent @ 1162 NONAME
	_ZN11QScrollArea12setAlignmentE6QFlagsIN2Qt13AlignmentFlagEE @ 1163 NONAME
	_ZN11QScrollArea13ensureVisibleEiiii @ 1164 NONAME
	_ZN11QScrollArea16scrollContentsByEii @ 1165 NONAME
	_ZN11QScrollArea16staticMetaObjectE @ 1166 NONAME DATA 16
	_ZN11QScrollArea18focusNextPrevChildEb @ 1167 NONAME
	_ZN11QScrollArea18setWidgetResizableEb @ 1168 NONAME
	_ZN11QScrollArea19ensureWidgetVisibleEP7QWidgetii @ 1169 NONAME
	_ZN11QScrollArea19getStaticMetaObjectEv @ 1170 NONAME
	_ZN11QScrollArea5eventEP6QEvent @ 1171 NONAME
	_ZN11QScrollArea9setWidgetEP7QWidget @ 1172 NONAME
	_ZN11QScrollAreaC1EP7QWidget @ 1173 NONAME
	_ZN11QScrollAreaC1ER18QScrollAreaPrivateP7QWidget @ 1174 NONAME
	_ZN11QScrollAreaC2EP7QWidget @ 1175 NONAME
	_ZN11QScrollAreaC2ER18QScrollAreaPrivateP7QWidget @ 1176 NONAME
	_ZN11QScrollAreaD0Ev @ 1177 NONAME
	_ZN11QScrollAreaD1Ev @ 1178 NONAME
	_ZN11QScrollAreaD2Ev @ 1179 NONAME
	_ZN11QSizePolicy14setControlTypeENS_11ControlTypeE @ 1180 NONAME
	_ZN11QSizePolicy16staticMetaObjectE @ 1181 NONAME DATA 16
	_ZN11QSizePolicy19getStaticMetaObjectEv @ 1182 NONAME
	_ZN11QSpacerItem10changeSizeEiiN11QSizePolicy6PolicyES1_ @ 1183 NONAME
	_ZN11QSpacerItem10spacerItemEv @ 1184 NONAME
	_ZN11QSpacerItem11setGeometryERK5QRect @ 1185 NONAME
	_ZN11QStrokerOps10strokePathERK12QPainterPathPvRK10QTransform @ 1186 NONAME
	_ZN11QStrokerOps13strokeEllipseERK6QRectFPvRK10QTransform @ 1187 NONAME
	_ZN11QStrokerOps13strokePolygonEPK7QPointFibPvRK10QTransform @ 1188 NONAME
	_ZN11QStrokerOps3endEv @ 1189 NONAME
	_ZN11QStrokerOps5beginEPv @ 1190 NONAME
	_ZN11QStrokerOpsC2Ev @ 1191 NONAME
	_ZN11QStrokerOpsD0Ev @ 1192 NONAME
	_ZN11QStrokerOpsD1Ev @ 1193 NONAME
	_ZN11QStrokerOpsD2Ev @ 1194 NONAME
	_ZN11QTextCursor10createListEN15QTextListFormat5StyleE @ 1195 NONAME
	_ZN11QTextCursor10createListERK15QTextListFormat @ 1196 NONAME
	_ZN11QTextCursor10deleteCharEv @ 1197 NONAME
	_ZN11QTextCursor10insertHtmlERK7QString @ 1198 NONAME
	_ZN11QTextCursor10insertListEN15QTextListFormat5StyleE @ 1199 NONAME
	_ZN11QTextCursor10insertListERK15QTextListFormat @ 1200 NONAME
	_ZN11QTextCursor10insertTextERK7QString @ 1201 NONAME
	_ZN11QTextCursor10insertTextERK7QStringRK15QTextCharFormat @ 1202 NONAME
	_ZN11QTextCursor11insertBlockERK16QTextBlockFormat @ 1203 NONAME
	_ZN11QTextCursor11insertBlockERK16QTextBlockFormatRK15QTextCharFormat @ 1204 NONAME
	_ZN11QTextCursor11insertBlockEv @ 1205 NONAME
	_ZN11QTextCursor11insertFrameERK16QTextFrameFormat @ 1206 NONAME
	_ZN11QTextCursor11insertImageERK16QTextImageFormat @ 1207 NONAME
	_ZN11QTextCursor11insertImageERK16QTextImageFormatN16QTextFrameFormat8PositionE @ 1208 NONAME
	_ZN11QTextCursor11insertImageERK6QImageRK7QString @ 1209 NONAME
	_ZN11QTextCursor11insertImageERK7QString @ 1210 NONAME
	_ZN11QTextCursor11insertTableEii @ 1211 NONAME
	_ZN11QTextCursor11insertTableEiiRK16QTextTableFormat @ 1212 NONAME
	_ZN11QTextCursor11setPositionEiNS_8MoveModeE @ 1213 NONAME
	_ZN11QTextCursor12endEditBlockEv @ 1214 NONAME
	_ZN11QTextCursor12movePositionENS_13MoveOperationENS_8MoveModeEi @ 1215 NONAME
	_ZN11QTextCursor13setCharFormatERK15QTextCharFormat @ 1216 NONAME
	_ZN11QTextCursor14beginEditBlockEv @ 1217 NONAME
	_ZN11QTextCursor14clearSelectionEv @ 1218 NONAME
	_ZN11QTextCursor14insertFragmentERK21QTextDocumentFragment @ 1219 NONAME
	_ZN11QTextCursor14setBlockFormatERK16QTextBlockFormat @ 1220 NONAME
	_ZN11QTextCursor15mergeCharFormatERK15QTextCharFormat @ 1221 NONAME
	_ZN11QTextCursor16mergeBlockFormatERK16QTextBlockFormat @ 1222 NONAME
	_ZN11QTextCursor18deletePreviousCharEv @ 1223 NONAME
	_ZN11QTextCursor18removeSelectedTextEv @ 1224 NONAME
	_ZN11QTextCursor18setBlockCharFormatERK15QTextCharFormat @ 1225 NONAME
	_ZN11QTextCursor19setVisualNavigationEb @ 1226 NONAME
	_ZN11QTextCursor20mergeBlockCharFormatERK15QTextCharFormat @ 1227 NONAME
	_ZN11QTextCursor21joinPreviousEditBlockEv @ 1228 NONAME
	_ZN11QTextCursor6selectENS_13SelectionTypeE @ 1229 NONAME
	_ZN11QTextCursorC1EP10QTextFrame @ 1230 NONAME
	_ZN11QTextCursorC1EP13QTextDocument @ 1231 NONAME
	_ZN11QTextCursorC1EP18QTextCursorPrivate @ 1232 NONAME
	_ZN11QTextCursorC1EP20QTextDocumentPrivatei @ 1233 NONAME
	_ZN11QTextCursorC1ERK10QTextBlock @ 1234 NONAME
	_ZN11QTextCursorC1ERKS_ @ 1235 NONAME
	_ZN11QTextCursorC1Ev @ 1236 NONAME
	_ZN11QTextCursorC2EP10QTextFrame @ 1237 NONAME
	_ZN11QTextCursorC2EP13QTextDocument @ 1238 NONAME
	_ZN11QTextCursorC2EP18QTextCursorPrivate @ 1239 NONAME
	_ZN11QTextCursorC2EP20QTextDocumentPrivatei @ 1240 NONAME
	_ZN11QTextCursorC2ERK10QTextBlock @ 1241 NONAME
	_ZN11QTextCursorC2ERKS_ @ 1242 NONAME
	_ZN11QTextCursorC2Ev @ 1243 NONAME
	_ZN11QTextCursorD1Ev @ 1244 NONAME
	_ZN11QTextCursorD2Ev @ 1245 NONAME
	_ZN11QTextCursoraSERKS_ @ 1246 NONAME
	_ZN11QTextEngine10freeMemoryEv @ 1247 NONAME
	_ZN11QTextEngine10invalidateEv @ 1248 NONAME
	_ZN11QTextEngine11bidiReorderEiPKhPi @ 1249 NONAME
	_ZN11QTextEngine13clearLineDataEv @ 1250 NONAME
	_ZN11QTextEngine22indexAdditionalFormatsEv @ 1251 NONAME
	_ZN11QTextEngine7justifyERK11QScriptLine @ 1252 NONAME
	_ZN11QTextEngine9shapeLineERK11QScriptLine @ 1253 NONAME
	_ZN11QTextEngineC1ERK7QStringRK5QFont @ 1254 NONAME
	_ZN11QTextEngineC1Ev @ 1255 NONAME
	_ZN11QTextEngineC2ERK7QStringRK5QFont @ 1256 NONAME
	_ZN11QTextEngineC2Ev @ 1257 NONAME
	_ZN11QTextEngineD1Ev @ 1258 NONAME
	_ZN11QTextEngineD2Ev @ 1259 NONAME
	_ZN11QTextFormat11setPropertyEiRK7QVectorI11QTextLengthE @ 1260 NONAME
	_ZN11QTextFormat11setPropertyEiRK8QVariant @ 1261 NONAME
	_ZN11QTextFormat13clearPropertyEi @ 1262 NONAME
	_ZN11QTextFormat14setObjectIndexEi @ 1263 NONAME
	_ZN11QTextFormat16staticMetaObjectE @ 1264 NONAME DATA 16
	_ZN11QTextFormat19getStaticMetaObjectEv @ 1265 NONAME
	_ZN11QTextFormat5mergeERKS_ @ 1266 NONAME
	_ZN11QTextFormatC1ERKS_ @ 1267 NONAME
	_ZN11QTextFormatC1Ei @ 1268 NONAME
	_ZN11QTextFormatC1Ev @ 1269 NONAME
	_ZN11QTextFormatC2ERKS_ @ 1270 NONAME
	_ZN11QTextFormatC2Ei @ 1271 NONAME
	_ZN11QTextFormatC2Ev @ 1272 NONAME
	_ZN11QTextFormatD1Ev @ 1273 NONAME
	_ZN11QTextFormatD2Ev @ 1274 NONAME
	_ZN11QTextFormataSERKS_ @ 1275 NONAME
	_ZN11QTextLayout10createLineEv @ 1276 NONAME
	_ZN11QTextLayout11beginLayoutEv @ 1277 NONAME
	_ZN11QTextLayout11clearLayoutEv @ 1278 NONAME
	_ZN11QTextLayout11setPositionERK7QPointF @ 1279 NONAME
	_ZN11QTextLayout13setTextOptionERK11QTextOption @ 1280 NONAME
	_ZN11QTextLayout14setPreeditAreaEiRK7QString @ 1281 NONAME
	_ZN11QTextLayout15setCacheEnabledEb @ 1282 NONAME
	_ZN11QTextLayout20setAdditionalFormatsERK5QListINS_11FormatRangeEE @ 1283 NONAME
	_ZN11QTextLayout22clearAdditionalFormatsEv @ 1284 NONAME
	_ZN11QTextLayout7setFontERK5QFont @ 1285 NONAME
	_ZN11QTextLayout7setTextERK7QString @ 1286 NONAME
	_ZN11QTextLayout8setFlagsEi @ 1287 NONAME
	_ZN11QTextLayout9endLayoutEv @ 1288 NONAME
	_ZN11QTextLayoutC1ERK10QTextBlock @ 1289 NONAME
	_ZN11QTextLayoutC1ERK7QString @ 1290 NONAME
	_ZN11QTextLayoutC1ERK7QStringRK5QFontP12QPaintDevice @ 1291 NONAME
	_ZN11QTextLayoutC1Ev @ 1292 NONAME
	_ZN11QTextLayoutC2ERK10QTextBlock @ 1293 NONAME
	_ZN11QTextLayoutC2ERK7QString @ 1294 NONAME
	_ZN11QTextLayoutC2ERK7QStringRK5QFontP12QPaintDevice @ 1295 NONAME
	_ZN11QTextLayoutC2Ev @ 1296 NONAME
	_ZN11QTextLayoutD1Ev @ 1297 NONAME
	_ZN11QTextLayoutD2Ev @ 1298 NONAME
	_ZN11QTextObject11qt_metacallEN11QMetaObject4CallEiPPv @ 1299 NONAME
	_ZN11QTextObject11qt_metacastEPKc @ 1300 NONAME
	_ZN11QTextObject16staticMetaObjectE @ 1301 NONAME DATA 16
	_ZN11QTextObject19getStaticMetaObjectEv @ 1302 NONAME
	_ZN11QTextObject9setFormatERK11QTextFormat @ 1303 NONAME
	_ZN11QTextObjectC1EP13QTextDocument @ 1304 NONAME
	_ZN11QTextObjectC1ER18QTextObjectPrivateP13QTextDocument @ 1305 NONAME
	_ZN11QTextObjectC2EP13QTextDocument @ 1306 NONAME
	_ZN11QTextObjectC2ER18QTextObjectPrivateP13QTextDocument @ 1307 NONAME
	_ZN11QTextObjectD0Ev @ 1308 NONAME
	_ZN11QTextObjectD1Ev @ 1309 NONAME
	_ZN11QTextObjectD2Ev @ 1310 NONAME
	_ZN11QTextOption11setTabArrayE5QListIfE @ 1311 NONAME
	_ZN11QTextOption7setTabsE5QListINS_3TabEE @ 1312 NONAME
	_ZN11QTextOptionC1E6QFlagsIN2Qt13AlignmentFlagEE @ 1313 NONAME
	_ZN11QTextOptionC1ERKS_ @ 1314 NONAME
	_ZN11QTextOptionC1Ev @ 1315 NONAME
	_ZN11QTextOptionC2E6QFlagsIN2Qt13AlignmentFlagEE @ 1316 NONAME
	_ZN11QTextOptionC2ERKS_ @ 1317 NONAME
	_ZN11QTextOptionC2Ev @ 1318 NONAME
	_ZN11QTextOptionD1Ev @ 1319 NONAME
	_ZN11QTextOptionD2Ev @ 1320 NONAME
	_ZN11QTextOptionaSERKS_ @ 1321 NONAME
	_ZN11QToolButton10enterEventEP6QEvent @ 1322 NONAME
	_ZN11QToolButton10leaveEventEP6QEvent @ 1323 NONAME
	_ZN11QToolButton10paintEventEP11QPaintEvent @ 1324 NONAME
	_ZN11QToolButton10timerEventEP11QTimerEvent @ 1325 NONAME
	_ZN11QToolButton11actionEventEP12QActionEvent @ 1326 NONAME
	_ZN11QToolButton11changeEventEP6QEvent @ 1327 NONAME
	_ZN11QToolButton11qt_metacallEN11QMetaObject4CallEiPPv @ 1328 NONAME
	_ZN11QToolButton11qt_metacastEPKc @ 1329 NONAME
	_ZN11QToolButton12setArrowTypeEN2Qt9ArrowTypeE @ 1330 NONAME
	_ZN11QToolButton12setAutoRaiseEb @ 1331 NONAME
	_ZN11QToolButton12setPopupModeENS_19ToolButtonPopupModeE @ 1332 NONAME
	_ZN11QToolButton14nextCheckStateEv @ 1333 NONAME
	_ZN11QToolButton15mousePressEventEP11QMouseEvent @ 1334 NONAME
	_ZN11QToolButton16setDefaultActionEP7QAction @ 1335 NONAME
	_ZN11QToolButton16staticMetaObjectE @ 1336 NONAME DATA 16
	_ZN11QToolButton17mouseReleaseEventEP11QMouseEvent @ 1337 NONAME
	_ZN11QToolButton18setToolButtonStyleEN2Qt15ToolButtonStyleE @ 1338 NONAME
	_ZN11QToolButton19getStaticMetaObjectEv @ 1339 NONAME
	_ZN11QToolButton5eventEP6QEvent @ 1340 NONAME
	_ZN11QToolButton7setMenuEP5QMenu @ 1341 NONAME
	_ZN11QToolButton8showMenuEv @ 1342 NONAME
	_ZN11QToolButton9triggeredEP7QAction @ 1343 NONAME
	_ZN11QToolButtonC1EP7QWidget @ 1344 NONAME
	_ZN11QToolButtonC1ER18QToolButtonPrivateP7QWidget @ 1345 NONAME
	_ZN11QToolButtonC2EP7QWidget @ 1346 NONAME
	_ZN11QToolButtonC2ER18QToolButtonPrivateP7QWidget @ 1347 NONAME
	_ZN11QToolButtonD0Ev @ 1348 NONAME
	_ZN11QToolButtonD1Ev @ 1349 NONAME
	_ZN11QToolButtonD2Ev @ 1350 NONAME
	_ZN11QTouchEvent10TouchPoint10setLastPosERK7QPointF @ 1351 NONAME
	_ZN11QTouchEvent10TouchPoint11setPressureEf @ 1352 NONAME
	_ZN11QTouchEvent10TouchPoint11setScenePosERK7QPointF @ 1353 NONAME
	_ZN11QTouchEvent10TouchPoint11setStartPosERK7QPointF @ 1354 NONAME
	_ZN11QTouchEvent10TouchPoint12setSceneRectERK6QRectF @ 1355 NONAME
	_ZN11QTouchEvent10TouchPoint12setScreenPosERK7QPointF @ 1356 NONAME
	_ZN11QTouchEvent10TouchPoint13setScreenRectERK6QRectF @ 1357 NONAME
	_ZN11QTouchEvent10TouchPoint15setLastScenePosERK7QPointF @ 1358 NONAME
	_ZN11QTouchEvent10TouchPoint16setLastScreenPosERK7QPointF @ 1359 NONAME
	_ZN11QTouchEvent10TouchPoint16setNormalizedPosERK7QPointF @ 1360 NONAME
	_ZN11QTouchEvent10TouchPoint16setStartScenePosERK7QPointF @ 1361 NONAME
	_ZN11QTouchEvent10TouchPoint17setStartScreenPosERK7QPointF @ 1362 NONAME
	_ZN11QTouchEvent10TouchPoint20setLastNormalizedPosERK7QPointF @ 1363 NONAME
	_ZN11QTouchEvent10TouchPoint21setStartNormalizedPosERK7QPointF @ 1364 NONAME
	_ZN11QTouchEvent10TouchPoint5setIdEi @ 1365 NONAME
	_ZN11QTouchEvent10TouchPoint6setPosERK7QPointF @ 1366 NONAME
	_ZN11QTouchEvent10TouchPoint7setRectERK6QRectF @ 1367 NONAME
	_ZN11QTouchEvent10TouchPoint8setStateE6QFlagsIN2Qt15TouchPointStateEE @ 1368 NONAME
	_ZN11QTouchEvent10TouchPointC1ERKS0_ @ 1369 NONAME
	_ZN11QTouchEvent10TouchPointC1Ei @ 1370 NONAME
	_ZN11QTouchEvent10TouchPointC2ERKS0_ @ 1371 NONAME
	_ZN11QTouchEvent10TouchPointC2Ei @ 1372 NONAME
	_ZN11QTouchEvent10TouchPointD1Ev @ 1373 NONAME
	_ZN11QTouchEvent10TouchPointD2Ev @ 1374 NONAME
	_ZN11QTouchEvent10TouchPointaSERKS0_ @ 1375 NONAME
	_ZN11QTouchEventC1EN6QEvent4TypeENS_10DeviceTypeE6QFlagsIN2Qt16KeyboardModifierEES3_INS4_15TouchPointStateEERK5QListINS_10TouchPointEE @ 1376 NONAME
	_ZN11QTouchEventC2EN6QEvent4TypeENS_10DeviceTypeE6QFlagsIN2Qt16KeyboardModifierEES3_INS4_15TouchPointStateEERK5QListINS_10TouchPointEE @ 1377 NONAME
	_ZN11QTouchEventD0Ev @ 1378 NONAME
	_ZN11QTouchEventD1Ev @ 1379 NONAME
	_ZN11QTouchEventD2Ev @ 1380 NONAME
	_ZN11QTreeWidget10expandItemEPK15QTreeWidgetItem @ 1381 NONAME
	_ZN11QTreeWidget11itemChangedEP15QTreeWidgetItemi @ 1382 NONAME
	_ZN11QTreeWidget11itemClickedEP15QTreeWidgetItemi @ 1383 NONAME
	_ZN11QTreeWidget11itemEnteredEP15QTreeWidgetItemi @ 1384 NONAME
	_ZN11QTreeWidget11itemPressedEP15QTreeWidgetItemi @ 1385 NONAME
	_ZN11QTreeWidget11qt_metacallEN11QMetaObject4CallEiPPv @ 1386 NONAME
	_ZN11QTreeWidget11qt_metacastEPKc @ 1387 NONAME
	_ZN11QTreeWidget12collapseItemEPK15QTreeWidgetItem @ 1388 NONAME
	_ZN11QTreeWidget12dropMimeDataEP15QTreeWidgetItemiPK9QMimeDataN2Qt10DropActionE @ 1389 NONAME
	_ZN11QTreeWidget12itemExpandedEP15QTreeWidgetItem @ 1390 NONAME
	_ZN11QTreeWidget12scrollToItemEPK15QTreeWidgetItemN17QAbstractItemView10ScrollHintE @ 1391 NONAME
	_ZN11QTreeWidget13itemActivatedEP15QTreeWidgetItemi @ 1392 NONAME
	_ZN11QTreeWidget13itemCollapsedEP15QTreeWidgetItem @ 1393 NONAME
	_ZN11QTreeWidget13setHeaderItemEP15QTreeWidgetItem @ 1394 NONAME
	_ZN11QTreeWidget13setItemHiddenEPK15QTreeWidgetItemb @ 1395 NONAME
	_ZN11QTreeWidget13setItemWidgetEP15QTreeWidgetItemiP7QWidget @ 1396 NONAME
	_ZN11QTreeWidget14setColumnCountEi @ 1397 NONAME
	_ZN11QTreeWidget14setCurrentItemEP15QTreeWidgetItem @ 1398 NONAME
	_ZN11QTreeWidget14setCurrentItemEP15QTreeWidgetItemi @ 1399 NONAME
	_ZN11QTreeWidget14setCurrentItemEP15QTreeWidgetItemi6QFlagsIN19QItemSelectionModel13SelectionFlagEE @ 1400 NONAME
	_ZN11QTreeWidget15addTopLevelItemEP15QTreeWidgetItem @ 1401 NONAME
	_ZN11QTreeWidget15setHeaderLabelsERK11QStringList @ 1402 NONAME
	_ZN11QTreeWidget15setItemExpandedEPK15QTreeWidgetItemb @ 1403 NONAME
	_ZN11QTreeWidget15setItemSelectedEPK15QTreeWidgetItemb @ 1404 NONAME
	_ZN11QTreeWidget16addTopLevelItemsERK5QListIP15QTreeWidgetItemE @ 1405 NONAME
	_ZN11QTreeWidget16staticMetaObjectE @ 1406 NONAME DATA 16
	_ZN11QTreeWidget16takeTopLevelItemEi @ 1407 NONAME
	_ZN11QTreeWidget17itemDoubleClickedEP15QTreeWidgetItemi @ 1408 NONAME
	_ZN11QTreeWidget17setSelectionModelEP19QItemSelectionModel @ 1409 NONAME
	_ZN11QTreeWidget17setSortingEnabledEb @ 1410 NONAME
	_ZN11QTreeWidget18currentItemChangedEP15QTreeWidgetItemS1_ @ 1411 NONAME
	_ZN11QTreeWidget18insertTopLevelItemEiP15QTreeWidgetItem @ 1412 NONAME
	_ZN11QTreeWidget19getStaticMetaObjectEv @ 1413 NONAME
	_ZN11QTreeWidget19indexOfTopLevelItemEP15QTreeWidgetItem @ 1414 NONAME
	_ZN11QTreeWidget19insertTopLevelItemsEiRK5QListIP15QTreeWidgetItemE @ 1415 NONAME
	_ZN11QTreeWidget20itemSelectionChangedEv @ 1416 NONAME
	_ZN11QTreeWidget20openPersistentEditorEP15QTreeWidgetItemi @ 1417 NONAME
	_ZN11QTreeWidget21closePersistentEditorEP15QTreeWidgetItemi @ 1418 NONAME
	_ZN11QTreeWidget25setFirstItemColumnSpannedEPK15QTreeWidgetItemb @ 1419 NONAME
	_ZN11QTreeWidget5clearEv @ 1420 NONAME
	_ZN11QTreeWidget5eventEP6QEvent @ 1421 NONAME
	_ZN11QTreeWidget8editItemEP15QTreeWidgetItemi @ 1422 NONAME
	_ZN11QTreeWidget8setModelEP18QAbstractItemModel @ 1423 NONAME
	_ZN11QTreeWidget9dropEventEP10QDropEvent @ 1424 NONAME
	_ZN11QTreeWidget9sortItemsEiN2Qt9SortOrderE @ 1425 NONAME
	_ZN11QTreeWidgetC1EP7QWidget @ 1426 NONAME
	_ZN11QTreeWidgetC2EP7QWidget @ 1427 NONAME
	_ZN11QTreeWidgetD0Ev @ 1428 NONAME
	_ZN11QTreeWidgetD1Ev @ 1429 NONAME
	_ZN11QTreeWidgetD2Ev @ 1430 NONAME
	_ZN11QVBoxLayout11qt_metacallEN11QMetaObject4CallEiPPv @ 1431 NONAME
	_ZN11QVBoxLayout11qt_metacastEPKc @ 1432 NONAME
	_ZN11QVBoxLayout16staticMetaObjectE @ 1433 NONAME DATA 16
	_ZN11QVBoxLayout19getStaticMetaObjectEv @ 1434 NONAME
	_ZN11QVBoxLayoutC1EP7QWidget @ 1435 NONAME
	_ZN11QVBoxLayoutC1Ev @ 1436 NONAME
	_ZN11QVBoxLayoutC2EP7QWidget @ 1437 NONAME
	_ZN11QVBoxLayoutC2Ev @ 1438 NONAME
	_ZN11QVBoxLayoutD0Ev @ 1439 NONAME
	_ZN11QVBoxLayoutD1Ev @ 1440 NONAME
	_ZN11QVBoxLayoutD2Ev @ 1441 NONAME
	_ZN11QWheelEventC1ERK6QPointS2_i6QFlagsIN2Qt11MouseButtonEES3_INS4_16KeyboardModifierEENS4_11OrientationE @ 1442 NONAME
	_ZN11QWheelEventC1ERK6QPointi6QFlagsIN2Qt11MouseButtonEES3_INS4_16KeyboardModifierEENS4_11OrientationE @ 1443 NONAME
	_ZN11QWheelEventC2ERK6QPointS2_i6QFlagsIN2Qt11MouseButtonEES3_INS4_16KeyboardModifierEENS4_11OrientationE @ 1444 NONAME
	_ZN11QWheelEventC2ERK6QPointi6QFlagsIN2Qt11MouseButtonEES3_INS4_16KeyboardModifierEENS4_11OrientationE @ 1445 NONAME
	_ZN11QWheelEventD0Ev @ 1446 NONAME
	_ZN11QWheelEventD1Ev @ 1447 NONAME
	_ZN11QWheelEventD2Ev @ 1448 NONAME
	_ZN11QWidgetItem11setGeometryERK5QRect @ 1449 NONAME
	_ZN11QWidgetItem6widgetEv @ 1450 NONAME
	_ZN11QWizardPage11cleanupPageEv @ 1451 NONAME
	_ZN11QWizardPage11qt_metacallEN11QMetaObject4CallEiPPv @ 1452 NONAME
	_ZN11QWizardPage11qt_metacastEPKc @ 1453 NONAME
	_ZN11QWizardPage11setSubTitleERK7QString @ 1454 NONAME
	_ZN11QWizardPage12setFinalPageEb @ 1455 NONAME
	_ZN11QWizardPage12validatePageEv @ 1456 NONAME
	_ZN11QWizardPage13registerFieldERK7QStringP7QWidgetPKcS6_ @ 1457 NONAME
	_ZN11QWizardPage13setButtonTextEN7QWizard12WizardButtonERK7QString @ 1458 NONAME
	_ZN11QWizardPage13setCommitPageEb @ 1459 NONAME
	_ZN11QWizardPage14initializePageEv @ 1460 NONAME
	_ZN11QWizardPage15completeChangedEv @ 1461 NONAME
	_ZN11QWizardPage16staticMetaObjectE @ 1462 NONAME DATA 16
	_ZN11QWizardPage19getStaticMetaObjectEv @ 1463 NONAME
	_ZN11QWizardPage8setFieldERK7QStringRK8QVariant @ 1464 NONAME
	_ZN11QWizardPage8setTitleERK7QString @ 1465 NONAME
	_ZN11QWizardPage9setPixmapEN7QWizard12WizardPixmapERK7QPixmap @ 1466 NONAME
	_ZN11QWizardPageC1EP7QWidget @ 1467 NONAME
	_ZN11QWizardPageC2EP7QWidget @ 1468 NONAME
	_ZN12QActionEventC1EiP7QActionS1_ @ 1469 NONAME
	_ZN12QActionEventC2EiP7QActionS1_ @ 1470 NONAME
	_ZN12QActionEventD0Ev @ 1471 NONAME
	_ZN12QActionEventD1Ev @ 1472 NONAME
	_ZN12QActionEventD2Ev @ 1473 NONAME
	_ZN12QActionGroup10setEnabledEb @ 1474 NONAME
	_ZN12QActionGroup10setVisibleEb @ 1475 NONAME
	_ZN12QActionGroup11qt_metacallEN11QMetaObject4CallEiPPv @ 1476 NONAME
	_ZN12QActionGroup11qt_metacastEPKc @ 1477 NONAME
	_ZN12QActionGroup12removeActionEP7QAction @ 1478 NONAME
	_ZN12QActionGroup12setExclusiveEb @ 1479 NONAME
	_ZN12QActionGroup16staticMetaObjectE @ 1480 NONAME DATA 16
	_ZN12QActionGroup19getStaticMetaObjectEv @ 1481 NONAME
	_ZN12QActionGroup7hoveredEP7QAction @ 1482 NONAME
	_ZN12QActionGroup8selectedEP7QAction @ 1483 NONAME
	_ZN12QActionGroup9addActionEP7QAction @ 1484 NONAME
	_ZN12QActionGroup9addActionERK5QIconRK7QString @ 1485 NONAME
	_ZN12QActionGroup9addActionERK7QString @ 1486 NONAME
	_ZN12QActionGroup9triggeredEP7QAction @ 1487 NONAME
	_ZN12QActionGroupC1EP7QObject @ 1488 NONAME
	_ZN12QActionGroupC2EP7QObject @ 1489 NONAME
	_ZN12QActionGroupD0Ev @ 1490 NONAME
	_ZN12QActionGroupD1Ev @ 1491 NONAME
	_ZN12QActionGroupD2Ev @ 1492 NONAME
	_ZN12QApplication10allWidgetsEv @ 1493 NONAME
	_ZN12QApplication10commitDataER15QSessionManager @ 1494 NONAME
	_ZN12QApplication10setPaletteERK8QPalettePKc @ 1495 NONAME
	_ZN12QApplication10topLevelAtERK6QPoint @ 1496 NONAME
	_ZN12QApplication10windowIconEv @ 1497 NONAME
	_ZN12QApplication11focusWidgetEv @ 1498 NONAME
	_ZN12QApplication11fontMetricsEv @ 1499 NONAME
	_ZN12QApplication11globalStrutEv @ 1500 NONAME
	_ZN12QApplication11qt_metacallEN11QMetaObject4CallEiPPv @ 1501 NONAME
	_ZN12QApplication11qt_metacastEPKc @ 1502 NONAME
	_ZN12QApplication12activeWindowEv @ 1503 NONAME
	_ZN12QApplication12focusChangedEP7QWidgetS1_ @ 1504 NONAME
	_ZN12QApplication12mouseButtonsEv @ 1505 NONAME
	_ZN12QApplication12setColorSpecEi @ 1506 NONAME
	_ZN12QApplication13compressEventEP6QEventP7QObjectP14QPostEventList @ 1507 NONAME
	_ZN12QApplication13setStyleSheetERK7QString @ 1508 NONAME
	_ZN12QApplication13setWindowIconERK5QIcon @ 1509 NONAME
	_ZN12QApplication13startDragTimeEv @ 1510 NONAME
	_ZN12QApplication14navigationModeEv @ 1511 NONAME
	_ZN12QApplication14overrideCursorEv @ 1512 NONAME
	_ZN12QApplication14s60EventFilterEP8TWsEvent @ 1513 NONAME ABSENT
	_ZN12QApplication14setGlobalStrutERK5QSize @ 1514 NONAME
	_ZN12QApplication15closeAllWindowsEv @ 1515 NONAME
	_ZN12QApplication15cursorFlashTimeEv @ 1516 NONAME
	_ZN12QApplication15isEffectEnabledEN2Qt8UIEffectE @ 1517 NONAME
	_ZN12QApplication15layoutDirectionEv @ 1518 NONAME
	_ZN12QApplication15s60ProcessEventEP8TWsEvent @ 1519 NONAME ABSENT
	_ZN12QApplication15setActiveWindowEP7QWidget @ 1520 NONAME
	_ZN12QApplication15setInputContextEP13QInputContext @ 1521 NONAME
	_ZN12QApplication15topLevelWidgetsEv @ 1522 NONAME
	_ZN12QApplication16lastWindowClosedEv @ 1523 NONAME
	_ZN12QApplication16saveStateRequestER15QSessionManager @ 1524 NONAME
	_ZN12QApplication16setEffectEnabledEN2Qt8UIEffectEb @ 1525 NONAME
	_ZN12QApplication16setStartDragTimeEi @ 1526 NONAME
	_ZN12QApplication16staticMetaObjectE @ 1527 NONAME DATA 16
	_ZN12QApplication16wheelScrollLinesEv @ 1528 NONAME
	_ZN12QApplication17activeModalWidgetEv @ 1529 NONAME
	_ZN12QApplication17activePopupWidgetEv @ 1530 NONAME
	_ZN12QApplication17commitDataRequestER15QSessionManager @ 1531 NONAME
	_ZN12QApplication17keyboardModifiersEv @ 1532 NONAME
	_ZN12QApplication17setAutoSipEnabledEb @ 1533 NONAME
	_ZN12QApplication17setGraphicsSystemERK7QString @ 1534 NONAME
	_ZN12QApplication17setNavigationModeEN2Qt14NavigationModeE @ 1535 NONAME
	_ZN12QApplication17setOverrideCursorERK7QCursor @ 1536 NONAME
	_ZN12QApplication17startDragDistanceEv @ 1537 NONAME
	_ZN12QApplication18setCursorFlashTimeEi @ 1538 NONAME
	_ZN12QApplication18setLayoutDirectionEN2Qt15LayoutDirectionE @ 1539 NONAME
	_ZN12QApplication19doubleClickIntervalEv @ 1540 NONAME
	_ZN12QApplication19fontDatabaseChangedEv @ 1541 NONAME
	_ZN12QApplication19getStaticMetaObjectEv @ 1542 NONAME
	_ZN12QApplication19keyboardInputLocaleEv @ 1543 NONAME
	_ZN12QApplication19setWheelScrollLinesEi @ 1544 NONAME
	_ZN12QApplication20changeOverrideCursorERK7QCursor @ 1545 NONAME
	_ZN12QApplication20desktopSettingsAwareEv @ 1546 NONAME
	_ZN12QApplication20setStartDragDistanceEi @ 1547 NONAME
	_ZN12QApplication20symbianHandleCommandEi @ 1548 NONAME ABSENT
	_ZN12QApplication21keyboardInputIntervalEv @ 1549 NONAME
	_ZN12QApplication21restoreOverrideCursorEv @ 1550 NONAME
	_ZN12QApplication21symbianResourceChangeEi @ 1551 NONAME ABSENT
	_ZN12QApplication22keyboardInputDirectionEv @ 1552 NONAME
	_ZN12QApplication22quitOnLastWindowClosedEv @ 1553 NONAME
	_ZN12QApplication22setDoubleClickIntervalEi @ 1554 NONAME
	_ZN12QApplication23keypadNavigationEnabledEv @ 1555 NONAME
	_ZN12QApplication23setDesktopSettingsAwareEb @ 1556 NONAME
	_ZN12QApplication24setKeyboardInputIntervalEi @ 1557 NONAME
	_ZN12QApplication25registerGestureRecognizerEP18QGestureRecognizer @ 1558 NONAME ABSENT
	_ZN12QApplication25setQuitOnLastWindowClosedEb @ 1559 NONAME
	_ZN12QApplication26setKeypadNavigationEnabledEb @ 1560 NONAME
	_ZN12QApplication27unregisterGestureRecognizerEN2Qt11GestureTypeE @ 1561 NONAME ABSENT
	_ZN12QApplication4beepEv @ 1562 NONAME
	_ZN12QApplication4execEv @ 1563 NONAME
	_ZN12QApplication4fontEPK7QWidget @ 1564 NONAME
	_ZN12QApplication4fontEPKc @ 1565 NONAME
	_ZN12QApplication4fontEv @ 1566 NONAME
	_ZN12QApplication4typeEv @ 1567 NONAME
	_ZN12QApplication5alertEP7QWidgeti @ 1568 NONAME
	_ZN12QApplication5eventEP6QEvent @ 1569 NONAME
	_ZN12QApplication5styleEv @ 1570 NONAME
	_ZN12QApplication5syncXEv @ 1571 NONAME
	_ZN12QApplication6notifyEP7QObjectP6QEvent @ 1572 NONAME
	_ZN12QApplication7aboutQtEv @ 1573 NONAME
	_ZN12QApplication7desktopEv @ 1574 NONAME
	_ZN12QApplication7paletteEPK7QWidget @ 1575 NONAME
	_ZN12QApplication7paletteEPKc @ 1576 NONAME
	_ZN12QApplication7paletteEv @ 1577 NONAME
	_ZN12QApplication7setFontERK5QFontPKc @ 1578 NONAME
	_ZN12QApplication8setStyleEP6QStyle @ 1579 NONAME
	_ZN12QApplication8setStyleERK7QString @ 1580 NONAME
	_ZN12QApplication8widgetAtERK6QPoint @ 1581 NONAME
	_ZN12QApplication9clipboardEv @ 1582 NONAME
	_ZN12QApplication9colorSpecEv @ 1583 NONAME
	_ZN12QApplication9saveStateER15QSessionManager @ 1584 NONAME
	_ZN12QApplicationC1EPFP15CApaApplicationvERiPPc @ 1585 NONAME
	_ZN12QApplicationC1EPFP15CApaApplicationvERiPPci @ 1586 NONAME
	_ZN12QApplicationC1ERiPPc @ 1587 NONAME
	_ZN12QApplicationC1ERiPPcNS_4TypeE @ 1588 NONAME
	_ZN12QApplicationC1ERiPPcNS_4TypeEi @ 1589 NONAME
	_ZN12QApplicationC1ERiPPcb @ 1590 NONAME
	_ZN12QApplicationC1ERiPPcbi @ 1591 NONAME
	_ZN12QApplicationC1ERiPPci @ 1592 NONAME
	_ZN12QApplicationC2EPFP15CApaApplicationvERiPPc @ 1593 NONAME
	_ZN12QApplicationC2EPFP15CApaApplicationvERiPPci @ 1594 NONAME
	_ZN12QApplicationC2ERiPPc @ 1595 NONAME
	_ZN12QApplicationC2ERiPPcNS_4TypeE @ 1596 NONAME
	_ZN12QApplicationC2ERiPPcNS_4TypeEi @ 1597 NONAME
	_ZN12QApplicationC2ERiPPcb @ 1598 NONAME
	_ZN12QApplicationC2ERiPPcbi @ 1599 NONAME
	_ZN12QApplicationC2ERiPPci @ 1600 NONAME
	_ZN12QApplicationD0Ev @ 1601 NONAME
	_ZN12QApplicationD1Ev @ 1602 NONAME
	_ZN12QApplicationD2Ev @ 1603 NONAME
	_ZN12QButtonGroup11qt_metacallEN11QMetaObject4CallEiPPv @ 1604 NONAME
	_ZN12QButtonGroup11qt_metacastEPKc @ 1605 NONAME
	_ZN12QButtonGroup12removeButtonEP15QAbstractButton @ 1606 NONAME
	_ZN12QButtonGroup12setExclusiveEb @ 1607 NONAME
	_ZN12QButtonGroup13buttonClickedEP15QAbstractButton @ 1608 NONAME
	_ZN12QButtonGroup13buttonClickedEi @ 1609 NONAME
	_ZN12QButtonGroup13buttonPressedEP15QAbstractButton @ 1610 NONAME
	_ZN12QButtonGroup13buttonPressedEi @ 1611 NONAME
	_ZN12QButtonGroup14buttonReleasedEP15QAbstractButton @ 1612 NONAME
	_ZN12QButtonGroup14buttonReleasedEi @ 1613 NONAME
	_ZN12QButtonGroup16staticMetaObjectE @ 1614 NONAME DATA 16
	_ZN12QButtonGroup19getStaticMetaObjectEv @ 1615 NONAME
	_ZN12QButtonGroup5setIdEP15QAbstractButtoni @ 1616 NONAME
	_ZN12QButtonGroup9addButtonEP15QAbstractButton @ 1617 NONAME
	_ZN12QButtonGroup9addButtonEP15QAbstractButtoni @ 1618 NONAME
	_ZN12QButtonGroupC1EP7QObject @ 1619 NONAME
	_ZN12QButtonGroupC2EP7QObject @ 1620 NONAME
	_ZN12QButtonGroupD0Ev @ 1621 NONAME
	_ZN12QButtonGroupD1Ev @ 1622 NONAME
	_ZN12QButtonGroupD2Ev @ 1623 NONAME
	_ZN12QColorDialog10setOptionsE6QFlagsINS_17ColorDialogOptionEE @ 1624 NONAME
	_ZN12QColorDialog10setVisibleEb @ 1625 NONAME
	_ZN12QColorDialog11changeEventEP6QEvent @ 1626 NONAME
	_ZN12QColorDialog11customColorEi @ 1627 NONAME
	_ZN12QColorDialog11customCountEv @ 1628 NONAME
	_ZN12QColorDialog11qt_metacallEN11QMetaObject4CallEiPPv @ 1629 NONAME
	_ZN12QColorDialog11qt_metacastEPKc @ 1630 NONAME
	_ZN12QColorDialog13colorSelectedERK6QColor @ 1631 NONAME
	_ZN12QColorDialog14setCustomColorEij @ 1632 NONAME
	_ZN12QColorDialog15setCurrentColorERK6QColor @ 1633 NONAME
	_ZN12QColorDialog16setStandardColorEij @ 1634 NONAME
	_ZN12QColorDialog16staticMetaObjectE @ 1635 NONAME DATA 16
	_ZN12QColorDialog19currentColorChangedERK6QColor @ 1636 NONAME
	_ZN12QColorDialog19getStaticMetaObjectEv @ 1637 NONAME
	_ZN12QColorDialog4doneEi @ 1638 NONAME
	_ZN12QColorDialog4openEP7QObjectPKc @ 1639 NONAME
	_ZN12QColorDialog7getRgbaEjPbP7QWidget @ 1640 NONAME
	_ZN12QColorDialog8getColorERK6QColorP7QWidget @ 1641 NONAME
	_ZN12QColorDialog8getColorERK6QColorP7QWidgetRK7QString6QFlagsINS_17ColorDialogOptionEE @ 1642 NONAME
	_ZN12QColorDialog9setOptionENS_17ColorDialogOptionEb @ 1643 NONAME
	_ZN12QColorDialogC1EP7QWidget @ 1644 NONAME
	_ZN12QColorDialogC1ERK6QColorP7QWidget @ 1645 NONAME
	_ZN12QColorDialogC2EP7QWidget @ 1646 NONAME
	_ZN12QColorDialogC2ERK6QColorP7QWidget @ 1647 NONAME
	_ZN12QColorDialogD0Ev @ 1648 NONAME
	_ZN12QColorDialogD1Ev @ 1649 NONAME
	_ZN12QColorDialogD2Ev @ 1650 NONAME
	_ZN12QCommonStyle11qt_metacallEN11QMetaObject4CallEiPPv @ 1651 NONAME
	_ZN12QCommonStyle11qt_metacastEPKc @ 1652 NONAME
	_ZN12QCommonStyle16staticMetaObjectE @ 1653 NONAME DATA 16
	_ZN12QCommonStyle19getStaticMetaObjectEv @ 1654 NONAME
	_ZN12QCommonStyle6polishEP12QApplication @ 1655 NONAME
	_ZN12QCommonStyle6polishEP7QWidget @ 1656 NONAME
	_ZN12QCommonStyle6polishER8QPalette @ 1657 NONAME
	_ZN12QCommonStyle8unpolishEP12QApplication @ 1658 NONAME
	_ZN12QCommonStyle8unpolishEP7QWidget @ 1659 NONAME
	_ZN12QCommonStyleC1ER19QCommonStylePrivate @ 1660 NONAME
	_ZN12QCommonStyleC1Ev @ 1661 NONAME
	_ZN12QCommonStyleC2ER19QCommonStylePrivate @ 1662 NONAME
	_ZN12QCommonStyleC2Ev @ 1663 NONAME
	_ZN12QCommonStyleD0Ev @ 1664 NONAME
	_ZN12QCommonStyleD1Ev @ 1665 NONAME
	_ZN12QCommonStyleD2Ev @ 1666 NONAME
	_ZN12QDashStroker15patternForStyleEN2Qt8PenStyleE @ 1667 NONAME
	_ZN12QDashStroker21processCurrentSubpathEv @ 1668 NONAME
	_ZN12QDashStrokerC1EP8QStroker @ 1669 NONAME
	_ZN12QDashStrokerC2EP8QStroker @ 1670 NONAME
	_ZN12QFontMetricsC1ERK5QFont @ 1671 NONAME
	_ZN12QFontMetricsC1ERK5QFontP12QPaintDevice @ 1672 NONAME
	_ZN12QFontMetricsC1ERKS_ @ 1673 NONAME
	_ZN12QFontMetricsC2ERK5QFont @ 1674 NONAME
	_ZN12QFontMetricsC2ERK5QFontP12QPaintDevice @ 1675 NONAME
	_ZN12QFontMetricsC2ERKS_ @ 1676 NONAME
	_ZN12QFontMetricsD1Ev @ 1677 NONAME
	_ZN12QFontMetricsD2Ev @ 1678 NONAME
	_ZN12QFontMetricsaSERKS_ @ 1679 NONAME
	_ZN12QFontMetricseqERKS_ @ 1680 NONAME
	_ZN12QFontPrivate7resolveEjPKS_ @ 1681 NONAME
	_ZN12QFontPrivateC1ERKS_ @ 1682 NONAME
	_ZN12QFontPrivateC1Ev @ 1683 NONAME
	_ZN12QFontPrivateC2ERKS_ @ 1684 NONAME
	_ZN12QFontPrivateC2Ev @ 1685 NONAME
	_ZN12QFontPrivateD1Ev @ 1686 NONAME
	_ZN12QFontPrivateD2Ev @ 1687 NONAME
	_ZN12QImageReader10setQualityEi @ 1688 NONAME
	_ZN12QImageReader11imageFormatEP9QIODevice @ 1689 NONAME
	_ZN12QImageReader11imageFormatERK7QString @ 1690 NONAME
	_ZN12QImageReader11jumpToImageEi @ 1691 NONAME
	_ZN12QImageReader11setClipRectERK5QRect @ 1692 NONAME
	_ZN12QImageReader11setFileNameERK7QString @ 1693 NONAME
	_ZN12QImageReader13setScaledSizeERK5QSize @ 1694 NONAME
	_ZN12QImageReader15jumpToNextImageEv @ 1695 NONAME
	_ZN12QImageReader17setScaledClipRectERK5QRect @ 1696 NONAME
	_ZN12QImageReader18setBackgroundColorERK6QColor @ 1697 NONAME
	_ZN12QImageReader21supportedImageFormatsEv @ 1698 NONAME
	_ZN12QImageReader24setAutoDetectImageFormatEb @ 1699 NONAME
	_ZN12QImageReader26setDecideFormatFromContentEb @ 1700 NONAME
	_ZN12QImageReader4readEP6QImage @ 1701 NONAME
	_ZN12QImageReader4readEv @ 1702 NONAME
	_ZN12QImageReader9setDeviceEP9QIODevice @ 1703 NONAME
	_ZN12QImageReader9setFormatERK10QByteArray @ 1704 NONAME
	_ZN12QImageReaderC1EP9QIODeviceRK10QByteArray @ 1705 NONAME
	_ZN12QImageReaderC1ERK7QStringRK10QByteArray @ 1706 NONAME
	_ZN12QImageReaderC1Ev @ 1707 NONAME
	_ZN12QImageReaderC2EP9QIODeviceRK10QByteArray @ 1708 NONAME
	_ZN12QImageReaderC2ERK7QStringRK10QByteArray @ 1709 NONAME
	_ZN12QImageReaderC2Ev @ 1710 NONAME
	_ZN12QImageReaderD1Ev @ 1711 NONAME
	_ZN12QImageReaderD2Ev @ 1712 NONAME
	_ZN12QImageWriter10setQualityEi @ 1713 NONAME
	_ZN12QImageWriter11setFileNameERK7QString @ 1714 NONAME
	_ZN12QImageWriter14setCompressionEi @ 1715 NONAME
	_ZN12QImageWriter14setDescriptionERK7QString @ 1716 NONAME
	_ZN12QImageWriter21supportedImageFormatsEv @ 1717 NONAME
	_ZN12QImageWriter5writeERK6QImage @ 1718 NONAME
	_ZN12QImageWriter7setTextERK7QStringS2_ @ 1719 NONAME
	_ZN12QImageWriter8setGammaEf @ 1720 NONAME
	_ZN12QImageWriter9setDeviceEP9QIODevice @ 1721 NONAME
	_ZN12QImageWriter9setFormatERK10QByteArray @ 1722 NONAME
	_ZN12QImageWriterC1EP9QIODeviceRK10QByteArray @ 1723 NONAME
	_ZN12QImageWriterC1ERK7QStringRK10QByteArray @ 1724 NONAME
	_ZN12QImageWriterC1Ev @ 1725 NONAME
	_ZN12QImageWriterC2EP9QIODeviceRK10QByteArray @ 1726 NONAME
	_ZN12QImageWriterC2ERK7QStringRK10QByteArray @ 1727 NONAME
	_ZN12QImageWriterC2Ev @ 1728 NONAME
	_ZN12QImageWriterD1Ev @ 1729 NONAME
	_ZN12QImageWriterD2Ev @ 1730 NONAME
	_ZN12QInputDialog10getIntegerEP7QWidgetRK7QStringS4_iiiiPb6QFlagsIN2Qt10WindowTypeEE @ 1731 NONAME
	_ZN12QInputDialog10setIntStepEi @ 1732 NONAME
	_ZN12QInputDialog10setOptionsE6QFlagsINS_17InputDialogOptionEE @ 1733 NONAME
	_ZN12QInputDialog10setVisibleEb @ 1734 NONAME
	_ZN12QInputDialog11qt_metacallEN11QMetaObject4CallEiPPv @ 1735 NONAME
	_ZN12QInputDialog11qt_metacastEPKc @ 1736 NONAME
	_ZN12QInputDialog11setIntRangeEii @ 1737 NONAME
	_ZN12QInputDialog11setIntValueEi @ 1738 NONAME
	_ZN12QInputDialog12setInputModeENS_9InputModeE @ 1739 NONAME
	_ZN12QInputDialog12setLabelTextERK7QString @ 1740 NONAME
	_ZN12QInputDialog12setTextValueERK7QString @ 1741 NONAME
	_ZN12QInputDialog13setIntMaximumEi @ 1742 NONAME
	_ZN12QInputDialog13setIntMinimumEi @ 1743 NONAME
	_ZN12QInputDialog14setDoubleRangeEdd @ 1744 NONAME
	_ZN12QInputDialog14setDoubleValueEd @ 1745 NONAME
	_ZN12QInputDialog15intValueChangedEi @ 1746 NONAME
	_ZN12QInputDialog15setOkButtonTextERK7QString @ 1747 NONAME
	_ZN12QInputDialog15setTextEchoModeEN9QLineEdit8EchoModeE @ 1748 NONAME
	_ZN12QInputDialog16intValueSelectedEi @ 1749 NONAME
	_ZN12QInputDialog16setComboBoxItemsERK11QStringList @ 1750 NONAME
	_ZN12QInputDialog16setDoubleMaximumEd @ 1751 NONAME
	_ZN12QInputDialog16setDoubleMinimumEd @ 1752 NONAME
	_ZN12QInputDialog16staticMetaObjectE @ 1753 NONAME DATA 16
	_ZN12QInputDialog16textValueChangedERK7QString @ 1754 NONAME
	_ZN12QInputDialog17setDoubleDecimalsEi @ 1755 NONAME
	_ZN12QInputDialog17textValueSelectedERK7QString @ 1756 NONAME
	_ZN12QInputDialog18doubleValueChangedEd @ 1757 NONAME
	_ZN12QInputDialog19doubleValueSelectedEd @ 1758 NONAME
	_ZN12QInputDialog19getStaticMetaObjectEv @ 1759 NONAME
	_ZN12QInputDialog19setCancelButtonTextERK7QString @ 1760 NONAME
	_ZN12QInputDialog19setComboBoxEditableEb @ 1761 NONAME
	_ZN12QInputDialog4doneEi @ 1762 NONAME
	_ZN12QInputDialog4openEP7QObjectPKc @ 1763 NONAME
	_ZN12QInputDialog6getIntEP7QWidgetRK7QStringS4_iiiiPb6QFlagsIN2Qt10WindowTypeEE @ 1764 NONAME
	_ZN12QInputDialog7getItemEP7QWidgetRK7QStringS4_RK11QStringListibPb6QFlagsIN2Qt10WindowTypeEE @ 1765 NONAME
	_ZN12QInputDialog7getTextEP7QWidgetRK7QStringS4_N9QLineEdit8EchoModeES4_Pb6QFlagsIN2Qt10WindowTypeEE @ 1766 NONAME
	_ZN12QInputDialog9getDoubleEP7QWidgetRK7QStringS4_dddiPb6QFlagsIN2Qt10WindowTypeEE @ 1767 NONAME
	_ZN12QInputDialog9setOptionENS_17InputDialogOptionEb @ 1768 NONAME
	_ZN12QInputDialogC1EP7QWidget6QFlagsIN2Qt10WindowTypeEE @ 1769 NONAME
	_ZN12QInputDialogC2EP7QWidget6QFlagsIN2Qt10WindowTypeEE @ 1770 NONAME
	_ZN12QInputDialogD0Ev @ 1771 NONAME
	_ZN12QInputDialogD1Ev @ 1772 NONAME
	_ZN12QInputDialogD2Ev @ 1773 NONAME
	_ZN12QKeySequence10fromStringERK7QStringNS_14SequenceFormatE @ 1774 NONAME
	_ZN12QKeySequence11keyBindingsENS_11StandardKeyE @ 1775 NONAME
	_ZN12QKeySequence12decodeStringERK7QString @ 1776 NONAME
	_ZN12QKeySequence12encodeStringEi @ 1777 NONAME
	_ZN12QKeySequence6assignERK7QString @ 1778 NONAME
	_ZN12QKeySequence6setKeyEii @ 1779 NONAME
	_ZN12QKeySequence8mnemonicERK7QString @ 1780 NONAME
	_ZN12QKeySequenceC1ENS_11StandardKeyE @ 1781 NONAME
	_ZN12QKeySequenceC1ERK7QString @ 1782 NONAME
	_ZN12QKeySequenceC1ERKS_ @ 1783 NONAME
	_ZN12QKeySequenceC1Eiiii @ 1784 NONAME
	_ZN12QKeySequenceC1Ev @ 1785 NONAME
	_ZN12QKeySequenceC2ENS_11StandardKeyE @ 1786 NONAME
	_ZN12QKeySequenceC2ERK7QString @ 1787 NONAME
	_ZN12QKeySequenceC2ERKS_ @ 1788 NONAME
	_ZN12QKeySequenceC2Eiiii @ 1789 NONAME
	_ZN12QKeySequenceC2Ev @ 1790 NONAME
	_ZN12QKeySequenceD1Ev @ 1791 NONAME
	_ZN12QKeySequenceD2Ev @ 1792 NONAME
	_ZN12QKeySequenceaSERKS_ @ 1793 NONAME
	_ZN12QLineControl10addCommandERKNS_7CommandE @ 1794 NONAME
	_ZN12QLineControl10moveCursorEib @ 1795 NONAME
	_ZN12QLineControl10textEditedERK7QString @ 1796 NONAME
	_ZN12QLineControl10timerEventEP11QTimerEvent @ 1797 NONAME
	_ZN12QLineControl11qt_metacallEN11QMetaObject4CallEiPPv @ 1798 NONAME
	_ZN12QLineControl11qt_metacastEPKc @ 1799 NONAME
	_ZN12QLineControl11textChangedERK7QString @ 1800 NONAME
	_ZN12QLineControl12finishChangeEibb @ 1801 NONAME
	_ZN12QLineControl12internalRedoEv @ 1802 NONAME
	_ZN12QLineControl12internalUndoEi @ 1803 NONAME
	_ZN12QLineControl12processEventEP6QEvent @ 1804 NONAME
	_ZN12QLineControl12setSelectionEii @ 1805 NONAME
	_ZN12QLineControl12updateNeededERK5QRect @ 1806 NONAME
	_ZN12QLineControl14internalDeleteEb @ 1807 NONAME
	_ZN12QLineControl14internalInsertERK7QString @ 1808 NONAME
	_ZN12QLineControl14parseInputMaskERK7QString @ 1809 NONAME
	_ZN12QLineControl15editFocusChangeEb @ 1810 NONAME
	_ZN12QLineControl15editingFinishedEv @ 1811 NONAME
	_ZN12QLineControl15internalSetTextERK7QStringib @ 1812 NONAME
	_ZN12QLineControl15processKeyEventEP9QKeyEvent @ 1813 NONAME
	_ZN12QLineControl15selectWordAtPosEi @ 1814 NONAME
	_ZN12QLineControl16selectionChangedEv @ 1815 NONAME
	_ZN12QLineControl16staticMetaObjectE @ 1816 NONAME DATA 16
	_ZN12QLineControl17_q_deleteSelectedEv @ 1817 NONAME
	_ZN12QLineControl17processMouseEventEP11QMouseEvent @ 1818 NONAME
	_ZN12QLineControl17resetInputContextEv @ 1819 NONAME
	_ZN12QLineControl17updateDisplayTextEv @ 1820 NONAME ABSENT
	_ZN12QLineControl18displayTextChangedERK7QString @ 1821 NONAME
	_ZN12QLineControl18removeSelectedTextEv @ 1822 NONAME
	_ZN12QLineControl19_q_clipboardChangedEv @ 1823 NONAME
	_ZN12QLineControl19getStaticMetaObjectEv @ 1824 NONAME
	_ZN12QLineControl20advanceToEnabledItemEi @ 1825 NONAME
	_ZN12QLineControl20setCursorBlinkPeriodEi @ 1826 NONAME
	_ZN12QLineControl21cursorPositionChangedEii @ 1827 NONAME
	_ZN12QLineControl23processInputMethodEventEP17QInputMethodEvent @ 1828 NONAME
	_ZN12QLineControl25emitCursorPositionChangedEv @ 1829 NONAME
	_ZN12QLineControl25updatePasswordEchoEditingEb @ 1830 NONAME
	_ZN12QLineControl3delEv @ 1831 NONAME
	_ZN12QLineControl4drawEP8QPainterRK6QPointRK5QRecti @ 1832 NONAME
	_ZN12QLineControl4initERK7QString @ 1833 NONAME
	_ZN12QLineControl5clearEv @ 1834 NONAME
	_ZN12QLineControl5fixupEv @ 1835 NONAME
	_ZN12QLineControl5pasteEv @ 1836 NONAME ABSENT
	_ZN12QLineControl6insertERK7QString @ 1837 NONAME
	_ZN12QLineControl8acceptedEv @ 1838 NONAME
	_ZN12QLineControl8completeEi @ 1839 NONAME
	_ZN12QLineControl9backspaceEv @ 1840 NONAME
	_ZN12QPaintBuffer13beginNewFrameEv @ 1841 NONAME
	_ZN12QPaintBuffer15setBoundingRectERK6QRectF @ 1842 NONAME
	_ZN12QPaintBufferC1ERKS_ @ 1843 NONAME
	_ZN12QPaintBufferC1Ev @ 1844 NONAME
	_ZN12QPaintBufferC2ERKS_ @ 1845 NONAME
	_ZN12QPaintBufferC2Ev @ 1846 NONAME
	_ZN12QPaintBufferD0Ev @ 1847 NONAME
	_ZN12QPaintBufferD1Ev @ 1848 NONAME
	_ZN12QPaintBufferD2Ev @ 1849 NONAME
	_ZN12QPaintBufferaSERKS_ @ 1850 NONAME
	_ZN12QPaintDeviceC2Ev @ 1851 NONAME
	_ZN12QPaintDeviceD0Ev @ 1852 NONAME
	_ZN12QPaintDeviceD1Ev @ 1853 NONAME
	_ZN12QPaintDeviceD2Ev @ 1854 NONAME
	_ZN12QPaintEngine10drawPointsEPK6QPointi @ 1855 NONAME
	_ZN12QPaintEngine10drawPointsEPK7QPointFi @ 1856 NONAME
	_ZN12QPaintEngine11drawEllipseERK5QRect @ 1857 NONAME
	_ZN12QPaintEngine11drawEllipseERK6QRectF @ 1858 NONAME
	_ZN12QPaintEngine11drawPolygonEPK6QPointiNS_15PolygonDrawModeE @ 1859 NONAME
	_ZN12QPaintEngine11drawPolygonEPK7QPointFiNS_15PolygonDrawModeE @ 1860 NONAME
	_ZN12QPaintEngine12drawTextItemERK7QPointFRK9QTextItem @ 1861 NONAME
	_ZN12QPaintEngine13setSystemClipERK7QRegion @ 1862 NONAME
	_ZN12QPaintEngine13setSystemRectERK5QRect @ 1863 NONAME
	_ZN12QPaintEngine14setPaintDeviceEP12QPaintDevice @ 1864 NONAME
	_ZN12QPaintEngine15drawTiledPixmapERK6QRectFRK7QPixmapRK7QPointF @ 1865 NONAME
	_ZN12QPaintEngine8drawPathERK12QPainterPath @ 1866 NONAME
	_ZN12QPaintEngine9drawImageERK6QRectFRK6QImageS2_6QFlagsIN2Qt19ImageConversionFlagEE @ 1867 NONAME
	_ZN12QPaintEngine9drawLinesEPK5QLinei @ 1868 NONAME
	_ZN12QPaintEngine9drawLinesEPK6QLineFi @ 1869 NONAME
	_ZN12QPaintEngine9drawRectsEPK5QRecti @ 1870 NONAME
	_ZN12QPaintEngine9drawRectsEPK6QRectFi @ 1871 NONAME
	_ZN12QPaintEngine9syncStateEv @ 1872 NONAME
	_ZN12QPaintEngineC2E6QFlagsINS_18PaintEngineFeatureEE @ 1873 NONAME
	_ZN12QPaintEngineC2ER19QPaintEnginePrivate6QFlagsINS_18PaintEngineFeatureEE @ 1874 NONAME
	_ZN12QPaintEngineD0Ev @ 1875 NONAME
	_ZN12QPaintEngineD1Ev @ 1876 NONAME
	_ZN12QPaintEngineD2Ev @ 1877 NONAME
	_ZN12QPainterPath10addEllipseERK6QRectF @ 1878 NONAME
	_ZN12QPainterPath10addPolygonERK9QPolygonF @ 1879 NONAME
	_ZN12QPainterPath11connectPathERKS_ @ 1880 NONAME
	_ZN12QPainterPath11setFillRuleEN2Qt8FillRuleE @ 1881 NONAME
	_ZN12QPainterPath12addRoundRectERK6QRectFii @ 1882 NONAME
	_ZN12QPainterPath12closeSubpathEv @ 1883 NONAME
	_ZN12QPainterPath13detach_helperEv @ 1884 NONAME
	_ZN12QPainterPath14addRoundedRectERK6QRectFffN2Qt8SizeModeE @ 1885 NONAME
	_ZN12QPainterPath17ensureData_helperEv @ 1886 NONAME
	_ZN12QPainterPath5arcToERK6QRectFff @ 1887 NONAME
	_ZN12QPainterPath6lineToERK7QPointF @ 1888 NONAME
	_ZN12QPainterPath6moveToERK7QPointF @ 1889 NONAME
	_ZN12QPainterPath6quadToERK7QPointFS2_ @ 1890 NONAME
	_ZN12QPainterPath7addPathERKS_ @ 1891 NONAME
	_ZN12QPainterPath7addRectERK6QRectF @ 1892 NONAME
	_ZN12QPainterPath7addTextERK7QPointFRK5QFontRK7QString @ 1893 NONAME
	_ZN12QPainterPath7cubicToERK7QPointFS2_S2_ @ 1894 NONAME
	_ZN12QPainterPath8setDirtyEb @ 1895 NONAME
	_ZN12QPainterPath9addRegionERK7QRegion @ 1896 NONAME
	_ZN12QPainterPath9arcMoveToERK6QRectFf @ 1897 NONAME
	_ZN12QPainterPath9translateEff @ 1898 NONAME
	_ZN12QPainterPathC1ERK7QPointF @ 1899 NONAME
	_ZN12QPainterPathC1ERKS_ @ 1900 NONAME
	_ZN12QPainterPathC1Ev @ 1901 NONAME
	_ZN12QPainterPathC2ERK7QPointF @ 1902 NONAME
	_ZN12QPainterPathC2ERKS_ @ 1903 NONAME
	_ZN12QPainterPathC2Ev @ 1904 NONAME
	_ZN12QPainterPathD1Ev @ 1905 NONAME
	_ZN12QPainterPathD2Ev @ 1906 NONAME
	_ZN12QPainterPathaNERKS_ @ 1907 NONAME
	_ZN12QPainterPathaSERKS_ @ 1908 NONAME
	_ZN12QPainterPathmIERKS_ @ 1909 NONAME
	_ZN12QPainterPathoRERKS_ @ 1910 NONAME
	_ZN12QPainterPathpLERKS_ @ 1911 NONAME
	_ZN12QPixmapCache10cacheLimitEv @ 1912 NONAME
	_ZN12QPixmapCache13setCacheLimitEi @ 1913 NONAME
	_ZN12QPixmapCache3KeyC1ERKS0_ @ 1914 NONAME
	_ZN12QPixmapCache3KeyC1Ev @ 1915 NONAME
	_ZN12QPixmapCache3KeyC2ERKS0_ @ 1916 NONAME
	_ZN12QPixmapCache3KeyC2Ev @ 1917 NONAME
	_ZN12QPixmapCache3KeyD1Ev @ 1918 NONAME
	_ZN12QPixmapCache3KeyD2Ev @ 1919 NONAME
	_ZN12QPixmapCache3KeyaSERKS0_ @ 1920 NONAME
	_ZN12QPixmapCache4findERK7QString @ 1921 NONAME
	_ZN12QPixmapCache4findERK7QStringP7QPixmap @ 1922 NONAME
	_ZN12QPixmapCache4findERK7QStringR7QPixmap @ 1923 NONAME
	_ZN12QPixmapCache4findERKNS_3KeyEP7QPixmap @ 1924 NONAME
	_ZN12QPixmapCache5clearEv @ 1925 NONAME
	_ZN12QPixmapCache6insertERK7QPixmap @ 1926 NONAME
	_ZN12QPixmapCache6insertERK7QStringRK7QPixmap @ 1927 NONAME
	_ZN12QPixmapCache6removeERK7QString @ 1928 NONAME
	_ZN12QPixmapCache6removeERKNS_3KeyE @ 1929 NONAME
	_ZN12QPixmapCache7replaceERKNS_3KeyERK7QPixmap @ 1930 NONAME
	_ZN12QProgressBar10paintEventEP11QPaintEvent @ 1931 NONAME
	_ZN12QProgressBar10setMaximumEi @ 1932 NONAME
	_ZN12QProgressBar10setMinimumEi @ 1933 NONAME
	_ZN12QProgressBar11qt_metacallEN11QMetaObject4CallEiPPv @ 1934 NONAME
	_ZN12QProgressBar11qt_metacastEPKc @ 1935 NONAME
	_ZN12QProgressBar12setAlignmentE6QFlagsIN2Qt13AlignmentFlagEE @ 1936 NONAME
	_ZN12QProgressBar12valueChangedEi @ 1937 NONAME
	_ZN12QProgressBar13textDirectionEv @ 1938 NONAME
	_ZN12QProgressBar14setOrientationEN2Qt11OrientationE @ 1939 NONAME
	_ZN12QProgressBar14setTextVisibleEb @ 1940 NONAME
	_ZN12QProgressBar16setTextDirectionENS_9DirectionE @ 1941 NONAME
	_ZN12QProgressBar16staticMetaObjectE @ 1942 NONAME DATA 16
	_ZN12QProgressBar18invertedAppearanceEv @ 1943 NONAME
	_ZN12QProgressBar19getStaticMetaObjectEv @ 1944 NONAME
	_ZN12QProgressBar21setInvertedAppearanceEb @ 1945 NONAME
	_ZN12QProgressBar5eventEP6QEvent @ 1946 NONAME
	_ZN12QProgressBar5resetEv @ 1947 NONAME
	_ZN12QProgressBar8setRangeEii @ 1948 NONAME
	_ZN12QProgressBar8setValueEi @ 1949 NONAME
	_ZN12QProgressBar9setFormatERK7QString @ 1950 NONAME
	_ZN12QProgressBarC1EP7QWidget @ 1951 NONAME
	_ZN12QProgressBarC2EP7QWidget @ 1952 NONAME
	_ZN12QRadioButton10paintEventEP11QPaintEvent @ 1953 NONAME
	_ZN12QRadioButton11qt_metacallEN11QMetaObject4CallEiPPv @ 1954 NONAME
	_ZN12QRadioButton11qt_metacastEPKc @ 1955 NONAME
	_ZN12QRadioButton14mouseMoveEventEP11QMouseEvent @ 1956 NONAME
	_ZN12QRadioButton16staticMetaObjectE @ 1957 NONAME DATA 16
	_ZN12QRadioButton19getStaticMetaObjectEv @ 1958 NONAME
	_ZN12QRadioButton5eventEP6QEvent @ 1959 NONAME
	_ZN12QRadioButtonC1EP7QWidget @ 1960 NONAME
	_ZN12QRadioButtonC1ERK7QStringP7QWidget @ 1961 NONAME
	_ZN12QRadioButtonC2EP7QWidget @ 1962 NONAME
	_ZN12QRadioButtonC2ERK7QStringP7QWidget @ 1963 NONAME
	_ZN12QResizeEventC1ERK5QSizeS2_ @ 1964 NONAME
	_ZN12QResizeEventC2ERK5QSizeS2_ @ 1965 NONAME
	_ZN12QResizeEventD0Ev @ 1966 NONAME
	_ZN12QResizeEventD1Ev @ 1967 NONAME
	_ZN12QResizeEventD2Ev @ 1968 NONAME
	_ZN12QStyleOption4initEPK7QWidget @ 1969 NONAME
	_ZN12QStyleOptionC1ERKS_ @ 1970 NONAME
	_ZN12QStyleOptionC1Eii @ 1971 NONAME
	_ZN12QStyleOptionC2ERKS_ @ 1972 NONAME
	_ZN12QStyleOptionC2Eii @ 1973 NONAME
	_ZN12QStyleOptionD1Ev @ 1974 NONAME
	_ZN12QStyleOptionD2Ev @ 1975 NONAME
	_ZN12QStyleOptionaSERKS_ @ 1976 NONAME
	_ZN12QStylePlugin11qt_metacallEN11QMetaObject4CallEiPPv @ 1977 NONAME
	_ZN12QStylePlugin11qt_metacastEPKc @ 1978 NONAME
	_ZN12QStylePlugin16staticMetaObjectE @ 1979 NONAME DATA 16
	_ZN12QStylePlugin19getStaticMetaObjectEv @ 1980 NONAME
	_ZN12QStylePluginC2EP7QObject @ 1981 NONAME
	_ZN12QStylePluginD0Ev @ 1982 NONAME
	_ZN12QStylePluginD1Ev @ 1983 NONAME
	_ZN12QStylePluginD2Ev @ 1984 NONAME
	_ZN12QTableWidget11cellChangedEii @ 1985 NONAME
	_ZN12QTableWidget11cellClickedEii @ 1986 NONAME
	_ZN12QTableWidget11cellEnteredEii @ 1987 NONAME
	_ZN12QTableWidget11cellPressedEii @ 1988 NONAME
	_ZN12QTableWidget11itemChangedEP16QTableWidgetItem @ 1989 NONAME
	_ZN12QTableWidget11itemClickedEP16QTableWidgetItem @ 1990 NONAME
	_ZN12QTableWidget11itemEnteredEP16QTableWidgetItem @ 1991 NONAME
	_ZN12QTableWidget11itemPressedEP16QTableWidgetItem @ 1992 NONAME
	_ZN12QTableWidget11qt_metacallEN11QMetaObject4CallEiPPv @ 1993 NONAME
	_ZN12QTableWidget11qt_metacastEPKc @ 1994 NONAME
	_ZN12QTableWidget11setRowCountEi @ 1995 NONAME
	_ZN12QTableWidget12dropMimeDataEiiPK9QMimeDataN2Qt10DropActionE @ 1996 NONAME
	_ZN12QTableWidget12insertColumnEi @ 1997 NONAME
	_ZN12QTableWidget12removeColumnEi @ 1998 NONAME
	_ZN12QTableWidget12scrollToItemEPK16QTableWidgetItemN17QAbstractItemView10ScrollHintE @ 1999 NONAME
	_ZN12QTableWidget13cellActivatedEii @ 2000 NONAME
	_ZN12QTableWidget13clearContentsEv @ 2001 NONAME
	_ZN12QTableWidget13itemActivatedEP16QTableWidgetItem @ 2002 NONAME
	_ZN12QTableWidget13selectedItemsEv @ 2003 NONAME
	_ZN12QTableWidget13setCellWidgetEiiP7QWidget @ 2004 NONAME
	_ZN12QTableWidget14setColumnCountEi @ 2005 NONAME
	_ZN12QTableWidget14setCurrentCellEii @ 2006 NONAME
	_ZN12QTableWidget14setCurrentCellEii6QFlagsIN19QItemSelectionModel13SelectionFlagEE @ 2007 NONAME
	_ZN12QTableWidget14setCurrentItemEP16QTableWidgetItem @ 2008 NONAME
	_ZN12QTableWidget14setCurrentItemEP16QTableWidgetItem6QFlagsIN19QItemSelectionModel13SelectionFlagEE @ 2009 NONAME
	_ZN12QTableWidget15setItemSelectedEPK16QTableWidgetItemb @ 2010 NONAME
	_ZN12QTableWidget16setItemPrototypeEPK16QTableWidgetItem @ 2011 NONAME
	_ZN12QTableWidget16setRangeSelectedERK26QTableWidgetSelectionRangeb @ 2012 NONAME
	_ZN12QTableWidget16staticMetaObjectE @ 2013 NONAME DATA 16
	_ZN12QTableWidget17cellDoubleClickedEii @ 2014 NONAME
	_ZN12QTableWidget17itemDoubleClickedEP16QTableWidgetItem @ 2015 NONAME
	_ZN12QTableWidget17setSortingEnabledEb @ 2016 NONAME
	_ZN12QTableWidget18currentCellChangedEiiii @ 2017 NONAME
	_ZN12QTableWidget18currentItemChangedEP16QTableWidgetItemS1_ @ 2018 NONAME
	_ZN12QTableWidget19getStaticMetaObjectEv @ 2019 NONAME
	_ZN12QTableWidget20itemSelectionChangedEv @ 2020 NONAME
	_ZN12QTableWidget20openPersistentEditorEP16QTableWidgetItem @ 2021 NONAME
	_ZN12QTableWidget21closePersistentEditorEP16QTableWidgetItem @ 2022 NONAME
	_ZN12QTableWidget21setVerticalHeaderItemEiP16QTableWidgetItem @ 2023 NONAME
	_ZN12QTableWidget22takeVerticalHeaderItemEi @ 2024 NONAME
	_ZN12QTableWidget23setHorizontalHeaderItemEiP16QTableWidgetItem @ 2025 NONAME
	_ZN12QTableWidget23setVerticalHeaderLabelsERK11QStringList @ 2026 NONAME
	_ZN12QTableWidget24takeHorizontalHeaderItemEi @ 2027 NONAME
	_ZN12QTableWidget25setHorizontalHeaderLabelsERK11QStringList @ 2028 NONAME
	_ZN12QTableWidget5clearEv @ 2029 NONAME
	_ZN12QTableWidget5eventEP6QEvent @ 2030 NONAME
	_ZN12QTableWidget7setItemEiiP16QTableWidgetItem @ 2031 NONAME
	_ZN12QTableWidget8editItemEP16QTableWidgetItem @ 2032 NONAME
	_ZN12QTableWidget8setModelEP18QAbstractItemModel @ 2033 NONAME
	_ZN12QTableWidget8takeItemEii @ 2034 NONAME
	_ZN12QTableWidget9dropEventEP10QDropEvent @ 2035 NONAME
	_ZN12QTableWidget9insertRowEi @ 2036 NONAME
	_ZN12QTableWidget9removeRowEi @ 2037 NONAME
	_ZN12QTableWidget9sortItemsEiN2Qt9SortOrderE @ 2038 NONAME
	_ZN12QTableWidgetC1EP7QWidget @ 2039 NONAME
	_ZN12QTableWidgetC1EiiP7QWidget @ 2040 NONAME
	_ZN12QTableWidgetC2EP7QWidget @ 2041 NONAME
	_ZN12QTableWidgetC2EiiP7QWidget @ 2042 NONAME
	_ZN12QTableWidgetD0Ev @ 2043 NONAME
	_ZN12QTableWidgetD1Ev @ 2044 NONAME
	_ZN12QTableWidgetD2Ev @ 2045 NONAME
	_ZN12QTabletEventC1EN6QEvent4TypeERK6QPointS4_RK7QPointFiifiiffi6QFlagsIN2Qt16KeyboardModifierEEx @ 2046 NONAME
	_ZN12QTabletEventC2EN6QEvent4TypeERK6QPointS4_RK7QPointFiifiiffi6QFlagsIN2Qt16KeyboardModifierEEx @ 2047 NONAME
	_ZN12QTabletEventD0Ev @ 2048 NONAME
	_ZN12QTabletEventD1Ev @ 2049 NONAME
	_ZN12QTabletEventD2Ev @ 2050 NONAME
	_ZN12QTessellator10setWindingEb @ 2051 NONAME
	_ZN12QTessellator10tessellateEPK7QPointFi @ 2052 NONAME
	_ZN12QTessellator14tessellateRectERK7QPointFS2_f @ 2053 NONAME
	_ZN12QTessellator16tessellateConvexEPK7QPointFi @ 2054 NONAME
	_ZN12QTessellatorC2Ev @ 2055 NONAME
	_ZN12QTessellatorD0Ev @ 2056 NONAME
	_ZN12QTessellatorD1Ev @ 2057 NONAME
	_ZN12QTessellatorD2Ev @ 2058 NONAME
	_ZN12QTextBrowser10paintEventEP11QPaintEvent @ 2059 NONAME
	_ZN12QTextBrowser11highlightedERK4QUrl @ 2060 NONAME
	_ZN12QTextBrowser11highlightedERK7QString @ 2061 NONAME
	_ZN12QTextBrowser11qt_metacallEN11QMetaObject4CallEiPPv @ 2062 NONAME
	_ZN12QTextBrowser11qt_metacastEPKc @ 2063 NONAME
	_ZN12QTextBrowser12clearHistoryEv @ 2064 NONAME
	_ZN12QTextBrowser12loadResourceEiRK4QUrl @ 2065 NONAME
	_ZN12QTextBrowser12setOpenLinksEb @ 2066 NONAME
	_ZN12QTextBrowser13anchorClickedERK4QUrl @ 2067 NONAME
	_ZN12QTextBrowser13focusOutEventEP11QFocusEvent @ 2068 NONAME
	_ZN12QTextBrowser13keyPressEventEP9QKeyEvent @ 2069 NONAME
	_ZN12QTextBrowser13sourceChangedERK4QUrl @ 2070 NONAME
	_ZN12QTextBrowser14historyChangedEv @ 2071 NONAME
	_ZN12QTextBrowser14mouseMoveEventEP11QMouseEvent @ 2072 NONAME
	_ZN12QTextBrowser14setSearchPathsERK11QStringList @ 2073 NONAME
	_ZN12QTextBrowser15mousePressEventEP11QMouseEvent @ 2074 NONAME
	_ZN12QTextBrowser16forwardAvailableEb @ 2075 NONAME
	_ZN12QTextBrowser16staticMetaObjectE @ 2076 NONAME DATA 16
	_ZN12QTextBrowser17backwardAvailableEb @ 2077 NONAME
	_ZN12QTextBrowser17mouseReleaseEventEP11QMouseEvent @ 2078 NONAME
	_ZN12QTextBrowser18focusNextPrevChildEb @ 2079 NONAME
	_ZN12QTextBrowser19getStaticMetaObjectEv @ 2080 NONAME
	_ZN12QTextBrowser20setOpenExternalLinksEb @ 2081 NONAME
	_ZN12QTextBrowser4homeEv @ 2082 NONAME
	_ZN12QTextBrowser5eventEP6QEvent @ 2083 NONAME
	_ZN12QTextBrowser6reloadEv @ 2084 NONAME
	_ZN12QTextBrowser7forwardEv @ 2085 NONAME
	_ZN12QTextBrowser8backwardEv @ 2086 NONAME
	_ZN12QTextBrowser9setSourceERK4QUrl @ 2087 NONAME
	_ZN12QTextBrowserC1EP7QWidget @ 2088 NONAME
	_ZN12QTextBrowserC2EP7QWidget @ 2089 NONAME
	_ZN12QTextBrowserD0Ev @ 2090 NONAME
	_ZN12QTextBrowserD1Ev @ 2091 NONAME
	_ZN12QTextBrowserD2Ev @ 2092 NONAME
	_ZN12QTextControl10adjustSizeEv @ 2093 NONAME
	_ZN12QTextControl10appendHtmlERK7QString @ 2094 NONAME
	_ZN12QTextControl10insertHtmlERK7QString @ 2095 NONAME
	_ZN12QTextControl10moveCursorEN11QTextCursor13MoveOperationENS0_8MoveModeE @ 2096 NONAME
	_ZN12QTextControl10setPaletteERK8QPalette @ 2097 NONAME
	_ZN12QTextControl10timerEventEP11QTimerEvent @ 2098 NONAME
	_ZN12QTextControl11linkHoveredERK7QString @ 2099 NONAME
	_ZN12QTextControl11qt_metacallEN11QMetaObject4CallEiPPv @ 2100 NONAME
	_ZN12QTextControl11qt_metacastEPKc @ 2101 NONAME
	_ZN12QTextControl11setDocumentEP13QTextDocument @ 2102 NONAME
	_ZN12QTextControl11textChangedEv @ 2103 NONAME
	_ZN12QTextControl12drawContentsEP8QPainterRK6QRectFP7QWidget @ 2104 NONAME
	_ZN12QTextControl12loadResourceEiRK4QUrl @ 2105 NONAME
	_ZN12QTextControl12processEventEP6QEventRK7QMatrixP7QWidget @ 2106 NONAME
	_ZN12QTextControl12processEventEP6QEventRK7QPointFP7QWidget @ 2107 NONAME
	_ZN12QTextControl12setPlainTextERK7QString @ 2108 NONAME
	_ZN12QTextControl12setTextWidthEf @ 2109 NONAME
	_ZN12QTextControl13copyAvailableEb @ 2110 NONAME
	_ZN12QTextControl13linkActivatedERK7QString @ 2111 NONAME
	_ZN12QTextControl13redoAvailableEb @ 2112 NONAME
	_ZN12QTextControl13setTextCursorERK11QTextCursor @ 2113 NONAME
	_ZN12QTextControl13undoAvailableEb @ 2114 NONAME
	_ZN12QTextControl13updateRequestERK6QRectF @ 2115 NONAME
	_ZN12QTextControl14setCursorWidthEi @ 2116 NONAME
	_ZN12QTextControl15appendPlainTextERK7QString @ 2117 NONAME
	_ZN12QTextControl15insertPlainTextERK7QString @ 2118 NONAME
	_ZN12QTextControl16selectionChangedEv @ 2119 NONAME
	_ZN12QTextControl16setFocusToAnchorERK11QTextCursor @ 2120 NONAME
	_ZN12QTextControl16setOverwriteModeEb @ 2121 NONAME
	_ZN12QTextControl16staticMetaObjectE @ 2122 NONAME DATA 16
	_ZN12QTextControl17blockCountChangedEi @ 2123 NONAME
	_ZN12QTextControl17microFocusChangedEv @ 2124 NONAME
	_ZN12QTextControl17setAcceptRichTextEb @ 2125 NONAME
	_ZN12QTextControl17visibilityRequestERK6QRectF @ 2126 NONAME
	_ZN12QTextControl18findNextPrevAnchorERK11QTextCursorbRS0_ @ 2127 NONAME
	_ZN12QTextControl18insertFromMimeDataEPK9QMimeData @ 2128 NONAME
	_ZN12QTextControl18setExtraSelectionsERK5QListIN9QTextEdit14ExtraSelectionEE @ 2129 NONAME
	_ZN12QTextControl19documentSizeChangedERK6QSizeF @ 2130 NONAME
	_ZN12QTextControl19ensureCursorVisibleEv @ 2131 NONAME
	_ZN12QTextControl19getStaticMetaObjectEv @ 2132 NONAME
	_ZN12QTextControl19modificationChangedEb @ 2133 NONAME
	_ZN12QTextControl20setCurrentCharFormatERK15QTextCharFormat @ 2134 NONAME
	_ZN12QTextControl20setOpenExternalLinksEb @ 2135 NONAME
	_ZN12QTextControl21cursorPositionChangedEv @ 2136 NONAME
	_ZN12QTextControl22mergeCurrentCharFormatERK15QTextCharFormat @ 2137 NONAME
	_ZN12QTextControl23setTextInteractionFlagsE6QFlagsIN2Qt19TextInteractionFlagEE @ 2138 NONAME
	_ZN12QTextControl24currentCharFormatChangedERK15QTextCharFormat @ 2139 NONAME
	_ZN12QTextControl25createStandardContextMenuERK7QPointFP7QWidget @ 2140 NONAME
	_ZN12QTextControl25setCursorIsFocusIndicatorEb @ 2141 NONAME
	_ZN12QTextControl30setFocusToNextOrPreviousAnchorEb @ 2142 NONAME
	_ZN12QTextControl3cutEv @ 2143 NONAME
	_ZN12QTextControl4copyEv @ 2144 NONAME
	_ZN12QTextControl4findERK7QString6QFlagsIN13QTextDocument8FindFlagEE @ 2145 NONAME
	_ZN12QTextControl4redoEv @ 2146 NONAME
	_ZN12QTextControl4undoEv @ 2147 NONAME
	_ZN12QTextControl5clearEv @ 2148 NONAME
	_ZN12QTextControl5eventEP6QEvent @ 2149 NONAME
	_ZN12QTextControl5pasteEv @ 2150 NONAME ABSENT
	_ZN12QTextControl6appendERK7QString @ 2151 NONAME
	_ZN12QTextControl7setHtmlERK7QString @ 2152 NONAME
	_ZN12QTextControl8setFocusEbN2Qt11FocusReasonE @ 2153 NONAME
	_ZN12QTextControl9selectAllEv @ 2154 NONAME
	_ZN12QTextControlC1EP13QTextDocumentP7QObject @ 2155 NONAME
	_ZN12QTextControlC1EP7QObject @ 2156 NONAME
	_ZN12QTextControlC1ERK7QStringP7QObject @ 2157 NONAME
	_ZN12QTextControlC2EP13QTextDocumentP7QObject @ 2158 NONAME
	_ZN12QTextControlC2EP7QObject @ 2159 NONAME
	_ZN12QTextControlC2ERK7QStringP7QObject @ 2160 NONAME
	_ZN12QTextControlD0Ev @ 2161 NONAME
	_ZN12QTextControlD1Ev @ 2162 NONAME
	_ZN12QTextControlD2Ev @ 2163 NONAME
	_ZN12QUndoCommand4redoEv @ 2164 NONAME
	_ZN12QUndoCommand4undoEv @ 2165 NONAME
	_ZN12QUndoCommand7setTextERK7QString @ 2166 NONAME
	_ZN12QUndoCommand9mergeWithEPKS_ @ 2167 NONAME
	_ZN12QUndoCommandC1EPS_ @ 2168 NONAME
	_ZN12QUndoCommandC1ERK7QStringPS_ @ 2169 NONAME
	_ZN12QUndoCommandC2EPS_ @ 2170 NONAME
	_ZN12QUndoCommandC2ERK7QStringPS_ @ 2171 NONAME
	_ZN12QUndoCommandD0Ev @ 2172 NONAME
	_ZN12QUndoCommandD1Ev @ 2173 NONAME
	_ZN12QUndoCommandD2Ev @ 2174 NONAME
	_ZN13QDateTimeEdit10paintEventEP11QPaintEvent @ 2175 NONAME
	_ZN13QDateTimeEdit10wheelEventEP11QWheelEvent @ 2176 NONAME
	_ZN13QDateTimeEdit11dateChangedERK5QDate @ 2177 NONAME
	_ZN13QDateTimeEdit11qt_metacallEN11QMetaObject4CallEiPPv @ 2178 NONAME
	_ZN13QDateTimeEdit11qt_metacastEPKc @ 2179 NONAME
	_ZN13QDateTimeEdit11setDateTimeERK9QDateTime @ 2180 NONAME
	_ZN13QDateTimeEdit11setTimeSpecEN2Qt8TimeSpecE @ 2181 NONAME
	_ZN13QDateTimeEdit11timeChangedERK5QTime @ 2182 NONAME
	_ZN13QDateTimeEdit12focusInEventEP11QFocusEvent @ 2183 NONAME
	_ZN13QDateTimeEdit12setDateRangeERK5QDateS2_ @ 2184 NONAME
	_ZN13QDateTimeEdit12setTimeRangeERK5QTimeS2_ @ 2185 NONAME
	_ZN13QDateTimeEdit13keyPressEventEP9QKeyEvent @ 2186 NONAME
	_ZN13QDateTimeEdit14setMaximumDateERK5QDate @ 2187 NONAME
	_ZN13QDateTimeEdit14setMaximumTimeERK5QTime @ 2188 NONAME
	_ZN13QDateTimeEdit14setMinimumDateERK5QDate @ 2189 NONAME
	_ZN13QDateTimeEdit14setMinimumTimeERK5QTime @ 2190 NONAME
	_ZN13QDateTimeEdit15dateTimeChangedERK9QDateTime @ 2191 NONAME
	_ZN13QDateTimeEdit15mousePressEventEP11QMouseEvent @ 2192 NONAME
	_ZN13QDateTimeEdit16clearMaximumDateEv @ 2193 NONAME
	_ZN13QDateTimeEdit16clearMaximumTimeEv @ 2194 NONAME
	_ZN13QDateTimeEdit16clearMinimumDateEv @ 2195 NONAME
	_ZN13QDateTimeEdit16clearMinimumTimeEv @ 2196 NONAME
	_ZN13QDateTimeEdit16setCalendarPopupEb @ 2197 NONAME
	_ZN13QDateTimeEdit16setDateTimeRangeERK9QDateTimeS2_ @ 2198 NONAME
	_ZN13QDateTimeEdit16setDisplayFormatERK7QString @ 2199 NONAME
	_ZN13QDateTimeEdit16staticMetaObjectE @ 2200 NONAME DATA 16
	_ZN13QDateTimeEdit17setCalendarWidgetEP15QCalendarWidget @ 2201 NONAME
	_ZN13QDateTimeEdit17setCurrentSectionENS_7SectionE @ 2202 NONAME
	_ZN13QDateTimeEdit18focusNextPrevChildEb @ 2203 NONAME
	_ZN13QDateTimeEdit18setMaximumDateTimeERK9QDateTime @ 2204 NONAME
	_ZN13QDateTimeEdit18setMinimumDateTimeERK9QDateTime @ 2205 NONAME
	_ZN13QDateTimeEdit18setSelectedSectionENS_7SectionE @ 2206 NONAME
	_ZN13QDateTimeEdit19getStaticMetaObjectEv @ 2207 NONAME
	_ZN13QDateTimeEdit20clearMaximumDateTimeEv @ 2208 NONAME
	_ZN13QDateTimeEdit20clearMinimumDateTimeEv @ 2209 NONAME
	_ZN13QDateTimeEdit22setCurrentSectionIndexEi @ 2210 NONAME
	_ZN13QDateTimeEdit5clearEv @ 2211 NONAME
	_ZN13QDateTimeEdit5eventEP6QEvent @ 2212 NONAME
	_ZN13QDateTimeEdit6stepByEi @ 2213 NONAME
	_ZN13QDateTimeEdit7setDateERK5QDate @ 2214 NONAME
	_ZN13QDateTimeEdit7setTimeERK5QTime @ 2215 NONAME
	_ZN13QDateTimeEditC1EP7QWidget @ 2216 NONAME
	_ZN13QDateTimeEditC1ERK5QDateP7QWidget @ 2217 NONAME
	_ZN13QDateTimeEditC1ERK5QTimeP7QWidget @ 2218 NONAME
	_ZN13QDateTimeEditC1ERK8QVariantNS0_4TypeEP7QWidget @ 2219 NONAME
	_ZN13QDateTimeEditC1ERK9QDateTimeP7QWidget @ 2220 NONAME
	_ZN13QDateTimeEditC2EP7QWidget @ 2221 NONAME
	_ZN13QDateTimeEditC2ERK5QDateP7QWidget @ 2222 NONAME
	_ZN13QDateTimeEditC2ERK5QTimeP7QWidget @ 2223 NONAME
	_ZN13QDateTimeEditC2ERK8QVariantNS0_4TypeEP7QWidget @ 2224 NONAME
	_ZN13QDateTimeEditC2ERK9QDateTimeP7QWidget @ 2225 NONAME
	_ZN13QErrorMessage11changeEventEP6QEvent @ 2226 NONAME
	_ZN13QErrorMessage11qt_metacallEN11QMetaObject4CallEiPPv @ 2227 NONAME
	_ZN13QErrorMessage11qt_metacastEPKc @ 2228 NONAME
	_ZN13QErrorMessage11showMessageERK7QString @ 2229 NONAME
	_ZN13QErrorMessage11showMessageERK7QStringS2_ @ 2230 NONAME
	_ZN13QErrorMessage16staticMetaObjectE @ 2231 NONAME DATA 16
	_ZN13QErrorMessage19getStaticMetaObjectEv @ 2232 NONAME
	_ZN13QErrorMessage4doneEi @ 2233 NONAME
	_ZN13QErrorMessage9qtHandlerEv @ 2234 NONAME
	_ZN13QErrorMessageC1EP7QWidget @ 2235 NONAME
	_ZN13QErrorMessageC2EP7QWidget @ 2236 NONAME
	_ZN13QErrorMessageD0Ev @ 2237 NONAME
	_ZN13QErrorMessageD1Ev @ 2238 NONAME
	_ZN13QErrorMessageD2Ev @ 2239 NONAME
	_ZN13QFontComboBox11qt_metacallEN11QMetaObject4CallEiPPv @ 2240 NONAME
	_ZN13QFontComboBox11qt_metacastEPKc @ 2241 NONAME
	_ZN13QFontComboBox14setCurrentFontERK5QFont @ 2242 NONAME
	_ZN13QFontComboBox14setFontFiltersE6QFlagsINS_10FontFilterEE @ 2243 NONAME
	_ZN13QFontComboBox16setWritingSystemEN13QFontDatabase13WritingSystemE @ 2244 NONAME
	_ZN13QFontComboBox16staticMetaObjectE @ 2245 NONAME DATA 16
	_ZN13QFontComboBox18currentFontChangedERK5QFont @ 2246 NONAME
	_ZN13QFontComboBox19getStaticMetaObjectEv @ 2247 NONAME
	_ZN13QFontComboBox5eventEP6QEvent @ 2248 NONAME
	_ZN13QFontComboBoxC1EP7QWidget @ 2249 NONAME
	_ZN13QFontComboBoxC2EP7QWidget @ 2250 NONAME
	_ZN13QFontComboBoxD0Ev @ 2251 NONAME
	_ZN13QFontComboBoxD1Ev @ 2252 NONAME
	_ZN13QFontComboBoxD2Ev @ 2253 NONAME
	_ZN13QFontDatabase10pointSizesERK7QStringS2_ @ 2254 NONAME
	_ZN13QFontDatabase11smoothSizesERK7QStringS2_ @ 2255 NONAME
	_ZN13QFontDatabase11styleStringERK5QFont @ 2256 NONAME
	_ZN13QFontDatabase11styleStringERK9QFontInfo @ 2257 NONAME
	_ZN13QFontDatabase13parseFontNameERK7QStringRS0_S3_ @ 2258 NONAME
	_ZN13QFontDatabase13standardSizesEv @ 2259 NONAME
	_ZN13QFontDatabase14createDatabaseEv @ 2260 NONAME
	_ZN13QFontDatabase16staticMetaObjectE @ 2261 NONAME DATA 16
	_ZN13QFontDatabase17writingSystemNameENS_13WritingSystemE @ 2262 NONAME
	_ZN13QFontDatabase18addApplicationFontERK7QString @ 2263 NONAME
	_ZN13QFontDatabase19getStaticMetaObjectEv @ 2264 NONAME
	_ZN13QFontDatabase19writingSystemSampleENS_13WritingSystemE @ 2265 NONAME
	_ZN13QFontDatabase21removeApplicationFontEi @ 2266 NONAME
	_ZN13QFontDatabase23applicationFontFamiliesEi @ 2267 NONAME
	_ZN13QFontDatabase26addApplicationFontFromDataERK10QByteArray @ 2268 NONAME
	_ZN13QFontDatabase29supportsThreadedFontRenderingEv @ 2269 NONAME
	_ZN13QFontDatabase4loadEPK12QFontPrivatei @ 2270 NONAME
	_ZN13QFontDatabase8findFontEiPK12QFontPrivateRK8QFontDef @ 2271 NONAME
	_ZN13QFontDatabaseC1Ev @ 2272 NONAME
	_ZN13QFontDatabaseC2Ev @ 2273 NONAME
	_ZN13QFontMetricsFC1ERK12QFontMetrics @ 2274 NONAME
	_ZN13QFontMetricsFC1ERK5QFont @ 2275 NONAME
	_ZN13QFontMetricsFC1ERK5QFontP12QPaintDevice @ 2276 NONAME
	_ZN13QFontMetricsFC1ERKS_ @ 2277 NONAME
	_ZN13QFontMetricsFC2ERK12QFontMetrics @ 2278 NONAME
	_ZN13QFontMetricsFC2ERK5QFont @ 2279 NONAME
	_ZN13QFontMetricsFC2ERK5QFontP12QPaintDevice @ 2280 NONAME
	_ZN13QFontMetricsFC2ERKS_ @ 2281 NONAME
	_ZN13QFontMetricsFD1Ev @ 2282 NONAME
	_ZN13QFontMetricsFD2Ev @ 2283 NONAME
	_ZN13QFontMetricsFaSERK12QFontMetrics @ 2284 NONAME
	_ZN13QFontMetricsFaSERKS_ @ 2285 NONAME
	_ZN13QFontMetricsFeqERKS_ @ 2286 NONAME
	_ZN13QGestureEvent11setAcceptedEP8QGestureb @ 2287 NONAME
	_ZN13QGestureEvent6acceptEP8QGesture @ 2288 NONAME
	_ZN13QGestureEvent6ignoreEP8QGesture @ 2289 NONAME
	_ZN13QGestureEvent7gestureEN2Qt11GestureTypeE @ 2290 NONAME ABSENT
	_ZN13QGestureEventC1ERK5QListIP8QGestureE @ 2291 NONAME
	_ZN13QGestureEventC2ERK5QListIP8QGestureE @ 2292 NONAME
	_ZN13QGraphicsItem10addToIndexEv @ 2293 NONAME
	_ZN13QGraphicsItem10clearFocusEv @ 2294 NONAME
	_ZN13QGraphicsItem10itemChangeENS_18GraphicsItemChangeERK8QVariant @ 2295 NONAME
	_ZN13QGraphicsItem10sceneEventEP6QEvent @ 2296 NONAME
	_ZN13QGraphicsItem10setEnabledEb @ 2297 NONAME
	_ZN13QGraphicsItem10setOpacityEf @ 2298 NONAME
	_ZN13QGraphicsItem10setToolTipERK7QString @ 2299 NONAME
	_ZN13QGraphicsItem10setVisibleEb @ 2300 NONAME
	_ZN13QGraphicsItem10wheelEventEP24QGraphicsSceneWheelEvent @ 2301 NONAME
	_ZN13QGraphicsItem11resetMatrixEv @ 2302 NONAME
	_ZN13QGraphicsItem11setRotationEf @ 2303 NONAME
	_ZN13QGraphicsItem11setSelectedEb @ 2304 NONAME
	_ZN13QGraphicsItem11stackBeforeEPKS_ @ 2305 NONAME
	_ZN13QGraphicsItem11ungrabMouseEv @ 2306 NONAME
	_ZN13QGraphicsItem11unsetCursorEv @ 2307 NONAME
	_ZN13QGraphicsItem12focusInEventEP11QFocusEvent @ 2308 NONAME
	_ZN13QGraphicsItem12grabKeyboardEv @ 2309 NONAME
	_ZN13QGraphicsItem12setCacheModeENS_9CacheModeERK5QSize @ 2310 NONAME
	_ZN13QGraphicsItem12setExtensionENS_9ExtensionERK8QVariant @ 2311 NONAME
	_ZN13QGraphicsItem12setTransformERK10QTransformb @ 2312 NONAME
	_ZN13QGraphicsItem13dragMoveEventEP27QGraphicsSceneDragDropEvent @ 2313 NONAME
	_ZN13QGraphicsItem13ensureVisibleERK6QRectFii @ 2314 NONAME
	_ZN13QGraphicsItem13focusOutEventEP11QFocusEvent @ 2315 NONAME
	_ZN13QGraphicsItem13keyPressEventEP9QKeyEvent @ 2316 NONAME
	_ZN13QGraphicsItem13setFocusProxyEPS_ @ 2317 NONAME
	_ZN13QGraphicsItem13setParentItemEPS_ @ 2318 NONAME
	_ZN13QGraphicsItem14dragEnterEventEP27QGraphicsSceneDragDropEvent @ 2319 NONAME
	_ZN13QGraphicsItem14dragLeaveEventEP27QGraphicsSceneDragDropEvent @ 2320 NONAME
	_ZN13QGraphicsItem14hoverMoveEventEP24QGraphicsSceneHoverEvent @ 2321 NONAME
	_ZN13QGraphicsItem14mouseMoveEventEP24QGraphicsSceneMouseEvent @ 2322 NONAME
	_ZN13QGraphicsItem14resetTransformEv @ 2323 NONAME
	_ZN13QGraphicsItem14setAcceptDropsEb @ 2324 NONAME
	_ZN13QGraphicsItem14ungrabKeyboardEv @ 2325 NONAME
	_ZN13QGraphicsItem15hoverEnterEventEP24QGraphicsSceneHoverEvent @ 2326 NONAME
	_ZN13QGraphicsItem15hoverLeaveEventEP24QGraphicsSceneHoverEvent @ 2327 NONAME
	_ZN13QGraphicsItem15keyReleaseEventEP9QKeyEvent @ 2328 NONAME
	_ZN13QGraphicsItem15mousePressEventEP24QGraphicsSceneMouseEvent @ 2329 NONAME
	_ZN13QGraphicsItem15removeFromIndexEv @ 2330 NONAME
	_ZN13QGraphicsItem16contextMenuEventEP30QGraphicsSceneContextMenuEvent @ 2331 NONAME
	_ZN13QGraphicsItem16inputMethodEventEP17QInputMethodEvent @ 2332 NONAME
	_ZN13QGraphicsItem16sceneEventFilterEPS_P6QEvent @ 2333 NONAME
	_ZN13QGraphicsItem16setPanelModalityENS_13PanelModalityE @ 2334 NONAME
	_ZN13QGraphicsItem16toGraphicsObjectEv @ 2335 NONAME
	_ZN13QGraphicsItem17mouseReleaseEventEP24QGraphicsSceneMouseEvent @ 2336 NONAME
	_ZN13QGraphicsItem17setGraphicsEffectEP15QGraphicsEffect @ 2337 NONAME
	_ZN13QGraphicsItem18setTransformationsERK5QListIP18QGraphicsTransformE @ 2338 NONAME
	_ZN13QGraphicsItem19setInputMethodHintsE6QFlagsIN2Qt15InputMethodHintEE @ 2339 NONAME
	_ZN13QGraphicsItem20setAcceptHoverEventsEb @ 2340 NONAME
	_ZN13QGraphicsItem20setAcceptTouchEventsEb @ 2341 NONAME
	_ZN13QGraphicsItem21mouseDoubleClickEventEP24QGraphicsSceneMouseEvent @ 2342 NONAME
	_ZN13QGraphicsItem21prepareGeometryChangeEv @ 2343 NONAME
	_ZN13QGraphicsItem21setAcceptsHoverEventsEb @ 2344 NONAME
	_ZN13QGraphicsItem21setFiltersChildEventsEb @ 2345 NONAME
	_ZN13QGraphicsItem21setHandlesChildEventsEb @ 2346 NONAME
	_ZN13QGraphicsItem22removeSceneEventFilterEPS_ @ 2347 NONAME
	_ZN13QGraphicsItem23installSceneEventFilterEPS_ @ 2348 NONAME
	_ZN13QGraphicsItem23setAcceptedMouseButtonsE6QFlagsIN2Qt11MouseButtonEE @ 2349 NONAME
	_ZN13QGraphicsItem23setTransformOriginPointERK7QPointF @ 2350 NONAME
	_ZN13QGraphicsItem28setBoundingRegionGranularityEf @ 2351 NONAME
	_ZN13QGraphicsItem4setXEf @ 2352 NONAME
	_ZN13QGraphicsItem4setYEf @ 2353 NONAME
	_ZN13QGraphicsItem5scaleEff @ 2354 NONAME
	_ZN13QGraphicsItem5shearEff @ 2355 NONAME
	_ZN13QGraphicsItem6rotateEf @ 2356 NONAME
	_ZN13QGraphicsItem6scrollEffRK6QRectF @ 2357 NONAME
	_ZN13QGraphicsItem6setPosERK7QPointF @ 2358 NONAME
	_ZN13QGraphicsItem6updateERK6QRectF @ 2359 NONAME
	_ZN13QGraphicsItem7advanceEi @ 2360 NONAME
	_ZN13QGraphicsItem7setDataEiRK8QVariant @ 2361 NONAME
	_ZN13QGraphicsItem7setFlagENS_16GraphicsItemFlagEb @ 2362 NONAME
	_ZN13QGraphicsItem8setFlagsE6QFlagsINS_16GraphicsItemFlagEE @ 2363 NONAME
	_ZN13QGraphicsItem8setFocusEN2Qt11FocusReasonE @ 2364 NONAME
	_ZN13QGraphicsItem8setGroupEP18QGraphicsItemGroup @ 2365 NONAME
	_ZN13QGraphicsItem8setScaleEf @ 2366 NONAME
	_ZN13QGraphicsItem9dropEventEP27QGraphicsSceneDragDropEvent @ 2367 NONAME
	_ZN13QGraphicsItem9grabMouseEv @ 2368 NONAME
	_ZN13QGraphicsItem9setActiveEb @ 2369 NONAME
	_ZN13QGraphicsItem9setCursorERK7QCursor @ 2370 NONAME
	_ZN13QGraphicsItem9setMatrixERK7QMatrixb @ 2371 NONAME
	_ZN13QGraphicsItem9setZValueEf @ 2372 NONAME
	_ZN13QGraphicsItem9translateEff @ 2373 NONAME
	_ZN13QGraphicsItemC2EPS_P14QGraphicsScene @ 2374 NONAME
	_ZN13QGraphicsItemC2ER20QGraphicsItemPrivatePS_P14QGraphicsScene @ 2375 NONAME
	_ZN13QGraphicsItemD0Ev @ 2376 NONAME
	_ZN13QGraphicsItemD1Ev @ 2377 NONAME
	_ZN13QGraphicsItemD2Ev @ 2378 NONAME
	_ZN13QGraphicsView10paintEventEP11QPaintEvent @ 2379 NONAME
	_ZN13QGraphicsView10wheelEventEP11QWheelEvent @ 2380 NONAME
	_ZN13QGraphicsView11qt_metacallEN11QMetaObject4CallEiPPv @ 2381 NONAME
	_ZN13QGraphicsView11qt_metacastEPKc @ 2382 NONAME
	_ZN13QGraphicsView11resetMatrixEv @ 2383 NONAME
	_ZN13QGraphicsView11resizeEventEP12QResizeEvent @ 2384 NONAME
	_ZN13QGraphicsView11setDragModeENS_8DragModeE @ 2385 NONAME
	_ZN13QGraphicsView11updateSceneERK5QListI6QRectFE @ 2386 NONAME
	_ZN13QGraphicsView12focusInEventEP11QFocusEvent @ 2387 NONAME
	_ZN13QGraphicsView12setAlignmentE6QFlagsIN2Qt13AlignmentFlagEE @ 2388 NONAME
	_ZN13QGraphicsView12setCacheModeE6QFlagsINS_13CacheModeFlagEE @ 2389 NONAME
	_ZN13QGraphicsView12setSceneRectERK6QRectF @ 2390 NONAME
	_ZN13QGraphicsView12setTransformERK10QTransformb @ 2391 NONAME
	_ZN13QGraphicsView13dragMoveEventEP14QDragMoveEvent @ 2392 NONAME
	_ZN13QGraphicsView13ensureVisibleEPK13QGraphicsItemii @ 2393 NONAME
	_ZN13QGraphicsView13ensureVisibleERK6QRectFii @ 2394 NONAME
	_ZN13QGraphicsView13focusOutEventEP11QFocusEvent @ 2395 NONAME
	_ZN13QGraphicsView13keyPressEventEP9QKeyEvent @ 2396 NONAME
	_ZN13QGraphicsView13setRenderHintEN8QPainter10RenderHintEb @ 2397 NONAME
	_ZN13QGraphicsView13setupViewportEP7QWidget @ 2398 NONAME
	_ZN13QGraphicsView13viewportEventEP6QEvent @ 2399 NONAME
	_ZN13QGraphicsView14dragEnterEventEP15QDragEnterEvent @ 2400 NONAME
	_ZN13QGraphicsView14dragLeaveEventEP15QDragLeaveEvent @ 2401 NONAME
	_ZN13QGraphicsView14drawBackgroundEP8QPainterRK6QRectF @ 2402 NONAME
	_ZN13QGraphicsView14drawForegroundEP8QPainterRK6QRectF @ 2403 NONAME
	_ZN13QGraphicsView14mouseMoveEventEP11QMouseEvent @ 2404 NONAME
	_ZN13QGraphicsView14resetTransformEv @ 2405 NONAME
	_ZN13QGraphicsView14setInteractiveEb @ 2406 NONAME
	_ZN13QGraphicsView14setRenderHintsE6QFlagsIN8QPainter10RenderHintEE @ 2407 NONAME
	_ZN13QGraphicsView15invalidateSceneERK6QRectF6QFlagsIN14QGraphicsScene10SceneLayerEE @ 2408 NONAME
	_ZN13QGraphicsView15keyReleaseEventEP9QKeyEvent @ 2409 NONAME
	_ZN13QGraphicsView15mousePressEventEP11QMouseEvent @ 2410 NONAME
	_ZN13QGraphicsView15setResizeAnchorENS_14ViewportAnchorE @ 2411 NONAME
	_ZN13QGraphicsView15updateSceneRectERK6QRectF @ 2412 NONAME
	_ZN13QGraphicsView16contextMenuEventEP17QContextMenuEvent @ 2413 NONAME
	_ZN13QGraphicsView16inputMethodEventEP17QInputMethodEvent @ 2414 NONAME
	_ZN13QGraphicsView16scrollContentsByEii @ 2415 NONAME
	_ZN13QGraphicsView16staticMetaObjectE @ 2416 NONAME DATA 16
	_ZN13QGraphicsView17mouseReleaseEventEP11QMouseEvent @ 2417 NONAME
	_ZN13QGraphicsView18focusNextPrevChildEb @ 2418 NONAME
	_ZN13QGraphicsView18resetCachedContentEv @ 2419 NONAME
	_ZN13QGraphicsView18setBackgroundBrushERK6QBrush @ 2420 NONAME
	_ZN13QGraphicsView18setForegroundBrushERK6QBrush @ 2421 NONAME
	_ZN13QGraphicsView19getStaticMetaObjectEv @ 2422 NONAME
	_ZN13QGraphicsView19setOptimizationFlagENS_16OptimizationFlagEb @ 2423 NONAME
	_ZN13QGraphicsView20setOptimizationFlagsE6QFlagsINS_16OptimizationFlagEE @ 2424 NONAME
	_ZN13QGraphicsView21mouseDoubleClickEventEP11QMouseEvent @ 2425 NONAME
	_ZN13QGraphicsView21setViewportUpdateModeENS_18ViewportUpdateModeE @ 2426 NONAME
	_ZN13QGraphicsView23setTransformationAnchorENS_14ViewportAnchorE @ 2427 NONAME
	_ZN13QGraphicsView26setRubberBandSelectionModeEN2Qt17ItemSelectionModeE @ 2428 NONAME
	_ZN13QGraphicsView5eventEP6QEvent @ 2429 NONAME
	_ZN13QGraphicsView5scaleEff @ 2430 NONAME
	_ZN13QGraphicsView5shearEff @ 2431 NONAME
	_ZN13QGraphicsView6renderEP8QPainterRK6QRectFRK5QRectN2Qt15AspectRatioModeE @ 2432 NONAME
	_ZN13QGraphicsView6rotateEf @ 2433 NONAME
	_ZN13QGraphicsView8centerOnEPK13QGraphicsItem @ 2434 NONAME
	_ZN13QGraphicsView8centerOnERK7QPointF @ 2435 NONAME
	_ZN13QGraphicsView8setSceneEP14QGraphicsScene @ 2436 NONAME
	_ZN13QGraphicsView9drawItemsEP8QPainteriPP13QGraphicsItemPK24QStyleOptionGraphicsItem @ 2437 NONAME
	_ZN13QGraphicsView9dropEventEP10QDropEvent @ 2438 NONAME
	_ZN13QGraphicsView9fitInViewEPK13QGraphicsItemN2Qt15AspectRatioModeE @ 2439 NONAME
	_ZN13QGraphicsView9fitInViewERK6QRectFN2Qt15AspectRatioModeE @ 2440 NONAME
	_ZN13QGraphicsView9setMatrixERK7QMatrixb @ 2441 NONAME
	_ZN13QGraphicsView9showEventEP10QShowEvent @ 2442 NONAME
	_ZN13QGraphicsView9translateEff @ 2443 NONAME
	_ZN13QGraphicsViewC1EP14QGraphicsSceneP7QWidget @ 2444 NONAME
	_ZN13QGraphicsViewC1EP7QWidget @ 2445 NONAME
	_ZN13QGraphicsViewC1ER20QGraphicsViewPrivateP7QWidget @ 2446 NONAME
	_ZN13QGraphicsViewC2EP14QGraphicsSceneP7QWidget @ 2447 NONAME
	_ZN13QGraphicsViewC2EP7QWidget @ 2448 NONAME
	_ZN13QGraphicsViewC2ER20QGraphicsViewPrivateP7QWidget @ 2449 NONAME
	_ZN13QGraphicsViewD0Ev @ 2450 NONAME
	_ZN13QGraphicsViewD1Ev @ 2451 NONAME
	_ZN13QGraphicsViewD2Ev @ 2452 NONAME
	_ZN13QIconEngineV212virtual_hookEiPv @ 2453 NONAME
	_ZN13QIconEngineV214availableSizesEN5QIcon4ModeENS0_5StateE @ 2454 NONAME
	_ZN13QIconEngineV24readER11QDataStream @ 2455 NONAME
	_ZN13QInputContext11filterEventEPK6QEvent @ 2456 NONAME
	_ZN13QInputContext11qt_metacallEN11QMetaObject4CallEiPPv @ 2457 NONAME
	_ZN13QInputContext11qt_metacastEPKc @ 2458 NONAME
	_ZN13QInputContext12mouseHandlerEiP11QMouseEvent @ 2459 NONAME
	_ZN13QInputContext14s60FilterEventEP7QWidgetP8TWsEvent @ 2460 NONAME ABSENT
	_ZN13QInputContext14setFocusWidgetEP7QWidget @ 2461 NONAME
	_ZN13QInputContext15widgetDestroyedEP7QWidget @ 2462 NONAME
	_ZN13QInputContext16staticMetaObjectE @ 2463 NONAME DATA 16
	_ZN13QInputContext19getStaticMetaObjectEv @ 2464 NONAME
	_ZN13QInputContext6updateEv @ 2465 NONAME
	_ZN13QInputContext7actionsEv @ 2466 NONAME
	_ZN13QInputContext9sendEventERK17QInputMethodEvent @ 2467 NONAME
	_ZN13QInputContextC2EP7QObject @ 2468 NONAME
	_ZN13QInputContextD0Ev @ 2469 NONAME
	_ZN13QInputContextD1Ev @ 2470 NONAME
	_ZN13QInputContextD2Ev @ 2471 NONAME
	_ZN13QIntValidator11qt_metacallEN11QMetaObject4CallEiPPv @ 2472 NONAME
	_ZN13QIntValidator11qt_metacastEPKc @ 2473 NONAME
	_ZN13QIntValidator16staticMetaObjectE @ 2474 NONAME DATA 16
	_ZN13QIntValidator19getStaticMetaObjectEv @ 2475 NONAME
	_ZN13QIntValidator6setTopEi @ 2476 NONAME
	_ZN13QIntValidator8setRangeEii @ 2477 NONAME
	_ZN13QIntValidator9setBottomEi @ 2478 NONAME
	_ZN13QIntValidatorC1EP7QObject @ 2479 NONAME
	_ZN13QIntValidatorC1EiiP7QObject @ 2480 NONAME
	_ZN13QIntValidatorC2EP7QObject @ 2481 NONAME
	_ZN13QIntValidatorC2EiiP7QObject @ 2482 NONAME
	_ZN13QIntValidatorD0Ev @ 2483 NONAME
	_ZN13QIntValidatorD1Ev @ 2484 NONAME
	_ZN13QIntValidatorD2Ev @ 2485 NONAME
	_ZN13QItemDelegate11editorEventEP6QEventP18QAbstractItemModelRK20QStyleOptionViewItemRK11QModelIndex @ 2486 NONAME
	_ZN13QItemDelegate11eventFilterEP7QObjectP6QEvent @ 2487 NONAME
	_ZN13QItemDelegate11qt_metacallEN11QMetaObject4CallEiPPv @ 2488 NONAME
	_ZN13QItemDelegate11qt_metacastEPKc @ 2489 NONAME
	_ZN13QItemDelegate11setClippingEb @ 2490 NONAME
	_ZN13QItemDelegate16staticMetaObjectE @ 2491 NONAME DATA 16
	_ZN13QItemDelegate19getStaticMetaObjectEv @ 2492 NONAME
	_ZN13QItemDelegate20setItemEditorFactoryEP18QItemEditorFactory @ 2493 NONAME
	_ZN13QItemDelegateC1EP7QObject @ 2494 NONAME
	_ZN13QItemDelegateC2EP7QObject @ 2495 NONAME
	_ZN13QItemDelegateD0Ev @ 2496 NONAME
	_ZN13QItemDelegateD1Ev @ 2497 NONAME
	_ZN13QItemDelegateD2Ev @ 2498 NONAME
	_ZN13QMdiSubWindow10childEventEP11QChildEvent @ 2499 NONAME
	_ZN13QMdiSubWindow10closeEventEP11QCloseEvent @ 2500 NONAME
	_ZN13QMdiSubWindow10leaveEventEP6QEvent @ 2501 NONAME
	_ZN13QMdiSubWindow10paintEventEP11QPaintEvent @ 2502 NONAME
	_ZN13QMdiSubWindow10showShadedEv @ 2503 NONAME
	_ZN13QMdiSubWindow10timerEventEP11QTimerEvent @ 2504 NONAME
	_ZN13QMdiSubWindow11changeEventEP6QEvent @ 2505 NONAME
	_ZN13QMdiSubWindow11eventFilterEP7QObjectP6QEvent @ 2506 NONAME
	_ZN13QMdiSubWindow11qt_metacallEN11QMetaObject4CallEiPPv @ 2507 NONAME
	_ZN13QMdiSubWindow11qt_metacastEPKc @ 2508 NONAME
	_ZN13QMdiSubWindow11resizeEventEP12QResizeEvent @ 2509 NONAME
	_ZN13QMdiSubWindow12focusInEventEP11QFocusEvent @ 2510 NONAME
	_ZN13QMdiSubWindow13focusOutEventEP11QFocusEvent @ 2511 NONAME
	_ZN13QMdiSubWindow13keyPressEventEP9QKeyEvent @ 2512 NONAME
	_ZN13QMdiSubWindow13setSystemMenuEP5QMenu @ 2513 NONAME
	_ZN13QMdiSubWindow14mouseMoveEventEP11QMouseEvent @ 2514 NONAME
	_ZN13QMdiSubWindow14showSystemMenuEv @ 2515 NONAME
	_ZN13QMdiSubWindow15aboutToActivateEv @ 2516 NONAME
	_ZN13QMdiSubWindow15mousePressEventEP11QMouseEvent @ 2517 NONAME
	_ZN13QMdiSubWindow16contextMenuEventEP17QContextMenuEvent @ 2518 NONAME
	_ZN13QMdiSubWindow16staticMetaObjectE @ 2519 NONAME DATA 16
	_ZN13QMdiSubWindow17mouseReleaseEventEP11QMouseEvent @ 2520 NONAME
	_ZN13QMdiSubWindow18windowStateChangedE6QFlagsIN2Qt11WindowStateEES3_ @ 2521 NONAME
	_ZN13QMdiSubWindow19getStaticMetaObjectEv @ 2522 NONAME
	_ZN13QMdiSubWindow19setKeyboardPageStepEi @ 2523 NONAME
	_ZN13QMdiSubWindow21mouseDoubleClickEventEP11QMouseEvent @ 2524 NONAME
	_ZN13QMdiSubWindow21setKeyboardSingleStepEi @ 2525 NONAME
	_ZN13QMdiSubWindow5eventEP6QEvent @ 2526 NONAME
	_ZN13QMdiSubWindow9hideEventEP10QHideEvent @ 2527 NONAME
	_ZN13QMdiSubWindow9moveEventEP10QMoveEvent @ 2528 NONAME
	_ZN13QMdiSubWindow9setOptionENS_15SubWindowOptionEb @ 2529 NONAME
	_ZN13QMdiSubWindow9setWidgetEP7QWidget @ 2530 NONAME
	_ZN13QMdiSubWindow9showEventEP10QShowEvent @ 2531 NONAME
	_ZN13QMdiSubWindowC1EP7QWidget6QFlagsIN2Qt10WindowTypeEE @ 2532 NONAME
	_ZN13QMdiSubWindowC2EP7QWidget6QFlagsIN2Qt10WindowTypeEE @ 2533 NONAME
	_ZN13QMdiSubWindowD0Ev @ 2534 NONAME
	_ZN13QMdiSubWindowD1Ev @ 2535 NONAME
	_ZN13QMdiSubWindowD2Ev @ 2536 NONAME
	_ZN13QPainterState4initEP8QPainter @ 2537 NONAME
	_ZN13QPainterStateC1EPKS_ @ 2538 NONAME
	_ZN13QPainterStateC1Ev @ 2539 NONAME
	_ZN13QPainterStateC2EPKS_ @ 2540 NONAME
	_ZN13QPainterStateC2Ev @ 2541 NONAME
	_ZN13QPainterStateD0Ev @ 2542 NONAME
	_ZN13QPainterStateD1Ev @ 2543 NONAME
	_ZN13QPainterStateD2Ev @ 2544 NONAME
	_ZN13QPinchGesture11qt_metacallEN11QMetaObject4CallEiPPv @ 2545 NONAME
	_ZN13QPinchGesture11qt_metacastEPKc @ 2546 NONAME
	_ZN13QPinchGesture14setCenterPointERK7QPointF @ 2547 NONAME
	_ZN13QPinchGesture14setScaleFactorEf @ 2548 NONAME
	_ZN13QPinchGesture14setWhatChangedE6QFlagsINS_10WhatChangeEE @ 2549 NONAME ABSENT
	_ZN13QPinchGesture16setRotationAngleEf @ 2550 NONAME
	_ZN13QPinchGesture16staticMetaObjectE @ 2551 NONAME DATA 16
	_ZN13QPinchGesture18setLastCenterPointERK7QPointF @ 2552 NONAME
	_ZN13QPinchGesture18setLastScaleFactorEf @ 2553 NONAME
	_ZN13QPinchGesture19getStaticMetaObjectEv @ 2554 NONAME
	_ZN13QPinchGesture19setStartCenterPointERK7QPointF @ 2555 NONAME
	_ZN13QPinchGesture19setTotalScaleFactorEf @ 2556 NONAME
	_ZN13QPinchGesture20setLastRotationAngleEf @ 2557 NONAME
	_ZN13QPinchGesture21setTotalRotationAngleEf @ 2558 NONAME
	_ZN13QPinchGestureC1EP7QObject @ 2559 NONAME
	_ZN13QPinchGestureC2EP7QObject @ 2560 NONAME
	_ZN13QPixmapFilter11qt_metacallEN11QMetaObject4CallEiPPv @ 2561 NONAME
	_ZN13QPixmapFilter11qt_metacastEPKc @ 2562 NONAME
	_ZN13QPixmapFilter16staticMetaObjectE @ 2563 NONAME DATA 16
	_ZN13QPixmapFilter19getStaticMetaObjectEv @ 2564 NONAME
	_ZN13QPixmapFilterC2ENS_10FilterTypeEP7QObject @ 2565 NONAME
	_ZN13QPixmapFilterC2ER20QPixmapFilterPrivateNS_10FilterTypeEP7QObject @ 2566 NONAME
	_ZN13QPixmapFilterD0Ev @ 2567 NONAME
	_ZN13QPixmapFilterD1Ev @ 2568 NONAME
	_ZN13QPixmapFilterD2Ev @ 2569 NONAME
	_ZN13QS60MainAppUi10ConstructLEv @ 2570 NONAME
	_ZN13QS60MainAppUi12RestoreMenuLEP11CCoeControliN16MEikMenuObserver9TMenuTypeE @ 2571 NONAME
	_ZN13QS60MainAppUi14HandleCommandLEi @ 2572 NONAME
	_ZN13QS60MainAppUi14HandleWsEventLERK8TWsEventP11CCoeControl @ 2573 NONAME
	_ZN13QS60MainAppUi15DynInitMenuBarLEiP11CEikMenuBar @ 2574 NONAME
	_ZN13QS60MainAppUi16DynInitMenuPaneLEiP12CEikMenuPane @ 2575 NONAME
	_ZN13QS60MainAppUi21HandleResourceChangeLEi @ 2576 NONAME
	_ZN13QS60MainAppUi26HandleStatusPaneSizeChangeEv @ 2577 NONAME
	_ZN13QS60MainAppUiC1Ev @ 2578 NONAME
	_ZN13QS60MainAppUiC2Ev @ 2579 NONAME
	_ZN13QS60MainAppUiD0Ev @ 2580 NONAME
	_ZN13QS60MainAppUiD1Ev @ 2581 NONAME
	_ZN13QS60MainAppUiD2Ev @ 2582 NONAME
	_ZN13QSplashScreen11qt_metacallEN11QMetaObject4CallEiPPv @ 2583 NONAME
	_ZN13QSplashScreen11qt_metacastEPKc @ 2584 NONAME
	_ZN13QSplashScreen11showMessageERK7QStringiRK6QColor @ 2585 NONAME
	_ZN13QSplashScreen12clearMessageEv @ 2586 NONAME
	_ZN13QSplashScreen12drawContentsEP8QPainter @ 2587 NONAME
	_ZN13QSplashScreen14messageChangedERK7QString @ 2588 NONAME
	_ZN13QSplashScreen15mousePressEventEP11QMouseEvent @ 2589 NONAME
	_ZN13QSplashScreen16staticMetaObjectE @ 2590 NONAME DATA 16
	_ZN13QSplashScreen19getStaticMetaObjectEv @ 2591 NONAME
	_ZN13QSplashScreen5eventEP6QEvent @ 2592 NONAME
	_ZN13QSplashScreen6finishEP7QWidget @ 2593 NONAME
	_ZN13QSplashScreen7repaintEv @ 2594 NONAME
	_ZN13QSplashScreen9setPixmapERK7QPixmap @ 2595 NONAME
	_ZN13QSplashScreenC1EP7QWidgetRK7QPixmap6QFlagsIN2Qt10WindowTypeEE @ 2596 NONAME
	_ZN13QSplashScreenC1ERK7QPixmap6QFlagsIN2Qt10WindowTypeEE @ 2597 NONAME
	_ZN13QSplashScreenC2EP7QWidgetRK7QPixmap6QFlagsIN2Qt10WindowTypeEE @ 2598 NONAME
	_ZN13QSplashScreenC2ERK7QPixmap6QFlagsIN2Qt10WindowTypeEE @ 2599 NONAME
	_ZN13QSplashScreenD0Ev @ 2600 NONAME
	_ZN13QSplashScreenD1Ev @ 2601 NONAME
	_ZN13QSplashScreenD2Ev @ 2602 NONAME
	_ZN13QStandardItem10insertRowsEiRK5QListIPS_E @ 2603 NONAME
	_ZN13QStandardItem10insertRowsEii @ 2604 NONAME
	_ZN13QStandardItem10removeRowsEii @ 2605 NONAME
	_ZN13QStandardItem10setEnabledEb @ 2606 NONAME
	_ZN13QStandardItem10takeColumnEi @ 2607 NONAME
	_ZN13QStandardItem11setEditableEb @ 2608 NONAME
	_ZN13QStandardItem11setRowCountEi @ 2609 NONAME
	_ZN13QStandardItem11setTristateEb @ 2610 NONAME
	_ZN13QStandardItem12insertColumnEiRK5QListIPS_E @ 2611 NONAME
	_ZN13QStandardItem12removeColumnEi @ 2612 NONAME
	_ZN13QStandardItem12setCheckableEb @ 2613 NONAME
	_ZN13QStandardItem12sortChildrenEiN2Qt9SortOrderE @ 2614 NONAME
	_ZN13QStandardItem13insertColumnsEii @ 2615 NONAME
	_ZN13QStandardItem13removeColumnsEii @ 2616 NONAME
	_ZN13QStandardItem13setSelectableEb @ 2617 NONAME
	_ZN13QStandardItem14setColumnCountEi @ 2618 NONAME
	_ZN13QStandardItem14setDragEnabledEb @ 2619 NONAME
	_ZN13QStandardItem14setDropEnabledEb @ 2620 NONAME
	_ZN13QStandardItem15emitDataChangedEv @ 2621 NONAME
	_ZN13QStandardItem4readER11QDataStream @ 2622 NONAME
	_ZN13QStandardItem7setDataERK8QVarianti @ 2623 NONAME
	_ZN13QStandardItem7takeRowEi @ 2624 NONAME
	_ZN13QStandardItem8setChildEiiPS_ @ 2625 NONAME
	_ZN13QStandardItem8setFlagsE6QFlagsIN2Qt8ItemFlagEE @ 2626 NONAME
	_ZN13QStandardItem9insertRowEiRK5QListIPS_E @ 2627 NONAME
	_ZN13QStandardItem9removeRowEi @ 2628 NONAME
	_ZN13QStandardItem9takeChildEii @ 2629 NONAME
	_ZN13QStandardItemC1ER20QStandardItemPrivate @ 2630 NONAME
	_ZN13QStandardItemC1ERK5QIconRK7QString @ 2631 NONAME
	_ZN13QStandardItemC1ERK7QString @ 2632 NONAME
	_ZN13QStandardItemC1ERKS_ @ 2633 NONAME
	_ZN13QStandardItemC1Eii @ 2634 NONAME
	_ZN13QStandardItemC1Ev @ 2635 NONAME
	_ZN13QStandardItemC2ER20QStandardItemPrivate @ 2636 NONAME
	_ZN13QStandardItemC2ERK5QIconRK7QString @ 2637 NONAME
	_ZN13QStandardItemC2ERK7QString @ 2638 NONAME
	_ZN13QStandardItemC2ERKS_ @ 2639 NONAME
	_ZN13QStandardItemC2Eii @ 2640 NONAME
	_ZN13QStandardItemC2Ev @ 2641 NONAME
	_ZN13QStandardItemD0Ev @ 2642 NONAME
	_ZN13QStandardItemD1Ev @ 2643 NONAME
	_ZN13QStandardItemD2Ev @ 2644 NONAME
	_ZN13QStandardItemaSERKS_ @ 2645 NONAME
	_ZN13QStyleFactory4keysEv @ 2646 NONAME
	_ZN13QStyleFactory6createERK7QString @ 2647 NONAME
	_ZN13QSwipeGesture11qt_metacallEN11QMetaObject4CallEiPPv @ 2648 NONAME
	_ZN13QSwipeGesture11qt_metacastEPKc @ 2649 NONAME
	_ZN13QSwipeGesture13setSwipeAngleEf @ 2650 NONAME
	_ZN13QSwipeGesture16staticMetaObjectE @ 2651 NONAME DATA 16
	_ZN13QSwipeGesture19getStaticMetaObjectEv @ 2652 NONAME
	_ZN13QSwipeGesture20setVerticalDirectionENS_14SwipeDirectionE @ 2653 NONAME ABSENT
	_ZN13QSwipeGesture22setHorizontalDirectionENS_14SwipeDirectionE @ 2654 NONAME ABSENT
	_ZN13QSwipeGestureC1EP7QObject @ 2655 NONAME
	_ZN13QSwipeGestureC2EP7QObject @ 2656 NONAME
	_ZN13QTextDocument10adjustSizeEv @ 2657 NONAME
	_ZN13QTextDocument11addResourceEiRK4QUrlRK8QVariant @ 2658 NONAME
	_ZN13QTextDocument11qt_metacallEN11QMetaObject4CallEiPPv @ 2659 NONAME
	_ZN13QTextDocument11qt_metacastEPKc @ 2660 NONAME
	_ZN13QTextDocument11setModifiedEb @ 2661 NONAME
	_ZN13QTextDocument11setPageSizeERK6QSizeF @ 2662 NONAME
	_ZN13QTextDocument12createObjectERK11QTextFormat @ 2663 NONAME
	_ZN13QTextDocument12drawContentsEP8QPainterRK6QRectF @ 2664 NONAME
	_ZN13QTextDocument12loadResourceEiRK4QUrl @ 2665 NONAME
	_ZN13QTextDocument12setPlainTextERK7QString @ 2666 NONAME
	_ZN13QTextDocument12setTextWidthEf @ 2667 NONAME
	_ZN13QTextDocument13redoAvailableEb @ 2668 NONAME
	_ZN13QTextDocument13undoAvailableEb @ 2669 NONAME
	_ZN13QTextDocument14appendUndoItemEP17QAbstractUndoItem @ 2670 NONAME
	_ZN13QTextDocument14contentsChangeEiii @ 2671 NONAME
	_ZN13QTextDocument14setDefaultFontERK5QFont @ 2672 NONAME
	_ZN13QTextDocument14setIndentWidthEf @ 2673 NONAME
	_ZN13QTextDocument15contentsChangedEv @ 2674 NONAME
	_ZN13QTextDocument16staticMetaObjectE @ 2675 NONAME DATA 16
	_ZN13QTextDocument16undoCommandAddedEv @ 2676 NONAME
	_ZN13QTextDocument17blockCountChangedEi @ 2677 NONAME
	_ZN13QTextDocument17markContentsDirtyEii @ 2678 NONAME
	_ZN13QTextDocument17setDocumentLayoutEP27QAbstractTextDocumentLayout @ 2679 NONAME
	_ZN13QTextDocument17setDocumentMarginEf @ 2680 NONAME
	_ZN13QTextDocument18setMetaInformationENS_15MetaInformationERK7QString @ 2681 NONAME
	_ZN13QTextDocument18setUndoRedoEnabledEb @ 2682 NONAME
	_ZN13QTextDocument19getStaticMetaObjectEv @ 2683 NONAME
	_ZN13QTextDocument19modificationChangedEb @ 2684 NONAME
	_ZN13QTextDocument19setUseDesignMetricsEb @ 2685 NONAME
	_ZN13QTextDocument20setDefaultStyleSheetERK7QString @ 2686 NONAME
	_ZN13QTextDocument20setDefaultTextOptionERK11QTextOption @ 2687 NONAME
	_ZN13QTextDocument20setMaximumBlockCountEi @ 2688 NONAME
	_ZN13QTextDocument21cursorPositionChangedERK11QTextCursor @ 2689 NONAME
	_ZN13QTextDocument21documentLayoutChangedEv @ 2690 NONAME
	_ZN13QTextDocument4redoEP11QTextCursor @ 2691 NONAME
	_ZN13QTextDocument4redoEv @ 2692 NONAME
	_ZN13QTextDocument4undoEP11QTextCursor @ 2693 NONAME
	_ZN13QTextDocument4undoEv @ 2694 NONAME
	_ZN13QTextDocument5clearEv @ 2695 NONAME
	_ZN13QTextDocument7setHtmlERK7QString @ 2696 NONAME
	_ZN13QTextDocumentC1EP7QObject @ 2697 NONAME
	_ZN13QTextDocumentC1ER20QTextDocumentPrivateP7QObject @ 2698 NONAME
	_ZN13QTextDocumentC1ERK7QStringP7QObject @ 2699 NONAME
	_ZN13QTextDocumentC2EP7QObject @ 2700 NONAME
	_ZN13QTextDocumentC2ER20QTextDocumentPrivateP7QObject @ 2701 NONAME
	_ZN13QTextDocumentC2ERK7QStringP7QObject @ 2702 NONAME
	_ZN13QTextDocumentD0Ev @ 2703 NONAME
	_ZN13QTextDocumentD1Ev @ 2704 NONAME
	_ZN13QTextDocumentD2Ev @ 2705 NONAME
	_ZN13QWidgetAction11eventFilterEP7QObjectP6QEvent @ 2706 NONAME
	_ZN13QWidgetAction11qt_metacallEN11QMetaObject4CallEiPPv @ 2707 NONAME
	_ZN13QWidgetAction11qt_metacastEPKc @ 2708 NONAME
	_ZN13QWidgetAction12createWidgetEP7QWidget @ 2709 NONAME
	_ZN13QWidgetAction12deleteWidgetEP7QWidget @ 2710 NONAME
	_ZN13QWidgetAction13releaseWidgetEP7QWidget @ 2711 NONAME
	_ZN13QWidgetAction13requestWidgetEP7QWidget @ 2712 NONAME
	_ZN13QWidgetAction16setDefaultWidgetEP7QWidget @ 2713 NONAME
	_ZN13QWidgetAction16staticMetaObjectE @ 2714 NONAME DATA 16
	_ZN13QWidgetAction19getStaticMetaObjectEv @ 2715 NONAME
	_ZN13QWidgetAction5eventEP6QEvent @ 2716 NONAME
	_ZN13QWidgetActionC1EP7QObject @ 2717 NONAME
	_ZN13QWidgetActionC2EP7QObject @ 2718 NONAME
	_ZN13QWidgetActionD0Ev @ 2719 NONAME
	_ZN13QWidgetActionD1Ev @ 2720 NONAME
	_ZN13QWidgetActionD2Ev @ 2721 NONAME
	_ZN13QWidgetItemV2C1EP7QWidget @ 2722 NONAME
	_ZN13QWidgetItemV2C2EP7QWidget @ 2723 NONAME
	_ZN13QWidgetItemV2D0Ev @ 2724 NONAME
	_ZN13QWidgetItemV2D1Ev @ 2725 NONAME
	_ZN13QWidgetItemV2D2Ev @ 2726 NONAME
	_ZN13QWindowsStyle10timerEventEP11QTimerEvent @ 2727 NONAME
	_ZN13QWindowsStyle11eventFilterEP7QObjectP6QEvent @ 2728 NONAME
	_ZN13QWindowsStyle11qt_metacallEN11QMetaObject4CallEiPPv @ 2729 NONAME
	_ZN13QWindowsStyle11qt_metacastEPKc @ 2730 NONAME
	_ZN13QWindowsStyle16staticMetaObjectE @ 2731 NONAME DATA 16
	_ZN13QWindowsStyle19getStaticMetaObjectEv @ 2732 NONAME
	_ZN13QWindowsStyle6polishEP12QApplication @ 2733 NONAME
	_ZN13QWindowsStyle6polishEP7QWidget @ 2734 NONAME
	_ZN13QWindowsStyle6polishER8QPalette @ 2735 NONAME
	_ZN13QWindowsStyle8unpolishEP12QApplication @ 2736 NONAME
	_ZN13QWindowsStyle8unpolishEP7QWidget @ 2737 NONAME
	_ZN13QWindowsStyleC1ER20QWindowsStylePrivate @ 2738 NONAME
	_ZN13QWindowsStyleC1Ev @ 2739 NONAME
	_ZN13QWindowsStyleC2ER20QWindowsStylePrivate @ 2740 NONAME
	_ZN13QWindowsStyleC2Ev @ 2741 NONAME
	_ZN13QWindowsStyleD0Ev @ 2742 NONAME
	_ZN13QWindowsStyleD1Ev @ 2743 NONAME
	_ZN13QWindowsStyleD2Ev @ 2744 NONAME
	_ZN14QDesktopWidget11qt_metacallEN11QMetaObject4CallEiPPv @ 2745 NONAME
	_ZN14QDesktopWidget11qt_metacastEPKc @ 2746 NONAME
	_ZN14QDesktopWidget11resizeEventEP12QResizeEvent @ 2747 NONAME
	_ZN14QDesktopWidget15workAreaResizedEi @ 2748 NONAME
	_ZN14QDesktopWidget16staticMetaObjectE @ 2749 NONAME DATA 16
	_ZN14QDesktopWidget18screenCountChangedEi @ 2750 NONAME
	_ZN14QDesktopWidget19getStaticMetaObjectEv @ 2751 NONAME
	_ZN14QDesktopWidget6screenEi @ 2752 NONAME
	_ZN14QDesktopWidget7resizedEi @ 2753 NONAME
	_ZN14QDesktopWidgetC1Ev @ 2754 NONAME
	_ZN14QDesktopWidgetC2Ev @ 2755 NONAME
	_ZN14QDesktopWidgetD0Ev @ 2756 NONAME
	_ZN14QDesktopWidgetD1Ev @ 2757 NONAME
	_ZN14QDesktopWidgetD2Ev @ 2758 NONAME
	_ZN14QDoubleSpinBox10setMaximumEd @ 2759 NONAME
	_ZN14QDoubleSpinBox10setMinimumEd @ 2760 NONAME
	_ZN14QDoubleSpinBox11qt_metacallEN11QMetaObject4CallEiPPv @ 2761 NONAME
	_ZN14QDoubleSpinBox11qt_metacastEPKc @ 2762 NONAME
	_ZN14QDoubleSpinBox11setDecimalsEi @ 2763 NONAME
	_ZN14QDoubleSpinBox12valueChangedERK7QString @ 2764 NONAME
	_ZN14QDoubleSpinBox12valueChangedEd @ 2765 NONAME
	_ZN14QDoubleSpinBox13setSingleStepEd @ 2766 NONAME
	_ZN14QDoubleSpinBox16staticMetaObjectE @ 2767 NONAME DATA 16
	_ZN14QDoubleSpinBox19getStaticMetaObjectEv @ 2768 NONAME
	_ZN14QDoubleSpinBox8setRangeEdd @ 2769 NONAME
	_ZN14QDoubleSpinBox8setValueEd @ 2770 NONAME
	_ZN14QDoubleSpinBox9setPrefixERK7QString @ 2771 NONAME
	_ZN14QDoubleSpinBox9setSuffixERK7QString @ 2772 NONAME
	_ZN14QDoubleSpinBoxC1EP7QWidget @ 2773 NONAME
	_ZN14QDoubleSpinBoxC2EP7QWidget @ 2774 NONAME
	_ZN14QDragMoveEventC1ERK6QPoint6QFlagsIN2Qt10DropActionEEPK9QMimeDataS3_INS4_11MouseButtonEES3_INS4_16KeyboardModifierEEN6QEvent4TypeE @ 2775 NONAME
	_ZN14QDragMoveEventC2ERK6QPoint6QFlagsIN2Qt10DropActionEEPK9QMimeDataS3_INS4_11MouseButtonEES3_INS4_16KeyboardModifierEEN6QEvent4TypeE @ 2776 NONAME
	_ZN14QDragMoveEventD0Ev @ 2777 NONAME
	_ZN14QDragMoveEventD1Ev @ 2778 NONAME
	_ZN14QDragMoveEventD2Ev @ 2779 NONAME
	_ZN14QFileOpenEventC1ERK7QString @ 2780 NONAME
	_ZN14QFileOpenEventC2ERK7QString @ 2781 NONAME
	_ZN14QFileOpenEventD0Ev @ 2782 NONAME
	_ZN14QFileOpenEventD1Ev @ 2783 NONAME
	_ZN14QFileOpenEventD2Ev @ 2784 NONAME
	_ZN14QGraphicsScale11qt_metacallEN11QMetaObject4CallEiPPv @ 2785 NONAME
	_ZN14QGraphicsScale11qt_metacastEPKc @ 2786 NONAME
	_ZN14QGraphicsScale12scaleChangedEv @ 2787 NONAME
	_ZN14QGraphicsScale13originChangedEv @ 2788 NONAME
	_ZN14QGraphicsScale16staticMetaObjectE @ 2789 NONAME DATA 16
	_ZN14QGraphicsScale19getStaticMetaObjectEv @ 2790 NONAME
	_ZN14QGraphicsScale9setOriginERK9QVector3D @ 2791 NONAME
	_ZN14QGraphicsScale9setXScaleEf @ 2792 NONAME
	_ZN14QGraphicsScale9setYScaleEf @ 2793 NONAME
	_ZN14QGraphicsScale9setZScaleEf @ 2794 NONAME
	_ZN14QGraphicsScaleC1EP7QObject @ 2795 NONAME
	_ZN14QGraphicsScaleC2EP7QObject @ 2796 NONAME
	_ZN14QGraphicsScaleD0Ev @ 2797 NONAME
	_ZN14QGraphicsScaleD1Ev @ 2798 NONAME
	_ZN14QGraphicsScaleD2Ev @ 2799 NONAME
	_ZN14QGraphicsScene10addEllipseERK6QRectFRK4QPenRK6QBrush @ 2800 NONAME
	_ZN14QGraphicsScene10addPolygonERK9QPolygonFRK4QPenRK6QBrush @ 2801 NONAME
	_ZN14QGraphicsScene10clearFocusEv @ 2802 NONAME
	_ZN14QGraphicsScene10invalidateERK6QRectF6QFlagsINS_10SceneLayerEE @ 2803 NONAME
	_ZN14QGraphicsScene10removeItemEP13QGraphicsItem @ 2804 NONAME
	_ZN14QGraphicsScene10setPaletteERK8QPalette @ 2805 NONAME
	_ZN14QGraphicsScene10wheelEventEP24QGraphicsSceneWheelEvent @ 2806 NONAME
	_ZN14QGraphicsScene11eventFilterEP7QObjectP6QEvent @ 2807 NONAME
	_ZN14QGraphicsScene11qt_metacallEN11QMetaObject4CallEiPPv @ 2808 NONAME
	_ZN14QGraphicsScene11qt_metacastEPKc @ 2809 NONAME
	_ZN14QGraphicsScene12focusInEventEP11QFocusEvent @ 2810 NONAME
	_ZN14QGraphicsScene12setFocusItemEP13QGraphicsItemN2Qt11FocusReasonE @ 2811 NONAME
	_ZN14QGraphicsScene12setSceneRectERK6QRectF @ 2812 NONAME
	_ZN14QGraphicsScene13addSimpleTextERK7QStringRK5QFont @ 2813 NONAME
	_ZN14QGraphicsScene13dragMoveEventEP27QGraphicsSceneDragDropEvent @ 2814 NONAME
	_ZN14QGraphicsScene13focusOutEventEP11QFocusEvent @ 2815 NONAME
	_ZN14QGraphicsScene13keyPressEventEP9QKeyEvent @ 2816 NONAME
	_ZN14QGraphicsScene14clearSelectionEv @ 2817 NONAME
	_ZN14QGraphicsScene14dragEnterEventEP27QGraphicsSceneDragDropEvent @ 2818 NONAME
	_ZN14QGraphicsScene14dragLeaveEventEP27QGraphicsSceneDragDropEvent @ 2819 NONAME
	_ZN14QGraphicsScene14drawBackgroundEP8QPainterRK6QRectF @ 2820 NONAME
	_ZN14QGraphicsScene14drawForegroundEP8QPainterRK6QRectF @ 2821 NONAME
	_ZN14QGraphicsScene14mouseMoveEventEP24QGraphicsSceneMouseEvent @ 2822 NONAME
	_ZN14QGraphicsScene14setActivePanelEP13QGraphicsItem @ 2823 NONAME
	_ZN14QGraphicsScene14setStickyFocusEb @ 2824 NONAME
	_ZN14QGraphicsScene15createItemGroupERK5QListIP13QGraphicsItemE @ 2825 NONAME
	_ZN14QGraphicsScene15keyReleaseEventEP9QKeyEvent @ 2826 NONAME
	_ZN14QGraphicsScene15mousePressEventEP24QGraphicsSceneMouseEvent @ 2827 NONAME
	_ZN14QGraphicsScene15setActiveWindowEP15QGraphicsWidget @ 2828 NONAME
	_ZN14QGraphicsScene15setBspTreeDepthEi @ 2829 NONAME
	_ZN14QGraphicsScene16contextMenuEventEP30QGraphicsSceneContextMenuEvent @ 2830 NONAME
	_ZN14QGraphicsScene16destroyItemGroupEP18QGraphicsItemGroup @ 2831 NONAME
	_ZN14QGraphicsScene16inputMethodEventEP17QInputMethodEvent @ 2832 NONAME
	_ZN14QGraphicsScene16sceneRectChangedERK6QRectF @ 2833 NONAME
	_ZN14QGraphicsScene16selectionChangedEv @ 2834 NONAME
	_ZN14QGraphicsScene16setSelectionAreaERK12QPainterPath @ 2835 NONAME
	_ZN14QGraphicsScene16setSelectionAreaERK12QPainterPathN2Qt17ItemSelectionModeE @ 2836 NONAME
	_ZN14QGraphicsScene16setSelectionAreaERK12QPainterPathN2Qt17ItemSelectionModeERK10QTransform @ 2837 NONAME
	_ZN14QGraphicsScene16setSelectionAreaERK12QPainterPathRK10QTransform @ 2838 NONAME
	_ZN14QGraphicsScene16staticMetaObjectE @ 2839 NONAME DATA 16
	_ZN14QGraphicsScene17mouseReleaseEventEP24QGraphicsSceneMouseEvent @ 2840 NONAME
	_ZN14QGraphicsScene18focusNextPrevChildEb @ 2841 NONAME
	_ZN14QGraphicsScene18setBackgroundBrushERK6QBrush @ 2842 NONAME
	_ZN14QGraphicsScene18setForegroundBrushERK6QBrush @ 2843 NONAME
	_ZN14QGraphicsScene18setItemIndexMethodENS_15ItemIndexMethodE @ 2844 NONAME
	_ZN14QGraphicsScene19getStaticMetaObjectEv @ 2845 NONAME
	_ZN14QGraphicsScene19setSortCacheEnabledEb @ 2846 NONAME
	_ZN14QGraphicsScene21mouseDoubleClickEventEP24QGraphicsSceneMouseEvent @ 2847 NONAME
	_ZN14QGraphicsScene5clearEv @ 2848 NONAME
	_ZN14QGraphicsScene5eventEP6QEvent @ 2849 NONAME
	_ZN14QGraphicsScene6renderEP8QPainterRK6QRectFS4_N2Qt15AspectRatioModeE @ 2850 NONAME
	_ZN14QGraphicsScene6updateERK6QRectF @ 2851 NONAME
	_ZN14QGraphicsScene7addItemEP13QGraphicsItem @ 2852 NONAME
	_ZN14QGraphicsScene7addLineERK6QLineFRK4QPen @ 2853 NONAME
	_ZN14QGraphicsScene7addPathERK12QPainterPathRK4QPenRK6QBrush @ 2854 NONAME
	_ZN14QGraphicsScene7addRectERK6QRectFRK4QPenRK6QBrush @ 2855 NONAME
	_ZN14QGraphicsScene7addTextERK7QStringRK5QFont @ 2856 NONAME
	_ZN14QGraphicsScene7advanceEv @ 2857 NONAME
	_ZN14QGraphicsScene7changedERK5QListI6QRectFE @ 2858 NONAME
	_ZN14QGraphicsScene7setFontERK5QFont @ 2859 NONAME
	_ZN14QGraphicsScene8setFocusEN2Qt11FocusReasonE @ 2860 NONAME
	_ZN14QGraphicsScene8setStyleEP6QStyle @ 2861 NONAME
	_ZN14QGraphicsScene9addPixmapERK7QPixmap @ 2862 NONAME
	_ZN14QGraphicsScene9addWidgetEP7QWidget6QFlagsIN2Qt10WindowTypeEE @ 2863 NONAME
	_ZN14QGraphicsScene9drawItemsEP8QPainteriPP13QGraphicsItemPK24QStyleOptionGraphicsItemP7QWidget @ 2864 NONAME
	_ZN14QGraphicsScene9dropEventEP27QGraphicsSceneDragDropEvent @ 2865 NONAME
	_ZN14QGraphicsScene9helpEventEP23QGraphicsSceneHelpEvent @ 2866 NONAME
	_ZN14QGraphicsScene9sendEventEP13QGraphicsItemP6QEvent @ 2867 NONAME
	_ZN14QGraphicsSceneC1EP7QObject @ 2868 NONAME
	_ZN14QGraphicsSceneC1ERK6QRectFP7QObject @ 2869 NONAME
	_ZN14QGraphicsSceneC1EffffP7QObject @ 2870 NONAME
	_ZN14QGraphicsSceneC2EP7QObject @ 2871 NONAME
	_ZN14QGraphicsSceneC2ERK6QRectFP7QObject @ 2872 NONAME
	_ZN14QGraphicsSceneC2EffffP7QObject @ 2873 NONAME
	_ZN14QGraphicsSceneD0Ev @ 2874 NONAME
	_ZN14QGraphicsSceneD1Ev @ 2875 NONAME
	_ZN14QGraphicsSceneD2Ev @ 2876 NONAME
	_ZN14QIconDragEventC1Ev @ 2877 NONAME
	_ZN14QIconDragEventC2Ev @ 2878 NONAME
	_ZN14QIconDragEventD0Ev @ 2879 NONAME
	_ZN14QIconDragEventD1Ev @ 2880 NONAME
	_ZN14QIconDragEventD2Ev @ 2881 NONAME
	_ZN14QImageIOPlugin11qt_metacallEN11QMetaObject4CallEiPPv @ 2882 NONAME
	_ZN14QImageIOPlugin11qt_metacastEPKc @ 2883 NONAME
	_ZN14QImageIOPlugin16staticMetaObjectE @ 2884 NONAME DATA 16
	_ZN14QImageIOPlugin19getStaticMetaObjectEv @ 2885 NONAME
	_ZN14QImageIOPluginC2EP7QObject @ 2886 NONAME
	_ZN14QImageIOPluginD0Ev @ 2887 NONAME
	_ZN14QImageIOPluginD1Ev @ 2888 NONAME
	_ZN14QImageIOPluginD2Ev @ 2889 NONAME
	_ZN14QItemSelection5mergeERKS_6QFlagsIN19QItemSelectionModel13SelectionFlagEE @ 2890 NONAME
	_ZN14QItemSelection5splitERK19QItemSelectionRangeS2_PS_ @ 2891 NONAME
	_ZN14QItemSelection6selectERK11QModelIndexS2_ @ 2892 NONAME
	_ZN14QItemSelectionC1ERK11QModelIndexS2_ @ 2893 NONAME
	_ZN14QItemSelectionC2ERK11QModelIndexS2_ @ 2894 NONAME
	_ZN14QLayoutPrivate16createSpacerItemEPK7QLayoutiiN11QSizePolicy6PolicyES4_ @ 2895 NONAME
	_ZN14QLayoutPrivate16createWidgetItemEPK7QLayoutP7QWidget @ 2896 NONAME
	_ZN14QLayoutPrivate20reparentChildWidgetsEP7QWidget @ 2897 NONAME
	_ZN14QLayoutPrivate23spacerItemFactoryMethodE @ 2898 NONAME DATA 4
	_ZN14QLayoutPrivate23widgetItemFactoryMethodE @ 2899 NONAME DATA 4
	_ZN14QLayoutPrivate8doResizeERK5QSize @ 2900 NONAME
	_ZN14QLayoutPrivateC1Ev @ 2901 NONAME
	_ZN14QLayoutPrivateC2Ev @ 2902 NONAME
	_ZN14QPaintEngineEx10drawPixmapERK7QPointFRK7QPixmap @ 2903 NONAME
	_ZN14QPaintEngineEx10drawPointsEPK6QPointi @ 2904 NONAME
	_ZN14QPaintEngineEx10drawPointsEPK7QPointFi @ 2905 NONAME
	_ZN14QPaintEngineEx11drawEllipseERK5QRect @ 2906 NONAME
	_ZN14QPaintEngineEx11drawEllipseERK6QRectF @ 2907 NONAME
	_ZN14QPaintEngineEx11drawPixmapsEPKN12QDrawPixmaps4DataEiRK7QPixmap6QFlagsINS0_11DrawingHintEE @ 2908 NONAME ABSENT
	_ZN14QPaintEngineEx11drawPolygonEPK6QPointiN12QPaintEngine15PolygonDrawModeE @ 2909 NONAME
	_ZN14QPaintEngineEx11drawPolygonEPK7QPointFiN12QPaintEngine15PolygonDrawModeE @ 2910 NONAME
	_ZN14QPaintEngineEx11updateStateERK17QPaintEngineState @ 2911 NONAME
	_ZN14QPaintEngineEx15drawRoundedRectERK6QRectFffN2Qt8SizeModeE @ 2912 NONAME
	_ZN14QPaintEngineEx15drawTiledPixmapERK6QRectFRK7QPixmapRK7QPointF @ 2913 NONAME
	_ZN14QPaintEngineEx4clipERK12QPainterPathN2Qt13ClipOperationE @ 2914 NONAME
	_ZN14QPaintEngineEx4clipERK5QRectN2Qt13ClipOperationE @ 2915 NONAME
	_ZN14QPaintEngineEx4clipERK7QRegionN2Qt13ClipOperationE @ 2916 NONAME
	_ZN14QPaintEngineEx4drawERK11QVectorPath @ 2917 NONAME
	_ZN14QPaintEngineEx6strokeERK11QVectorPathRK4QPen @ 2918 NONAME
	_ZN14QPaintEngineEx8drawPathERK12QPainterPath @ 2919 NONAME
	_ZN14QPaintEngineEx8fillRectERK6QRectFRK6QBrush @ 2920 NONAME
	_ZN14QPaintEngineEx8fillRectERK6QRectFRK6QColor @ 2921 NONAME
	_ZN14QPaintEngineEx8setStateEP13QPainterState @ 2922 NONAME
	_ZN14QPaintEngineEx9drawImageERK7QPointFRK6QImage @ 2923 NONAME
	_ZN14QPaintEngineEx9drawLinesEPK5QLinei @ 2924 NONAME
	_ZN14QPaintEngineEx9drawLinesEPK6QLineFi @ 2925 NONAME
	_ZN14QPaintEngineEx9drawRectsEPK5QRecti @ 2926 NONAME
	_ZN14QPaintEngineEx9drawRectsEPK6QRectFi @ 2927 NONAME
	_ZN14QPaintEngineExC2ER21QPaintEngineExPrivate @ 2928 NONAME
	_ZN14QPaintEngineExC2Ev @ 2929 NONAME
	_ZN14QPlainTextEdit10appendHtmlERK7QString @ 2930 NONAME
	_ZN14QPlainTextEdit10moveCursorEN11QTextCursor13MoveOperationENS0_8MoveModeE @ 2931 NONAME
	_ZN14QPlainTextEdit10paintEventEP11QPaintEvent @ 2932 NONAME
	_ZN14QPlainTextEdit10timerEventEP11QTimerEvent @ 2933 NONAME
	_ZN14QPlainTextEdit10wheelEventEP11QWheelEvent @ 2934 NONAME
	_ZN14QPlainTextEdit11changeEventEP6QEvent @ 2935 NONAME
	_ZN14QPlainTextEdit11qt_metacallEN11QMetaObject4CallEiPPv @ 2936 NONAME
	_ZN14QPlainTextEdit11qt_metacastEPKc @ 2937 NONAME
	_ZN14QPlainTextEdit11resizeEventEP12QResizeEvent @ 2938 NONAME
	_ZN14QPlainTextEdit11setDocumentEP13QTextDocument @ 2939 NONAME
	_ZN14QPlainTextEdit11setReadOnlyEb @ 2940 NONAME
	_ZN14QPlainTextEdit11textChangedEv @ 2941 NONAME
	_ZN14QPlainTextEdit12centerCursorEv @ 2942 NONAME
	_ZN14QPlainTextEdit12focusInEventEP11QFocusEvent @ 2943 NONAME
	_ZN14QPlainTextEdit12loadResourceEiRK4QUrl @ 2944 NONAME
	_ZN14QPlainTextEdit12setPlainTextERK7QString @ 2945 NONAME
	_ZN14QPlainTextEdit13copyAvailableEb @ 2946 NONAME
	_ZN14QPlainTextEdit13dragMoveEventEP14QDragMoveEvent @ 2947 NONAME
	_ZN14QPlainTextEdit13focusOutEventEP11QFocusEvent @ 2948 NONAME
	_ZN14QPlainTextEdit13keyPressEventEP9QKeyEvent @ 2949 NONAME
	_ZN14QPlainTextEdit13redoAvailableEb @ 2950 NONAME
	_ZN14QPlainTextEdit13setTextCursorERK11QTextCursor @ 2951 NONAME
	_ZN14QPlainTextEdit13undoAvailableEb @ 2952 NONAME
	_ZN14QPlainTextEdit13updateRequestERK5QRecti @ 2953 NONAME
	_ZN14QPlainTextEdit14dragEnterEventEP15QDragEnterEvent @ 2954 NONAME
	_ZN14QPlainTextEdit14dragLeaveEventEP15QDragLeaveEvent @ 2955 NONAME
	_ZN14QPlainTextEdit14mouseMoveEventEP11QMouseEvent @ 2956 NONAME
	_ZN14QPlainTextEdit14setCursorWidthEi @ 2957 NONAME
	_ZN14QPlainTextEdit15appendPlainTextERK7QString @ 2958 NONAME
	_ZN14QPlainTextEdit15insertPlainTextERK7QString @ 2959 NONAME
	_ZN14QPlainTextEdit15keyReleaseEventEP9QKeyEvent @ 2960 NONAME
	_ZN14QPlainTextEdit15mousePressEventEP11QMouseEvent @ 2961 NONAME
	_ZN14QPlainTextEdit15setLineWrapModeENS_12LineWrapModeE @ 2962 NONAME
	_ZN14QPlainTextEdit15setTabStopWidthEi @ 2963 NONAME
	_ZN14QPlainTextEdit15setWordWrapModeEN11QTextOption8WrapModeE @ 2964 NONAME
	_ZN14QPlainTextEdit16contextMenuEventEP17QContextMenuEvent @ 2965 NONAME
	_ZN14QPlainTextEdit16inputMethodEventEP17QInputMethodEvent @ 2966 NONAME
	_ZN14QPlainTextEdit16scrollContentsByEii @ 2967 NONAME
	_ZN14QPlainTextEdit16selectionChangedEv @ 2968 NONAME
	_ZN14QPlainTextEdit16setOverwriteModeEb @ 2969 NONAME
	_ZN14QPlainTextEdit16staticMetaObjectE @ 2970 NONAME DATA 16
	_ZN14QPlainTextEdit17blockCountChangedEi @ 2971 NONAME
	_ZN14QPlainTextEdit17mouseReleaseEventEP11QMouseEvent @ 2972 NONAME
	_ZN14QPlainTextEdit17setCenterOnScrollEb @ 2973 NONAME
	_ZN14QPlainTextEdit18focusNextPrevChildEb @ 2974 NONAME
	_ZN14QPlainTextEdit18insertFromMimeDataEPK9QMimeData @ 2975 NONAME
	_ZN14QPlainTextEdit18setExtraSelectionsERK5QListIN9QTextEdit14ExtraSelectionEE @ 2976 NONAME
	_ZN14QPlainTextEdit18setTabChangesFocusEb @ 2977 NONAME
	_ZN14QPlainTextEdit19ensureCursorVisibleEv @ 2978 NONAME
	_ZN14QPlainTextEdit19getStaticMetaObjectEv @ 2979 NONAME
	_ZN14QPlainTextEdit19modificationChangedEb @ 2980 NONAME
	_ZN14QPlainTextEdit20setBackgroundVisibleEb @ 2981 NONAME
	_ZN14QPlainTextEdit20setCurrentCharFormatERK15QTextCharFormat @ 2982 NONAME
	_ZN14QPlainTextEdit21cursorPositionChangedEv @ 2983 NONAME
	_ZN14QPlainTextEdit21mouseDoubleClickEventEP11QMouseEvent @ 2984 NONAME
	_ZN14QPlainTextEdit22mergeCurrentCharFormatERK15QTextCharFormat @ 2985 NONAME
	_ZN14QPlainTextEdit23setTextInteractionFlagsE6QFlagsIN2Qt19TextInteractionFlagEE @ 2986 NONAME
	_ZN14QPlainTextEdit25createStandardContextMenuEv @ 2987 NONAME
	_ZN14QPlainTextEdit3cutEv @ 2988 NONAME
	_ZN14QPlainTextEdit4copyEv @ 2989 NONAME
	_ZN14QPlainTextEdit4findERK7QString6QFlagsIN13QTextDocument8FindFlagEE @ 2990 NONAME
	_ZN14QPlainTextEdit4redoEv @ 2991 NONAME
	_ZN14QPlainTextEdit4undoEv @ 2992 NONAME
	_ZN14QPlainTextEdit5clearEv @ 2993 NONAME
	_ZN14QPlainTextEdit5eventEP6QEvent @ 2994 NONAME
	_ZN14QPlainTextEdit5pasteEv @ 2995 NONAME
	_ZN14QPlainTextEdit9dropEventEP10QDropEvent @ 2996 NONAME
	_ZN14QPlainTextEdit9selectAllEv @ 2997 NONAME
	_ZN14QPlainTextEdit9showEventEP10QShowEvent @ 2998 NONAME
	_ZN14QPlainTextEditC1EP7QWidget @ 2999 NONAME
	_ZN14QPlainTextEditC1ER21QPlainTextEditPrivateP7QWidget @ 3000 NONAME
	_ZN14QPlainTextEditC1ERK7QStringP7QWidget @ 3001 NONAME
	_ZN14QPlainTextEditC2EP7QWidget @ 3002 NONAME
	_ZN14QPlainTextEditC2ER21QPlainTextEditPrivateP7QWidget @ 3003 NONAME
	_ZN14QPlainTextEditC2ERK7QStringP7QWidget @ 3004 NONAME
	_ZN14QPlainTextEditD0Ev @ 3005 NONAME
	_ZN14QPlainTextEditD1Ev @ 3006 NONAME
	_ZN14QPlainTextEditD2Ev @ 3007 NONAME
	_ZN14QShortcutEventC1ERK12QKeySequenceib @ 3008 NONAME
	_ZN14QShortcutEventC2ERK12QKeySequenceib @ 3009 NONAME
	_ZN14QShortcutEventD0Ev @ 3010 NONAME
	_ZN14QShortcutEventD1Ev @ 3011 NONAME
	_ZN14QShortcutEventD2Ev @ 3012 NONAME
	_ZN14QStackedLayout11qt_metacallEN11QMetaObject4CallEiPPv @ 3013 NONAME
	_ZN14QStackedLayout11qt_metacastEPKc @ 3014 NONAME
	_ZN14QStackedLayout11setGeometryERK5QRect @ 3015 NONAME
	_ZN14QStackedLayout12insertWidgetEiP7QWidget @ 3016 NONAME
	_ZN14QStackedLayout13widgetRemovedEi @ 3017 NONAME
	_ZN14QStackedLayout14currentChangedEi @ 3018 NONAME
	_ZN14QStackedLayout15setCurrentIndexEi @ 3019 NONAME
	_ZN14QStackedLayout15setStackingModeENS_12StackingModeE @ 3020 NONAME
	_ZN14QStackedLayout16setCurrentWidgetEP7QWidget @ 3021 NONAME
	_ZN14QStackedLayout16staticMetaObjectE @ 3022 NONAME DATA 16
	_ZN14QStackedLayout19getStaticMetaObjectEv @ 3023 NONAME
	_ZN14QStackedLayout6takeAtEi @ 3024 NONAME
	_ZN14QStackedLayout7addItemEP11QLayoutItem @ 3025 NONAME
	_ZN14QStackedLayout9addWidgetEP7QWidget @ 3026 NONAME
	_ZN14QStackedLayoutC1EP7QLayout @ 3027 NONAME
	_ZN14QStackedLayoutC1EP7QWidget @ 3028 NONAME
	_ZN14QStackedLayoutC1Ev @ 3029 NONAME
	_ZN14QStackedLayoutC2EP7QLayout @ 3030 NONAME
	_ZN14QStackedLayoutC2EP7QWidget @ 3031 NONAME
	_ZN14QStackedLayoutC2Ev @ 3032 NONAME
	_ZN14QStackedLayoutD0Ev @ 3033 NONAME
	_ZN14QStackedLayoutD1Ev @ 3034 NONAME
	_ZN14QStackedLayoutD2Ev @ 3035 NONAME
	_ZN14QStackedWidget11qt_metacallEN11QMetaObject4CallEiPPv @ 3036 NONAME
	_ZN14QStackedWidget11qt_metacastEPKc @ 3037 NONAME
	_ZN14QStackedWidget12insertWidgetEiP7QWidget @ 3038 NONAME
	_ZN14QStackedWidget12removeWidgetEP7QWidget @ 3039 NONAME
	_ZN14QStackedWidget13widgetRemovedEi @ 3040 NONAME
	_ZN14QStackedWidget14currentChangedEi @ 3041 NONAME
	_ZN14QStackedWidget15setCurrentIndexEi @ 3042 NONAME
	_ZN14QStackedWidget16setCurrentWidgetEP7QWidget @ 3043 NONAME
	_ZN14QStackedWidget16staticMetaObjectE @ 3044 NONAME DATA 16
	_ZN14QStackedWidget19getStaticMetaObjectEv @ 3045 NONAME
	_ZN14QStackedWidget5eventEP6QEvent @ 3046 NONAME
	_ZN14QStackedWidget9addWidgetEP7QWidget @ 3047 NONAME
	_ZN14QStackedWidgetC1EP7QWidget @ 3048 NONAME
	_ZN14QStackedWidgetC2EP7QWidget @ 3049 NONAME
	_ZN14QStackedWidgetD0Ev @ 3050 NONAME
	_ZN14QStackedWidgetD1Ev @ 3051 NONAME
	_ZN14QStackedWidgetD2Ev @ 3052 NONAME
	_ZN14QTextTableCell9setFormatERK15QTextCharFormat @ 3053 NONAME
	_ZN14QWidgetPrivate10allWidgetsE @ 3054 NONAME DATA 4
	_ZN14QWidgetPrivate10create_sysEP11CCoeControlbb @ 3055 NONAME
	_ZN14QWidgetPrivate10drawWidgetEP12QPaintDeviceRK7QRegionRK6QPointiP8QPainterP19QWidgetBackingStore @ 3056 NONAME
	_ZN14QWidgetPrivate10scrollRectERK5QRectii @ 3057 NONAME
	_ZN14QWidgetPrivate10scroll_sysEii @ 3058 NONAME
	_ZN14QWidgetPrivate10scroll_sysEiiRK5QRect @ 3059 NONAME
	_ZN14QWidgetPrivate10updateFontERK5QFont @ 3060 NONAME
	_ZN14QWidgetPrivate11adjustFlagsER6QFlagsIN2Qt10WindowTypeEEP7QWidget @ 3061 NONAME
	_ZN14QWidgetPrivate11createExtraEv @ 3062 NONAME
	_ZN14QWidgetPrivate11createWinIdEP11CCoeControl @ 3063 NONAME
	_ZN14QWidgetPrivate11deleteExtraEv @ 3064 NONAME
	_ZN14QWidgetPrivate11hide_helperEv @ 3065 NONAME
	_ZN14QWidgetPrivate11pointToRectERK6QPointRK5QRect @ 3066 NONAME
	_ZN14QWidgetPrivate11repaint_sysERK7QRegion @ 3067 NONAME
	_ZN14QWidgetPrivate11resolveFontEv @ 3068 NONAME
	_ZN14QWidgetPrivate11setMask_sysERK7QRegion @ 3069 NONAME
	_ZN14QWidgetPrivate11show_helperEv @ 3070 NONAME
	_ZN14QWidgetPrivate12close_helperENS_9CloseModeE @ 3071 NONAME
	_ZN14QWidgetPrivate12hideChildrenEb @ 3072 NONAME
	_ZN14QWidgetPrivate12inheritStyleEv @ 3073 NONAME
	_ZN14QWidgetPrivate12maxInstancesE @ 3074 NONAME DATA 4
	_ZN14QWidgetPrivate12mouseGrabberE @ 3075 NONAME DATA 4
	_ZN14QWidgetPrivate12setFocus_sysEv @ 3076 NONAME
	_ZN14QWidgetPrivate12setModal_sysEv @ 3077 NONAME
	_ZN14QWidgetPrivate12showChildrenEb @ 3078 NONAME
	_ZN14QWidgetPrivate13createTLExtraEv @ 3079 NONAME
	_ZN14QWidgetPrivate13editingWidgetE @ 3080 NONAME DATA 4
	_ZN14QWidgetPrivate13render_helperEP8QPainterRK6QPointRK7QRegion6QFlagsIN7QWidget10RenderFlagEE @ 3081 NONAME
	_ZN14QWidgetPrivate13resolveLocaleEv @ 3082 NONAME
	_ZN14QWidgetPrivate13setCursor_sysERK7QCursor @ 3083 NONAME
	_ZN14QWidgetPrivate13setParent_sysEP7QWidget6QFlagsIN2Qt10WindowTypeEE @ 3084 NONAME
	_ZN14QWidgetPrivate13setWSGeometryEbRK5QRect @ 3085 NONAME
	_ZN14QWidgetPrivate14createSysExtraEv @ 3086 NONAME
	_ZN14QWidgetPrivate14deleteSysExtraEv @ 3087 NONAME
	_ZN14QWidgetPrivate14resolvePaletteEv @ 3088 NONAME
	_ZN14QWidgetPrivate14scrollChildrenEii @ 3089 NONAME
	_ZN14QWidgetPrivate14show_recursiveEv @ 3090 NONAME
	_ZN14QWidgetPrivate14stackUnder_sysEP7QWidget @ 3091 NONAME
	_ZN14QWidgetPrivate14updateIsOpaqueEv @ 3092 NONAME
	_ZN14QWidgetPrivate15instanceCounterE @ 3093 NONAME DATA 4
	_ZN14QWidgetPrivate15keyboardGrabberE @ 3094 NONAME DATA 4
	_ZN14QWidgetPrivate15prepareToRenderERK7QRegion6QFlagsIN7QWidget10RenderFlagEE @ 3095 NONAME
	_ZN14QWidgetPrivate15setGeometry_sysEiiiib @ 3096 NONAME
	_ZN14QWidgetPrivate15setStyle_helperEP6QStylebb @ 3097 NONAME
	_ZN14QWidgetPrivate15unsetCursor_sysEv @ 3098 NONAME
	_ZN14QWidgetPrivate16createTLSysExtraEv @ 3099 NONAME
	_ZN14QWidgetPrivate16deleteTLSysExtraEv @ 3100 NONAME
	_ZN14QWidgetPrivate16invalidateBufferERK5QRect @ 3101 NONAME
	_ZN14QWidgetPrivate16invalidateBufferERK7QRegion @ 3102 NONAME
	_ZN14QWidgetPrivate16registerDropSiteEb @ 3103 NONAME
	_ZN14QWidgetPrivate16reparentChildrenEv @ 3104 NONAME
	_ZN14QWidgetPrivate16setLocale_helperERK7QLocaleb @ 3105 NONAME
	_ZN14QWidgetPrivate16syncBackingStoreERK7QRegion @ 3106 NONAME
	_ZN14QWidgetPrivate16syncBackingStoreEv @ 3107 NONAME
	_ZN14QWidgetPrivate16updateFrameStrutEv @ 3108 NONAME
	_ZN14QWidgetPrivate17createRecursivelyEv @ 3109 NONAME
	_ZN14QWidgetPrivate17s60UpdateIsOpaqueEv @ 3110 NONAME
	_ZN14QWidgetPrivate17setEnabled_helperEb @ 3111 NONAME
	_ZN14QWidgetPrivate17setPalette_helperERK8QPalette @ 3112 NONAME
	_ZN14QWidgetPrivate17setWindowIcon_sysEb @ 3113 NONAME
	_ZN14QWidgetPrivate18_q_showIfNotHiddenEv @ 3114 NONAME
	_ZN14QWidgetPrivate18setConstraints_sysEv @ 3115 NONAME
	_ZN14QWidgetPrivate18setWindowTitle_sysERK7QString @ 3116 NONAME
	_ZN14QWidgetPrivate19navigateToDirectionENS_9DirectionE @ 3117 NONAME
	_ZN14QWidgetPrivate19registerTouchWindowEv @ 3118 NONAME
	_ZN14QWidgetPrivate19updateIsTranslucentEv @ 3119 NONAME
	_ZN14QWidgetPrivate20reparentFocusWidgetsEP7QWidget @ 3120 NONAME
	_ZN14QWidgetPrivate20setDirtyOpaqueRegionEv @ 3121 NONAME
	_ZN14QWidgetPrivate20setLayoutItemMarginsEN6QStyle10SubElementEPK12QStyleOption @ 3122 NONAME
	_ZN14QWidgetPrivate20setLayoutItemMarginsEiiii @ 3123 NONAME
	_ZN14QWidgetPrivate20setWindowIcon_helperEv @ 3124 NONAME
	_ZN14QWidgetPrivate20setWindowOpacity_sysEf @ 3125 NONAME
	_ZN14QWidgetPrivate21activateSymbianWindowEv @ 3126 NONAME ABSENT
	_ZN14QWidgetPrivate21setMaximumSize_helperERiS0_ @ 3127 NONAME
	_ZN14QWidgetPrivate21setMinimumSize_helperERiS0_ @ 3128 NONAME
	_ZN14QWidgetPrivate21setWindowIconText_sysERK7QString @ 3129 NONAME
	_ZN14QWidgetPrivate21setWindowTitle_helperERK7QString @ 3130 NONAME
	_ZN14QWidgetPrivate21updateGeometry_helperEb @ 3131 NONAME
	_ZN14QWidgetPrivate22paintSiblingsRecursiveEP12QPaintDeviceRK5QListIP7QObjectEiRK7QRegionRK6QPointiP8QPainterP19QWidgetBackingStore @ 3132 NONAME
	_ZN14QWidgetPrivate22propagatePaletteChangeEv @ 3133 NONAME
	_ZN14QWidgetPrivate22resolveLayoutDirectionEv @ 3134 NONAME
	_ZN14QWidgetPrivate22updateSystemBackgroundEv @ 3135 NONAME
	_ZN14QWidgetPrivate23deactivateWidgetCleanupEv @ 3136 NONAME
	_ZN14QWidgetPrivate24setUpdatesEnabled_helperEb @ 3137 NONAME
	_ZN14QWidgetPrivate24setWindowFilePath_helperERK7QString @ 3138 NONAME
	_ZN14QWidgetPrivate24setWindowIconText_helperERK7QString @ 3139 NONAME
	_ZN14QWidgetPrivate25setLayoutDirection_helperEN2Qt15LayoutDirectionE @ 3140 NONAME
	_ZN14QWidgetPrivate26adjustQuitOnCloseAttributeEv @ 3141 NONAME
	_ZN14QWidgetPrivate26createDefaultWindowSurfaceEv @ 3142 NONAME
	_ZN14QWidgetPrivate26nearestGraphicsProxyWidgetEP7QWidget @ 3143 NONAME ABSENT
	_ZN14QWidgetPrivate27widgetInNavigationDirectionENS_9DirectionE @ 3144 NONAME
	_ZN14QWidgetPrivate29invalidateBuffer_resizeHelperERK6QPointRK5QSize @ 3145 NONAME
	_ZN14QWidgetPrivate30createDefaultWindowSurface_sysEv @ 3146 NONAME
	_ZN14QWidgetPrivate30sendPendingMoveAndResizeEventsEbb @ 3147 NONAME
	_ZN14QWidgetPrivate31activateChildLayoutsRecursivelyEv @ 3148 NONAME
	_ZN14QWidgetPrivate4initEP7QWidget6QFlagsIN2Qt10WindowTypeEE @ 3149 NONAME
	_ZN14QWidgetPrivate6mapperE @ 3150 NONAME DATA 4
	_ZN14QWidgetPrivate8hide_sysEv @ 3151 NONAME
	_ZN14QWidgetPrivate8moveRectERK5QRectii @ 3152 NONAME
	_ZN14QWidgetPrivate8setWinIdEP11CCoeControl @ 3153 NONAME
	_ZN14QWidgetPrivate8show_sysEv @ 3154 NONAME
	_ZN14QWidgetPrivate9lower_sysEv @ 3155 NONAME
	_ZN14QWidgetPrivate9raise_sysEv @ 3156 NONAME
	_ZN14QWidgetPrivate9setOpaqueEb @ 3157 NONAME
	_ZN14QWidgetPrivateC1Ei @ 3158 NONAME
	_ZN14QWidgetPrivateC2Ei @ 3159 NONAME
	_ZN14QWidgetPrivateD0Ev @ 3160 NONAME
	_ZN14QWidgetPrivateD1Ev @ 3161 NONAME
	_ZN14QWidgetPrivateD2Ev @ 3162 NONAME
	_ZN14QWindowSurface10beginPaintERK7QRegion @ 3163 NONAME
	_ZN14QWindowSurface11setGeometryERK5QRect @ 3164 NONAME
	_ZN14QWindowSurface17setStaticContentsERK7QRegion @ 3165 NONAME
	_ZN14QWindowSurface24setStaticContentsSupportEb @ 3166 NONAME ABSENT
	_ZN14QWindowSurface6bufferEPK7QWidget @ 3167 NONAME
	_ZN14QWindowSurface6scrollERK7QRegionii @ 3168 NONAME
	_ZN14QWindowSurface8endPaintERK7QRegion @ 3169 NONAME
	_ZN14QWindowSurfaceC2EP7QWidget @ 3170 NONAME ABSENT
	_ZN14QWindowSurfaceD0Ev @ 3171 NONAME
	_ZN14QWindowSurfaceD1Ev @ 3172 NONAME
	_ZN14QWindowSurfaceD2Ev @ 3173 NONAME
	_ZN15QAbstractButton10setCheckedEb @ 3174 NONAME
	_ZN15QAbstractButton10timerEventEP11QTimerEvent @ 3175 NONAME
	_ZN15QAbstractButton11changeEventEP6QEvent @ 3176 NONAME
	_ZN15QAbstractButton11qt_metacallEN11QMetaObject4CallEiPPv @ 3177 NONAME
	_ZN15QAbstractButton11qt_metacastEPKc @ 3178 NONAME
	_ZN15QAbstractButton11setIconSizeERK5QSize @ 3179 NONAME
	_ZN15QAbstractButton11setShortcutERK12QKeySequence @ 3180 NONAME
	_ZN15QAbstractButton12animateClickEi @ 3181 NONAME
	_ZN15QAbstractButton12focusInEventEP11QFocusEvent @ 3182 NONAME
	_ZN15QAbstractButton12setCheckableEb @ 3183 NONAME
	_ZN15QAbstractButton13checkStateSetEv @ 3184 NONAME
	_ZN15QAbstractButton13focusOutEventEP11QFocusEvent @ 3185 NONAME
	_ZN15QAbstractButton13keyPressEventEP9QKeyEvent @ 3186 NONAME
	_ZN15QAbstractButton13setAutoRepeatEb @ 3187 NONAME
	_ZN15QAbstractButton14mouseMoveEventEP11QMouseEvent @ 3188 NONAME
	_ZN15QAbstractButton14nextCheckStateEv @ 3189 NONAME
	_ZN15QAbstractButton15keyReleaseEventEP9QKeyEvent @ 3190 NONAME
	_ZN15QAbstractButton15mousePressEventEP11QMouseEvent @ 3191 NONAME
	_ZN15QAbstractButton16setAutoExclusiveEb @ 3192 NONAME
	_ZN15QAbstractButton16staticMetaObjectE @ 3193 NONAME DATA 16
	_ZN15QAbstractButton17mouseReleaseEventEP11QMouseEvent @ 3194 NONAME
	_ZN15QAbstractButton18setAutoRepeatDelayEi @ 3195 NONAME
	_ZN15QAbstractButton19getStaticMetaObjectEv @ 3196 NONAME
	_ZN15QAbstractButton21setAutoRepeatIntervalEi @ 3197 NONAME
	_ZN15QAbstractButton5clickEv @ 3198 NONAME
	_ZN15QAbstractButton5eventEP6QEvent @ 3199 NONAME
	_ZN15QAbstractButton6toggleEv @ 3200 NONAME
	_ZN15QAbstractButton7clickedEb @ 3201 NONAME
	_ZN15QAbstractButton7pressedEv @ 3202 NONAME
	_ZN15QAbstractButton7setDownEb @ 3203 NONAME
	_ZN15QAbstractButton7setIconERK5QIcon @ 3204 NONAME
	_ZN15QAbstractButton7setTextERK7QString @ 3205 NONAME
	_ZN15QAbstractButton7toggledEb @ 3206 NONAME
	_ZN15QAbstractButton8releasedEv @ 3207 NONAME
	_ZN15QAbstractButtonC2EP7QWidget @ 3208 NONAME
	_ZN15QAbstractButtonC2ER22QAbstractButtonPrivateP7QWidget @ 3209 NONAME
	_ZN15QAbstractButtonD0Ev @ 3210 NONAME
	_ZN15QAbstractButtonD1Ev @ 3211 NONAME
	_ZN15QAbstractButtonD2Ev @ 3212 NONAME
	_ZN15QAbstractSlider10setMaximumEi @ 3213 NONAME
	_ZN15QAbstractSlider10setMinimumEi @ 3214 NONAME
	_ZN15QAbstractSlider10timerEventEP11QTimerEvent @ 3215 NONAME
	_ZN15QAbstractSlider10wheelEventEP11QWheelEvent @ 3216 NONAME
	_ZN15QAbstractSlider11changeEventEP6QEvent @ 3217 NONAME
	_ZN15QAbstractSlider11qt_metacallEN11QMetaObject4CallEiPPv @ 3218 NONAME
	_ZN15QAbstractSlider11qt_metacastEPKc @ 3219 NONAME
	_ZN15QAbstractSlider11setPageStepEi @ 3220 NONAME
	_ZN15QAbstractSlider11setTrackingEb @ 3221 NONAME
	_ZN15QAbstractSlider11sliderMovedEi @ 3222 NONAME
	_ZN15QAbstractSlider12rangeChangedEii @ 3223 NONAME
	_ZN15QAbstractSlider12sliderChangeENS_12SliderChangeE @ 3224 NONAME
	_ZN15QAbstractSlider12valueChangedEi @ 3225 NONAME
	_ZN15QAbstractSlider13keyPressEventEP9QKeyEvent @ 3226 NONAME
	_ZN15QAbstractSlider13setSingleStepEi @ 3227 NONAME
	_ZN15QAbstractSlider13setSliderDownEb @ 3228 NONAME
	_ZN15QAbstractSlider13sliderPressedEv @ 3229 NONAME
	_ZN15QAbstractSlider13triggerActionENS_12SliderActionE @ 3230 NONAME
	_ZN15QAbstractSlider14setOrientationEN2Qt11OrientationE @ 3231 NONAME
	_ZN15QAbstractSlider14sliderReleasedEv @ 3232 NONAME
	_ZN15QAbstractSlider15actionTriggeredEi @ 3233 NONAME
	_ZN15QAbstractSlider15setRepeatActionENS_12SliderActionEii @ 3234 NONAME
	_ZN15QAbstractSlider16staticMetaObjectE @ 3235 NONAME DATA 16
	_ZN15QAbstractSlider17setSliderPositionEi @ 3236 NONAME
	_ZN15QAbstractSlider19getStaticMetaObjectEv @ 3237 NONAME
	_ZN15QAbstractSlider19setInvertedControlsEb @ 3238 NONAME
	_ZN15QAbstractSlider21setInvertedAppearanceEb @ 3239 NONAME
	_ZN15QAbstractSlider5eventEP6QEvent @ 3240 NONAME
	_ZN15QAbstractSlider8setRangeEii @ 3241 NONAME
	_ZN15QAbstractSlider8setValueEi @ 3242 NONAME
	_ZN15QAbstractSliderC1EP7QWidget @ 3243 NONAME
	_ZN15QAbstractSliderC1ER22QAbstractSliderPrivateP7QWidget @ 3244 NONAME
	_ZN15QAbstractSliderC2EP7QWidget @ 3245 NONAME
	_ZN15QAbstractSliderC2ER22QAbstractSliderPrivateP7QWidget @ 3246 NONAME
	_ZN15QAbstractSliderD0Ev @ 3247 NONAME
	_ZN15QAbstractSliderD1Ev @ 3248 NONAME
	_ZN15QAbstractSliderD2Ev @ 3249 NONAME
	_ZN15QCalendarWidget10updateCellERK5QDate @ 3250 NONAME
	_ZN15QCalendarWidget11eventFilterEP7QObjectP6QEvent @ 3251 NONAME
	_ZN15QCalendarWidget11qt_metacallEN11QMetaObject4CallEiPPv @ 3252 NONAME
	_ZN15QCalendarWidget11qt_metacastEPKc @ 3253 NONAME
	_ZN15QCalendarWidget11resizeEventEP12QResizeEvent @ 3254 NONAME
	_ZN15QCalendarWidget11updateCellsEv @ 3255 NONAME
	_ZN15QCalendarWidget12setDateRangeERK5QDateS2_ @ 3256 NONAME
	_ZN15QCalendarWidget12showNextYearEv @ 3257 NONAME
	_ZN15QCalendarWidget13keyPressEventEP9QKeyEvent @ 3258 NONAME
	_ZN15QCalendarWidget13showNextMonthEv @ 3259 NONAME
	_ZN15QCalendarWidget14setCurrentPageEii @ 3260 NONAME
	_ZN15QCalendarWidget14setGridVisibleEb @ 3261 NONAME
	_ZN15QCalendarWidget14setMaximumDateERK5QDate @ 3262 NONAME
	_ZN15QCalendarWidget14setMinimumDateERK5QDate @ 3263 NONAME
	_ZN15QCalendarWidget15mousePressEventEP11QMouseEvent @ 3264 NONAME
	_ZN15QCalendarWidget15setSelectedDateERK5QDate @ 3265 NONAME
	_ZN15QCalendarWidget16selectionChangedEv @ 3266 NONAME
	_ZN15QCalendarWidget16setHeaderVisibleEb @ 3267 NONAME
	_ZN15QCalendarWidget16setSelectionModeENS_13SelectionModeE @ 3268 NONAME
	_ZN15QCalendarWidget16showPreviousYearEv @ 3269 NONAME
	_ZN15QCalendarWidget16showSelectedDateEv @ 3270 NONAME
	_ZN15QCalendarWidget16staticMetaObjectE @ 3271 NONAME DATA 16
	_ZN15QCalendarWidget17setDateTextFormatERK5QDateRK15QTextCharFormat @ 3272 NONAME
	_ZN15QCalendarWidget17setFirstDayOfWeekEN2Qt9DayOfWeekE @ 3273 NONAME
	_ZN15QCalendarWidget17showPreviousMonthEv @ 3274 NONAME
	_ZN15QCalendarWidget18currentPageChangedEii @ 3275 NONAME
	_ZN15QCalendarWidget18setDateEditEnabledEb @ 3276 NONAME
	_ZN15QCalendarWidget19getStaticMetaObjectEv @ 3277 NONAME
	_ZN15QCalendarWidget19setHeaderTextFormatERK15QTextCharFormat @ 3278 NONAME
	_ZN15QCalendarWidget20setWeekdayTextFormatEN2Qt9DayOfWeekERK15QTextCharFormat @ 3279 NONAME
	_ZN15QCalendarWidget22setDateEditAcceptDelayEi @ 3280 NONAME
	_ZN15QCalendarWidget23setNavigationBarVisibleEb @ 3281 NONAME
	_ZN15QCalendarWidget23setVerticalHeaderFormatENS_20VerticalHeaderFormatE @ 3282 NONAME
	_ZN15QCalendarWidget25setHorizontalHeaderFormatENS_22HorizontalHeaderFormatE @ 3283 NONAME
	_ZN15QCalendarWidget5eventEP6QEvent @ 3284 NONAME
	_ZN15QCalendarWidget7clickedERK5QDate @ 3285 NONAME
	_ZN15QCalendarWidget9activatedERK5QDate @ 3286 NONAME
	_ZN15QCalendarWidget9showTodayEv @ 3287 NONAME
	_ZN15QCalendarWidgetC1EP7QWidget @ 3288 NONAME
	_ZN15QCalendarWidgetC2EP7QWidget @ 3289 NONAME
	_ZN15QCalendarWidgetD0Ev @ 3290 NONAME
	_ZN15QCalendarWidgetD1Ev @ 3291 NONAME
	_ZN15QCalendarWidgetD2Ev @ 3292 NONAME
	_ZN15QClipboardEventC1EP13QEventPrivate @ 3293 NONAME
	_ZN15QClipboardEventC2EP13QEventPrivate @ 3294 NONAME
	_ZN15QClipboardEventD0Ev @ 3295 NONAME
	_ZN15QClipboardEventD1Ev @ 3296 NONAME
	_ZN15QClipboardEventD2Ev @ 3297 NONAME
	_ZN15QDragEnterEventC1ERK6QPoint6QFlagsIN2Qt10DropActionEEPK9QMimeDataS3_INS4_11MouseButtonEES3_INS4_16KeyboardModifierEE @ 3298 NONAME
	_ZN15QDragEnterEventC2ERK6QPoint6QFlagsIN2Qt10DropActionEEPK9QMimeDataS3_INS4_11MouseButtonEES3_INS4_16KeyboardModifierEE @ 3299 NONAME
	_ZN15QDragEnterEventD0Ev @ 3300 NONAME
	_ZN15QDragEnterEventD1Ev @ 3301 NONAME
	_ZN15QDragEnterEventD2Ev @ 3302 NONAME
	_ZN15QDragLeaveEventC1Ev @ 3303 NONAME
	_ZN15QDragLeaveEventC2Ev @ 3304 NONAME
	_ZN15QDragLeaveEventD0Ev @ 3305 NONAME
	_ZN15QDragLeaveEventD1Ev @ 3306 NONAME
	_ZN15QDragLeaveEventD2Ev @ 3307 NONAME
	_ZN15QGraphicsAnchor10setSpacingEf @ 3308 NONAME
	_ZN15QGraphicsAnchor11qt_metacallEN11QMetaObject4CallEiPPv @ 3309 NONAME
	_ZN15QGraphicsAnchor11qt_metacastEPKc @ 3310 NONAME
	_ZN15QGraphicsAnchor12unsetSpacingEv @ 3311 NONAME
	_ZN15QGraphicsAnchor16staticMetaObjectE @ 3312 NONAME DATA 16
	_ZN15QGraphicsAnchor19getStaticMetaObjectEv @ 3313 NONAME
	_ZN15QGraphicsAnchorC1EP21QGraphicsAnchorLayout @ 3314 NONAME
	_ZN15QGraphicsAnchorC2EP21QGraphicsAnchorLayout @ 3315 NONAME
	_ZN15QGraphicsAnchorD0Ev @ 3316 NONAME
	_ZN15QGraphicsAnchorD1Ev @ 3317 NONAME
	_ZN15QGraphicsAnchorD2Ev @ 3318 NONAME
	_ZN15QGraphicsEffect10setEnabledEb @ 3319 NONAME
	_ZN15QGraphicsEffect11qt_metacallEN11QMetaObject4CallEiPPv @ 3320 NONAME
	_ZN15QGraphicsEffect11qt_metacastEPKc @ 3321 NONAME
	_ZN15QGraphicsEffect13sourceChangedE6QFlagsINS_10ChangeFlagEE @ 3322 NONAME
	_ZN15QGraphicsEffect14enabledChangedEb @ 3323 NONAME
	_ZN15QGraphicsEffect16staticMetaObjectE @ 3324 NONAME DATA 16
	_ZN15QGraphicsEffect18updateBoundingRectEv @ 3325 NONAME
	_ZN15QGraphicsEffect19getStaticMetaObjectEv @ 3326 NONAME
	_ZN15QGraphicsEffect6updateEv @ 3327 NONAME
	_ZN15QGraphicsEffectC2EP7QObject @ 3328 NONAME
	_ZN15QGraphicsEffectC2ER22QGraphicsEffectPrivateP7QObject @ 3329 NONAME
	_ZN15QGraphicsEffectD0Ev @ 3330 NONAME
	_ZN15QGraphicsEffectD1Ev @ 3331 NONAME
	_ZN15QGraphicsEffectD2Ev @ 3332 NONAME
	_ZN15QGraphicsLayout10invalidateEv @ 3333 NONAME
	_ZN15QGraphicsLayout11widgetEventEP6QEvent @ 3334 NONAME
	_ZN15QGraphicsLayout14updateGeometryEv @ 3335 NONAME
	_ZN15QGraphicsLayout18addChildLayoutItemEP19QGraphicsLayoutItem @ 3336 NONAME
	_ZN15QGraphicsLayout18setContentsMarginsEffff @ 3337 NONAME
	_ZN15QGraphicsLayout8activateEv @ 3338 NONAME
	_ZN15QGraphicsLayoutC2EP19QGraphicsLayoutItem @ 3339 NONAME
	_ZN15QGraphicsLayoutC2ER22QGraphicsLayoutPrivateP19QGraphicsLayoutItem @ 3340 NONAME
	_ZN15QGraphicsLayoutD0Ev @ 3341 NONAME
	_ZN15QGraphicsLayoutD1Ev @ 3342 NONAME
	_ZN15QGraphicsLayoutD2Ev @ 3343 NONAME
	_ZN15QGraphicsObject11grabGestureEN2Qt11GestureTypeENS0_14GestureContextE @ 3344 NONAME ABSENT
	_ZN15QGraphicsObject11qt_metacallEN11QMetaObject4CallEiPPv @ 3345 NONAME
	_ZN15QGraphicsObject11qt_metacastEPKc @ 3346 NONAME
	_ZN15QGraphicsObject12scaleChangedEv @ 3347 NONAME
	_ZN15QGraphicsObject13parentChangedEv @ 3348 NONAME
	_ZN15QGraphicsObject14enabledChangedEv @ 3349 NONAME
	_ZN15QGraphicsObject14opacityChangedEv @ 3350 NONAME
	_ZN15QGraphicsObject14visibleChangedEv @ 3351 NONAME
	_ZN15QGraphicsObject15rotationChangedEv @ 3352 NONAME
	_ZN15QGraphicsObject16staticMetaObjectE @ 3353 NONAME DATA 16
	_ZN15QGraphicsObject19getStaticMetaObjectEv @ 3354 NONAME
	_ZN15QGraphicsObject8xChangedEv @ 3355 NONAME
	_ZN15QGraphicsObject8yChangedEv @ 3356 NONAME
	_ZN15QGraphicsObject8zChangedEv @ 3357 NONAME
	_ZN15QGraphicsObjectC2EP13QGraphicsItem @ 3358 NONAME
	_ZN15QGraphicsObjectC2ER20QGraphicsItemPrivateP13QGraphicsItemP14QGraphicsScene @ 3359 NONAME
	_ZN15QGraphicsSystem23createDefaultPixmapDataEN11QPixmapData9PixelTypeE @ 3360 NONAME
	_ZN15QGraphicsSystemD0Ev @ 3361 NONAME
	_ZN15QGraphicsSystemD1Ev @ 3362 NONAME
	_ZN15QGraphicsSystemD2Ev @ 3363 NONAME
	_ZN15QGraphicsWidget10addActionsE5QListIP7QActionE @ 3364 NONAME
	_ZN15QGraphicsWidget10adjustSizeEv @ 3365 NONAME
	_ZN15QGraphicsWidget10closeEventEP11QCloseEvent @ 3366 NONAME
	_ZN15QGraphicsWidget10itemChangeEN13QGraphicsItem18GraphicsItemChangeERK8QVariant @ 3367 NONAME
	_ZN15QGraphicsWidget10sceneEventEP6QEvent @ 3368 NONAME
	_ZN15QGraphicsWidget10setPaletteERK8QPalette @ 3369 NONAME
	_ZN15QGraphicsWidget11changeEventEP6QEvent @ 3370 NONAME
	_ZN15QGraphicsWidget11polishEventEv @ 3371 NONAME
	_ZN15QGraphicsWidget11qt_metacallEN11QMetaObject4CallEiPPv @ 3372 NONAME
	_ZN15QGraphicsWidget11qt_metacastEPKc @ 3373 NONAME
	_ZN15QGraphicsWidget11resizeEventEP25QGraphicsSceneResizeEvent @ 3374 NONAME
	_ZN15QGraphicsWidget11setGeometryERK6QRectF @ 3375 NONAME
	_ZN15QGraphicsWidget11setTabOrderEPS_S0_ @ 3376 NONAME
	_ZN15QGraphicsWidget12focusInEventEP11QFocusEvent @ 3377 NONAME
	_ZN15QGraphicsWidget12grabShortcutERK12QKeySequenceN2Qt15ShortcutContextE @ 3378 NONAME
	_ZN15QGraphicsWidget12insertActionEP7QActionS1_ @ 3379 NONAME
	_ZN15QGraphicsWidget12removeActionEP7QAction @ 3380 NONAME
	_ZN15QGraphicsWidget12setAttributeEN2Qt15WidgetAttributeEb @ 3381 NONAME
	_ZN15QGraphicsWidget13focusOutEventEP11QFocusEvent @ 3382 NONAME
	_ZN15QGraphicsWidget13insertActionsEP7QAction5QListIS1_E @ 3383 NONAME
	_ZN15QGraphicsWidget14grabMouseEventEP6QEvent @ 3384 NONAME
	_ZN15QGraphicsWidget14hoverMoveEventEP24QGraphicsSceneHoverEvent @ 3385 NONAME
	_ZN15QGraphicsWidget14propertyChangeERK7QStringRK8QVariant @ 3386 NONAME
	_ZN15QGraphicsWidget14setFocusPolicyEN2Qt11FocusPolicyE @ 3387 NONAME
	_ZN15QGraphicsWidget14setWindowFlagsE6QFlagsIN2Qt10WindowTypeEE @ 3388 NONAME
	_ZN15QGraphicsWidget14setWindowTitleERK7QString @ 3389 NONAME
	_ZN15QGraphicsWidget14updateGeometryEv @ 3390 NONAME
	_ZN15QGraphicsWidget15hoverLeaveEventEP24QGraphicsSceneHoverEvent @ 3391 NONAME
	_ZN15QGraphicsWidget15releaseShortcutEi @ 3392 NONAME
	_ZN15QGraphicsWidget16paintWindowFrameEP8QPainterPK24QStyleOptionGraphicsItemP7QWidget @ 3393 NONAME
	_ZN15QGraphicsWidget16staticMetaObjectE @ 3394 NONAME DATA 16
	_ZN15QGraphicsWidget16ungrabMouseEventEP6QEvent @ 3395 NONAME
	_ZN15QGraphicsWidget16windowFrameEventEP6QEvent @ 3396 NONAME
	_ZN15QGraphicsWidget17grabKeyboardEventEP6QEvent @ 3397 NONAME
	_ZN15QGraphicsWidget18focusNextPrevChildEb @ 3398 NONAME
	_ZN15QGraphicsWidget18setContentsMarginsEffff @ 3399 NONAME
	_ZN15QGraphicsWidget18setLayoutDirectionEN2Qt15LayoutDirectionE @ 3400 NONAME
	_ZN15QGraphicsWidget18setShortcutEnabledEib @ 3401 NONAME
	_ZN15QGraphicsWidget19getStaticMetaObjectEv @ 3402 NONAME
	_ZN15QGraphicsWidget19ungrabKeyboardEventEP6QEvent @ 3403 NONAME
	_ZN15QGraphicsWidget20unsetLayoutDirectionEv @ 3404 NONAME
	_ZN15QGraphicsWidget21setShortcutAutoRepeatEib @ 3405 NONAME
	_ZN15QGraphicsWidget21setWindowFrameMarginsEffff @ 3406 NONAME
	_ZN15QGraphicsWidget23unsetWindowFrameMarginsEv @ 3407 NONAME
	_ZN15QGraphicsWidget5closeEv @ 3408 NONAME
	_ZN15QGraphicsWidget5eventEP6QEvent @ 3409 NONAME
	_ZN15QGraphicsWidget5paintEP8QPainterPK24QStyleOptionGraphicsItemP7QWidget @ 3410 NONAME
	_ZN15QGraphicsWidget6resizeERK6QSizeF @ 3411 NONAME
	_ZN15QGraphicsWidget7setFontERK5QFont @ 3412 NONAME
	_ZN15QGraphicsWidget8setStyleEP6QStyle @ 3413 NONAME
	_ZN15QGraphicsWidget9addActionEP7QAction @ 3414 NONAME
	_ZN15QGraphicsWidget9hideEventEP10QHideEvent @ 3415 NONAME
	_ZN15QGraphicsWidget9moveEventEP23QGraphicsSceneMoveEvent @ 3416 NONAME
	_ZN15QGraphicsWidget9setLayoutEP15QGraphicsLayout @ 3417 NONAME
	_ZN15QGraphicsWidget9showEventEP10QShowEvent @ 3418 NONAME
	_ZN15QGraphicsWidgetC1EP13QGraphicsItem6QFlagsIN2Qt10WindowTypeEE @ 3419 NONAME
	_ZN15QGraphicsWidgetC1ER22QGraphicsWidgetPrivateP13QGraphicsItemP14QGraphicsScene6QFlagsIN2Qt10WindowTypeEE @ 3420 NONAME
	_ZN15QGraphicsWidgetC2EP13QGraphicsItem6QFlagsIN2Qt10WindowTypeEE @ 3421 NONAME
	_ZN15QGraphicsWidgetC2ER22QGraphicsWidgetPrivateP13QGraphicsItemP14QGraphicsScene6QFlagsIN2Qt10WindowTypeEE @ 3422 NONAME
	_ZN15QGraphicsWidgetD0Ev @ 3423 NONAME
	_ZN15QGraphicsWidgetD1Ev @ 3424 NONAME
	_ZN15QGraphicsWidgetD2Ev @ 3425 NONAME
	_ZN15QImageIOHandler11jumpToImageEi @ 3426 NONAME
	_ZN15QImageIOHandler15jumpToNextImageEv @ 3427 NONAME
	_ZN15QImageIOHandler5writeERK6QImage @ 3428 NONAME
	_ZN15QImageIOHandler9setDeviceEP9QIODevice @ 3429 NONAME
	_ZN15QImageIOHandler9setFormatERK10QByteArray @ 3430 NONAME
	_ZN15QImageIOHandler9setOptionENS_11ImageOptionERK8QVariant @ 3431 NONAME
	_ZN15QImageIOHandlerC2ER22QImageIOHandlerPrivate @ 3432 NONAME
	_ZN15QImageIOHandlerC2Ev @ 3433 NONAME
	_ZN15QImageIOHandlerD0Ev @ 3434 NONAME
	_ZN15QImageIOHandlerD1Ev @ 3435 NONAME
	_ZN15QImageIOHandlerD2Ev @ 3436 NONAME
	_ZN15QLinearGradient12setFinalStopERK7QPointF @ 3437 NONAME
	_ZN15QLinearGradient8setStartERK7QPointF @ 3438 NONAME
	_ZN15QLinearGradientC1ERK7QPointFS2_ @ 3439 NONAME
	_ZN15QLinearGradientC1Effff @ 3440 NONAME
	_ZN15QLinearGradientC1Ev @ 3441 NONAME
	_ZN15QLinearGradientC2ERK7QPointFS2_ @ 3442 NONAME
	_ZN15QLinearGradientC2Effff @ 3443 NONAME
	_ZN15QLinearGradientC2Ev @ 3444 NONAME
	_ZN15QListWidgetItem4readER11QDataStream @ 3445 NONAME
	_ZN15QListWidgetItem7setDataEiRK8QVariant @ 3446 NONAME
	_ZN15QListWidgetItem8setFlagsE6QFlagsIN2Qt8ItemFlagEE @ 3447 NONAME
	_ZN15QListWidgetItemC1EP11QListWidgeti @ 3448 NONAME
	_ZN15QListWidgetItemC1ERK5QIconRK7QStringP11QListWidgeti @ 3449 NONAME
	_ZN15QListWidgetItemC1ERK7QStringP11QListWidgeti @ 3450 NONAME
	_ZN15QListWidgetItemC1ERKS_ @ 3451 NONAME
	_ZN15QListWidgetItemC2EP11QListWidgeti @ 3452 NONAME
	_ZN15QListWidgetItemC2ERK5QIconRK7QStringP11QListWidgeti @ 3453 NONAME
	_ZN15QListWidgetItemC2ERK7QStringP11QListWidgeti @ 3454 NONAME
	_ZN15QListWidgetItemC2ERKS_ @ 3455 NONAME
	_ZN15QListWidgetItemD0Ev @ 3456 NONAME
	_ZN15QListWidgetItemD1Ev @ 3457 NONAME
	_ZN15QListWidgetItemD2Ev @ 3458 NONAME
	_ZN15QListWidgetItemaSERKS_ @ 3459 NONAME
	_ZN15QProgressDialog10closeEventEP11QCloseEvent @ 3460 NONAME
	_ZN15QProgressDialog10setMaximumEi @ 3461 NONAME
	_ZN15QProgressDialog10setMinimumEi @ 3462 NONAME
	_ZN15QProgressDialog11changeEventEP6QEvent @ 3463 NONAME
	_ZN15QProgressDialog11qt_metacallEN11QMetaObject4CallEiPPv @ 3464 NONAME
	_ZN15QProgressDialog11qt_metacastEPKc @ 3465 NONAME
	_ZN15QProgressDialog11resizeEventEP12QResizeEvent @ 3466 NONAME
	_ZN15QProgressDialog12setAutoCloseEb @ 3467 NONAME
	_ZN15QProgressDialog12setAutoResetEb @ 3468 NONAME
	_ZN15QProgressDialog12setLabelTextERK7QString @ 3469 NONAME
	_ZN15QProgressDialog15setCancelButtonEP11QPushButton @ 3470 NONAME
	_ZN15QProgressDialog16staticMetaObjectE @ 3471 NONAME DATA 16
	_ZN15QProgressDialog18setMinimumDurationEi @ 3472 NONAME
	_ZN15QProgressDialog19getStaticMetaObjectEv @ 3473 NONAME
	_ZN15QProgressDialog19setCancelButtonTextERK7QString @ 3474 NONAME
	_ZN15QProgressDialog4openEP7QObjectPKc @ 3475 NONAME
	_ZN15QProgressDialog5resetEv @ 3476 NONAME
	_ZN15QProgressDialog6cancelEv @ 3477 NONAME
	_ZN15QProgressDialog6setBarEP12QProgressBar @ 3478 NONAME
	_ZN15QProgressDialog8canceledEv @ 3479 NONAME
	_ZN15QProgressDialog8setLabelEP6QLabel @ 3480 NONAME
	_ZN15QProgressDialog8setRangeEii @ 3481 NONAME
	_ZN15QProgressDialog8setValueEi @ 3482 NONAME
	_ZN15QProgressDialog9forceShowEv @ 3483 NONAME
	_ZN15QProgressDialog9showEventEP10QShowEvent @ 3484 NONAME
	_ZN15QProgressDialogC1EP7QWidget6QFlagsIN2Qt10WindowTypeEE @ 3485 NONAME
	_ZN15QProgressDialogC1ERK7QStringS2_iiP7QWidget6QFlagsIN2Qt10WindowTypeEE @ 3486 NONAME
	_ZN15QProgressDialogC2EP7QWidget6QFlagsIN2Qt10WindowTypeEE @ 3487 NONAME
	_ZN15QProgressDialogC2ERK7QStringS2_iiP7QWidget6QFlagsIN2Qt10WindowTypeEE @ 3488 NONAME
	_ZN15QProgressDialogD0Ev @ 3489 NONAME
	_ZN15QProgressDialogD1Ev @ 3490 NONAME
	_ZN15QProgressDialogD2Ev @ 3491 NONAME
	_ZN15QRadialGradient13setFocalPointERK7QPointF @ 3492 NONAME
	_ZN15QRadialGradient9setCenterERK7QPointF @ 3493 NONAME
	_ZN15QRadialGradient9setRadiusEf @ 3494 NONAME
	_ZN15QRadialGradientC1ERK7QPointFf @ 3495 NONAME
	_ZN15QRadialGradientC1ERK7QPointFfS2_ @ 3496 NONAME
	_ZN15QRadialGradientC1Efff @ 3497 NONAME
	_ZN15QRadialGradientC1Efffff @ 3498 NONAME
	_ZN15QRadialGradientC1Ev @ 3499 NONAME
	_ZN15QRadialGradientC2ERK7QPointFf @ 3500 NONAME
	_ZN15QRadialGradientC2ERK7QPointFfS2_ @ 3501 NONAME
	_ZN15QRadialGradientC2Efff @ 3502 NONAME
	_ZN15QRadialGradientC2Efffff @ 3503 NONAME
	_ZN15QRadialGradientC2Ev @ 3504 NONAME
	_ZN15QSessionManager11qt_metacallEN11QMetaObject4CallEiPPv @ 3505 NONAME
	_ZN15QSessionManager11qt_metacastEPKc @ 3506 NONAME
	_ZN15QSessionManager16staticMetaObjectE @ 3507 NONAME DATA 16
	_ZN15QSessionManager17allowsInteractionEv @ 3508 NONAME
	_ZN15QSessionManager19getStaticMetaObjectEv @ 3509 NONAME
	_ZN15QSessionManager6cancelEv @ 3510 NONAME
	_ZN15QSessionManagerC1EP12QApplicationR7QStringS3_ @ 3511 NONAME
	_ZN15QSessionManagerC2EP12QApplicationR7QStringS3_ @ 3512 NONAME
	_ZN15QSessionManagerD0Ev @ 3513 NONAME
	_ZN15QSessionManagerD1Ev @ 3514 NONAME
	_ZN15QSessionManagerD2Ev @ 3515 NONAME
	_ZN15QSplitterHandle10paintEventEP11QPaintEvent @ 3516 NONAME
	_ZN15QSplitterHandle11qt_metacallEN11QMetaObject4CallEiPPv @ 3517 NONAME
	_ZN15QSplitterHandle11qt_metacastEPKc @ 3518 NONAME
	_ZN15QSplitterHandle12moveSplitterEi @ 3519 NONAME
	_ZN15QSplitterHandle14mouseMoveEventEP11QMouseEvent @ 3520 NONAME
	_ZN15QSplitterHandle14setOrientationEN2Qt11OrientationE @ 3521 NONAME
	_ZN15QSplitterHandle15mousePressEventEP11QMouseEvent @ 3522 NONAME
	_ZN15QSplitterHandle16staticMetaObjectE @ 3523 NONAME DATA 16
	_ZN15QSplitterHandle17mouseReleaseEventEP11QMouseEvent @ 3524 NONAME
	_ZN15QSplitterHandle19getStaticMetaObjectEv @ 3525 NONAME
	_ZN15QSplitterHandle20closestLegalPositionEi @ 3526 NONAME
	_ZN15QSplitterHandle5eventEP6QEvent @ 3527 NONAME
	_ZN15QSplitterHandleC1EN2Qt11OrientationEP9QSplitter @ 3528 NONAME
	_ZN15QSplitterHandleC2EN2Qt11OrientationEP9QSplitter @ 3529 NONAME
	_ZN15QStatusTipEventC1ERK7QString @ 3530 NONAME
	_ZN15QStatusTipEventC2ERK7QString @ 3531 NONAME
	_ZN15QStatusTipEventD0Ev @ 3532 NONAME
	_ZN15QStatusTipEventD1Ev @ 3533 NONAME
	_ZN15QStatusTipEventD2Ev @ 3534 NONAME
	_ZN15QStyleOptionTabC1Ei @ 3535 NONAME
	_ZN15QStyleOptionTabC1Ev @ 3536 NONAME
	_ZN15QStyleOptionTabC2Ei @ 3537 NONAME
	_ZN15QStyleOptionTabC2Ev @ 3538 NONAME
	_ZN15QTextBlockGroup11qt_metacallEN11QMetaObject4CallEiPPv @ 3539 NONAME
	_ZN15QTextBlockGroup11qt_metacastEPKc @ 3540 NONAME
	_ZN15QTextBlockGroup12blockRemovedERK10QTextBlock @ 3541 NONAME
	_ZN15QTextBlockGroup13blockInsertedERK10QTextBlock @ 3542 NONAME
	_ZN15QTextBlockGroup16staticMetaObjectE @ 3543 NONAME DATA 16
	_ZN15QTextBlockGroup18blockFormatChangedERK10QTextBlock @ 3544 NONAME
	_ZN15QTextBlockGroup19getStaticMetaObjectEv @ 3545 NONAME
	_ZN15QTextBlockGroupC1EP13QTextDocument @ 3546 NONAME
	_ZN15QTextBlockGroupC1ER22QTextBlockGroupPrivateP13QTextDocument @ 3547 NONAME
	_ZN15QTextBlockGroupC2EP13QTextDocument @ 3548 NONAME
	_ZN15QTextBlockGroupC2ER22QTextBlockGroupPrivateP13QTextDocument @ 3549 NONAME
	_ZN15QTextBlockGroupD0Ev @ 3550 NONAME
	_ZN15QTextBlockGroupD1Ev @ 3551 NONAME
	_ZN15QTextBlockGroupD2Ev @ 3552 NONAME
	_ZN15QTextCharFormat17setUnderlineStyleENS_14UnderlineStyleE @ 3553 NONAME
	_ZN15QTextCharFormat7setFontERK5QFont @ 3554 NONAME
	_ZN15QTextCharFormatC1ERK11QTextFormat @ 3555 NONAME
	_ZN15QTextCharFormatC1Ev @ 3556 NONAME
	_ZN15QTextCharFormatC2ERK11QTextFormat @ 3557 NONAME
	_ZN15QTextCharFormatC2Ev @ 3558 NONAME
	_ZN15QTextListFormatC1ERK11QTextFormat @ 3559 NONAME
	_ZN15QTextListFormatC1Ev @ 3560 NONAME
	_ZN15QTextListFormatC2ERK11QTextFormat @ 3561 NONAME
	_ZN15QTextListFormatC2Ev @ 3562 NONAME
	_ZN15QTreeWidgetItem11addChildrenERK5QListIPS_E @ 3563 NONAME
	_ZN15QTreeWidgetItem11insertChildEiPS_ @ 3564 NONAME
	_ZN15QTreeWidgetItem11itemChangedEv @ 3565 NONAME
	_ZN15QTreeWidgetItem11removeChildEPS_ @ 3566 NONAME
	_ZN15QTreeWidgetItem12sortChildrenEiN2Qt9SortOrderEb @ 3567 NONAME
	_ZN15QTreeWidgetItem12takeChildrenEv @ 3568 NONAME
	_ZN15QTreeWidgetItem14insertChildrenEiRK5QListIPS_E @ 3569 NONAME
	_ZN15QTreeWidgetItem15emitDataChangedEv @ 3570 NONAME
	_ZN15QTreeWidgetItem23setChildIndicatorPolicyENS_20ChildIndicatorPolicyE @ 3571 NONAME
	_ZN15QTreeWidgetItem4readER11QDataStream @ 3572 NONAME
	_ZN15QTreeWidgetItem7setDataEiiRK8QVariant @ 3573 NONAME
	_ZN15QTreeWidgetItem8addChildEPS_ @ 3574 NONAME
	_ZN15QTreeWidgetItem8setFlagsE6QFlagsIN2Qt8ItemFlagEE @ 3575 NONAME
	_ZN15QTreeWidgetItem9takeChildEi @ 3576 NONAME
	_ZN15QTreeWidgetItemC1EP11QTreeWidgetPS_i @ 3577 NONAME
	_ZN15QTreeWidgetItemC1EP11QTreeWidgetRK11QStringListi @ 3578 NONAME
	_ZN15QTreeWidgetItemC1EP11QTreeWidgeti @ 3579 NONAME
	_ZN15QTreeWidgetItemC1EPS_RK11QStringListi @ 3580 NONAME
	_ZN15QTreeWidgetItemC1EPS_S0_i @ 3581 NONAME
	_ZN15QTreeWidgetItemC1EPS_i @ 3582 NONAME
	_ZN15QTreeWidgetItemC1ERK11QStringListi @ 3583 NONAME
	_ZN15QTreeWidgetItemC1ERKS_ @ 3584 NONAME
	_ZN15QTreeWidgetItemC1Ei @ 3585 NONAME
	_ZN15QTreeWidgetItemC2EP11QTreeWidgetPS_i @ 3586 NONAME
	_ZN15QTreeWidgetItemC2EP11QTreeWidgetRK11QStringListi @ 3587 NONAME
	_ZN15QTreeWidgetItemC2EP11QTreeWidgeti @ 3588 NONAME
	_ZN15QTreeWidgetItemC2EPS_RK11QStringListi @ 3589 NONAME
	_ZN15QTreeWidgetItemC2EPS_S0_i @ 3590 NONAME
	_ZN15QTreeWidgetItemC2EPS_i @ 3591 NONAME
	_ZN15QTreeWidgetItemC2ERK11QStringListi @ 3592 NONAME
	_ZN15QTreeWidgetItemC2ERKS_ @ 3593 NONAME
	_ZN15QTreeWidgetItemC2Ei @ 3594 NONAME
	_ZN15QTreeWidgetItemD0Ev @ 3595 NONAME
	_ZN15QTreeWidgetItemD1Ev @ 3596 NONAME
	_ZN15QTreeWidgetItemD2Ev @ 3597 NONAME
	_ZN15QTreeWidgetItemaSERKS_ @ 3598 NONAME
	_ZN16QAbstractSpinBox10closeEventEP11QCloseEvent @ 3599 NONAME
	_ZN16QAbstractSpinBox10paintEventEP11QPaintEvent @ 3600 NONAME
	_ZN16QAbstractSpinBox10timerEventEP11QTimerEvent @ 3601 NONAME
	_ZN16QAbstractSpinBox10wheelEventEP11QWheelEvent @ 3602 NONAME
	_ZN16QAbstractSpinBox11changeEventEP6QEvent @ 3603 NONAME
	_ZN16QAbstractSpinBox11qt_metacallEN11QMetaObject4CallEiPPv @ 3604 NONAME
	_ZN16QAbstractSpinBox11qt_metacastEPKc @ 3605 NONAME
	_ZN16QAbstractSpinBox11resizeEventEP12QResizeEvent @ 3606 NONAME
	_ZN16QAbstractSpinBox11setLineEditEP9QLineEdit @ 3607 NONAME
	_ZN16QAbstractSpinBox11setReadOnlyEb @ 3608 NONAME
	_ZN16QAbstractSpinBox11setWrappingEb @ 3609 NONAME
	_ZN16QAbstractSpinBox12focusInEventEP11QFocusEvent @ 3610 NONAME
	_ZN16QAbstractSpinBox12setAlignmentE6QFlagsIN2Qt13AlignmentFlagEE @ 3611 NONAME
	_ZN16QAbstractSpinBox13focusOutEventEP11QFocusEvent @ 3612 NONAME
	_ZN16QAbstractSpinBox13interpretTextEv @ 3613 NONAME
	_ZN16QAbstractSpinBox13keyPressEventEP9QKeyEvent @ 3614 NONAME
	_ZN16QAbstractSpinBox14mouseMoveEventEP11QMouseEvent @ 3615 NONAME
	_ZN16QAbstractSpinBox14setAcceleratedEb @ 3616 NONAME
	_ZN16QAbstractSpinBox15editingFinishedEv @ 3617 NONAME
	_ZN16QAbstractSpinBox15keyReleaseEventEP9QKeyEvent @ 3618 NONAME
	_ZN16QAbstractSpinBox15mousePressEventEP11QMouseEvent @ 3619 NONAME
	_ZN16QAbstractSpinBox16contextMenuEventEP17QContextMenuEvent @ 3620 NONAME
	_ZN16QAbstractSpinBox16setButtonSymbolsENS_13ButtonSymbolsE @ 3621 NONAME
	_ZN16QAbstractSpinBox16staticMetaObjectE @ 3622 NONAME DATA 16
	_ZN16QAbstractSpinBox17mouseReleaseEventEP11QMouseEvent @ 3623 NONAME
	_ZN16QAbstractSpinBox17setCorrectionModeENS_14CorrectionModeE @ 3624 NONAME
	_ZN16QAbstractSpinBox19getStaticMetaObjectEv @ 3625 NONAME
	_ZN16QAbstractSpinBox19setKeyboardTrackingEb @ 3626 NONAME
	_ZN16QAbstractSpinBox19setSpecialValueTextERK7QString @ 3627 NONAME
	_ZN16QAbstractSpinBox5clearEv @ 3628 NONAME
	_ZN16QAbstractSpinBox5eventEP6QEvent @ 3629 NONAME
	_ZN16QAbstractSpinBox6stepByEi @ 3630 NONAME
	_ZN16QAbstractSpinBox6stepUpEv @ 3631 NONAME
	_ZN16QAbstractSpinBox8setFrameEb @ 3632 NONAME
	_ZN16QAbstractSpinBox8stepDownEv @ 3633 NONAME
	_ZN16QAbstractSpinBox9hideEventEP10QHideEvent @ 3634 NONAME
	_ZN16QAbstractSpinBox9selectAllEv @ 3635 NONAME
	_ZN16QAbstractSpinBox9showEventEP10QShowEvent @ 3636 NONAME
	_ZN16QAbstractSpinBoxC1EP7QWidget @ 3637 NONAME
	_ZN16QAbstractSpinBoxC1ER23QAbstractSpinBoxPrivateP7QWidget @ 3638 NONAME
	_ZN16QAbstractSpinBoxC2EP7QWidget @ 3639 NONAME
	_ZN16QAbstractSpinBoxC2ER23QAbstractSpinBoxPrivateP7QWidget @ 3640 NONAME
	_ZN16QAbstractSpinBoxD0Ev @ 3641 NONAME
	_ZN16QAbstractSpinBoxD1Ev @ 3642 NONAME
	_ZN16QAbstractSpinBoxD2Ev @ 3643 NONAME
	_ZN16QConicalGradient8setAngleEf @ 3644 NONAME
	_ZN16QConicalGradient9setCenterERK7QPointF @ 3645 NONAME
	_ZN16QConicalGradientC1ERK7QPointFf @ 3646 NONAME
	_ZN16QConicalGradientC1Efff @ 3647 NONAME
	_ZN16QConicalGradientC1Ev @ 3648 NONAME
	_ZN16QConicalGradientC2ERK7QPointFf @ 3649 NONAME
	_ZN16QConicalGradientC2Efff @ 3650 NONAME
	_ZN16QConicalGradientC2Ev @ 3651 NONAME
	_ZN16QDesktopServices11displayNameENS_16StandardLocationE @ 3652 NONAME
	_ZN16QDesktopServices13setUrlHandlerERK7QStringP7QObjectPKc @ 3653 NONAME
	_ZN16QDesktopServices15storageLocationENS_16StandardLocationE @ 3654 NONAME
	_ZN16QDesktopServices15unsetUrlHandlerERK7QString @ 3655 NONAME
	_ZN16QDesktopServices7openUrlERK4QUrl @ 3656 NONAME
	_ZN16QDialogButtonBox11changeEventEP6QEvent @ 3657 NONAME
	_ZN16QDialogButtonBox11qt_metacallEN11QMetaObject4CallEiPPv @ 3658 NONAME
	_ZN16QDialogButtonBox11qt_metacastEPKc @ 3659 NONAME
	_ZN16QDialogButtonBox12removeButtonEP15QAbstractButton @ 3660 NONAME
	_ZN16QDialogButtonBox13helpRequestedEv @ 3661 NONAME
	_ZN16QDialogButtonBox14setOrientationEN2Qt11OrientationE @ 3662 NONAME
	_ZN16QDialogButtonBox16setCenterButtonsEb @ 3663 NONAME
	_ZN16QDialogButtonBox16staticMetaObjectE @ 3664 NONAME DATA 16
	_ZN16QDialogButtonBox18setStandardButtonsE6QFlagsINS_14StandardButtonEE @ 3665 NONAME
	_ZN16QDialogButtonBox19getStaticMetaObjectEv @ 3666 NONAME
	_ZN16QDialogButtonBox5clearEv @ 3667 NONAME
	_ZN16QDialogButtonBox5eventEP6QEvent @ 3668 NONAME
	_ZN16QDialogButtonBox7clickedEP15QAbstractButton @ 3669 NONAME
	_ZN16QDialogButtonBox8acceptedEv @ 3670 NONAME
	_ZN16QDialogButtonBox8rejectedEv @ 3671 NONAME
	_ZN16QDialogButtonBox9addButtonENS_14StandardButtonE @ 3672 NONAME
	_ZN16QDialogButtonBox9addButtonEP15QAbstractButtonNS_10ButtonRoleE @ 3673 NONAME
	_ZN16QDialogButtonBox9addButtonERK7QStringNS_10ButtonRoleE @ 3674 NONAME
	_ZN16QDialogButtonBoxC1E6QFlagsINS_14StandardButtonEEN2Qt11OrientationEP7QWidget @ 3675 NONAME
	_ZN16QDialogButtonBoxC1EN2Qt11OrientationEP7QWidget @ 3676 NONAME
	_ZN16QDialogButtonBoxC1EP7QWidget @ 3677 NONAME
	_ZN16QDialogButtonBoxC2E6QFlagsINS_14StandardButtonEEN2Qt11OrientationEP7QWidget @ 3678 NONAME
	_ZN16QDialogButtonBoxC2EN2Qt11OrientationEP7QWidget @ 3679 NONAME
	_ZN16QDialogButtonBoxC2EP7QWidget @ 3680 NONAME
	_ZN16QDialogButtonBoxD0Ev @ 3681 NONAME
	_ZN16QDialogButtonBoxD1Ev @ 3682 NONAME
	_ZN16QDialogButtonBoxD2Ev @ 3683 NONAME
	_ZN16QDoubleValidator11qt_metacallEN11QMetaObject4CallEiPPv @ 3684 NONAME
	_ZN16QDoubleValidator11qt_metacastEPKc @ 3685 NONAME
	_ZN16QDoubleValidator11setDecimalsEi @ 3686 NONAME
	_ZN16QDoubleValidator11setNotationENS_8NotationE @ 3687 NONAME
	_ZN16QDoubleValidator16staticMetaObjectE @ 3688 NONAME DATA 16
	_ZN16QDoubleValidator19getStaticMetaObjectEv @ 3689 NONAME
	_ZN16QDoubleValidator6setTopEd @ 3690 NONAME
	_ZN16QDoubleValidator8setRangeEddi @ 3691 NONAME
	_ZN16QDoubleValidator9setBottomEd @ 3692 NONAME
	_ZN16QDoubleValidatorC1EP7QObject @ 3693 NONAME
	_ZN16QDoubleValidatorC1EddiP7QObject @ 3694 NONAME
	_ZN16QDoubleValidatorC2EP7QObject @ 3695 NONAME
	_ZN16QDoubleValidatorC2EddiP7QObject @ 3696 NONAME
	_ZN16QDoubleValidatorD0Ev @ 3697 NONAME
	_ZN16QDoubleValidatorD1Ev @ 3698 NONAME
	_ZN16QDoubleValidatorD2Ev @ 3699 NONAME
	_ZN16QFileSystemModel10timerEventEP11QTimerEvent @ 3700 NONAME
	_ZN16QFileSystemModel11fileRenamedERK7QStringS2_S2_ @ 3701 NONAME
	_ZN16QFileSystemModel11qt_metacallEN11QMetaObject4CallEiPPv @ 3702 NONAME
	_ZN16QFileSystemModel11qt_metacastEPKc @ 3703 NONAME
	_ZN16QFileSystemModel11setReadOnlyEb @ 3704 NONAME
	_ZN16QFileSystemModel11setRootPathERK7QString @ 3705 NONAME
	_ZN16QFileSystemModel12dropMimeDataEPK9QMimeDataN2Qt10DropActionEiiRK11QModelIndex @ 3706 NONAME
	_ZN16QFileSystemModel14setNameFiltersERK11QStringList @ 3707 NONAME
	_ZN16QFileSystemModel15rootPathChangedERK7QString @ 3708 NONAME
	_ZN16QFileSystemModel15setIconProviderEP17QFileIconProvider @ 3709 NONAME
	_ZN16QFileSystemModel16staticMetaObjectE @ 3710 NONAME DATA 16
	_ZN16QFileSystemModel18setResolveSymlinksEb @ 3711 NONAME
	_ZN16QFileSystemModel19getStaticMetaObjectEv @ 3712 NONAME
	_ZN16QFileSystemModel21setNameFilterDisablesEb @ 3713 NONAME
	_ZN16QFileSystemModel4sortEiN2Qt9SortOrderE @ 3714 NONAME
	_ZN16QFileSystemModel5eventEP6QEvent @ 3715 NONAME
	_ZN16QFileSystemModel5mkdirERK11QModelIndexRK7QString @ 3716 NONAME
	_ZN16QFileSystemModel7setDataERK11QModelIndexRK8QVarianti @ 3717 NONAME
	_ZN16QFileSystemModel9fetchMoreERK11QModelIndex @ 3718 NONAME
	_ZN16QFileSystemModel9setFilterE6QFlagsIN4QDir6FilterEE @ 3719 NONAME
	_ZN16QFileSystemModelC1EP7QObject @ 3720 NONAME
	_ZN16QFileSystemModelC1ER23QFileSystemModelPrivateP7QObject @ 3721 NONAME
	_ZN16QFileSystemModelC2EP7QObject @ 3722 NONAME
	_ZN16QFileSystemModelC2ER23QFileSystemModelPrivateP7QObject @ 3723 NONAME
	_ZN16QFileSystemModelD0Ev @ 3724 NONAME
	_ZN16QFileSystemModelD1Ev @ 3725 NONAME
	_ZN16QFileSystemModelD2Ev @ 3726 NONAME
	_ZN16QPainterReplayer14setupTransformEP8QPainter @ 3727 NONAME
	_ZN16QPainterReplayer4drawERK12QPaintBufferP8QPainteri @ 3728 NONAME ABSENT
	_ZN16QPainterReplayer7processERK19QPaintBufferCommand @ 3729 NONAME
	_ZN16QRegExpValidator11qt_metacallEN11QMetaObject4CallEiPPv @ 3730 NONAME
	_ZN16QRegExpValidator11qt_metacastEPKc @ 3731 NONAME
	_ZN16QRegExpValidator16staticMetaObjectE @ 3732 NONAME DATA 16
	_ZN16QRegExpValidator19getStaticMetaObjectEv @ 3733 NONAME
	_ZN16QRegExpValidator9setRegExpERK7QRegExp @ 3734 NONAME
	_ZN16QRegExpValidatorC1EP7QObject @ 3735 NONAME
	_ZN16QRegExpValidatorC1ERK7QRegExpP7QObject @ 3736 NONAME
	_ZN16QRegExpValidatorC2EP7QObject @ 3737 NONAME
	_ZN16QRegExpValidatorC2ERK7QRegExpP7QObject @ 3738 NONAME
	_ZN16QRegExpValidatorD0Ev @ 3739 NONAME
	_ZN16QRegExpValidatorD1Ev @ 3740 NONAME
	_ZN16QRegExpValidatorD2Ev @ 3741 NONAME
	_ZN16QS60MainDocument12CreateAppUiLEv @ 3742 NONAME
	_ZN16QS60MainDocumentC1ER15CEikApplication @ 3743 NONAME
	_ZN16QS60MainDocumentC2ER15CEikApplication @ 3744 NONAME
	_ZN16QS60MainDocumentD0Ev @ 3745 NONAME
	_ZN16QS60MainDocumentD1Ev @ 3746 NONAME
	_ZN16QS60MainDocumentD2Ev @ 3747 NONAME
	_ZN16QStringListModel10insertRowsEiiRK11QModelIndex @ 3748 NONAME
	_ZN16QStringListModel10removeRowsEiiRK11QModelIndex @ 3749 NONAME
	_ZN16QStringListModel11qt_metacallEN11QMetaObject4CallEiPPv @ 3750 NONAME
	_ZN16QStringListModel11qt_metacastEPKc @ 3751 NONAME
	_ZN16QStringListModel13setStringListERK11QStringList @ 3752 NONAME
	_ZN16QStringListModel16staticMetaObjectE @ 3753 NONAME DATA 16
	_ZN16QStringListModel19getStaticMetaObjectEv @ 3754 NONAME
	_ZN16QStringListModel4sortEiN2Qt9SortOrderE @ 3755 NONAME
	_ZN16QStringListModel7setDataERK11QModelIndexRK8QVarianti @ 3756 NONAME
	_ZN16QStringListModelC1EP7QObject @ 3757 NONAME
	_ZN16QStringListModelC1ERK11QStringListP7QObject @ 3758 NONAME
	_ZN16QStringListModelC2EP7QObject @ 3759 NONAME
	_ZN16QStringListModelC2ERK11QStringListP7QObject @ 3760 NONAME
	_ZN16QStyleHintReturnC1Eii @ 3761 NONAME
	_ZN16QStyleHintReturnC2Eii @ 3762 NONAME
	_ZN16QStyleHintReturnD1Ev @ 3763 NONAME
	_ZN16QStyleHintReturnD2Ev @ 3764 NONAME
	_ZN16QTableWidgetItem4readER11QDataStream @ 3765 NONAME
	_ZN16QTableWidgetItem7setDataEiRK8QVariant @ 3766 NONAME
	_ZN16QTableWidgetItem8setFlagsE6QFlagsIN2Qt8ItemFlagEE @ 3767 NONAME
	_ZN16QTableWidgetItemC1ERK5QIconRK7QStringi @ 3768 NONAME
	_ZN16QTableWidgetItemC1ERK7QStringi @ 3769 NONAME
	_ZN16QTableWidgetItemC1ERKS_ @ 3770 NONAME
	_ZN16QTableWidgetItemC1Ei @ 3771 NONAME
	_ZN16QTableWidgetItemC2ERK5QIconRK7QStringi @ 3772 NONAME
	_ZN16QTableWidgetItemC2ERK7QStringi @ 3773 NONAME
	_ZN16QTableWidgetItemC2ERKS_ @ 3774 NONAME
	_ZN16QTableWidgetItemC2Ei @ 3775 NONAME
	_ZN16QTableWidgetItemD0Ev @ 3776 NONAME
	_ZN16QTableWidgetItemD1Ev @ 3777 NONAME
	_ZN16QTableWidgetItemD2Ev @ 3778 NONAME
	_ZN16QTableWidgetItemaSERKS_ @ 3779 NONAME
	_ZN16QTextBlockFormat15setTabPositionsERK5QListIN11QTextOption3TabEE @ 3780 NONAME
	_ZN16QTextBlockFormatC1ERK11QTextFormat @ 3781 NONAME
	_ZN16QTextBlockFormatC1Ev @ 3782 NONAME
	_ZN16QTextBlockFormatC2ERK11QTextFormat @ 3783 NONAME
	_ZN16QTextBlockFormatC2Ev @ 3784 NONAME
	_ZN16QTextFrameFormat9setMarginEf @ 3785 NONAME
	_ZN16QTextFrameFormatC1ERK11QTextFormat @ 3786 NONAME
	_ZN16QTextFrameFormatC1Ev @ 3787 NONAME
	_ZN16QTextFrameFormatC2ERK11QTextFormat @ 3788 NONAME
	_ZN16QTextFrameFormatC2Ev @ 3789 NONAME
	_ZN16QTextImageFormatC1ERK11QTextFormat @ 3790 NONAME
	_ZN16QTextImageFormatC1Ev @ 3791 NONAME
	_ZN16QTextImageFormatC2ERK11QTextFormat @ 3792 NONAME
	_ZN16QTextImageFormatC2Ev @ 3793 NONAME
	_ZN16QTextTableFormatC1ERK11QTextFormat @ 3794 NONAME
	_ZN16QTextTableFormatC1Ev @ 3795 NONAME
	_ZN16QTextTableFormatC2ERK11QTextFormat @ 3796 NONAME
	_ZN16QTextTableFormatC2Ev @ 3797 NONAME
	_ZN17QAbstractItemView10commitDataEP7QWidget @ 3798 NONAME
	_ZN17QAbstractItemView10timerEventEP11QTimerEvent @ 3799 NONAME
	_ZN17QAbstractItemView11closeEditorEP7QWidgetN21QAbstractItemDelegate11EndEditHintE @ 3800 NONAME
	_ZN17QAbstractItemView11dataChangedERK11QModelIndexS2_ @ 3801 NONAME
	_ZN17QAbstractItemView11qt_metacallEN11QMetaObject4CallEiPPv @ 3802 NONAME
	_ZN17QAbstractItemView11qt_metacastEPKc @ 3803 NONAME
	_ZN17QAbstractItemView11resizeEventEP12QResizeEvent @ 3804 NONAME
	_ZN17QAbstractItemView11scrollToTopEv @ 3805 NONAME
	_ZN17QAbstractItemView11setIconSizeERK5QSize @ 3806 NONAME
	_ZN17QAbstractItemView12doAutoScrollEv @ 3807 NONAME
	_ZN17QAbstractItemView12focusInEventEP11QFocusEvent @ 3808 NONAME
	_ZN17QAbstractItemView12rowsInsertedERK11QModelIndexii @ 3809 NONAME
	_ZN17QAbstractItemView12setRootIndexERK11QModelIndex @ 3810 NONAME
	_ZN17QAbstractItemView13doItemsLayoutEv @ 3811 NONAME
	_ZN17QAbstractItemView13doubleClickedERK11QModelIndex @ 3812 NONAME
	_ZN17QAbstractItemView13dragMoveEventEP14QDragMoveEvent @ 3813 NONAME
	_ZN17QAbstractItemView13focusOutEventEP11QFocusEvent @ 3814 NONAME
	_ZN17QAbstractItemView13keyPressEventEP9QKeyEvent @ 3815 NONAME
	_ZN17QAbstractItemView13setAutoScrollEb @ 3816 NONAME
	_ZN17QAbstractItemView13viewportEventEP6QEvent @ 3817 NONAME
	_ZN17QAbstractItemView14clearSelectionEv @ 3818 NONAME
	_ZN17QAbstractItemView14currentChangedERK11QModelIndexS2_ @ 3819 NONAME
	_ZN17QAbstractItemView14dragEnterEventEP15QDragEnterEvent @ 3820 NONAME
	_ZN17QAbstractItemView14dragLeaveEventEP15QDragLeaveEvent @ 3821 NONAME
	_ZN17QAbstractItemView14keyboardSearchERK7QString @ 3822 NONAME
	_ZN17QAbstractItemView14mouseMoveEventEP11QMouseEvent @ 3823 NONAME
	_ZN17QAbstractItemView14scrollToBottomEv @ 3824 NONAME
	_ZN17QAbstractItemView14setDirtyRegionERK7QRegion @ 3825 NONAME
	_ZN17QAbstractItemView14setDragEnabledEb @ 3826 NONAME
	_ZN17QAbstractItemView14setIndexWidgetERK11QModelIndexP7QWidget @ 3827 NONAME
	_ZN17QAbstractItemView14stopAutoScrollEv @ 3828 NONAME
	_ZN17QAbstractItemView15editorDestroyedEP7QObject @ 3829 NONAME
	_ZN17QAbstractItemView15mousePressEventEP11QMouseEvent @ 3830 NONAME
	_ZN17QAbstractItemView15setCurrentIndexERK11QModelIndex @ 3831 NONAME
	_ZN17QAbstractItemView15setDragDropModeENS_12DragDropModeE @ 3832 NONAME
	_ZN17QAbstractItemView15setEditTriggersE6QFlagsINS_11EditTriggerEE @ 3833 NONAME
	_ZN17QAbstractItemView15setItemDelegateEP21QAbstractItemDelegate @ 3834 NONAME
	_ZN17QAbstractItemView15startAutoScrollEv @ 3835 NONAME
	_ZN17QAbstractItemView15viewportEnteredEv @ 3836 NONAME
	_ZN17QAbstractItemView16inputMethodEventEP17QInputMethodEvent @ 3837 NONAME
	_ZN17QAbstractItemView16selectionChangedERK14QItemSelectionS2_ @ 3838 NONAME
	_ZN17QAbstractItemView16setSelectionModeENS_13SelectionModeE @ 3839 NONAME
	_ZN17QAbstractItemView16setTextElideModeEN2Qt13TextElideModeE @ 3840 NONAME
	_ZN17QAbstractItemView16staticMetaObjectE @ 3841 NONAME DATA 16
	_ZN17QAbstractItemView16updateEditorDataEv @ 3842 NONAME
	_ZN17QAbstractItemView16updateGeometriesEv @ 3843 NONAME
	_ZN17QAbstractItemView17mouseReleaseEventEP11QMouseEvent @ 3844 NONAME
	_ZN17QAbstractItemView17scrollDirtyRegionEii @ 3845 NONAME
	_ZN17QAbstractItemView17setSelectionModelEP19QItemSelectionModel @ 3846 NONAME
	_ZN17QAbstractItemView18focusNextPrevChildEb @ 3847 NONAME
	_ZN17QAbstractItemView19getStaticMetaObjectEv @ 3848 NONAME
	_ZN17QAbstractItemView19setAutoScrollMarginEi @ 3849 NONAME
	_ZN17QAbstractItemView19setTabKeyNavigationEb @ 3850 NONAME
	_ZN17QAbstractItemView20openPersistentEditorERK11QModelIndex @ 3851 NONAME
	_ZN17QAbstractItemView20rowsAboutToBeRemovedERK11QModelIndexii @ 3852 NONAME
	_ZN17QAbstractItemView20setDefaultDropActionEN2Qt10DropActionE @ 3853 NONAME
	_ZN17QAbstractItemView20setSelectionBehaviorENS_17SelectionBehaviorE @ 3854 NONAME
	_ZN17QAbstractItemView21closePersistentEditorERK11QModelIndex @ 3855 NONAME
	_ZN17QAbstractItemView21mouseDoubleClickEventEP11QMouseEvent @ 3856 NONAME
	_ZN17QAbstractItemView21setDropIndicatorShownEb @ 3857 NONAME
	_ZN17QAbstractItemView21setItemDelegateForRowEiP21QAbstractItemDelegate @ 3858 NONAME
	_ZN17QAbstractItemView21setVerticalScrollModeENS_10ScrollModeE @ 3859 NONAME
	_ZN17QAbstractItemView22updateEditorGeometriesEv @ 3860 NONAME
	_ZN17QAbstractItemView23setAlternatingRowColorsEb @ 3861 NONAME
	_ZN17QAbstractItemView23setHorizontalScrollModeENS_10ScrollModeE @ 3862 NONAME
	_ZN17QAbstractItemView23setVerticalStepsPerItemEi @ 3863 NONAME
	_ZN17QAbstractItemView23verticalScrollbarActionEi @ 3864 NONAME
	_ZN17QAbstractItemView24setDragDropOverwriteModeEb @ 3865 NONAME
	_ZN17QAbstractItemView24setItemDelegateForColumnEiP21QAbstractItemDelegate @ 3866 NONAME
	_ZN17QAbstractItemView25executeDelayedItemsLayoutEv @ 3867 NONAME
	_ZN17QAbstractItemView25horizontalScrollbarActionEi @ 3868 NONAME
	_ZN17QAbstractItemView25setHorizontalStepsPerItemEi @ 3869 NONAME
	_ZN17QAbstractItemView26scheduleDelayedItemsLayoutEv @ 3870 NONAME
	_ZN17QAbstractItemView29verticalScrollbarValueChangedEi @ 3871 NONAME
	_ZN17QAbstractItemView31horizontalScrollbarValueChangedEi @ 3872 NONAME
	_ZN17QAbstractItemView4editERK11QModelIndex @ 3873 NONAME
	_ZN17QAbstractItemView4editERK11QModelIndexNS_11EditTriggerEP6QEvent @ 3874 NONAME
	_ZN17QAbstractItemView5eventEP6QEvent @ 3875 NONAME
	_ZN17QAbstractItemView5resetEv @ 3876 NONAME
	_ZN17QAbstractItemView6updateERK11QModelIndex @ 3877 NONAME
	_ZN17QAbstractItemView7clickedERK11QModelIndex @ 3878 NONAME
	_ZN17QAbstractItemView7enteredERK11QModelIndex @ 3879 NONAME
	_ZN17QAbstractItemView7pressedERK11QModelIndex @ 3880 NONAME
	_ZN17QAbstractItemView8setModelEP18QAbstractItemModel @ 3881 NONAME
	_ZN17QAbstractItemView8setStateENS_5StateE @ 3882 NONAME
	_ZN17QAbstractItemView9activatedERK11QModelIndex @ 3883 NONAME
	_ZN17QAbstractItemView9dropEventEP10QDropEvent @ 3884 NONAME
	_ZN17QAbstractItemView9selectAllEv @ 3885 NONAME
	_ZN17QAbstractItemView9startDragE6QFlagsIN2Qt10DropActionEE @ 3886 NONAME
	_ZN17QAbstractItemViewC2EP7QWidget @ 3887 NONAME
	_ZN17QAbstractItemViewC2ER24QAbstractItemViewPrivateP7QWidget @ 3888 NONAME
	_ZN17QAbstractItemViewD0Ev @ 3889 NONAME
	_ZN17QAbstractItemViewD1Ev @ 3890 NONAME
	_ZN17QAbstractItemViewD2Ev @ 3891 NONAME
	_ZN17QContextMenuEventC1ENS_6ReasonERK6QPoint @ 3892 NONAME
	_ZN17QContextMenuEventC1ENS_6ReasonERK6QPointS3_ @ 3893 NONAME
	_ZN17QContextMenuEventC1ENS_6ReasonERK6QPointS3_6QFlagsIN2Qt16KeyboardModifierEE @ 3894 NONAME
	_ZN17QContextMenuEventC2ENS_6ReasonERK6QPoint @ 3895 NONAME
	_ZN17QContextMenuEventC2ENS_6ReasonERK6QPointS3_ @ 3896 NONAME
	_ZN17QContextMenuEventC2ENS_6ReasonERK6QPointS3_6QFlagsIN2Qt16KeyboardModifierEE @ 3897 NONAME
	_ZN17QContextMenuEventD0Ev @ 3898 NONAME
	_ZN17QContextMenuEventD1Ev @ 3899 NONAME
	_ZN17QContextMenuEventD2Ev @ 3900 NONAME
	_ZN17QDataWidgetMapper10addMappingEP7QWidgeti @ 3901 NONAME
	_ZN17QDataWidgetMapper10addMappingEP7QWidgetiRK10QByteArray @ 3902 NONAME
	_ZN17QDataWidgetMapper10toPreviousEv @ 3903 NONAME
	_ZN17QDataWidgetMapper11qt_metacallEN11QMetaObject4CallEiPPv @ 3904 NONAME
	_ZN17QDataWidgetMapper11qt_metacastEPKc @ 3905 NONAME
	_ZN17QDataWidgetMapper12clearMappingEv @ 3906 NONAME
	_ZN17QDataWidgetMapper12setRootIndexERK11QModelIndex @ 3907 NONAME
	_ZN17QDataWidgetMapper13removeMappingEP7QWidget @ 3908 NONAME
	_ZN17QDataWidgetMapper14setOrientationEN2Qt11OrientationE @ 3909 NONAME
	_ZN17QDataWidgetMapper15setCurrentIndexEi @ 3910 NONAME
	_ZN17QDataWidgetMapper15setItemDelegateEP21QAbstractItemDelegate @ 3911 NONAME
	_ZN17QDataWidgetMapper15setSubmitPolicyENS_12SubmitPolicyE @ 3912 NONAME
	_ZN17QDataWidgetMapper16staticMetaObjectE @ 3913 NONAME DATA 16
	_ZN17QDataWidgetMapper19currentIndexChangedEi @ 3914 NONAME
	_ZN17QDataWidgetMapper19getStaticMetaObjectEv @ 3915 NONAME
	_ZN17QDataWidgetMapper20setCurrentModelIndexERK11QModelIndex @ 3916 NONAME
	_ZN17QDataWidgetMapper6revertEv @ 3917 NONAME
	_ZN17QDataWidgetMapper6submitEv @ 3918 NONAME
	_ZN17QDataWidgetMapper6toLastEv @ 3919 NONAME
	_ZN17QDataWidgetMapper6toNextEv @ 3920 NONAME
	_ZN17QDataWidgetMapper7toFirstEv @ 3921 NONAME
	_ZN17QDataWidgetMapper8setModelEP18QAbstractItemModel @ 3922 NONAME
	_ZN17QDataWidgetMapperC1EP7QObject @ 3923 NONAME
	_ZN17QDataWidgetMapperC2EP7QObject @ 3924 NONAME
	_ZN17QDataWidgetMapperD0Ev @ 3925 NONAME
	_ZN17QDataWidgetMapperD1Ev @ 3926 NONAME
	_ZN17QDataWidgetMapperD2Ev @ 3927 NONAME
	_ZN17QDockWidgetLayout11qt_metacallEN11QMetaObject4CallEiPPv @ 3928 NONAME
	_ZN17QDockWidgetLayout11qt_metacastEPKc @ 3929 NONAME
	_ZN17QDockWidgetLayout11setGeometryERK5QRect @ 3930 NONAME
	_ZN17QDockWidgetLayout16setWidgetForRoleENS_4RoleEP7QWidget @ 3931 NONAME
	_ZN17QDockWidgetLayout16staticMetaObjectE @ 3932 NONAME DATA 16
	_ZN17QDockWidgetLayout19getStaticMetaObjectEv @ 3933 NONAME
	_ZN17QDockWidgetLayout19setVerticalTitleBarEb @ 3934 NONAME
	_ZN17QDockWidgetLayout6takeAtEi @ 3935 NONAME
	_ZN17QDockWidgetLayout7addItemEP11QLayoutItem @ 3936 NONAME
	_ZN17QDockWidgetLayoutC1EP7QWidget @ 3937 NONAME
	_ZN17QDockWidgetLayoutC2EP7QWidget @ 3938 NONAME
	_ZN17QDockWidgetLayoutD0Ev @ 3939 NONAME
	_ZN17QDockWidgetLayoutD1Ev @ 3940 NONAME
	_ZN17QDockWidgetLayoutD2Ev @ 3941 NONAME
	_ZN17QFileIconProviderC1Ev @ 3942 NONAME
	_ZN17QFileIconProviderC2Ev @ 3943 NONAME
	_ZN17QFileIconProviderD0Ev @ 3944 NONAME
	_ZN17QFileIconProviderD1Ev @ 3945 NONAME
	_ZN17QFileIconProviderD2Ev @ 3946 NONAME
	_ZN17QGraphicsLineItem12setExtensionEN13QGraphicsItem9ExtensionERK8QVariant @ 3947 NONAME
	_ZN17QGraphicsLineItem5paintEP8QPainterPK24QStyleOptionGraphicsItemP7QWidget @ 3948 NONAME
	_ZN17QGraphicsLineItem6setPenERK4QPen @ 3949 NONAME
	_ZN17QGraphicsLineItem7setLineERK6QLineF @ 3950 NONAME
	_ZN17QGraphicsLineItemC1EP13QGraphicsItemP14QGraphicsScene @ 3951 NONAME
	_ZN17QGraphicsLineItemC1ERK6QLineFP13QGraphicsItemP14QGraphicsScene @ 3952 NONAME
	_ZN17QGraphicsLineItemC1EffffP13QGraphicsItemP14QGraphicsScene @ 3953 NONAME
	_ZN17QGraphicsLineItemC2EP13QGraphicsItemP14QGraphicsScene @ 3954 NONAME
	_ZN17QGraphicsLineItemC2ERK6QLineFP13QGraphicsItemP14QGraphicsScene @ 3955 NONAME
	_ZN17QGraphicsLineItemC2EffffP13QGraphicsItemP14QGraphicsScene @ 3956 NONAME
	_ZN17QGraphicsLineItemD0Ev @ 3957 NONAME
	_ZN17QGraphicsLineItemD1Ev @ 3958 NONAME
	_ZN17QGraphicsLineItemD2Ev @ 3959 NONAME
	_ZN17QGraphicsPathItem12setExtensionEN13QGraphicsItem9ExtensionERK8QVariant @ 3960 NONAME
	_ZN17QGraphicsPathItem5paintEP8QPainterPK24QStyleOptionGraphicsItemP7QWidget @ 3961 NONAME
	_ZN17QGraphicsPathItem7setPathERK12QPainterPath @ 3962 NONAME
	_ZN17QGraphicsPathItemC1EP13QGraphicsItemP14QGraphicsScene @ 3963 NONAME
	_ZN17QGraphicsPathItemC1ERK12QPainterPathP13QGraphicsItemP14QGraphicsScene @ 3964 NONAME
	_ZN17QGraphicsPathItemC2EP13QGraphicsItemP14QGraphicsScene @ 3965 NONAME
	_ZN17QGraphicsPathItemC2ERK12QPainterPathP13QGraphicsItemP14QGraphicsScene @ 3966 NONAME
	_ZN17QGraphicsPathItemD0Ev @ 3967 NONAME
	_ZN17QGraphicsPathItemD1Ev @ 3968 NONAME
	_ZN17QGraphicsPathItemD2Ev @ 3969 NONAME
	_ZN17QGraphicsRectItem12setExtensionEN13QGraphicsItem9ExtensionERK8QVariant @ 3970 NONAME
	_ZN17QGraphicsRectItem5paintEP8QPainterPK24QStyleOptionGraphicsItemP7QWidget @ 3971 NONAME
	_ZN17QGraphicsRectItem7setRectERK6QRectF @ 3972 NONAME
	_ZN17QGraphicsRectItemC1EP13QGraphicsItemP14QGraphicsScene @ 3973 NONAME
	_ZN17QGraphicsRectItemC1ERK6QRectFP13QGraphicsItemP14QGraphicsScene @ 3974 NONAME
	_ZN17QGraphicsRectItemC1EffffP13QGraphicsItemP14QGraphicsScene @ 3975 NONAME
	_ZN17QGraphicsRectItemC2EP13QGraphicsItemP14QGraphicsScene @ 3976 NONAME
	_ZN17QGraphicsRectItemC2ERK6QRectFP13QGraphicsItemP14QGraphicsScene @ 3977 NONAME
	_ZN17QGraphicsRectItemC2EffffP13QGraphicsItemP14QGraphicsScene @ 3978 NONAME
	_ZN17QGraphicsRectItemD0Ev @ 3979 NONAME
	_ZN17QGraphicsRectItemD1Ev @ 3980 NONAME
	_ZN17QGraphicsRectItemD2Ev @ 3981 NONAME
	_ZN17QGraphicsRotation11axisChangedEv @ 3982 NONAME
	_ZN17QGraphicsRotation11qt_metacallEN11QMetaObject4CallEiPPv @ 3983 NONAME
	_ZN17QGraphicsRotation11qt_metacastEPKc @ 3984 NONAME
	_ZN17QGraphicsRotation12angleChangedEv @ 3985 NONAME
	_ZN17QGraphicsRotation13originChangedEv @ 3986 NONAME
	_ZN17QGraphicsRotation16staticMetaObjectE @ 3987 NONAME DATA 16
	_ZN17QGraphicsRotation19getStaticMetaObjectEv @ 3988 NONAME
	_ZN17QGraphicsRotation7setAxisEN2Qt4AxisE @ 3989 NONAME
	_ZN17QGraphicsRotation7setAxisERK9QVector3D @ 3990 NONAME
	_ZN17QGraphicsRotation8setAngleEf @ 3991 NONAME
	_ZN17QGraphicsRotation9setOriginERK9QVector3D @ 3992 NONAME
	_ZN17QGraphicsRotationC1EP7QObject @ 3993 NONAME
	_ZN17QGraphicsRotationC2EP7QObject @ 3994 NONAME
	_ZN17QGraphicsRotationD0Ev @ 3995 NONAME
	_ZN17QGraphicsRotationD1Ev @ 3996 NONAME
	_ZN17QGraphicsRotationD2Ev @ 3997 NONAME
	_ZN17QGraphicsTextItem10adjustSizeEv @ 3998 NONAME
	_ZN17QGraphicsTextItem10sceneEventEP6QEvent @ 3999 NONAME
	_ZN17QGraphicsTextItem11linkHoveredERK7QString @ 4000 NONAME
	_ZN17QGraphicsTextItem11qt_metacallEN11QMetaObject4CallEiPPv @ 4001 NONAME
	_ZN17QGraphicsTextItem11qt_metacastEPKc @ 4002 NONAME
	_ZN17QGraphicsTextItem11setDocumentEP13QTextDocument @ 4003 NONAME
	_ZN17QGraphicsTextItem12focusInEventEP11QFocusEvent @ 4004 NONAME
	_ZN17QGraphicsTextItem12setExtensionEN13QGraphicsItem9ExtensionERK8QVariant @ 4005 NONAME
	_ZN17QGraphicsTextItem12setPlainTextERK7QString @ 4006 NONAME
	_ZN17QGraphicsTextItem12setTextWidthEf @ 4007 NONAME
	_ZN17QGraphicsTextItem13dragMoveEventEP27QGraphicsSceneDragDropEvent @ 4008 NONAME
	_ZN17QGraphicsTextItem13focusOutEventEP11QFocusEvent @ 4009 NONAME
	_ZN17QGraphicsTextItem13keyPressEventEP9QKeyEvent @ 4010 NONAME
	_ZN17QGraphicsTextItem13linkActivatedERK7QString @ 4011 NONAME
	_ZN17QGraphicsTextItem13setTextCursorERK11QTextCursor @ 4012 NONAME
	_ZN17QGraphicsTextItem14dragEnterEventEP27QGraphicsSceneDragDropEvent @ 4013 NONAME
	_ZN17QGraphicsTextItem14dragLeaveEventEP27QGraphicsSceneDragDropEvent @ 4014 NONAME
	_ZN17QGraphicsTextItem14hoverMoveEventEP24QGraphicsSceneHoverEvent @ 4015 NONAME
	_ZN17QGraphicsTextItem14mouseMoveEventEP24QGraphicsSceneMouseEvent @ 4016 NONAME
	_ZN17QGraphicsTextItem15hoverEnterEventEP24QGraphicsSceneHoverEvent @ 4017 NONAME
	_ZN17QGraphicsTextItem15hoverLeaveEventEP24QGraphicsSceneHoverEvent @ 4018 NONAME
	_ZN17QGraphicsTextItem15keyReleaseEventEP9QKeyEvent @ 4019 NONAME
	_ZN17QGraphicsTextItem15mousePressEventEP24QGraphicsSceneMouseEvent @ 4020 NONAME
	_ZN17QGraphicsTextItem16contextMenuEventEP30QGraphicsSceneContextMenuEvent @ 4021 NONAME
	_ZN17QGraphicsTextItem16inputMethodEventEP17QInputMethodEvent @ 4022 NONAME
	_ZN17QGraphicsTextItem16staticMetaObjectE @ 4023 NONAME DATA 16
	_ZN17QGraphicsTextItem17mouseReleaseEventEP24QGraphicsSceneMouseEvent @ 4024 NONAME
	_ZN17QGraphicsTextItem18setTabChangesFocusEb @ 4025 NONAME
	_ZN17QGraphicsTextItem19getStaticMetaObjectEv @ 4026 NONAME
	_ZN17QGraphicsTextItem19setDefaultTextColorERK6QColor @ 4027 NONAME
	_ZN17QGraphicsTextItem20setOpenExternalLinksEb @ 4028 NONAME
	_ZN17QGraphicsTextItem21mouseDoubleClickEventEP24QGraphicsSceneMouseEvent @ 4029 NONAME
	_ZN17QGraphicsTextItem23setTextInteractionFlagsE6QFlagsIN2Qt19TextInteractionFlagEE @ 4030 NONAME
	_ZN17QGraphicsTextItem5paintEP8QPainterPK24QStyleOptionGraphicsItemP7QWidget @ 4031 NONAME
	_ZN17QGraphicsTextItem7setFontERK5QFont @ 4032 NONAME
	_ZN17QGraphicsTextItem7setHtmlERK7QString @ 4033 NONAME
	_ZN17QGraphicsTextItem9dropEventEP27QGraphicsSceneDragDropEvent @ 4034 NONAME
	_ZN17QGraphicsTextItemC1EP13QGraphicsItemP14QGraphicsScene @ 4035 NONAME
	_ZN17QGraphicsTextItemC1ERK7QStringP13QGraphicsItemP14QGraphicsScene @ 4036 NONAME
	_ZN17QGraphicsTextItemC2EP13QGraphicsItemP14QGraphicsScene @ 4037 NONAME
	_ZN17QGraphicsTextItemC2ERK7QStringP13QGraphicsItemP14QGraphicsScene @ 4038 NONAME
	_ZN17QGraphicsTextItemD0Ev @ 4039 NONAME
	_ZN17QGraphicsTextItemD1Ev @ 4040 NONAME
	_ZN17QGraphicsTextItemD2Ev @ 4041 NONAME
	_ZN17QIconEnginePlugin11qt_metacallEN11QMetaObject4CallEiPPv @ 4042 NONAME
	_ZN17QIconEnginePlugin11qt_metacastEPKc @ 4043 NONAME
	_ZN17QIconEnginePlugin16staticMetaObjectE @ 4044 NONAME DATA 16
	_ZN17QIconEnginePlugin19getStaticMetaObjectEv @ 4045 NONAME
	_ZN17QIconEnginePluginC2EP7QObject @ 4046 NONAME
	_ZN17QIconEnginePluginD0Ev @ 4047 NONAME
	_ZN17QIconEnginePluginD1Ev @ 4048 NONAME
	_ZN17QIconEnginePluginD2Ev @ 4049 NONAME
	_ZN17QInputMethodEvent15setCommitStringERK7QStringii @ 4050 NONAME
	_ZN17QInputMethodEventC1ERK7QStringRK5QListINS_9AttributeEE @ 4051 NONAME
	_ZN17QInputMethodEventC1ERKS_ @ 4052 NONAME
	_ZN17QInputMethodEventC1Ev @ 4053 NONAME
	_ZN17QInputMethodEventC2ERK7QStringRK5QListINS_9AttributeEE @ 4054 NONAME
	_ZN17QInputMethodEventC2ERKS_ @ 4055 NONAME
	_ZN17QInputMethodEventC2Ev @ 4056 NONAME
	_ZN17QPixmapBlurFilter11qt_metacallEN11QMetaObject4CallEiPPv @ 4057 NONAME
	_ZN17QPixmapBlurFilter11qt_metacastEPKc @ 4058 NONAME
	_ZN17QPixmapBlurFilter11setBlurHintEN2Qt10RenderHintE @ 4059 NONAME ABSENT
	_ZN17QPixmapBlurFilter16staticMetaObjectE @ 4060 NONAME DATA 16
	_ZN17QPixmapBlurFilter19getStaticMetaObjectEv @ 4061 NONAME
	_ZN17QPixmapBlurFilter9setRadiusEi @ 4062 NONAME ABSENT
	_ZN17QPixmapBlurFilterC1EP7QObject @ 4063 NONAME
	_ZN17QPixmapBlurFilterC2EP7QObject @ 4064 NONAME
	_ZN17QPixmapBlurFilterD0Ev @ 4065 NONAME
	_ZN17QPixmapBlurFilterD1Ev @ 4066 NONAME
	_ZN17QPixmapBlurFilterD2Ev @ 4067 NONAME
	_ZN17QRasterPixmapData15setAlphaChannelERK7QPixmap @ 4068 NONAME
	_ZN17QRasterPixmapData4fillERK6QColor @ 4069 NONAME
	_ZN17QRasterPixmapData6bufferEv @ 4070 NONAME
	_ZN17QRasterPixmapData6resizeEii @ 4071 NONAME
	_ZN17QRasterPixmapData6scrollEiiRK5QRect @ 4072 NONAME
	_ZN17QRasterPixmapData7setMaskERK7QBitmap @ 4073 NONAME
	_ZN17QRasterPixmapData9fromImageERK6QImage6QFlagsIN2Qt19ImageConversionFlagEE @ 4074 NONAME
	_ZN17QRasterPixmapDataC1EN11QPixmapData9PixelTypeE @ 4075 NONAME
	_ZN17QRasterPixmapDataC2EN11QPixmapData9PixelTypeE @ 4076 NONAME
	_ZN17QRasterPixmapDataD0Ev @ 4077 NONAME
	_ZN17QRasterPixmapDataD1Ev @ 4078 NONAME
	_ZN17QRasterPixmapDataD2Ev @ 4079 NONAME
	_ZN17QStyleOptionFrameC1Ei @ 4080 NONAME
	_ZN17QStyleOptionFrameC1Ev @ 4081 NONAME
	_ZN17QStyleOptionFrameC2Ei @ 4082 NONAME
	_ZN17QStyleOptionFrameC2Ev @ 4083 NONAME
	_ZN17QStyleOptionTabV2C1ERK15QStyleOptionTab @ 4084 NONAME
	_ZN17QStyleOptionTabV2C1Ei @ 4085 NONAME
	_ZN17QStyleOptionTabV2C1Ev @ 4086 NONAME
	_ZN17QStyleOptionTabV2C2ERK15QStyleOptionTab @ 4087 NONAME
	_ZN17QStyleOptionTabV2C2Ei @ 4088 NONAME
	_ZN17QStyleOptionTabV2C2Ev @ 4089 NONAME
	_ZN17QStyleOptionTabV2aSERK15QStyleOptionTab @ 4090 NONAME
	_ZN17QStyleOptionTabV3C1ERK15QStyleOptionTab @ 4091 NONAME
	_ZN17QStyleOptionTabV3C1Ei @ 4092 NONAME
	_ZN17QStyleOptionTabV3C1Ev @ 4093 NONAME
	_ZN17QStyleOptionTabV3C2ERK15QStyleOptionTab @ 4094 NONAME
	_ZN17QStyleOptionTabV3C2Ei @ 4095 NONAME
	_ZN17QStyleOptionTabV3C2Ev @ 4096 NONAME
	_ZN17QStyleOptionTabV3aSERK15QStyleOptionTab @ 4097 NONAME
	_ZN17QTextImageHandler14externalLoaderE @ 4098 NONAME DATA 4
	_ZN17QTextInlineObject10setDescentEf @ 4099 NONAME
	_ZN17QTextInlineObject8setWidthEf @ 4100 NONAME
	_ZN17QTextInlineObject9setAscentEf @ 4101 NONAME
	_ZN18QCommandLinkButton10paintEventEP11QPaintEvent @ 4102 NONAME
	_ZN18QCommandLinkButton11qt_metacallEN11QMetaObject4CallEiPPv @ 4103 NONAME
	_ZN18QCommandLinkButton11qt_metacastEPKc @ 4104 NONAME
	_ZN18QCommandLinkButton14setDescriptionERK7QString @ 4105 NONAME
	_ZN18QCommandLinkButton16staticMetaObjectE @ 4106 NONAME DATA 16
	_ZN18QCommandLinkButton19getStaticMetaObjectEv @ 4107 NONAME
	_ZN18QCommandLinkButton5eventEP6QEvent @ 4108 NONAME
	_ZN18QCommandLinkButtonC1EP7QWidget @ 4109 NONAME
	_ZN18QCommandLinkButtonC1ERK7QStringP7QWidget @ 4110 NONAME
	_ZN18QCommandLinkButtonC1ERK7QStringS2_P7QWidget @ 4111 NONAME
	_ZN18QCommandLinkButtonC2EP7QWidget @ 4112 NONAME
	_ZN18QCommandLinkButtonC2ERK7QStringP7QWidget @ 4113 NONAME
	_ZN18QCommandLinkButtonC2ERK7QStringS2_P7QWidget @ 4114 NONAME
	_ZN18QDragResponseEventC1Eb @ 4115 NONAME
	_ZN18QDragResponseEventC2Eb @ 4116 NONAME
	_ZN18QDragResponseEventD0Ev @ 4117 NONAME
	_ZN18QDragResponseEventD1Ev @ 4118 NONAME
	_ZN18QDragResponseEventD2Ev @ 4119 NONAME
	_ZN18QGestureRecognizer13createGestureEP7QObject @ 4120 NONAME ABSENT
	_ZN18QGestureRecognizer5resetEP8QGesture @ 4121 NONAME
	_ZN18QGestureRecognizerC2Ev @ 4122 NONAME
	_ZN18QGestureRecognizerD0Ev @ 4123 NONAME
	_ZN18QGestureRecognizerD1Ev @ 4124 NONAME
	_ZN18QGestureRecognizerD2Ev @ 4125 NONAME
	_ZN18QGraphicsItemGroup10addToGroupEP13QGraphicsItem @ 4126 NONAME
	_ZN18QGraphicsItemGroup15removeFromGroupEP13QGraphicsItem @ 4127 NONAME
	_ZN18QGraphicsItemGroup5paintEP8QPainterPK24QStyleOptionGraphicsItemP7QWidget @ 4128 NONAME
	_ZN18QGraphicsItemGroupC1EP13QGraphicsItemP14QGraphicsScene @ 4129 NONAME
	_ZN18QGraphicsItemGroupC2EP13QGraphicsItemP14QGraphicsScene @ 4130 NONAME
	_ZN18QGraphicsItemGroupD0Ev @ 4131 NONAME
	_ZN18QGraphicsItemGroupD1Ev @ 4132 NONAME
	_ZN18QGraphicsItemGroupD2Ev @ 4133 NONAME
	_ZN18QGraphicsTransform11qt_metacallEN11QMetaObject4CallEiPPv @ 4134 NONAME
	_ZN18QGraphicsTransform11qt_metacastEPKc @ 4135 NONAME
	_ZN18QGraphicsTransform16staticMetaObjectE @ 4136 NONAME DATA 16
	_ZN18QGraphicsTransform19getStaticMetaObjectEv @ 4137 NONAME
	_ZN18QGraphicsTransform6updateEv @ 4138 NONAME
	_ZN18QGraphicsTransformC2EP7QObject @ 4139 NONAME
	_ZN18QGraphicsTransformC2ER25QGraphicsTransformPrivateP7QObject @ 4140 NONAME
	_ZN18QGraphicsTransformD0Ev @ 4141 NONAME
	_ZN18QGraphicsTransformD1Ev @ 4142 NONAME
	_ZN18QGraphicsTransformD2Ev @ 4143 NONAME
	_ZN18QItemEditorFactory14defaultFactoryEv @ 4144 NONAME
	_ZN18QItemEditorFactory14registerEditorEN8QVariant4TypeEP22QItemEditorCreatorBase @ 4145 NONAME
	_ZN18QItemEditorFactory17setDefaultFactoryEPS_ @ 4146 NONAME
	_ZN18QItemEditorFactoryD0Ev @ 4147 NONAME
	_ZN18QItemEditorFactoryD1Ev @ 4148 NONAME
	_ZN18QItemEditorFactoryD2Ev @ 4149 NONAME
	_ZN18QStandardItemModel10insertRowsEiiRK11QModelIndex @ 4150 NONAME
	_ZN18QStandardItemModel10removeRowsEiiRK11QModelIndex @ 4151 NONAME
	_ZN18QStandardItemModel10takeColumnEi @ 4152 NONAME
	_ZN18QStandardItemModel11itemChangedEP13QStandardItem @ 4153 NONAME
	_ZN18QStandardItemModel11qt_metacallEN11QMetaObject4CallEiPPv @ 4154 NONAME
	_ZN18QStandardItemModel11qt_metacastEPKc @ 4155 NONAME
	_ZN18QStandardItemModel11setItemDataERK11QModelIndexRK4QMapIi8QVariantE @ 4156 NONAME
	_ZN18QStandardItemModel11setRowCountEi @ 4157 NONAME
	_ZN18QStandardItemModel11setSortRoleEi @ 4158 NONAME
	_ZN18QStandardItemModel12appendColumnERK5QListIP13QStandardItemE @ 4159 NONAME
	_ZN18QStandardItemModel12dropMimeDataEPK9QMimeDataN2Qt10DropActionEiiRK11QModelIndex @ 4160 NONAME
	_ZN18QStandardItemModel12insertColumnEiRK5QListIP13QStandardItemE @ 4161 NONAME
	_ZN18QStandardItemModel13insertColumnsEiiRK11QModelIndex @ 4162 NONAME
	_ZN18QStandardItemModel13removeColumnsEiiRK11QModelIndex @ 4163 NONAME
	_ZN18QStandardItemModel13setHeaderDataEiN2Qt11OrientationERK8QVarianti @ 4164 NONAME
	_ZN18QStandardItemModel14setColumnCountEi @ 4165 NONAME
	_ZN18QStandardItemModel16setItemPrototypeEPK13QStandardItem @ 4166 NONAME
	_ZN18QStandardItemModel16staticMetaObjectE @ 4167 NONAME DATA 16
	_ZN18QStandardItemModel19getStaticMetaObjectEv @ 4168 NONAME
	_ZN18QStandardItemModel21setVerticalHeaderItemEiP13QStandardItem @ 4169 NONAME
	_ZN18QStandardItemModel22takeVerticalHeaderItemEi @ 4170 NONAME
	_ZN18QStandardItemModel23setHorizontalHeaderItemEiP13QStandardItem @ 4171 NONAME
	_ZN18QStandardItemModel23setVerticalHeaderLabelsERK11QStringList @ 4172 NONAME
	_ZN18QStandardItemModel24takeHorizontalHeaderItemEi @ 4173 NONAME
	_ZN18QStandardItemModel25setHorizontalHeaderLabelsERK11QStringList @ 4174 NONAME
	_ZN18QStandardItemModel4sortEiN2Qt9SortOrderE @ 4175 NONAME
	_ZN18QStandardItemModel5clearEv @ 4176 NONAME
	_ZN18QStandardItemModel7setDataERK11QModelIndexRK8QVarianti @ 4177 NONAME
	_ZN18QStandardItemModel7setItemEiiP13QStandardItem @ 4178 NONAME
	_ZN18QStandardItemModel7takeRowEi @ 4179 NONAME
	_ZN18QStandardItemModel8takeItemEii @ 4180 NONAME
	_ZN18QStandardItemModel9appendRowERK5QListIP13QStandardItemE @ 4181 NONAME
	_ZN18QStandardItemModel9insertRowEiRK5QListIP13QStandardItemE @ 4182 NONAME
	_ZN18QStandardItemModelC1EP7QObject @ 4183 NONAME
	_ZN18QStandardItemModelC1ER25QStandardItemModelPrivateP7QObject @ 4184 NONAME
	_ZN18QStandardItemModelC1EiiP7QObject @ 4185 NONAME
	_ZN18QStandardItemModelC2EP7QObject @ 4186 NONAME
	_ZN18QStandardItemModelC2ER25QStandardItemModelPrivateP7QObject @ 4187 NONAME
	_ZN18QStandardItemModelC2EiiP7QObject @ 4188 NONAME
	_ZN18QStandardItemModelD0Ev @ 4189 NONAME
	_ZN18QStandardItemModelD1Ev @ 4190 NONAME
	_ZN18QStandardItemModelD2Ev @ 4191 NONAME
	_ZN18QStyleOptionButtonC1Ei @ 4192 NONAME
	_ZN18QStyleOptionButtonC1Ev @ 4193 NONAME
	_ZN18QStyleOptionButtonC2Ei @ 4194 NONAME
	_ZN18QStyleOptionButtonC2Ev @ 4195 NONAME
	_ZN18QStyleOptionHeaderC1Ei @ 4196 NONAME
	_ZN18QStyleOptionHeaderC1Ev @ 4197 NONAME
	_ZN18QStyleOptionHeaderC2Ei @ 4198 NONAME
	_ZN18QStyleOptionHeaderC2Ev @ 4199 NONAME
	_ZN18QStyleOptionSliderC1Ei @ 4200 NONAME
	_ZN18QStyleOptionSliderC1Ev @ 4201 NONAME
	_ZN18QStyleOptionSliderC2Ei @ 4202 NONAME
	_ZN18QStyleOptionSliderC2Ev @ 4203 NONAME
	_ZN18QSyntaxHighlighter11qt_metacallEN11QMetaObject4CallEiPPv @ 4204 NONAME
	_ZN18QSyntaxHighlighter11qt_metacastEPKc @ 4205 NONAME
	_ZN18QSyntaxHighlighter11rehighlightEv @ 4206 NONAME
	_ZN18QSyntaxHighlighter11setDocumentEP13QTextDocument @ 4207 NONAME
	_ZN18QSyntaxHighlighter16rehighlightBlockERK10QTextBlock @ 4208 NONAME
	_ZN18QSyntaxHighlighter16staticMetaObjectE @ 4209 NONAME DATA 16
	_ZN18QSyntaxHighlighter19getStaticMetaObjectEv @ 4210 NONAME
	_ZN18QSyntaxHighlighter20setCurrentBlockStateEi @ 4211 NONAME
	_ZN18QSyntaxHighlighter23setCurrentBlockUserDataEP18QTextBlockUserData @ 4212 NONAME
	_ZN18QSyntaxHighlighter9setFormatEiiRK15QTextCharFormat @ 4213 NONAME
	_ZN18QSyntaxHighlighter9setFormatEiiRK5QFont @ 4214 NONAME
	_ZN18QSyntaxHighlighter9setFormatEiiRK6QColor @ 4215 NONAME
	_ZN18QSyntaxHighlighterC2EP13QTextDocument @ 4216 NONAME
	_ZN18QSyntaxHighlighterC2EP7QObject @ 4217 NONAME
	_ZN18QSyntaxHighlighterC2EP9QTextEdit @ 4218 NONAME
	_ZN18QSyntaxHighlighterD0Ev @ 4219 NONAME
	_ZN18QSyntaxHighlighterD1Ev @ 4220 NONAME
	_ZN18QSyntaxHighlighterD2Ev @ 4221 NONAME
	_ZN18QTextBlockUserDataD0Ev @ 4222 NONAME
	_ZN18QTextBlockUserDataD1Ev @ 4223 NONAME
	_ZN18QTextBlockUserDataD2Ev @ 4224 NONAME
	_ZN18QTextureGlyphCache8populateERK12QTextItemIntRK15QVarLengthArrayIjLi256EERKS3_I11QFixedPointLi256EE @ 4225 NONAME ABSENT
	_ZN19QAbstractProxyModel11qt_metacallEN11QMetaObject4CallEiPPv @ 4226 NONAME
	_ZN19QAbstractProxyModel11qt_metacastEPKc @ 4227 NONAME
	_ZN19QAbstractProxyModel13setHeaderDataEiN2Qt11OrientationERK8QVarianti @ 4228 NONAME
	_ZN19QAbstractProxyModel14setSourceModelEP18QAbstractItemModel @ 4229 NONAME
	_ZN19QAbstractProxyModel16staticMetaObjectE @ 4230 NONAME DATA 16
	_ZN19QAbstractProxyModel19getStaticMetaObjectEv @ 4231 NONAME
	_ZN19QAbstractProxyModel6revertEv @ 4232 NONAME
	_ZN19QAbstractProxyModel6submitEv @ 4233 NONAME
	_ZN19QAbstractProxyModel7setDataERK11QModelIndexRK8QVarianti @ 4234 NONAME
	_ZN19QAbstractProxyModelC2EP7QObject @ 4235 NONAME
	_ZN19QAbstractProxyModelC2ER26QAbstractProxyModelPrivateP7QObject @ 4236 NONAME
	_ZN19QAbstractProxyModelD0Ev @ 4237 NONAME
	_ZN19QAbstractProxyModelD1Ev @ 4238 NONAME
	_ZN19QAbstractProxyModelD2Ev @ 4239 NONAME
	_ZN19QAbstractScrollArea10paintEventEP11QPaintEvent @ 4240 NONAME
	_ZN19QAbstractScrollArea10wheelEventEP11QWheelEvent @ 4241 NONAME
	_ZN19QAbstractScrollArea11qt_metacallEN11QMetaObject4CallEiPPv @ 4242 NONAME
	_ZN19QAbstractScrollArea11qt_metacastEPKc @ 4243 NONAME
	_ZN19QAbstractScrollArea11resizeEventEP12QResizeEvent @ 4244 NONAME
	_ZN19QAbstractScrollArea11setViewportEP7QWidget @ 4245 NONAME
	_ZN19QAbstractScrollArea13dragMoveEventEP14QDragMoveEvent @ 4246 NONAME
	_ZN19QAbstractScrollArea13keyPressEventEP9QKeyEvent @ 4247 NONAME
	_ZN19QAbstractScrollArea13setupViewportEP7QWidget @ 4248 NONAME
	_ZN19QAbstractScrollArea13viewportEventEP6QEvent @ 4249 NONAME
	_ZN19QAbstractScrollArea14dragEnterEventEP15QDragEnterEvent @ 4250 NONAME
	_ZN19QAbstractScrollArea14dragLeaveEventEP15QDragLeaveEvent @ 4251 NONAME
	_ZN19QAbstractScrollArea14mouseMoveEventEP11QMouseEvent @ 4252 NONAME
	_ZN19QAbstractScrollArea15mousePressEventEP11QMouseEvent @ 4253 NONAME
	_ZN19QAbstractScrollArea15setCornerWidgetEP7QWidget @ 4254 NONAME
	_ZN19QAbstractScrollArea16contextMenuEventEP17QContextMenuEvent @ 4255 NONAME
	_ZN19QAbstractScrollArea16scrollBarWidgetsE6QFlagsIN2Qt13AlignmentFlagEE @ 4256 NONAME
	_ZN19QAbstractScrollArea16scrollContentsByEii @ 4257 NONAME
	_ZN19QAbstractScrollArea16staticMetaObjectE @ 4258 NONAME DATA 16
	_ZN19QAbstractScrollArea17mouseReleaseEventEP11QMouseEvent @ 4259 NONAME
	_ZN19QAbstractScrollArea18addScrollBarWidgetEP7QWidget6QFlagsIN2Qt13AlignmentFlagEE @ 4260 NONAME
	_ZN19QAbstractScrollArea18setViewportMarginsEiiii @ 4261 NONAME
	_ZN19QAbstractScrollArea19getStaticMetaObjectEv @ 4262 NONAME
	_ZN19QAbstractScrollArea20setVerticalScrollBarEP10QScrollBar @ 4263 NONAME
	_ZN19QAbstractScrollArea21mouseDoubleClickEventEP11QMouseEvent @ 4264 NONAME
	_ZN19QAbstractScrollArea22setHorizontalScrollBarEP10QScrollBar @ 4265 NONAME
	_ZN19QAbstractScrollArea26setVerticalScrollBarPolicyEN2Qt15ScrollBarPolicyE @ 4266 NONAME
	_ZN19QAbstractScrollArea28setHorizontalScrollBarPolicyEN2Qt15ScrollBarPolicyE @ 4267 NONAME
	_ZN19QAbstractScrollArea5eventEP6QEvent @ 4268 NONAME
	_ZN19QAbstractScrollArea9dropEventEP10QDropEvent @ 4269 NONAME
	_ZN19QAbstractScrollAreaC1EP7QWidget @ 4270 NONAME
	_ZN19QAbstractScrollAreaC1ER26QAbstractScrollAreaPrivateP7QWidget @ 4271 NONAME
	_ZN19QAbstractScrollAreaC2EP7QWidget @ 4272 NONAME
	_ZN19QAbstractScrollAreaC2ER26QAbstractScrollAreaPrivateP7QWidget @ 4273 NONAME
	_ZN19QAbstractScrollAreaD0Ev @ 4274 NONAME
	_ZN19QAbstractScrollAreaD1Ev @ 4275 NONAME
	_ZN19QAbstractScrollAreaD2Ev @ 4276 NONAME
	_ZN19QApplicationPrivate10animate_uiE @ 4277 NONAME DATA 1
	_ZN19QApplicationPrivate10closePopupEP7QWidget @ 4278 NONAME
	_ZN19QApplicationPrivate10enterModalEP7QWidget @ 4279 NONAME
	_ZN19QApplicationPrivate10initializeEv @ 4280 NONAME
	_ZN19QApplicationPrivate10leaveModalEP7QWidget @ 4281 NONAME
	_ZN19QApplicationPrivate10modalStateEv @ 4282 NONAME
	_ZN19QApplicationPrivate10styleSheetE @ 4283 NONAME DATA 4
	_ZN19QApplicationPrivate11main_widgetE @ 4284 NONAME DATA 4
	_ZN19QApplicationPrivate11widgetCountE @ 4285 NONAME DATA 1
	_ZN19QApplicationPrivate12animate_menuE @ 4286 NONAME DATA 1
	_ZN19QApplicationPrivate12fade_tooltipE @ 4287 NONAME DATA 1
	_ZN19QApplicationPrivate12focus_widgetE @ 4288 NONAME DATA 4
	_ZN19QApplicationPrivate12inputContextE @ 4289 NONAME DATA 4
	_ZN19QApplicationPrivate12oldEditFocusE @ 4290 NONAME DATA 4
	_ZN19QApplicationPrivate12popupWidgetsE @ 4291 NONAME DATA 4
	_ZN19QApplicationPrivate13active_windowE @ 4292 NONAME DATA 4
	_ZN19QApplicationPrivate13animate_comboE @ 4293 NONAME DATA 1
	_ZN19QApplicationPrivate13mouse_buttonsE @ 4294 NONAME DATA 4
	_ZN19QApplicationPrivate13notify_helperEP7QObjectP6QEvent @ 4295 NONAME
	_ZN19QApplicationPrivate13scanCodeCacheE @ 4296 NONAME DATA 4 ABSENT
	_ZN19QApplicationPrivate13setSystemFontERK5QFont @ 4297 NONAME
	_ZN19QApplicationPrivate13styleOverrideE @ 4298 NONAME DATA 4
	_ZN19QApplicationPrivate14autoSipEnabledE @ 4299 NONAME DATA 1
	_ZN19QApplicationPrivate14enterModal_sysEP7QWidget @ 4300 NONAME
	_ZN19QApplicationPrivate14leaveModal_sysEP7QWidget @ 4301 NONAME
	_ZN19QApplicationPrivate14navigationModeE @ 4302 NONAME DATA 4
	_ZN19QApplicationPrivate14sendMouseEventEP7QWidgetP11QMouseEventS1_S1_PS1_R8QPointerIS0_Eb @ 4303 NONAME
	_ZN19QApplicationPrivate14setFocusWidgetEP7QWidgetN2Qt11FocusReasonE @ 4304 NONAME
	_ZN19QApplicationPrivate14shouldSetFocusEP7QWidgetN2Qt11FocusPolicyE @ 4305 NONAME
	_ZN19QApplicationPrivate14tryModalHelperEP7QWidgetPS1_ @ 4306 NONAME
	_ZN19QApplicationPrivate15animate_toolboxE @ 4307 NONAME DATA 1
	_ZN19QApplicationPrivate15animate_tooltipE @ 4308 NONAME DATA 1
	_ZN19QApplicationPrivate15currentPlatformEv @ 4309 NONAME
	_ZN19QApplicationPrivate15desktopStyleKeyEv @ 4310 NONAME
	_ZN19QApplicationPrivate15graphics_systemE @ 4311 NONAME DATA 4
	_ZN19QApplicationPrivate15process_cmdlineEv @ 4312 NONAME
	_ZN19QApplicationPrivate16isBlockedByModalEP7QWidget @ 4313 NONAME
	_ZN19QApplicationPrivate16load_testabilityE @ 4314 NONAME DATA 1
	_ZN19QApplicationPrivate16modifier_buttonsE @ 4315 NONAME DATA 4
	_ZN19QApplicationPrivate16setSystemPaletteERK8QPalette @ 4316 NONAME
	_ZN19QApplicationPrivate17cleanupMultitouchEv @ 4317 NONAME
	_ZN19QApplicationPrivate17cursor_flash_timeE @ 4318 NONAME DATA 4
	_ZN19QApplicationPrivate17leaveAfterReleaseE @ 4319 NONAME DATA 4
	_ZN19QApplicationPrivate17pickMouseReceiverEP7QWidgetRK6QPointRS2_N6QEvent4TypeE6QFlagsIN2Qt11MouseButtonEES1_S1_ @ 4320 NONAME
	_ZN19QApplicationPrivate17setNavigationModeEN2Qt14NavigationModeE @ 4321 NONAME
	_ZN19QApplicationPrivate17setPalette_helperERK8QPalettePKcb @ 4322 NONAME
	_ZN19QApplicationPrivate18dispatchEnterLeaveEP7QWidgetS1_ @ 4323 NONAME
	_ZN19QApplicationPrivate18resolveS60ScanCodeEij @ 4324 NONAME
	_ZN19QApplicationPrivate18wheel_scroll_linesE @ 4325 NONAME DATA 4
	_ZN19QApplicationPrivate19app_compile_versionE @ 4326 NONAME DATA 4 ABSENT
	_ZN19QApplicationPrivate19hidden_focus_widgetE @ 4327 NONAME DATA 4
	_ZN19QApplicationPrivate19keyboard_input_timeE @ 4328 NONAME DATA 4
	_ZN19QApplicationPrivate20emitLastWindowClosedEv @ 4329 NONAME
	_ZN19QApplicationPrivate20graphics_system_nameE @ 4330 NONAME DATA 4
	_ZN19QApplicationPrivate20initializeMultitouchEv @ 4331 NONAME
	_ZN19QApplicationPrivate21cleanupMultitouch_sysEv @ 4332 NONAME
	_ZN19QApplicationPrivate21createEventDispatcherEv @ 4333 NONAME
	_ZN19QApplicationPrivate21obey_desktop_settingsE @ 4334 NONAME DATA 1
	_ZN19QApplicationPrivate22quitOnLastWindowClosedE @ 4335 NONAME DATA 1
	_ZN19QApplicationPrivate22translateRawTouchEventEP7QWidgetN11QTouchEvent10DeviceTypeERK5QListINS2_10TouchPointEE @ 4336 NONAME
	_ZN19QApplicationPrivate23findClosestTouchPointIdERK7QPointF @ 4337 NONAME
	_ZN19QApplicationPrivate23mouse_double_click_timeE @ 4338 NONAME DATA 4
	_ZN19QApplicationPrivate24initializeMultitouch_sysEv @ 4339 NONAME
	_ZN19QApplicationPrivate25focusNextPrevChild_helperEP7QWidgetb @ 4340 NONAME
	_ZN19QApplicationPrivate26updateTouchPointsForWidgetEP7QWidgetP11QTouchEvent @ 4341 NONAME
	_ZN19QApplicationPrivate27initializeWidgetPaletteHashEv @ 4342 NONAME
	_ZN19QApplicationPrivate31giveFocusAccordingToFocusPolicyEP7QWidgetN2Qt11FocusPolicyENS2_11FocusReasonE @ 4343 NONAME
	_ZN19QApplicationPrivate4selfE @ 4344 NONAME DATA 4
	_ZN19QApplicationPrivate7app_palE @ 4345 NONAME DATA 4
	_ZN19QApplicationPrivate7set_palE @ 4346 NONAME DATA 4
	_ZN19QApplicationPrivate7sys_palE @ 4347 NONAME DATA 4
	_ZN19QApplicationPrivate8app_fontE @ 4348 NONAME DATA 4
	_ZN19QApplicationPrivate8app_iconE @ 4349 NONAME DATA 4
	_ZN19QApplicationPrivate8set_fontE @ 4350 NONAME DATA 4
	_ZN19QApplicationPrivate8sys_fontE @ 4351 NONAME DATA 4
	_ZN19QApplicationPrivate9app_cspecE @ 4352 NONAME DATA 4
	_ZN19QApplicationPrivate9app_strutE @ 4353 NONAME DATA 8
	_ZN19QApplicationPrivate9app_styleE @ 4354 NONAME DATA 4
	_ZN19QApplicationPrivate9constructEv @ 4355 NONAME
	_ZN19QApplicationPrivate9fade_menuE @ 4356 NONAME DATA 1
	_ZN19QApplicationPrivate9openPopupEP7QWidget @ 4357 NONAME
	_ZN19QApplicationPrivateC1ERiPPcN12QApplication4TypeE @ 4358 NONAME ABSENT
	_ZN19QApplicationPrivateC2ERiPPcN12QApplication4TypeE @ 4359 NONAME ABSENT
	_ZN19QApplicationPrivateD0Ev @ 4360 NONAME
	_ZN19QApplicationPrivateD1Ev @ 4361 NONAME
	_ZN19QApplicationPrivateD2Ev @ 4362 NONAME
	_ZN19QCoeFepInputContext10Extension1ERi @ 4363 NONAME ABSENT
	_ZN19QCoeFepInputContext10applyHintsE6QFlagsIN2Qt15InputMethodHintEE @ 4364 NONAME ABSENT
	_ZN19QCoeFepInputContext11applyFormatEP5QListIN17QInputMethodEvent9AttributeEE @ 4365 NONAME ABSENT
	_ZN19QCoeFepInputContext11filterEventEPK6QEvent @ 4366 NONAME ABSENT
	_ZN19QCoeFepInputContext11qt_metacallEN11QMetaObject4CallEiPPv @ 4367 NONAME ABSENT
	_ZN19QCoeFepInputContext11qt_metacastEPKc @ 4368 NONAME ABSENT
	_ZN19QCoeFepInputContext11updateHintsEb @ 4369 NONAME ABSENT
	_ZN19QCoeFepInputContext12mouseHandlerEiP11QMouseEvent @ 4370 NONAME ABSENT
	_ZN19QCoeFepInputContext14setFocusWidgetEP7QWidget @ 4371 NONAME ABSENT
	_ZN19QCoeFepInputContext15MopSupplyObjectE8TTypeUid @ 4372 NONAME ABSENT
	_ZN19QCoeFepInputContext15widgetDestroyedEP7QWidget @ 4373 NONAME ABSENT
	_ZN19QCoeFepInputContext16staticMetaObjectE @ 4374 NONAME DATA 16 ABSENT
	_ZN19QCoeFepInputContext17inputCapabilitiesEv @ 4375 NONAME ABSENT
	_ZN19QCoeFepInputContext19CancelFepInlineEditEv @ 4376 NONAME ABSENT
	_ZN19QCoeFepInputContext19StartFepInlineEditLERK7TDesC16iiPK15MFormCustomDrawR29MFepInlineTextFormatRetrieverR39MFepPointerEventHandlerDuringInlineEdit @ 4377 NONAME ABSENT
	_ZN19QCoeFepInputContext19commitCurrentStringEb @ 4378 NONAME ABSENT
	_ZN19QCoeFepInputContext19getStaticMetaObjectEv @ 4379 NONAME ABSENT
	_ZN19QCoeFepInputContext20UpdateFepInlineTextLERK7TDesC16i @ 4380 NONAME ABSENT
	_ZN19QCoeFepInputContext21ReportAknEdStateEventEN19MAknEdStateObserver19EAknEdwinStateEventE @ 4381 NONAME ABSENT
	_ZN19QCoeFepInputContext22DoCommitFepInlineEditLEv @ 4382 NONAME ABSENT
	_ZN19QCoeFepInputContext25SetCursorSelectionForFepLERK16TCursorSelection @ 4383 NONAME ABSENT
	_ZN19QCoeFepInputContext29SetStateTransferingOwnershipLEPN33MCoeFepAwareTextEditor_Extension16CStateE4TUid @ 4384 NONAME ABSENT
	_ZN19QCoeFepInputContext29queueInputCapabilitiesChangedEv @ 4385 NONAME ABSENT
	_ZN19QCoeFepInputContext30ensureInputCapabilitiesChangedEv @ 4386 NONAME ABSENT
	_ZN19QCoeFepInputContext33SetInlineEditingCursorVisibilityLEi @ 4387 NONAME ABSENT
	_ZN19QCoeFepInputContext5StateE4TUid @ 4388 NONAME ABSENT
	_ZN19QCoeFepInputContext5resetEv @ 4389 NONAME ABSENT
	_ZN19QCoeFepInputContext6updateEv @ 4390 NONAME ABSENT
	_ZN19QCoeFepInputContext8languageEv @ 4391 NONAME ABSENT
	_ZN19QCoeFepInputContextC1EP7QObject @ 4392 NONAME ABSENT
	_ZN19QCoeFepInputContextC2EP7QObject @ 4393 NONAME ABSENT
	_ZN19QCoeFepInputContextD0Ev @ 4394 NONAME ABSENT
	_ZN19QCoeFepInputContextD1Ev @ 4395 NONAME ABSENT
	_ZN19QCoeFepInputContextD2Ev @ 4396 NONAME ABSENT
	_ZN19QEventDispatcherS6011qt_metacallEN11QMetaObject4CallEiPPv @ 4397 NONAME
	_ZN19QEventDispatcherS6011qt_metacastEPKc @ 4398 NONAME
	_ZN19QEventDispatcherS6013processEventsE6QFlagsIN10QEventLoop17ProcessEventsFlagEE @ 4399 NONAME
	_ZN19QEventDispatcherS6014saveInputEventEP15QSymbianControlP7QWidgetP11QInputEvent @ 4400 NONAME
	_ZN19QEventDispatcherS6016hasPendingEventsEv @ 4401 NONAME
	_ZN19QEventDispatcherS6016staticMetaObjectE @ 4402 NONAME DATA 16
	_ZN19QEventDispatcherS6019getStaticMetaObjectEv @ 4403 NONAME
	_ZN19QEventDispatcherS6023sendDeferredInputEventsEv @ 4404 NONAME
	_ZN19QEventDispatcherS6026removeInputEventsForWidgetEP7QObject @ 4405 NONAME
	_ZN19QEventDispatcherS60C1EP7QObject @ 4406 NONAME
	_ZN19QEventDispatcherS60C2EP7QObject @ 4407 NONAME
	_ZN19QEventDispatcherS60D0Ev @ 4408 NONAME
	_ZN19QEventDispatcherS60D1Ev @ 4409 NONAME
	_ZN19QEventDispatcherS60D2Ev @ 4410 NONAME
	_ZN19QGraphicsBlurEffect11qt_metacallEN11QMetaObject4CallEiPPv @ 4411 NONAME
	_ZN19QGraphicsBlurEffect11qt_metacastEPKc @ 4412 NONAME
	_ZN19QGraphicsBlurEffect11setBlurHintEN2Qt10RenderHintE @ 4413 NONAME ABSENT
	_ZN19QGraphicsBlurEffect13setBlurRadiusEi @ 4414 NONAME ABSENT
	_ZN19QGraphicsBlurEffect15blurHintChangedEN2Qt10RenderHintE @ 4415 NONAME ABSENT
	_ZN19QGraphicsBlurEffect16staticMetaObjectE @ 4416 NONAME DATA 16
	_ZN19QGraphicsBlurEffect17blurRadiusChangedEi @ 4417 NONAME ABSENT
	_ZN19QGraphicsBlurEffect19getStaticMetaObjectEv @ 4418 NONAME
	_ZN19QGraphicsBlurEffect4drawEP8QPainterP21QGraphicsEffectSource @ 4419 NONAME ABSENT
	_ZN19QGraphicsBlurEffectC1EP7QObject @ 4420 NONAME
	_ZN19QGraphicsBlurEffectC2EP7QObject @ 4421 NONAME
	_ZN19QGraphicsBlurEffectD0Ev @ 4422 NONAME
	_ZN19QGraphicsBlurEffectD1Ev @ 4423 NONAME
	_ZN19QGraphicsBlurEffectD2Ev @ 4424 NONAME
	_ZN19QGraphicsGridLayout10invalidateEv @ 4425 NONAME
	_ZN19QGraphicsGridLayout10setSpacingEf @ 4426 NONAME
	_ZN19QGraphicsGridLayout11setGeometryERK6QRectF @ 4427 NONAME
	_ZN19QGraphicsGridLayout12setAlignmentEP19QGraphicsLayoutItem6QFlagsIN2Qt13AlignmentFlagEE @ 4428 NONAME
	_ZN19QGraphicsGridLayout13setRowSpacingEif @ 4429 NONAME
	_ZN19QGraphicsGridLayout15setRowAlignmentEi6QFlagsIN2Qt13AlignmentFlagEE @ 4430 NONAME
	_ZN19QGraphicsGridLayout16setColumnSpacingEif @ 4431 NONAME
	_ZN19QGraphicsGridLayout17setRowFixedHeightEif @ 4432 NONAME
	_ZN19QGraphicsGridLayout18setColumnAlignmentEi6QFlagsIN2Qt13AlignmentFlagEE @ 4433 NONAME
	_ZN19QGraphicsGridLayout18setVerticalSpacingEf @ 4434 NONAME
	_ZN19QGraphicsGridLayout19setColumnFixedWidthEif @ 4435 NONAME
	_ZN19QGraphicsGridLayout19setRowMaximumHeightEif @ 4436 NONAME
	_ZN19QGraphicsGridLayout19setRowMinimumHeightEif @ 4437 NONAME
	_ZN19QGraphicsGridLayout19setRowStretchFactorEii @ 4438 NONAME
	_ZN19QGraphicsGridLayout20setHorizontalSpacingEf @ 4439 NONAME
	_ZN19QGraphicsGridLayout21setColumnMaximumWidthEif @ 4440 NONAME
	_ZN19QGraphicsGridLayout21setColumnMinimumWidthEif @ 4441 NONAME
	_ZN19QGraphicsGridLayout21setRowPreferredHeightEif @ 4442 NONAME
	_ZN19QGraphicsGridLayout22setColumnStretchFactorEii @ 4443 NONAME
	_ZN19QGraphicsGridLayout23setColumnPreferredWidthEif @ 4444 NONAME
	_ZN19QGraphicsGridLayout7addItemEP19QGraphicsLayoutItemiiii6QFlagsIN2Qt13AlignmentFlagEE @ 4445 NONAME
	_ZN19QGraphicsGridLayout8removeAtEi @ 4446 NONAME
	_ZN19QGraphicsGridLayoutC1EP19QGraphicsLayoutItem @ 4447 NONAME
	_ZN19QGraphicsGridLayoutC2EP19QGraphicsLayoutItem @ 4448 NONAME
	_ZN19QGraphicsGridLayoutD0Ev @ 4449 NONAME
	_ZN19QGraphicsGridLayoutD1Ev @ 4450 NONAME
	_ZN19QGraphicsGridLayoutD2Ev @ 4451 NONAME
	_ZN19QGraphicsLayoutItem11setGeometryERK6QRectF @ 4452 NONAME
	_ZN19QGraphicsLayoutItem13setSizePolicyEN11QSizePolicy6PolicyES1_NS0_11ControlTypeE @ 4453 NONAME
	_ZN19QGraphicsLayoutItem13setSizePolicyERK11QSizePolicy @ 4454 NONAME
	_ZN19QGraphicsLayoutItem14setMaximumSizeERK6QSizeF @ 4455 NONAME
	_ZN19QGraphicsLayoutItem14setMinimumSizeERK6QSizeF @ 4456 NONAME
	_ZN19QGraphicsLayoutItem14updateGeometryEv @ 4457 NONAME
	_ZN19QGraphicsLayoutItem15setGraphicsItemEP13QGraphicsItem @ 4458 NONAME
	_ZN19QGraphicsLayoutItem15setMaximumWidthEf @ 4459 NONAME
	_ZN19QGraphicsLayoutItem15setMinimumWidthEf @ 4460 NONAME
	_ZN19QGraphicsLayoutItem16setMaximumHeightEf @ 4461 NONAME
	_ZN19QGraphicsLayoutItem16setMinimumHeightEf @ 4462 NONAME
	_ZN19QGraphicsLayoutItem16setOwnedByLayoutEb @ 4463 NONAME
	_ZN19QGraphicsLayoutItem16setPreferredSizeERK6QSizeF @ 4464 NONAME
	_ZN19QGraphicsLayoutItem17setPreferredWidthEf @ 4465 NONAME
	_ZN19QGraphicsLayoutItem18setPreferredHeightEf @ 4466 NONAME
	_ZN19QGraphicsLayoutItem19setParentLayoutItemEPS_ @ 4467 NONAME
	_ZN19QGraphicsLayoutItemC2EPS_b @ 4468 NONAME
	_ZN19QGraphicsLayoutItemC2ER26QGraphicsLayoutItemPrivate @ 4469 NONAME
	_ZN19QGraphicsLayoutItemD0Ev @ 4470 NONAME
	_ZN19QGraphicsLayoutItemD1Ev @ 4471 NONAME
	_ZN19QGraphicsLayoutItemD2Ev @ 4472 NONAME
	_ZN19QGraphicsPixmapItem12setExtensionEN13QGraphicsItem9ExtensionERK8QVariant @ 4473 NONAME
	_ZN19QGraphicsPixmapItem12setShapeModeENS_9ShapeModeE @ 4474 NONAME
	_ZN19QGraphicsPixmapItem21setTransformationModeEN2Qt18TransformationModeE @ 4475 NONAME
	_ZN19QGraphicsPixmapItem5paintEP8QPainterPK24QStyleOptionGraphicsItemP7QWidget @ 4476 NONAME
	_ZN19QGraphicsPixmapItem9setOffsetERK7QPointF @ 4477 NONAME
	_ZN19QGraphicsPixmapItem9setPixmapERK7QPixmap @ 4478 NONAME
	_ZN19QGraphicsPixmapItemC1EP13QGraphicsItemP14QGraphicsScene @ 4479 NONAME
	_ZN19QGraphicsPixmapItemC1ERK7QPixmapP13QGraphicsItemP14QGraphicsScene @ 4480 NONAME
	_ZN19QGraphicsPixmapItemC2EP13QGraphicsItemP14QGraphicsScene @ 4481 NONAME
	_ZN19QGraphicsPixmapItemC2ERK7QPixmapP13QGraphicsItemP14QGraphicsScene @ 4482 NONAME
	_ZN19QGraphicsPixmapItemD0Ev @ 4483 NONAME
	_ZN19QGraphicsPixmapItemD1Ev @ 4484 NONAME
	_ZN19QGraphicsPixmapItemD2Ev @ 4485 NONAME
	_ZN19QGraphicsSceneEvent9setWidgetEP7QWidget @ 4486 NONAME
	_ZN19QGraphicsSceneEventC1EN6QEvent4TypeE @ 4487 NONAME
	_ZN19QGraphicsSceneEventC1ER26QGraphicsSceneEventPrivateN6QEvent4TypeE @ 4488 NONAME
	_ZN19QGraphicsSceneEventC2EN6QEvent4TypeE @ 4489 NONAME
	_ZN19QGraphicsSceneEventC2ER26QGraphicsSceneEventPrivateN6QEvent4TypeE @ 4490 NONAME
	_ZN19QGraphicsSceneEventD0Ev @ 4491 NONAME
	_ZN19QGraphicsSceneEventD1Ev @ 4492 NONAME
	_ZN19QGraphicsSceneEventD2Ev @ 4493 NONAME
	_ZN19QIconEnginePluginV211qt_metacallEN11QMetaObject4CallEiPPv @ 4494 NONAME
	_ZN19QIconEnginePluginV211qt_metacastEPKc @ 4495 NONAME
	_ZN19QIconEnginePluginV216staticMetaObjectE @ 4496 NONAME DATA 16
	_ZN19QIconEnginePluginV219getStaticMetaObjectEv @ 4497 NONAME
	_ZN19QIconEnginePluginV2C2EP7QObject @ 4498 NONAME
	_ZN19QIconEnginePluginV2D0Ev @ 4499 NONAME
	_ZN19QIconEnginePluginV2D1Ev @ 4500 NONAME
	_ZN19QIconEnginePluginV2D2Ev @ 4501 NONAME
	_ZN19QInputContextPlugin11qt_metacallEN11QMetaObject4CallEiPPv @ 4502 NONAME
	_ZN19QInputContextPlugin11qt_metacastEPKc @ 4503 NONAME
	_ZN19QInputContextPlugin16staticMetaObjectE @ 4504 NONAME DATA 16
	_ZN19QInputContextPlugin19getStaticMetaObjectEv @ 4505 NONAME
	_ZN19QInputContextPluginC2EP7QObject @ 4506 NONAME
	_ZN19QInputContextPluginD0Ev @ 4507 NONAME
	_ZN19QInputContextPluginD1Ev @ 4508 NONAME
	_ZN19QInputContextPluginD2Ev @ 4509 NONAME
	_ZN19QItemSelectionModel11qt_metacallEN11QMetaObject4CallEiPPv @ 4510 NONAME
	_ZN19QItemSelectionModel11qt_metacastEPKc @ 4511 NONAME
	_ZN19QItemSelectionModel14clearSelectionEv @ 4512 NONAME
	_ZN19QItemSelectionModel14currentChangedERK11QModelIndexS2_ @ 4513 NONAME
	_ZN19QItemSelectionModel15setCurrentIndexERK11QModelIndex6QFlagsINS_13SelectionFlagEE @ 4514 NONAME
	_ZN19QItemSelectionModel16selectionChangedERK14QItemSelectionS2_ @ 4515 NONAME
	_ZN19QItemSelectionModel16staticMetaObjectE @ 4516 NONAME DATA 16
	_ZN19QItemSelectionModel17currentRowChangedERK11QModelIndexS2_ @ 4517 NONAME
	_ZN19QItemSelectionModel19getStaticMetaObjectEv @ 4518 NONAME
	_ZN19QItemSelectionModel20currentColumnChangedERK11QModelIndexS2_ @ 4519 NONAME
	_ZN19QItemSelectionModel20emitSelectionChangedERK14QItemSelectionS2_ @ 4520 NONAME
	_ZN19QItemSelectionModel5clearEv @ 4521 NONAME
	_ZN19QItemSelectionModel5resetEv @ 4522 NONAME
	_ZN19QItemSelectionModel6selectERK11QModelIndex6QFlagsINS_13SelectionFlagEE @ 4523 NONAME
	_ZN19QItemSelectionModel6selectERK14QItemSelection6QFlagsINS_13SelectionFlagEE @ 4524 NONAME
	_ZN19QItemSelectionModelC1EP18QAbstractItemModel @ 4525 NONAME
	_ZN19QItemSelectionModelC1EP18QAbstractItemModelP7QObject @ 4526 NONAME
	_ZN19QItemSelectionModelC1ER26QItemSelectionModelPrivateP18QAbstractItemModel @ 4527 NONAME
	_ZN19QItemSelectionModelC2EP18QAbstractItemModel @ 4528 NONAME
	_ZN19QItemSelectionModelC2EP18QAbstractItemModelP7QObject @ 4529 NONAME
	_ZN19QItemSelectionModelC2ER26QItemSelectionModelPrivateP18QAbstractItemModel @ 4530 NONAME
	_ZN19QItemSelectionModelD0Ev @ 4531 NONAME
	_ZN19QItemSelectionModelD1Ev @ 4532 NONAME
	_ZN19QItemSelectionModelD2Ev @ 4533 NONAME
	_ZN19QKeyEventTransition11qt_metacallEN11QMetaObject4CallEiPPv @ 4534 NONAME
	_ZN19QKeyEventTransition11qt_metacastEPKc @ 4535 NONAME
	_ZN19QKeyEventTransition12onTransitionEP6QEvent @ 4536 NONAME
	_ZN19QKeyEventTransition16setModifiersMaskE6QFlagsIN2Qt16KeyboardModifierEE @ 4537 NONAME ABSENT
	_ZN19QKeyEventTransition16staticMetaObjectE @ 4538 NONAME DATA 16
	_ZN19QKeyEventTransition19getStaticMetaObjectEv @ 4539 NONAME
	_ZN19QKeyEventTransition6setKeyEi @ 4540 NONAME
	_ZN19QKeyEventTransition9eventTestEP6QEvent @ 4541 NONAME
	_ZN19QKeyEventTransitionC1EP6QState @ 4542 NONAME
	_ZN19QKeyEventTransitionC1EP7QObjectN6QEvent4TypeEiP6QState @ 4543 NONAME
	_ZN19QKeyEventTransitionC2EP6QState @ 4544 NONAME
	_ZN19QKeyEventTransitionC2EP7QObjectN6QEvent4TypeEiP6QState @ 4545 NONAME
	_ZN19QKeyEventTransitionD0Ev @ 4546 NONAME
	_ZN19QKeyEventTransitionD1Ev @ 4547 NONAME
	_ZN19QKeyEventTransitionD2Ev @ 4548 NONAME
	_ZN19QPainterPathStroker11setCapStyleEN2Qt11PenCapStyleE @ 4549 NONAME
	_ZN19QPainterPathStroker12setJoinStyleEN2Qt12PenJoinStyleE @ 4550 NONAME
	_ZN19QPainterPathStroker13setDashOffsetEf @ 4551 NONAME
	_ZN19QPainterPathStroker13setMiterLimitEf @ 4552 NONAME
	_ZN19QPainterPathStroker14setDashPatternEN2Qt8PenStyleE @ 4553 NONAME
	_ZN19QPainterPathStroker14setDashPatternERK7QVectorIfE @ 4554 NONAME
	_ZN19QPainterPathStroker17setCurveThresholdEf @ 4555 NONAME
	_ZN19QPainterPathStroker8setWidthEf @ 4556 NONAME
	_ZN19QPainterPathStrokerC1Ev @ 4557 NONAME
	_ZN19QPainterPathStrokerC2Ev @ 4558 NONAME
	_ZN19QPainterPathStrokerD1Ev @ 4559 NONAME
	_ZN19QPainterPathStrokerD2Ev @ 4560 NONAME
	_ZN19QS60MainApplication15CreateDocumentLEv @ 4561 NONAME
	_ZN19QS60MainApplicationC1Ev @ 4562 NONAME
	_ZN19QS60MainApplicationC2Ev @ 4563 NONAME
	_ZN19QS60MainApplicationD0Ev @ 4564 NONAME
	_ZN19QS60MainApplicationD1Ev @ 4565 NONAME
	_ZN19QS60MainApplicationD2Ev @ 4566 NONAME
	_ZN19QStyleOptionComplexC1Eii @ 4567 NONAME
	_ZN19QStyleOptionComplexC2Eii @ 4568 NONAME
	_ZN19QStyleOptionFrameV2C1ERK17QStyleOptionFrame @ 4569 NONAME
	_ZN19QStyleOptionFrameV2C1Ei @ 4570 NONAME
	_ZN19QStyleOptionFrameV2C1Ev @ 4571 NONAME
	_ZN19QStyleOptionFrameV2C2ERK17QStyleOptionFrame @ 4572 NONAME
	_ZN19QStyleOptionFrameV2C2Ei @ 4573 NONAME
	_ZN19QStyleOptionFrameV2C2Ev @ 4574 NONAME
	_ZN19QStyleOptionFrameV2aSERK17QStyleOptionFrame @ 4575 NONAME
	_ZN19QStyleOptionFrameV3C1ERK17QStyleOptionFrame @ 4576 NONAME
	_ZN19QStyleOptionFrameV3C1Ei @ 4577 NONAME
	_ZN19QStyleOptionFrameV3C1Ev @ 4578 NONAME
	_ZN19QStyleOptionFrameV3C2ERK17QStyleOptionFrame @ 4579 NONAME
	_ZN19QStyleOptionFrameV3C2Ei @ 4580 NONAME
	_ZN19QStyleOptionFrameV3C2Ev @ 4581 NONAME
	_ZN19QStyleOptionFrameV3aSERK17QStyleOptionFrame @ 4582 NONAME
	_ZN19QStyleOptionSpinBoxC1Ei @ 4583 NONAME
	_ZN19QStyleOptionSpinBoxC1Ev @ 4584 NONAME
	_ZN19QStyleOptionSpinBoxC2Ei @ 4585 NONAME
	_ZN19QStyleOptionSpinBoxC2Ev @ 4586 NONAME
	_ZN19QStyleOptionToolBarC1Ei @ 4587 NONAME
	_ZN19QStyleOptionToolBarC1Ev @ 4588 NONAME
	_ZN19QStyleOptionToolBarC2Ei @ 4589 NONAME
	_ZN19QStyleOptionToolBarC2Ev @ 4590 NONAME
	_ZN19QStyleOptionToolBoxC1Ei @ 4591 NONAME
	_ZN19QStyleOptionToolBoxC1Ev @ 4592 NONAME
	_ZN19QStyleOptionToolBoxC2Ei @ 4593 NONAME
	_ZN19QStyleOptionToolBoxC2Ev @ 4594 NONAME
	_ZN19QStyledItemDelegate11editorEventEP6QEventP18QAbstractItemModelRK20QStyleOptionViewItemRK11QModelIndex @ 4595 NONAME
	_ZN19QStyledItemDelegate11eventFilterEP7QObjectP6QEvent @ 4596 NONAME
	_ZN19QStyledItemDelegate11qt_metacallEN11QMetaObject4CallEiPPv @ 4597 NONAME
	_ZN19QStyledItemDelegate11qt_metacastEPKc @ 4598 NONAME
	_ZN19QStyledItemDelegate16staticMetaObjectE @ 4599 NONAME DATA 16
	_ZN19QStyledItemDelegate19getStaticMetaObjectEv @ 4600 NONAME
	_ZN19QStyledItemDelegate20setItemEditorFactoryEP18QItemEditorFactory @ 4601 NONAME
	_ZN19QStyledItemDelegateC1EP7QObject @ 4602 NONAME
	_ZN19QStyledItemDelegateC2EP7QObject @ 4603 NONAME
	_ZN19QStyledItemDelegateD0Ev @ 4604 NONAME
	_ZN19QStyledItemDelegateD1Ev @ 4605 NONAME
	_ZN19QStyledItemDelegateD2Ev @ 4606 NONAME
	_ZN19QTextDocumentWriter11setFileNameERK7QString @ 4607 NONAME
	_ZN19QTextDocumentWriter24supportedDocumentFormatsEv @ 4608 NONAME
	_ZN19QTextDocumentWriter5writeEPK13QTextDocument @ 4609 NONAME
	_ZN19QTextDocumentWriter5writeERK21QTextDocumentFragment @ 4610 NONAME
	_ZN19QTextDocumentWriter8setCodecEP10QTextCodec @ 4611 NONAME
	_ZN19QTextDocumentWriter9setDeviceEP9QIODevice @ 4612 NONAME
	_ZN19QTextDocumentWriter9setFormatERK10QByteArray @ 4613 NONAME
	_ZN19QTextDocumentWriterC1EP9QIODeviceRK10QByteArray @ 4614 NONAME
	_ZN19QTextDocumentWriterC1ERK7QStringRK10QByteArray @ 4615 NONAME
	_ZN19QTextDocumentWriterC1Ev @ 4616 NONAME
	_ZN19QTextDocumentWriterC2EP9QIODeviceRK10QByteArray @ 4617 NONAME
	_ZN19QTextDocumentWriterC2ERK7QStringRK10QByteArray @ 4618 NONAME
	_ZN19QTextDocumentWriterC2Ev @ 4619 NONAME
	_ZN19QTextDocumentWriterD1Ev @ 4620 NONAME
	_ZN19QTextDocumentWriterD2Ev @ 4621 NONAME
	_ZN19QToolBarChangeEventC1Eb @ 4622 NONAME
	_ZN19QToolBarChangeEventC2Eb @ 4623 NONAME
	_ZN19QToolBarChangeEventD0Ev @ 4624 NONAME
	_ZN19QToolBarChangeEventD1Ev @ 4625 NONAME
	_ZN19QToolBarChangeEventD2Ev @ 4626 NONAME
	_ZN20QGraphicsBloomEffect11qt_metacallEN11QMetaObject4CallEiPPv @ 4627 NONAME ABSENT
	_ZN20QGraphicsBloomEffect11qt_metacastEPKc @ 4628 NONAME ABSENT
	_ZN20QGraphicsBloomEffect11setBlurHintEN2Qt10RenderHintE @ 4629 NONAME ABSENT
	_ZN20QGraphicsBloomEffect11setStrengthEf @ 4630 NONAME ABSENT
	_ZN20QGraphicsBloomEffect13setBlurRadiusEi @ 4631 NONAME ABSENT
	_ZN20QGraphicsBloomEffect13setBrightnessEi @ 4632 NONAME ABSENT
	_ZN20QGraphicsBloomEffect15blurHintChangedEN2Qt10RenderHintE @ 4633 NONAME ABSENT
	_ZN20QGraphicsBloomEffect15strengthChangedEf @ 4634 NONAME ABSENT
	_ZN20QGraphicsBloomEffect16staticMetaObjectE @ 4635 NONAME DATA 16 ABSENT
	_ZN20QGraphicsBloomEffect17blurRadiusChangedEi @ 4636 NONAME ABSENT
	_ZN20QGraphicsBloomEffect17brightnessChangedEi @ 4637 NONAME ABSENT
	_ZN20QGraphicsBloomEffect19getStaticMetaObjectEv @ 4638 NONAME ABSENT
	_ZN20QGraphicsBloomEffect4drawEP8QPainterP21QGraphicsEffectSource @ 4639 NONAME ABSENT
	_ZN20QGraphicsBloomEffectC1EP7QObject @ 4640 NONAME ABSENT
	_ZN20QGraphicsBloomEffectC2EP7QObject @ 4641 NONAME ABSENT
	_ZN20QGraphicsBloomEffectD0Ev @ 4642 NONAME ABSENT
	_ZN20QGraphicsBloomEffectD1Ev @ 4643 NONAME ABSENT
	_ZN20QGraphicsBloomEffectD2Ev @ 4644 NONAME ABSENT
	_ZN20QGraphicsEllipseItem12setExtensionEN13QGraphicsItem9ExtensionERK8QVariant @ 4645 NONAME
	_ZN20QGraphicsEllipseItem12setSpanAngleEi @ 4646 NONAME
	_ZN20QGraphicsEllipseItem13setStartAngleEi @ 4647 NONAME
	_ZN20QGraphicsEllipseItem5paintEP8QPainterPK24QStyleOptionGraphicsItemP7QWidget @ 4648 NONAME
	_ZN20QGraphicsEllipseItem7setRectERK6QRectF @ 4649 NONAME
	_ZN20QGraphicsEllipseItemC1EP13QGraphicsItemP14QGraphicsScene @ 4650 NONAME
	_ZN20QGraphicsEllipseItemC1ERK6QRectFP13QGraphicsItemP14QGraphicsScene @ 4651 NONAME
	_ZN20QGraphicsEllipseItemC1EffffP13QGraphicsItemP14QGraphicsScene @ 4652 NONAME
	_ZN20QGraphicsEllipseItemC2EP13QGraphicsItemP14QGraphicsScene @ 4653 NONAME
	_ZN20QGraphicsEllipseItemC2ERK6QRectFP13QGraphicsItemP14QGraphicsScene @ 4654 NONAME
	_ZN20QGraphicsEllipseItemC2EffffP13QGraphicsItemP14QGraphicsScene @ 4655 NONAME
	_ZN20QGraphicsEllipseItemD0Ev @ 4656 NONAME
	_ZN20QGraphicsEllipseItemD1Ev @ 4657 NONAME
	_ZN20QGraphicsEllipseItemD2Ev @ 4658 NONAME
	_ZN20QGraphicsItemPrivate11removeChildEP13QGraphicsItem @ 4659 NONAME
	_ZN20QGraphicsItemPrivate11setSubFocusEP13QGraphicsItem @ 4660 NONAME ABSENT
	_ZN20QGraphicsItemPrivate12remapItemPosEP6QEventP13QGraphicsItem @ 4661 NONAME
	_ZN20QGraphicsItemPrivate12resolveDepthEv @ 4662 NONAME
	_ZN20QGraphicsItemPrivate12setPosHelperERK7QPointF @ 4663 NONAME
	_ZN20QGraphicsItemPrivate13clearSubFocusEP13QGraphicsItem @ 4664 NONAME ABSENT
	_ZN20QGraphicsItemPrivate14setFocusHelperEN2Qt11FocusReasonEb @ 4665 NONAME ABSENT
	_ZN20QGraphicsItemPrivate15resetFocusProxyEv @ 4666 NONAME
	_ZN20QGraphicsItemPrivate16setEnabledHelperEbbb @ 4667 NONAME
	_ZN20QGraphicsItemPrivate16setVisibleHelperEbbb @ 4668 NONAME
	_ZN20QGraphicsItemPrivate18setIsMemberOfGroupEb @ 4669 NONAME
	_ZN20QGraphicsItemPrivate18setTransformHelperERK10QTransform @ 4670 NONAME
	_ZN20QGraphicsItemPrivate18subFocusItemChangeEv @ 4671 NONAME
	_ZN20QGraphicsItemPrivate18updateAncestorFlagEN13QGraphicsItem16GraphicsItemFlagENS_12AncestorFlagEbb @ 4672 NONAME
	_ZN20QGraphicsItemPrivate19setParentItemHelperEP13QGraphicsItem @ 4673 NONAME ABSENT
	_ZN20QGraphicsItemPrivate20removeExtraItemCacheEv @ 4674 NONAME
	_ZN20QGraphicsItemPrivate23appendGraphicsTransformEP18QGraphicsTransform @ 4675 NONAME
	_ZN20QGraphicsItemPrivate25movableAncestorIsSelectedEPK13QGraphicsItem @ 4676 NONAME
	_ZN20QGraphicsItemPrivate26childrenBoundingRectHelperEP10QTransformP6QRectF @ 4677 NONAME ABSENT
	_ZN20QGraphicsItemPrivate26invalidateDepthRecursivelyEv @ 4678 NONAME
	_ZN20QGraphicsItemPrivate28ensureSequentialSiblingIndexEv @ 4679 NONAME
	_ZN20QGraphicsItemPrivate29ensureSceneTransformRecursiveEPP13QGraphicsItem @ 4680 NONAME
	_ZN20QGraphicsItemPrivate30updateSceneTransformFromParentEv @ 4681 NONAME
	_ZN20QGraphicsItemPrivate33setEmptyCachedClipPathRecursivelyERK6QRectF @ 4682 NONAME ABSENT
	_ZN20QGraphicsItemPrivate35invalidateCachedClipPathRecursivelyEbRK6QRectF @ 4683 NONAME ABSENT
	_ZN20QGraphicsItemPrivate36updateCachedClipPathFromSetPosHelperERK7QPointF @ 4684 NONAME ABSENT
	_ZN20QGraphicsItemPrivate8addChildEP13QGraphicsItem @ 4685 NONAME
	_ZN20QGraphicsPolygonItem10setPolygonERK9QPolygonF @ 4686 NONAME
	_ZN20QGraphicsPolygonItem11setFillRuleEN2Qt8FillRuleE @ 4687 NONAME
	_ZN20QGraphicsPolygonItem12setExtensionEN13QGraphicsItem9ExtensionERK8QVariant @ 4688 NONAME
	_ZN20QGraphicsPolygonItem5paintEP8QPainterPK24QStyleOptionGraphicsItemP7QWidget @ 4689 NONAME
	_ZN20QGraphicsPolygonItemC1EP13QGraphicsItemP14QGraphicsScene @ 4690 NONAME
	_ZN20QGraphicsPolygonItemC1ERK9QPolygonFP13QGraphicsItemP14QGraphicsScene @ 4691 NONAME
	_ZN20QGraphicsPolygonItemC2EP13QGraphicsItemP14QGraphicsScene @ 4692 NONAME
	_ZN20QGraphicsPolygonItemC2ERK9QPolygonFP13QGraphicsItemP14QGraphicsScene @ 4693 NONAME
	_ZN20QGraphicsPolygonItemD0Ev @ 4694 NONAME
	_ZN20QGraphicsPolygonItemD1Ev @ 4695 NONAME
	_ZN20QGraphicsPolygonItemD2Ev @ 4696 NONAME
	_ZN20QGraphicsProxyWidget10itemChangeEN13QGraphicsItem18GraphicsItemChangeERK8QVariant @ 4697 NONAME
	_ZN20QGraphicsProxyWidget10wheelEventEP24QGraphicsSceneWheelEvent @ 4698 NONAME
	_ZN20QGraphicsProxyWidget11eventFilterEP7QObjectP6QEvent @ 4699 NONAME
	_ZN20QGraphicsProxyWidget11qt_metacallEN11QMetaObject4CallEiPPv @ 4700 NONAME
	_ZN20QGraphicsProxyWidget11qt_metacastEPKc @ 4701 NONAME
	_ZN20QGraphicsProxyWidget11resizeEventEP25QGraphicsSceneResizeEvent @ 4702 NONAME
	_ZN20QGraphicsProxyWidget11setGeometryERK6QRectF @ 4703 NONAME
	_ZN20QGraphicsProxyWidget12focusInEventEP11QFocusEvent @ 4704 NONAME
	_ZN20QGraphicsProxyWidget13dragMoveEventEP27QGraphicsSceneDragDropEvent @ 4705 NONAME
	_ZN20QGraphicsProxyWidget13focusOutEventEP11QFocusEvent @ 4706 NONAME
	_ZN20QGraphicsProxyWidget13keyPressEventEP9QKeyEvent @ 4707 NONAME
	_ZN20QGraphicsProxyWidget14dragEnterEventEP27QGraphicsSceneDragDropEvent @ 4708 NONAME
	_ZN20QGraphicsProxyWidget14dragLeaveEventEP27QGraphicsSceneDragDropEvent @ 4709 NONAME
	_ZN20QGraphicsProxyWidget14grabMouseEventEP6QEvent @ 4710 NONAME
	_ZN20QGraphicsProxyWidget14hoverMoveEventEP24QGraphicsSceneHoverEvent @ 4711 NONAME
	_ZN20QGraphicsProxyWidget14mouseMoveEventEP24QGraphicsSceneMouseEvent @ 4712 NONAME
	_ZN20QGraphicsProxyWidget14newProxyWidgetEPK7QWidget @ 4713 NONAME
	_ZN20QGraphicsProxyWidget15hoverEnterEventEP24QGraphicsSceneHoverEvent @ 4714 NONAME
	_ZN20QGraphicsProxyWidget15hoverLeaveEventEP24QGraphicsSceneHoverEvent @ 4715 NONAME
	_ZN20QGraphicsProxyWidget15keyReleaseEventEP9QKeyEvent @ 4716 NONAME
	_ZN20QGraphicsProxyWidget15mousePressEventEP24QGraphicsSceneMouseEvent @ 4717 NONAME
	_ZN20QGraphicsProxyWidget16contextMenuEventEP30QGraphicsSceneContextMenuEvent @ 4718 NONAME
	_ZN20QGraphicsProxyWidget16staticMetaObjectE @ 4719 NONAME DATA 16
	_ZN20QGraphicsProxyWidget16ungrabMouseEventEP6QEvent @ 4720 NONAME
	_ZN20QGraphicsProxyWidget17mouseReleaseEventEP24QGraphicsSceneMouseEvent @ 4721 NONAME
	_ZN20QGraphicsProxyWidget18focusNextPrevChildEb @ 4722 NONAME
	_ZN20QGraphicsProxyWidget19getStaticMetaObjectEv @ 4723 NONAME
	_ZN20QGraphicsProxyWidget21mouseDoubleClickEventEP24QGraphicsSceneMouseEvent @ 4724 NONAME
	_ZN20QGraphicsProxyWidget25createProxyForChildWidgetEP7QWidget @ 4725 NONAME
	_ZN20QGraphicsProxyWidget5eventEP6QEvent @ 4726 NONAME
	_ZN20QGraphicsProxyWidget5paintEP8QPainterPK24QStyleOptionGraphicsItemP7QWidget @ 4727 NONAME
	_ZN20QGraphicsProxyWidget9dropEventEP27QGraphicsSceneDragDropEvent @ 4728 NONAME
	_ZN20QGraphicsProxyWidget9hideEventEP10QHideEvent @ 4729 NONAME
	_ZN20QGraphicsProxyWidget9setWidgetEP7QWidget @ 4730 NONAME
	_ZN20QGraphicsProxyWidget9showEventEP10QShowEvent @ 4731 NONAME
	_ZN20QGraphicsProxyWidgetC1EP13QGraphicsItem6QFlagsIN2Qt10WindowTypeEE @ 4732 NONAME
	_ZN20QGraphicsProxyWidgetC2EP13QGraphicsItem6QFlagsIN2Qt10WindowTypeEE @ 4733 NONAME
	_ZN20QGraphicsProxyWidgetD0Ev @ 4734 NONAME
	_ZN20QGraphicsProxyWidgetD1Ev @ 4735 NONAME
	_ZN20QGraphicsProxyWidgetD2Ev @ 4736 NONAME
	_ZN20QInputContextFactory11descriptionERK7QString @ 4737 NONAME
	_ZN20QInputContextFactory11displayNameERK7QString @ 4738 NONAME
	_ZN20QInputContextFactory4keysEv @ 4739 NONAME
	_ZN20QInputContextFactory6createERK7QStringP7QObject @ 4740 NONAME
	_ZN20QInputContextFactory9languagesERK7QString @ 4741 NONAME
	_ZN20QPaintBufferResource11qt_metacallEN11QMetaObject4CallEiPPv @ 4742 NONAME
	_ZN20QPaintBufferResource11qt_metacastEPKc @ 4743 NONAME
	_ZN20QPaintBufferResource16staticMetaObjectE @ 4744 NONAME DATA 16
	_ZN20QPaintBufferResource19getStaticMetaObjectEv @ 4745 NONAME
	_ZN20QPaintBufferResource5valueEPK19QPaintBufferPrivate @ 4746 NONAME
	_ZN20QPaintBufferResource6insertEPK19QPaintBufferPrivatePv @ 4747 NONAME
	_ZN20QPaintBufferResource6removeEPK19QPaintBufferPrivate @ 4748 NONAME
	_ZN20QPaintBufferResourceC1EPFvPvEP7QObject @ 4749 NONAME
	_ZN20QPaintBufferResourceC2EPFvPvEP7QObject @ 4750 NONAME
	_ZN20QPaintBufferResourceD0Ev @ 4751 NONAME
	_ZN20QPaintBufferResourceD1Ev @ 4752 NONAME
	_ZN20QPaintBufferResourceD2Ev @ 4753 NONAME
	_ZN20QPictureFormatPlugin11loadPictureERK7QStringS2_P8QPicture @ 4754 NONAME
	_ZN20QPictureFormatPlugin11qt_metacallEN11QMetaObject4CallEiPPv @ 4755 NONAME
	_ZN20QPictureFormatPlugin11qt_metacastEPKc @ 4756 NONAME
	_ZN20QPictureFormatPlugin11savePictureERK7QStringS2_RK8QPicture @ 4757 NONAME
	_ZN20QPictureFormatPlugin16staticMetaObjectE @ 4758 NONAME DATA 16
	_ZN20QPictureFormatPlugin19getStaticMetaObjectEv @ 4759 NONAME
	_ZN20QPictureFormatPluginC2EP7QObject @ 4760 NONAME
	_ZN20QPictureFormatPluginD0Ev @ 4761 NONAME
	_ZN20QPictureFormatPluginD1Ev @ 4762 NONAME
	_ZN20QPictureFormatPluginD2Ev @ 4763 NONAME
	_ZN20QRasterWindowSurface10beginPaintERK7QRegion @ 4764 NONAME
	_ZN20QRasterWindowSurface11paintDeviceEv @ 4765 NONAME
	_ZN20QRasterWindowSurface11setGeometryERK5QRect @ 4766 NONAME
	_ZN20QRasterWindowSurface13prepareBufferEN6QImage6FormatEP7QWidget @ 4767 NONAME
	_ZN20QRasterWindowSurface5flushEP7QWidgetRK7QRegionRK6QPoint @ 4768 NONAME
	_ZN20QRasterWindowSurface6scrollERK7QRegionii @ 4769 NONAME
	_ZN20QRasterWindowSurfaceC1EP7QWidget @ 4770 NONAME ABSENT
	_ZN20QRasterWindowSurfaceC2EP7QWidget @ 4771 NONAME ABSENT
	_ZN20QRasterWindowSurfaceD0Ev @ 4772 NONAME
	_ZN20QRasterWindowSurfaceD1Ev @ 4773 NONAME
	_ZN20QRasterWindowSurfaceD2Ev @ 4774 NONAME
	_ZN20QStyleHintReturnMaskC1Ev @ 4775 NONAME
	_ZN20QStyleHintReturnMaskC2Ev @ 4776 NONAME
	_ZN20QStyleOptionComboBoxC1Ei @ 4777 NONAME
	_ZN20QStyleOptionComboBoxC1Ev @ 4778 NONAME
	_ZN20QStyleOptionComboBoxC2Ei @ 4779 NONAME
	_ZN20QStyleOptionComboBoxC2Ev @ 4780 NONAME
	_ZN20QStyleOptionGroupBoxC1Ei @ 4781 NONAME
	_ZN20QStyleOptionGroupBoxC1Ev @ 4782 NONAME
	_ZN20QStyleOptionGroupBoxC2Ei @ 4783 NONAME
	_ZN20QStyleOptionGroupBoxC2Ev @ 4784 NONAME
	_ZN20QStyleOptionMenuItemC1Ei @ 4785 NONAME
	_ZN20QStyleOptionMenuItemC1Ev @ 4786 NONAME
	_ZN20QStyleOptionMenuItemC2Ei @ 4787 NONAME
	_ZN20QStyleOptionMenuItemC2Ev @ 4788 NONAME
	_ZN20QStyleOptionSizeGripC1Ei @ 4789 NONAME
	_ZN20QStyleOptionSizeGripC1Ev @ 4790 NONAME
	_ZN20QStyleOptionSizeGripC2Ei @ 4791 NONAME
	_ZN20QStyleOptionSizeGripC2Ev @ 4792 NONAME
	_ZN20QStyleOptionTitleBarC1Ei @ 4793 NONAME
	_ZN20QStyleOptionTitleBarC1Ev @ 4794 NONAME
	_ZN20QStyleOptionTitleBarC2Ei @ 4795 NONAME
	_ZN20QStyleOptionTitleBarC2Ev @ 4796 NONAME
	_ZN20QStyleOptionViewItemC1Ei @ 4797 NONAME
	_ZN20QStyleOptionViewItemC1Ev @ 4798 NONAME
	_ZN20QStyleOptionViewItemC2Ei @ 4799 NONAME
	_ZN20QStyleOptionViewItemC2Ev @ 4800 NONAME
	_ZN20QTextFrameLayoutDataD0Ev @ 4801 NONAME
	_ZN20QTextFrameLayoutDataD1Ev @ 4802 NONAME
	_ZN20QTextFrameLayoutDataD2Ev @ 4803 NONAME
	_ZN20QTextTableCellFormatC1ERK11QTextFormat @ 4804 NONAME
	_ZN20QTextTableCellFormatC1Ev @ 4805 NONAME
	_ZN20QTextTableCellFormatC2ERK11QTextFormat @ 4806 NONAME
	_ZN20QTextTableCellFormatC2Ev @ 4807 NONAME
	_ZN20QWidgetResizeHandler11eventFilterEP7QObjectP6QEvent @ 4808 NONAME
	_ZN20QWidgetResizeHandler11qt_metacallEN11QMetaObject4CallEiPPv @ 4809 NONAME
	_ZN20QWidgetResizeHandler11qt_metacastEPKc @ 4810 NONAME
	_ZN20QWidgetResizeHandler13keyPressEventEP9QKeyEvent @ 4811 NONAME
	_ZN20QWidgetResizeHandler14mouseMoveEventEP11QMouseEvent @ 4812 NONAME
	_ZN20QWidgetResizeHandler14setMouseCursorENS_13MousePositionE @ 4813 NONAME
	_ZN20QWidgetResizeHandler16staticMetaObjectE @ 4814 NONAME DATA 16
	_ZN20QWidgetResizeHandler19getStaticMetaObjectEv @ 4815 NONAME
	_ZN20QWidgetResizeHandler6doMoveEv @ 4816 NONAME
	_ZN20QWidgetResizeHandler8activateEv @ 4817 NONAME
	_ZN20QWidgetResizeHandler8doResizeEv @ 4818 NONAME
	_ZN20QWidgetResizeHandler9setActiveENS_6ActionEb @ 4819 NONAME
	_ZN20QWidgetResizeHandlerC1EP7QWidgetS1_ @ 4820 NONAME
	_ZN20QWidgetResizeHandlerC2EP7QWidgetS1_ @ 4821 NONAME
	_ZN21QAbstractItemDelegate10commitDataEP7QWidget @ 4822 NONAME
	_ZN21QAbstractItemDelegate10elidedTextERK12QFontMetricsiN2Qt13TextElideModeERK7QString @ 4823 NONAME
	_ZN21QAbstractItemDelegate11closeEditorEP7QWidgetNS_11EndEditHintE @ 4824 NONAME
	_ZN21QAbstractItemDelegate11editorEventEP6QEventP18QAbstractItemModelRK20QStyleOptionViewItemRK11QModelIndex @ 4825 NONAME
	_ZN21QAbstractItemDelegate11qt_metacallEN11QMetaObject4CallEiPPv @ 4826 NONAME
	_ZN21QAbstractItemDelegate11qt_metacastEPKc @ 4827 NONAME
	_ZN21QAbstractItemDelegate15sizeHintChangedERK11QModelIndex @ 4828 NONAME
	_ZN21QAbstractItemDelegate16staticMetaObjectE @ 4829 NONAME DATA 16
	_ZN21QAbstractItemDelegate19getStaticMetaObjectEv @ 4830 NONAME
	_ZN21QAbstractItemDelegate9helpEventEP10QHelpEventP17QAbstractItemViewRK20QStyleOptionViewItemRK11QModelIndex @ 4831 NONAME
	_ZN21QAbstractItemDelegateC2EP7QObject @ 4832 NONAME
	_ZN21QAbstractItemDelegateC2ER14QObjectPrivateP7QObject @ 4833 NONAME
	_ZN21QAbstractItemDelegateD0Ev @ 4834 NONAME
	_ZN21QAbstractItemDelegateD1Ev @ 4835 NONAME
	_ZN21QAbstractItemDelegateD2Ev @ 4836 NONAME
	_ZN21QGraphicsAnchorLayout10addAnchorsEP19QGraphicsLayoutItemS1_6QFlagsIN2Qt11OrientationEE @ 4837 NONAME
	_ZN21QGraphicsAnchorLayout10invalidateEv @ 4838 NONAME
	_ZN21QGraphicsAnchorLayout10setSpacingEf @ 4839 NONAME
	_ZN21QGraphicsAnchorLayout11setGeometryERK6QRectF @ 4840 NONAME
	_ZN21QGraphicsAnchorLayout16addCornerAnchorsEP19QGraphicsLayoutItemN2Qt6CornerES1_S3_ @ 4841 NONAME
	_ZN21QGraphicsAnchorLayout18setVerticalSpacingEf @ 4842 NONAME
	_ZN21QGraphicsAnchorLayout20setHorizontalSpacingEf @ 4843 NONAME
	_ZN21QGraphicsAnchorLayout6anchorEP19QGraphicsLayoutItemN2Qt11AnchorPointES1_S3_ @ 4844 NONAME
	_ZN21QGraphicsAnchorLayout8removeAtEi @ 4845 NONAME
	_ZN21QGraphicsAnchorLayout9addAnchorEP19QGraphicsLayoutItemN2Qt11AnchorPointES1_S3_ @ 4846 NONAME
	_ZN21QGraphicsAnchorLayoutC1EP19QGraphicsLayoutItem @ 4847 NONAME
	_ZN21QGraphicsAnchorLayoutC2EP19QGraphicsLayoutItem @ 4848 NONAME
	_ZN21QGraphicsAnchorLayoutD0Ev @ 4849 NONAME
	_ZN21QGraphicsAnchorLayoutD1Ev @ 4850 NONAME
	_ZN21QGraphicsAnchorLayoutD2Ev @ 4851 NONAME
	_ZN21QGraphicsEffectSource11qt_metacallEN11QMetaObject4CallEiPPv @ 4852 NONAME
	_ZN21QGraphicsEffectSource11qt_metacastEPKc @ 4853 NONAME
	_ZN21QGraphicsEffectSource16staticMetaObjectE @ 4854 NONAME DATA 16
	_ZN21QGraphicsEffectSource19getStaticMetaObjectEv @ 4855 NONAME
	_ZN21QGraphicsEffectSource4drawEP8QPainter @ 4856 NONAME
	_ZN21QGraphicsEffectSource6updateEv @ 4857 NONAME
	_ZN21QGraphicsEffectSourceC1ER28QGraphicsEffectSourcePrivateP7QObject @ 4858 NONAME
	_ZN21QGraphicsEffectSourceC2ER28QGraphicsEffectSourcePrivateP7QObject @ 4859 NONAME
	_ZN21QGraphicsEffectSourceD0Ev @ 4860 NONAME
	_ZN21QGraphicsEffectSourceD1Ev @ 4861 NONAME
	_ZN21QGraphicsEffectSourceD2Ev @ 4862 NONAME
	_ZN21QGraphicsLinearLayout10insertItemEiP19QGraphicsLayoutItem @ 4863 NONAME
	_ZN21QGraphicsLinearLayout10invalidateEv @ 4864 NONAME
	_ZN21QGraphicsLinearLayout10removeItemEP19QGraphicsLayoutItem @ 4865 NONAME
	_ZN21QGraphicsLinearLayout10setSpacingEf @ 4866 NONAME
	_ZN21QGraphicsLinearLayout11setGeometryERK6QRectF @ 4867 NONAME
	_ZN21QGraphicsLinearLayout12setAlignmentEP19QGraphicsLayoutItem6QFlagsIN2Qt13AlignmentFlagEE @ 4868 NONAME
	_ZN21QGraphicsLinearLayout13insertStretchEii @ 4869 NONAME
	_ZN21QGraphicsLinearLayout14setItemSpacingEif @ 4870 NONAME
	_ZN21QGraphicsLinearLayout14setOrientationEN2Qt11OrientationE @ 4871 NONAME
	_ZN21QGraphicsLinearLayout16setStretchFactorEP19QGraphicsLayoutItemi @ 4872 NONAME
	_ZN21QGraphicsLinearLayout8removeAtEi @ 4873 NONAME
	_ZN21QGraphicsLinearLayoutC1EN2Qt11OrientationEP19QGraphicsLayoutItem @ 4874 NONAME
	_ZN21QGraphicsLinearLayoutC1EP19QGraphicsLayoutItem @ 4875 NONAME
	_ZN21QGraphicsLinearLayoutC2EN2Qt11OrientationEP19QGraphicsLayoutItem @ 4876 NONAME
	_ZN21QGraphicsLinearLayoutC2EP19QGraphicsLayoutItem @ 4877 NONAME
	_ZN21QGraphicsLinearLayoutD0Ev @ 4878 NONAME
	_ZN21QGraphicsLinearLayoutD1Ev @ 4879 NONAME
	_ZN21QGraphicsLinearLayoutD2Ev @ 4880 NONAME
	_ZN21QGraphicsSystemPlugin11qt_metacallEN11QMetaObject4CallEiPPv @ 4881 NONAME
	_ZN21QGraphicsSystemPlugin11qt_metacastEPKc @ 4882 NONAME
	_ZN21QGraphicsSystemPlugin16staticMetaObjectE @ 4883 NONAME DATA 16
	_ZN21QGraphicsSystemPlugin19getStaticMetaObjectEv @ 4884 NONAME
	_ZN21QGraphicsSystemPluginC2EP7QObject @ 4885 NONAME
	_ZN21QGraphicsSystemPluginD0Ev @ 4886 NONAME
	_ZN21QGraphicsSystemPluginD1Ev @ 4887 NONAME
	_ZN21QGraphicsSystemPluginD2Ev @ 4888 NONAME
	_ZN21QMouseEventTransition11qt_metacallEN11QMetaObject4CallEiPPv @ 4889 NONAME
	_ZN21QMouseEventTransition11qt_metacastEPKc @ 4890 NONAME
	_ZN21QMouseEventTransition12onTransitionEP6QEvent @ 4891 NONAME
	_ZN21QMouseEventTransition16setModifiersMaskE6QFlagsIN2Qt16KeyboardModifierEE @ 4892 NONAME ABSENT
	_ZN21QMouseEventTransition16staticMetaObjectE @ 4893 NONAME DATA 16
	_ZN21QMouseEventTransition19getStaticMetaObjectEv @ 4894 NONAME
	_ZN21QMouseEventTransition7setPathERK12QPainterPath @ 4895 NONAME ABSENT
	_ZN21QMouseEventTransition9eventTestEP6QEvent @ 4896 NONAME
	_ZN21QMouseEventTransition9setButtonEN2Qt11MouseButtonE @ 4897 NONAME
	_ZN21QMouseEventTransitionC1EP6QState @ 4898 NONAME
	_ZN21QMouseEventTransitionC1EP7QObjectN6QEvent4TypeEN2Qt11MouseButtonEP6QState @ 4899 NONAME
	_ZN21QMouseEventTransitionC2EP6QState @ 4900 NONAME
	_ZN21QMouseEventTransitionC2EP7QObjectN6QEvent4TypeEN2Qt11MouseButtonEP6QState @ 4901 NONAME
	_ZN21QMouseEventTransitionD0Ev @ 4902 NONAME
	_ZN21QMouseEventTransitionD1Ev @ 4903 NONAME
	_ZN21QMouseEventTransitionD2Ev @ 4904 NONAME
	_ZN21QPaintEngineExPrivate20replayClipOperationsEv @ 4905 NONAME
	_ZN21QPaintEngineExPrivateC1Ev @ 4906 NONAME
	_ZN21QPaintEngineExPrivateC2Ev @ 4907 NONAME
	_ZN21QPaintEngineExPrivateD0Ev @ 4908 NONAME
	_ZN21QPaintEngineExPrivateD1Ev @ 4909 NONAME
	_ZN21QPaintEngineExPrivateD2Ev @ 4910 NONAME
	_ZN21QPixmapColorizeFilter11qt_metacallEN11QMetaObject4CallEiPPv @ 4911 NONAME
	_ZN21QPixmapColorizeFilter11qt_metacastEPKc @ 4912 NONAME
	_ZN21QPixmapColorizeFilter11setStrengthEf @ 4913 NONAME
	_ZN21QPixmapColorizeFilter16staticMetaObjectE @ 4914 NONAME DATA 16
	_ZN21QPixmapColorizeFilter19getStaticMetaObjectEv @ 4915 NONAME
	_ZN21QPixmapColorizeFilter8setColorERK6QColor @ 4916 NONAME
	_ZN21QPixmapColorizeFilterC1EP7QObject @ 4917 NONAME
	_ZN21QPixmapColorizeFilterC2EP7QObject @ 4918 NONAME
	_ZN21QSortFilterProxyModel10insertRowsEiiRK11QModelIndex @ 4919 NONAME
	_ZN21QSortFilterProxyModel10invalidateEv @ 4920 NONAME
	_ZN21QSortFilterProxyModel10removeRowsEiiRK11QModelIndex @ 4921 NONAME
	_ZN21QSortFilterProxyModel11qt_metacallEN11QMetaObject4CallEiPPv @ 4922 NONAME
	_ZN21QSortFilterProxyModel11qt_metacastEPKc @ 4923 NONAME
	_ZN21QSortFilterProxyModel11setSortRoleEi @ 4924 NONAME
	_ZN21QSortFilterProxyModel12dropMimeDataEPK9QMimeDataN2Qt10DropActionEiiRK11QModelIndex @ 4925 NONAME
	_ZN21QSortFilterProxyModel13filterChangedEv @ 4926 NONAME
	_ZN21QSortFilterProxyModel13insertColumnsEiiRK11QModelIndex @ 4927 NONAME
	_ZN21QSortFilterProxyModel13removeColumnsEiiRK11QModelIndex @ 4928 NONAME
	_ZN21QSortFilterProxyModel13setFilterRoleEi @ 4929 NONAME
	_ZN21QSortFilterProxyModel13setHeaderDataEiN2Qt11OrientationERK8QVarianti @ 4930 NONAME
	_ZN21QSortFilterProxyModel14setSourceModelEP18QAbstractItemModel @ 4931 NONAME
	_ZN21QSortFilterProxyModel15setFilterRegExpERK7QRegExp @ 4932 NONAME
	_ZN21QSortFilterProxyModel15setFilterRegExpERK7QString @ 4933 NONAME
	_ZN21QSortFilterProxyModel16invalidateFilterEv @ 4934 NONAME
	_ZN21QSortFilterProxyModel16staticMetaObjectE @ 4935 NONAME DATA 16
	_ZN21QSortFilterProxyModel17setFilterWildcardERK7QString @ 4936 NONAME
	_ZN21QSortFilterProxyModel18setFilterKeyColumnEi @ 4937 NONAME
	_ZN21QSortFilterProxyModel18setSortLocaleAwareEb @ 4938 NONAME
	_ZN21QSortFilterProxyModel19getStaticMetaObjectEv @ 4939 NONAME
	_ZN21QSortFilterProxyModel20setDynamicSortFilterEb @ 4940 NONAME
	_ZN21QSortFilterProxyModel20setFilterFixedStringERK7QString @ 4941 NONAME
	_ZN21QSortFilterProxyModel22setSortCaseSensitivityEN2Qt15CaseSensitivityE @ 4942 NONAME
	_ZN21QSortFilterProxyModel24setFilterCaseSensitivityEN2Qt15CaseSensitivityE @ 4943 NONAME
	_ZN21QSortFilterProxyModel4sortEiN2Qt9SortOrderE @ 4944 NONAME
	_ZN21QSortFilterProxyModel5clearEv @ 4945 NONAME
	_ZN21QSortFilterProxyModel7setDataERK11QModelIndexRK8QVarianti @ 4946 NONAME
	_ZN21QSortFilterProxyModel9fetchMoreERK11QModelIndex @ 4947 NONAME
	_ZN21QSortFilterProxyModelC1EP7QObject @ 4948 NONAME
	_ZN21QSortFilterProxyModelC2EP7QObject @ 4949 NONAME
	_ZN21QSortFilterProxyModelD0Ev @ 4950 NONAME
	_ZN21QSortFilterProxyModelD1Ev @ 4951 NONAME
	_ZN21QSortFilterProxyModelD2Ev @ 4952 NONAME
	_ZN21QStyleOptionFocusRectC1Ei @ 4953 NONAME
	_ZN21QStyleOptionFocusRectC1Ev @ 4954 NONAME
	_ZN21QStyleOptionFocusRectC2Ei @ 4955 NONAME
	_ZN21QStyleOptionFocusRectC2Ev @ 4956 NONAME
	_ZN21QStyleOptionToolBoxV2C1ERK19QStyleOptionToolBox @ 4957 NONAME
	_ZN21QStyleOptionToolBoxV2C1Ei @ 4958 NONAME
	_ZN21QStyleOptionToolBoxV2C1Ev @ 4959 NONAME
	_ZN21QStyleOptionToolBoxV2C2ERK19QStyleOptionToolBox @ 4960 NONAME
	_ZN21QStyleOptionToolBoxV2C2Ei @ 4961 NONAME
	_ZN21QStyleOptionToolBoxV2C2Ev @ 4962 NONAME
	_ZN21QStyleOptionToolBoxV2aSERK19QStyleOptionToolBox @ 4963 NONAME
	_ZN21QTextDocumentFragment13fromPlainTextERK7QString @ 4964 NONAME
	_ZN21QTextDocumentFragment8fromHtmlERK7QString @ 4965 NONAME
	_ZN21QTextDocumentFragment8fromHtmlERK7QStringPK13QTextDocument @ 4966 NONAME
	_ZN21QTextDocumentFragmentC1EPK13QTextDocument @ 4967 NONAME
	_ZN21QTextDocumentFragmentC1ERK11QTextCursor @ 4968 NONAME
	_ZN21QTextDocumentFragmentC1ERKS_ @ 4969 NONAME
	_ZN21QTextDocumentFragmentC1Ev @ 4970 NONAME
	_ZN21QTextDocumentFragmentC2EPK13QTextDocument @ 4971 NONAME
	_ZN21QTextDocumentFragmentC2ERK11QTextCursor @ 4972 NONAME
	_ZN21QTextDocumentFragmentC2ERKS_ @ 4973 NONAME
	_ZN21QTextDocumentFragmentC2Ev @ 4974 NONAME
	_ZN21QTextDocumentFragmentD1Ev @ 4975 NONAME
	_ZN21QTextDocumentFragmentD2Ev @ 4976 NONAME
	_ZN21QTextDocumentFragmentaSERKS_ @ 4977 NONAME
	_ZN21QTextFormatCollection14indexForFormatERK11QTextFormat @ 4978 NONAME
	_ZN21QTextFormatCollection14setDefaultFontERK5QFont @ 4979 NONAME
	_ZN21QTextFormatCollection15setObjectFormatEiRK11QTextFormat @ 4980 NONAME
	_ZN21QTextFormatCollection17createObjectIndexERK11QTextFormat @ 4981 NONAME
	_ZN21QTextFormatCollection20setObjectFormatIndexEii @ 4982 NONAME
	_ZN21QTextFormatCollectionC1ERKS_ @ 4983 NONAME
	_ZN21QTextFormatCollectionC2ERKS_ @ 4984 NONAME
	_ZN21QTextFormatCollectionD1Ev @ 4985 NONAME
	_ZN21QTextFormatCollectionD2Ev @ 4986 NONAME
	_ZN21QTextFormatCollectionaSERKS_ @ 4987 NONAME
	_ZN22QGraphicsItemAnimation10setScaleAtEfff @ 4988 NONAME
	_ZN22QGraphicsItemAnimation10setShearAtEfff @ 4989 NONAME
	_ZN22QGraphicsItemAnimation11qt_metacallEN11QMetaObject4CallEiPPv @ 4990 NONAME
	_ZN22QGraphicsItemAnimation11qt_metacastEPKc @ 4991 NONAME
	_ZN22QGraphicsItemAnimation11setTimeLineEP9QTimeLine @ 4992 NONAME
	_ZN22QGraphicsItemAnimation13setRotationAtEff @ 4993 NONAME
	_ZN22QGraphicsItemAnimation16setTranslationAtEfff @ 4994 NONAME
	_ZN22QGraphicsItemAnimation16staticMetaObjectE @ 4995 NONAME DATA 16
	_ZN22QGraphicsItemAnimation18afterAnimationStepEf @ 4996 NONAME
	_ZN22QGraphicsItemAnimation19beforeAnimationStepEf @ 4997 NONAME
	_ZN22QGraphicsItemAnimation19getStaticMetaObjectEv @ 4998 NONAME
	_ZN22QGraphicsItemAnimation5clearEv @ 4999 NONAME
	_ZN22QGraphicsItemAnimation5resetEv @ 5000 NONAME
	_ZN22QGraphicsItemAnimation7setItemEP13QGraphicsItem @ 5001 NONAME
	_ZN22QGraphicsItemAnimation7setStepEf @ 5002 NONAME
	_ZN22QGraphicsItemAnimation8setPosAtEfRK7QPointF @ 5003 NONAME
	_ZN22QGraphicsItemAnimationC1EP7QObject @ 5004 NONAME
	_ZN22QGraphicsItemAnimationC2EP7QObject @ 5005 NONAME
	_ZN22QGraphicsItemAnimationD0Ev @ 5006 NONAME
	_ZN22QGraphicsItemAnimationD1Ev @ 5007 NONAME
	_ZN22QGraphicsItemAnimationD2Ev @ 5008 NONAME
	_ZN22QGraphicsOpacityEffect10setOpacityEf @ 5009 NONAME
	_ZN22QGraphicsOpacityEffect11qt_metacallEN11QMetaObject4CallEiPPv @ 5010 NONAME
	_ZN22QGraphicsOpacityEffect11qt_metacastEPKc @ 5011 NONAME
	_ZN22QGraphicsOpacityEffect14opacityChangedEf @ 5012 NONAME
	_ZN22QGraphicsOpacityEffect14setOpacityMaskERK6QBrush @ 5013 NONAME
	_ZN22QGraphicsOpacityEffect16staticMetaObjectE @ 5014 NONAME DATA 16
	_ZN22QGraphicsOpacityEffect18opacityMaskChangedERK6QBrush @ 5015 NONAME
	_ZN22QGraphicsOpacityEffect19getStaticMetaObjectEv @ 5016 NONAME
	_ZN22QGraphicsOpacityEffect4drawEP8QPainterP21QGraphicsEffectSource @ 5017 NONAME ABSENT
	_ZN22QGraphicsOpacityEffectC1EP7QObject @ 5018 NONAME
	_ZN22QGraphicsOpacityEffectC2EP7QObject @ 5019 NONAME
	_ZN22QGraphicsOpacityEffectD0Ev @ 5020 NONAME
	_ZN22QGraphicsOpacityEffectD1Ev @ 5021 NONAME
	_ZN22QGraphicsOpacityEffectD2Ev @ 5022 NONAME
	_ZN22QPaintEngineExReplayer7processERK19QPaintBufferCommand @ 5023 NONAME
	_ZN22QStyleOptionDockWidgetC1Ei @ 5024 NONAME
	_ZN22QStyleOptionDockWidgetC1Ev @ 5025 NONAME
	_ZN22QStyleOptionDockWidgetC2Ei @ 5026 NONAME
	_ZN22QStyleOptionDockWidgetC2Ev @ 5027 NONAME
	_ZN22QStyleOptionQ3ListViewC1Ei @ 5028 NONAME
	_ZN22QStyleOptionQ3ListViewC1Ev @ 5029 NONAME
	_ZN22QStyleOptionQ3ListViewC2Ei @ 5030 NONAME
	_ZN22QStyleOptionQ3ListViewC2Ev @ 5031 NONAME
	_ZN22QStyleOptionRubberBandC1Ei @ 5032 NONAME
	_ZN22QStyleOptionRubberBandC1Ev @ 5033 NONAME
	_ZN22QStyleOptionRubberBandC2Ei @ 5034 NONAME
	_ZN22QStyleOptionRubberBandC2Ev @ 5035 NONAME
	_ZN22QStyleOptionTabBarBaseC1Ei @ 5036 NONAME
	_ZN22QStyleOptionTabBarBaseC1Ev @ 5037 NONAME
	_ZN22QStyleOptionTabBarBaseC2Ei @ 5038 NONAME
	_ZN22QStyleOptionTabBarBaseC2Ev @ 5039 NONAME
	_ZN22QStyleOptionToolButtonC1Ei @ 5040 NONAME
	_ZN22QStyleOptionToolButtonC1Ev @ 5041 NONAME
	_ZN22QStyleOptionToolButtonC2Ei @ 5042 NONAME
	_ZN22QStyleOptionToolButtonC2Ev @ 5043 NONAME
	_ZN22QStyleOptionViewItemV2C1ERK20QStyleOptionViewItem @ 5044 NONAME
	_ZN22QStyleOptionViewItemV2C1Ei @ 5045 NONAME
	_ZN22QStyleOptionViewItemV2C1Ev @ 5046 NONAME
	_ZN22QStyleOptionViewItemV2C2ERK20QStyleOptionViewItem @ 5047 NONAME
	_ZN22QStyleOptionViewItemV2C2Ei @ 5048 NONAME
	_ZN22QStyleOptionViewItemV2C2Ev @ 5049 NONAME
	_ZN22QStyleOptionViewItemV2aSERK20QStyleOptionViewItem @ 5050 NONAME
	_ZN22QStyleOptionViewItemV3C1ERK20QStyleOptionViewItem @ 5051 NONAME
	_ZN22QStyleOptionViewItemV3C1Ei @ 5052 NONAME
	_ZN22QStyleOptionViewItemV3C1Ev @ 5053 NONAME
	_ZN22QStyleOptionViewItemV3C2ERK20QStyleOptionViewItem @ 5054 NONAME
	_ZN22QStyleOptionViewItemV3C2Ei @ 5055 NONAME
	_ZN22QStyleOptionViewItemV3C2Ev @ 5056 NONAME
	_ZN22QStyleOptionViewItemV3aSERK20QStyleOptionViewItem @ 5057 NONAME
	_ZN22QStyleOptionViewItemV4C1ERK20QStyleOptionViewItem @ 5058 NONAME
	_ZN22QStyleOptionViewItemV4C1Ei @ 5059 NONAME
	_ZN22QStyleOptionViewItemV4C1Ev @ 5060 NONAME
	_ZN22QStyleOptionViewItemV4C2ERK20QStyleOptionViewItem @ 5061 NONAME
	_ZN22QStyleOptionViewItemV4C2Ei @ 5062 NONAME
	_ZN22QStyleOptionViewItemV4C2Ev @ 5063 NONAME
	_ZN22QStyleOptionViewItemV4aSERK20QStyleOptionViewItem @ 5064 NONAME
	_ZN22QWhatsThisClickedEventC1ERK7QString @ 5065 NONAME
	_ZN22QWhatsThisClickedEventC2ERK7QString @ 5066 NONAME
	_ZN22QWhatsThisClickedEventD0Ev @ 5067 NONAME
	_ZN22QWhatsThisClickedEventD1Ev @ 5068 NONAME
	_ZN22QWhatsThisClickedEventD2Ev @ 5069 NONAME
	_ZN23QGraphicsColorizeEffect11qt_metacallEN11QMetaObject4CallEiPPv @ 5070 NONAME
	_ZN23QGraphicsColorizeEffect11qt_metacastEPKc @ 5071 NONAME
	_ZN23QGraphicsColorizeEffect11setStrengthEf @ 5072 NONAME
	_ZN23QGraphicsColorizeEffect12colorChangedERK6QColor @ 5073 NONAME
	_ZN23QGraphicsColorizeEffect15strengthChangedEf @ 5074 NONAME
	_ZN23QGraphicsColorizeEffect16staticMetaObjectE @ 5075 NONAME DATA 16
	_ZN23QGraphicsColorizeEffect19getStaticMetaObjectEv @ 5076 NONAME
	_ZN23QGraphicsColorizeEffect4drawEP8QPainterP21QGraphicsEffectSource @ 5077 NONAME ABSENT
	_ZN23QGraphicsColorizeEffect8setColorERK6QColor @ 5078 NONAME
	_ZN23QGraphicsColorizeEffectC1EP7QObject @ 5079 NONAME
	_ZN23QGraphicsColorizeEffectC2EP7QObject @ 5080 NONAME
	_ZN23QGraphicsColorizeEffectD0Ev @ 5081 NONAME
	_ZN23QGraphicsColorizeEffectD1Ev @ 5082 NONAME
	_ZN23QGraphicsColorizeEffectD2Ev @ 5083 NONAME
	_ZN23QGraphicsPixelizeEffect11qt_metacallEN11QMetaObject4CallEiPPv @ 5084 NONAME ABSENT
	_ZN23QGraphicsPixelizeEffect11qt_metacastEPKc @ 5085 NONAME ABSENT
	_ZN23QGraphicsPixelizeEffect12setPixelSizeEi @ 5086 NONAME ABSENT
	_ZN23QGraphicsPixelizeEffect16pixelSizeChangedEi @ 5087 NONAME ABSENT
	_ZN23QGraphicsPixelizeEffect16staticMetaObjectE @ 5088 NONAME DATA 16 ABSENT
	_ZN23QGraphicsPixelizeEffect19getStaticMetaObjectEv @ 5089 NONAME ABSENT
	_ZN23QGraphicsPixelizeEffect4drawEP8QPainterP21QGraphicsEffectSource @ 5090 NONAME ABSENT
	_ZN23QGraphicsPixelizeEffectC1EP7QObject @ 5091 NONAME ABSENT
	_ZN23QGraphicsPixelizeEffectC2EP7QObject @ 5092 NONAME ABSENT
	_ZN23QGraphicsPixelizeEffectD0Ev @ 5093 NONAME ABSENT
	_ZN23QGraphicsPixelizeEffectD1Ev @ 5094 NONAME ABSENT
	_ZN23QGraphicsPixelizeEffectD2Ev @ 5095 NONAME ABSENT
	_ZN23QGraphicsSceneHelpEvent11setScenePosERK7QPointF @ 5096 NONAME
	_ZN23QGraphicsSceneHelpEvent12setScreenPosERK6QPoint @ 5097 NONAME
	_ZN23QGraphicsSceneHelpEventC1EN6QEvent4TypeE @ 5098 NONAME
	_ZN23QGraphicsSceneHelpEventC2EN6QEvent4TypeE @ 5099 NONAME
	_ZN23QGraphicsSceneHelpEventD0Ev @ 5100 NONAME
	_ZN23QGraphicsSceneHelpEventD1Ev @ 5101 NONAME
	_ZN23QGraphicsSceneHelpEventD2Ev @ 5102 NONAME
	_ZN23QGraphicsSceneMoveEvent9setNewPosERK7QPointF @ 5103 NONAME
	_ZN23QGraphicsSceneMoveEvent9setOldPosERK7QPointF @ 5104 NONAME
	_ZN23QGraphicsSceneMoveEventC1Ev @ 5105 NONAME
	_ZN23QGraphicsSceneMoveEventC2Ev @ 5106 NONAME
	_ZN23QGraphicsSceneMoveEventD0Ev @ 5107 NONAME
	_ZN23QGraphicsSceneMoveEventD1Ev @ 5108 NONAME
	_ZN23QGraphicsSceneMoveEventD2Ev @ 5109 NONAME
	_ZN23QGraphicsSimpleTextItem12setExtensionEN13QGraphicsItem9ExtensionERK8QVariant @ 5110 NONAME
	_ZN23QGraphicsSimpleTextItem5paintEP8QPainterPK24QStyleOptionGraphicsItemP7QWidget @ 5111 NONAME
	_ZN23QGraphicsSimpleTextItem7setFontERK5QFont @ 5112 NONAME
	_ZN23QGraphicsSimpleTextItem7setTextERK7QString @ 5113 NONAME
	_ZN23QGraphicsSimpleTextItemC1EP13QGraphicsItemP14QGraphicsScene @ 5114 NONAME
	_ZN23QGraphicsSimpleTextItemC1ERK7QStringP13QGraphicsItemP14QGraphicsScene @ 5115 NONAME
	_ZN23QGraphicsSimpleTextItemC2EP13QGraphicsItemP14QGraphicsScene @ 5116 NONAME
	_ZN23QGraphicsSimpleTextItemC2ERK7QStringP13QGraphicsItemP14QGraphicsScene @ 5117 NONAME
	_ZN23QGraphicsSimpleTextItemD0Ev @ 5118 NONAME
	_ZN23QGraphicsSimpleTextItemD1Ev @ 5119 NONAME
	_ZN23QGraphicsSimpleTextItemD2Ev @ 5120 NONAME
	_ZN23QPaintBufferSignalProxy11qt_metacallEN11QMetaObject4CallEiPPv @ 5121 NONAME
	_ZN23QPaintBufferSignalProxy11qt_metacastEPKc @ 5122 NONAME
	_ZN23QPaintBufferSignalProxy14aboutToDestroyEPK19QPaintBufferPrivate @ 5123 NONAME
	_ZN23QPaintBufferSignalProxy16staticMetaObjectE @ 5124 NONAME DATA 16
	_ZN23QPaintBufferSignalProxy19getStaticMetaObjectEv @ 5125 NONAME
	_ZN23QPaintBufferSignalProxy8instanceEv @ 5126 NONAME
	_ZN23QPixmapDropShadowFilter11qt_metacallEN11QMetaObject4CallEiPPv @ 5127 NONAME
	_ZN23QPixmapDropShadowFilter11qt_metacastEPKc @ 5128 NONAME
	_ZN23QPixmapDropShadowFilter13setBlurRadiusEi @ 5129 NONAME ABSENT
	_ZN23QPixmapDropShadowFilter16staticMetaObjectE @ 5130 NONAME DATA 16
	_ZN23QPixmapDropShadowFilter19getStaticMetaObjectEv @ 5131 NONAME
	_ZN23QPixmapDropShadowFilter8setColorERK6QColor @ 5132 NONAME
	_ZN23QPixmapDropShadowFilter9setOffsetERK7QPointF @ 5133 NONAME
	_ZN23QPixmapDropShadowFilterC1EP7QObject @ 5134 NONAME
	_ZN23QPixmapDropShadowFilterC2EP7QObject @ 5135 NONAME
	_ZN23QPixmapDropShadowFilterD0Ev @ 5136 NONAME
	_ZN23QPixmapDropShadowFilterD1Ev @ 5137 NONAME
	_ZN23QPixmapDropShadowFilterD2Ev @ 5138 NONAME
	_ZN23QStyleHintReturnVariantC1Ev @ 5139 NONAME
	_ZN23QStyleHintReturnVariantC2Ev @ 5140 NONAME
	_ZN23QStyleOptionProgressBarC1Ei @ 5141 NONAME
	_ZN23QStyleOptionProgressBarC1Ev @ 5142 NONAME
	_ZN23QStyleOptionProgressBarC2Ei @ 5143 NONAME
	_ZN23QStyleOptionProgressBarC2Ev @ 5144 NONAME
	_ZN23QTreeWidgetItemIteratorC1EP11QTreeWidget6QFlagsINS_12IteratorFlagEE @ 5145 NONAME
	_ZN23QTreeWidgetItemIteratorC1EP15QTreeWidgetItem6QFlagsINS_12IteratorFlagEE @ 5146 NONAME
	_ZN23QTreeWidgetItemIteratorC1ERKS_ @ 5147 NONAME
	_ZN23QTreeWidgetItemIteratorC2EP11QTreeWidget6QFlagsINS_12IteratorFlagEE @ 5148 NONAME
	_ZN23QTreeWidgetItemIteratorC2EP15QTreeWidgetItem6QFlagsINS_12IteratorFlagEE @ 5149 NONAME
	_ZN23QTreeWidgetItemIteratorC2ERKS_ @ 5150 NONAME
	_ZN23QTreeWidgetItemIteratorD1Ev @ 5151 NONAME
	_ZN23QTreeWidgetItemIteratorD2Ev @ 5152 NONAME
	_ZN23QTreeWidgetItemIteratoraSERKS_ @ 5153 NONAME
	_ZN23QTreeWidgetItemIteratormmEv @ 5154 NONAME
	_ZN23QTreeWidgetItemIteratorppEv @ 5155 NONAME
	_ZN23QWindowStateChangeEventC1E6QFlagsIN2Qt11WindowStateEE @ 5156 NONAME
	_ZN23QWindowStateChangeEventC1E6QFlagsIN2Qt11WindowStateEEb @ 5157 NONAME
	_ZN23QWindowStateChangeEventC2E6QFlagsIN2Qt11WindowStateEE @ 5158 NONAME
	_ZN23QWindowStateChangeEventC2E6QFlagsIN2Qt11WindowStateEEb @ 5159 NONAME
	_ZN23QWindowStateChangeEventD0Ev @ 5160 NONAME
	_ZN23QWindowStateChangeEventD1Ev @ 5161 NONAME
	_ZN23QWindowStateChangeEventD2Ev @ 5162 NONAME
	_ZN24QGraphicsGrayscaleEffect11qt_metacallEN11QMetaObject4CallEiPPv @ 5163 NONAME ABSENT
	_ZN24QGraphicsGrayscaleEffect11qt_metacastEPKc @ 5164 NONAME ABSENT
	_ZN24QGraphicsGrayscaleEffect11setStrengthEf @ 5165 NONAME ABSENT
	_ZN24QGraphicsGrayscaleEffect15strengthChangedEf @ 5166 NONAME ABSENT
	_ZN24QGraphicsGrayscaleEffect16staticMetaObjectE @ 5167 NONAME DATA 16 ABSENT
	_ZN24QGraphicsGrayscaleEffect19getStaticMetaObjectEv @ 5168 NONAME ABSENT
	_ZN24QGraphicsGrayscaleEffect4drawEP8QPainterP21QGraphicsEffectSource @ 5169 NONAME ABSENT
	_ZN24QGraphicsGrayscaleEffectC1EP7QObject @ 5170 NONAME ABSENT
	_ZN24QGraphicsGrayscaleEffectC2EP7QObject @ 5171 NONAME ABSENT
	_ZN24QGraphicsGrayscaleEffectD0Ev @ 5172 NONAME ABSENT
	_ZN24QGraphicsGrayscaleEffectD1Ev @ 5173 NONAME ABSENT
	_ZN24QGraphicsGrayscaleEffectD2Ev @ 5174 NONAME ABSENT
	_ZN24QGraphicsSceneHoverEvent10setLastPosERK7QPointF @ 5175 NONAME
	_ZN24QGraphicsSceneHoverEvent11setScenePosERK7QPointF @ 5176 NONAME
	_ZN24QGraphicsSceneHoverEvent12setModifiersE6QFlagsIN2Qt16KeyboardModifierEE @ 5177 NONAME
	_ZN24QGraphicsSceneHoverEvent12setScreenPosERK6QPoint @ 5178 NONAME
	_ZN24QGraphicsSceneHoverEvent15setLastScenePosERK7QPointF @ 5179 NONAME
	_ZN24QGraphicsSceneHoverEvent16setLastScreenPosERK6QPoint @ 5180 NONAME
	_ZN24QGraphicsSceneHoverEvent6setPosERK7QPointF @ 5181 NONAME
	_ZN24QGraphicsSceneHoverEventC1EN6QEvent4TypeE @ 5182 NONAME
	_ZN24QGraphicsSceneHoverEventC2EN6QEvent4TypeE @ 5183 NONAME
	_ZN24QGraphicsSceneHoverEventD0Ev @ 5184 NONAME
	_ZN24QGraphicsSceneHoverEventD1Ev @ 5185 NONAME
	_ZN24QGraphicsSceneHoverEventD2Ev @ 5186 NONAME
	_ZN24QGraphicsSceneMouseEvent10setButtonsE6QFlagsIN2Qt11MouseButtonEE @ 5187 NONAME
	_ZN24QGraphicsSceneMouseEvent10setLastPosERK7QPointF @ 5188 NONAME
	_ZN24QGraphicsSceneMouseEvent11setScenePosERK7QPointF @ 5189 NONAME
	_ZN24QGraphicsSceneMouseEvent12setModifiersE6QFlagsIN2Qt16KeyboardModifierEE @ 5190 NONAME
	_ZN24QGraphicsSceneMouseEvent12setScreenPosERK6QPoint @ 5191 NONAME
	_ZN24QGraphicsSceneMouseEvent15setLastScenePosERK7QPointF @ 5192 NONAME
	_ZN24QGraphicsSceneMouseEvent16setButtonDownPosEN2Qt11MouseButtonERK7QPointF @ 5193 NONAME
	_ZN24QGraphicsSceneMouseEvent16setLastScreenPosERK6QPoint @ 5194 NONAME
	_ZN24QGraphicsSceneMouseEvent21setButtonDownScenePosEN2Qt11MouseButtonERK7QPointF @ 5195 NONAME
	_ZN24QGraphicsSceneMouseEvent22setButtonDownScreenPosEN2Qt11MouseButtonERK6QPoint @ 5196 NONAME
	_ZN24QGraphicsSceneMouseEvent6setPosERK7QPointF @ 5197 NONAME
	_ZN24QGraphicsSceneMouseEvent9setButtonEN2Qt11MouseButtonE @ 5198 NONAME
	_ZN24QGraphicsSceneMouseEventC1EN6QEvent4TypeE @ 5199 NONAME
	_ZN24QGraphicsSceneMouseEventC2EN6QEvent4TypeE @ 5200 NONAME
	_ZN24QGraphicsSceneMouseEventD0Ev @ 5201 NONAME
	_ZN24QGraphicsSceneMouseEventD1Ev @ 5202 NONAME
	_ZN24QGraphicsSceneMouseEventD2Ev @ 5203 NONAME
	_ZN24QGraphicsSceneWheelEvent10setButtonsE6QFlagsIN2Qt11MouseButtonEE @ 5204 NONAME
	_ZN24QGraphicsSceneWheelEvent11setScenePosERK7QPointF @ 5205 NONAME
	_ZN24QGraphicsSceneWheelEvent12setModifiersE6QFlagsIN2Qt16KeyboardModifierEE @ 5206 NONAME
	_ZN24QGraphicsSceneWheelEvent12setScreenPosERK6QPoint @ 5207 NONAME
	_ZN24QGraphicsSceneWheelEvent14setOrientationEN2Qt11OrientationE @ 5208 NONAME
	_ZN24QGraphicsSceneWheelEvent6setPosERK7QPointF @ 5209 NONAME
	_ZN24QGraphicsSceneWheelEvent8setDeltaEi @ 5210 NONAME
	_ZN24QGraphicsSceneWheelEventC1EN6QEvent4TypeE @ 5211 NONAME
	_ZN24QGraphicsSceneWheelEventC2EN6QEvent4TypeE @ 5212 NONAME
	_ZN24QGraphicsSceneWheelEventD0Ev @ 5213 NONAME
	_ZN24QGraphicsSceneWheelEventD1Ev @ 5214 NONAME
	_ZN24QGraphicsSceneWheelEventD2Ev @ 5215 NONAME
	_ZN24QImagePixmapCleanupHooks12addImageHookEPFvxE @ 5216 NONAME
	_ZN24QImagePixmapCleanupHooks13addPixmapHookEPFvP7QPixmapE @ 5217 NONAME ABSENT
	_ZN24QImagePixmapCleanupHooks15removeImageHookEPFvxE @ 5218 NONAME
	_ZN24QImagePixmapCleanupHooks16removePixmapHookEPFvP7QPixmapE @ 5219 NONAME ABSENT
	_ZN24QImagePixmapCleanupHooks17executeImageHooksEx @ 5220 NONAME
	_ZN24QImagePixmapCleanupHooks18executePixmapHooksEP7QPixmap @ 5221 NONAME ABSENT
	_ZN24QImagePixmapCleanupHooks8instanceEv @ 5222 NONAME
	_ZN24QImagePixmapCleanupHooksC1Ev @ 5223 NONAME ABSENT
	_ZN24QImagePixmapCleanupHooksC2Ev @ 5224 NONAME ABSENT
	_ZN24QPixmapConvolutionFilter11qt_metacallEN11QMetaObject4CallEiPPv @ 5225 NONAME
	_ZN24QPixmapConvolutionFilter11qt_metacastEPKc @ 5226 NONAME
	_ZN24QPixmapConvolutionFilter16staticMetaObjectE @ 5227 NONAME DATA 16
	_ZN24QPixmapConvolutionFilter19getStaticMetaObjectEv @ 5228 NONAME
	_ZN24QPixmapConvolutionFilter20setConvolutionKernelEPKfii @ 5229 NONAME
	_ZN24QPixmapConvolutionFilterC1EP7QObject @ 5230 NONAME
	_ZN24QPixmapConvolutionFilterC2EP7QObject @ 5231 NONAME
	_ZN24QPixmapConvolutionFilterD0Ev @ 5232 NONAME
	_ZN24QPixmapConvolutionFilterD1Ev @ 5233 NONAME
	_ZN24QPixmapConvolutionFilterD2Ev @ 5234 NONAME
	_ZN24QPlainTextDocumentLayout10blockWidthERK10QTextBlock @ 5235 NONAME
	_ZN24QPlainTextDocumentLayout11layoutBlockERK10QTextBlock @ 5236 NONAME
	_ZN24QPlainTextDocumentLayout11qt_metacallEN11QMetaObject4CallEiPPv @ 5237 NONAME
	_ZN24QPlainTextDocumentLayout11qt_metacastEPKc @ 5238 NONAME
	_ZN24QPlainTextDocumentLayout12setTextWidthEf @ 5239 NONAME
	_ZN24QPlainTextDocumentLayout13requestUpdateEv @ 5240 NONAME
	_ZN24QPlainTextDocumentLayout14setCursorWidthEi @ 5241 NONAME
	_ZN24QPlainTextDocumentLayout15documentChangedEiii @ 5242 NONAME
	_ZN24QPlainTextDocumentLayout16staticMetaObjectE @ 5243 NONAME DATA 16
	_ZN24QPlainTextDocumentLayout19getStaticMetaObjectEv @ 5244 NONAME
	_ZN24QPlainTextDocumentLayout4drawEP8QPainterRKN27QAbstractTextDocumentLayout12PaintContextE @ 5245 NONAME
	_ZN24QPlainTextDocumentLayoutC1EP13QTextDocument @ 5246 NONAME
	_ZN24QPlainTextDocumentLayoutC2EP13QTextDocument @ 5247 NONAME
	_ZN24QPlainTextDocumentLayoutD0Ev @ 5248 NONAME
	_ZN24QPlainTextDocumentLayoutD1Ev @ 5249 NONAME
	_ZN24QPlainTextDocumentLayoutD2Ev @ 5250 NONAME
	_ZN24QStyleOptionDockWidgetV2C1ERK22QStyleOptionDockWidget @ 5251 NONAME
	_ZN24QStyleOptionDockWidgetV2C1Ei @ 5252 NONAME
	_ZN24QStyleOptionDockWidgetV2C1Ev @ 5253 NONAME
	_ZN24QStyleOptionDockWidgetV2C2ERK22QStyleOptionDockWidget @ 5254 NONAME
	_ZN24QStyleOptionDockWidgetV2C2Ei @ 5255 NONAME
	_ZN24QStyleOptionDockWidgetV2C2Ev @ 5256 NONAME
	_ZN24QStyleOptionDockWidgetV2aSERK22QStyleOptionDockWidget @ 5257 NONAME
	_ZN24QStyleOptionGraphicsItem26levelOfDetailFromTransformERK10QTransform @ 5258 NONAME
	_ZN24QStyleOptionGraphicsItemC1Ei @ 5259 NONAME
	_ZN24QStyleOptionGraphicsItemC1Ev @ 5260 NONAME
	_ZN24QStyleOptionGraphicsItemC2Ei @ 5261 NONAME
	_ZN24QStyleOptionGraphicsItemC2Ev @ 5262 NONAME
	_ZN24QStyleOptionQ3DockWindowC1Ei @ 5263 NONAME
	_ZN24QStyleOptionQ3DockWindowC1Ev @ 5264 NONAME
	_ZN24QStyleOptionQ3DockWindowC2Ei @ 5265 NONAME
	_ZN24QStyleOptionQ3DockWindowC2Ev @ 5266 NONAME
	_ZN24QStyleOptionTabBarBaseV2C1ERK22QStyleOptionTabBarBase @ 5267 NONAME
	_ZN24QStyleOptionTabBarBaseV2C1Ei @ 5268 NONAME
	_ZN24QStyleOptionTabBarBaseV2C1Ev @ 5269 NONAME
	_ZN24QStyleOptionTabBarBaseV2C2ERK22QStyleOptionTabBarBase @ 5270 NONAME
	_ZN24QStyleOptionTabBarBaseV2C2Ei @ 5271 NONAME
	_ZN24QStyleOptionTabBarBaseV2C2Ev @ 5272 NONAME
	_ZN24QStyleOptionTabBarBaseV2aSERK22QStyleOptionTabBarBase @ 5273 NONAME
	_ZN25QGraphicsDropShadowEffect11qt_metacallEN11QMetaObject4CallEiPPv @ 5274 NONAME
	_ZN25QGraphicsDropShadowEffect11qt_metacastEPKc @ 5275 NONAME
	_ZN25QGraphicsDropShadowEffect12colorChangedERK6QColor @ 5276 NONAME
	_ZN25QGraphicsDropShadowEffect13offsetChangedERK7QPointF @ 5277 NONAME
	_ZN25QGraphicsDropShadowEffect13setBlurRadiusEi @ 5278 NONAME ABSENT
	_ZN25QGraphicsDropShadowEffect16staticMetaObjectE @ 5279 NONAME DATA 16
	_ZN25QGraphicsDropShadowEffect17blurRadiusChangedEi @ 5280 NONAME ABSENT
	_ZN25QGraphicsDropShadowEffect19getStaticMetaObjectEv @ 5281 NONAME
	_ZN25QGraphicsDropShadowEffect4drawEP8QPainterP21QGraphicsEffectSource @ 5282 NONAME ABSENT
	_ZN25QGraphicsDropShadowEffect8setColorERK6QColor @ 5283 NONAME
	_ZN25QGraphicsDropShadowEffect9setOffsetERK7QPointF @ 5284 NONAME
	_ZN25QGraphicsDropShadowEffectC1EP7QObject @ 5285 NONAME
	_ZN25QGraphicsDropShadowEffectC2EP7QObject @ 5286 NONAME
	_ZN25QGraphicsDropShadowEffectD0Ev @ 5287 NONAME
	_ZN25QGraphicsDropShadowEffectD1Ev @ 5288 NONAME
	_ZN25QGraphicsDropShadowEffectD2Ev @ 5289 NONAME
	_ZN25QGraphicsSceneResizeEvent10setNewSizeERK6QSizeF @ 5290 NONAME
	_ZN25QGraphicsSceneResizeEvent10setOldSizeERK6QSizeF @ 5291 NONAME
	_ZN25QGraphicsSceneResizeEventC1Ev @ 5292 NONAME
	_ZN25QGraphicsSceneResizeEventC2Ev @ 5293 NONAME
	_ZN25QGraphicsSceneResizeEventD0Ev @ 5294 NONAME
	_ZN25QGraphicsSceneResizeEventD1Ev @ 5295 NONAME
	_ZN25QGraphicsSceneResizeEventD2Ev @ 5296 NONAME
	_ZN25QStyleOptionProgressBarV2C1ERK23QStyleOptionProgressBar @ 5297 NONAME
	_ZN25QStyleOptionProgressBarV2C1ERKS_ @ 5298 NONAME
	_ZN25QStyleOptionProgressBarV2C1Ei @ 5299 NONAME
	_ZN25QStyleOptionProgressBarV2C1Ev @ 5300 NONAME
	_ZN25QStyleOptionProgressBarV2C2ERK23QStyleOptionProgressBar @ 5301 NONAME
	_ZN25QStyleOptionProgressBarV2C2ERKS_ @ 5302 NONAME
	_ZN25QStyleOptionProgressBarV2C2Ei @ 5303 NONAME
	_ZN25QStyleOptionProgressBarV2C2Ev @ 5304 NONAME
	_ZN25QStyleOptionProgressBarV2aSERK23QStyleOptionProgressBar @ 5305 NONAME
	_ZN26QAbstractGraphicsShapeItem6setPenERK4QPen @ 5306 NONAME
	_ZN26QAbstractGraphicsShapeItem8setBrushERK6QBrush @ 5307 NONAME
	_ZN26QAbstractGraphicsShapeItemC2EP13QGraphicsItemP14QGraphicsScene @ 5308 NONAME
	_ZN26QAbstractGraphicsShapeItemC2ER33QAbstractGraphicsShapeItemPrivateP13QGraphicsItemP14QGraphicsScene @ 5309 NONAME
	_ZN26QAbstractGraphicsShapeItemD0Ev @ 5310 NONAME
	_ZN26QAbstractGraphicsShapeItemD1Ev @ 5311 NONAME
	_ZN26QAbstractGraphicsShapeItemD2Ev @ 5312 NONAME
	_ZN26QStyleOptionQ3ListViewItemC1Ei @ 5313 NONAME
	_ZN26QStyleOptionQ3ListViewItemC1Ev @ 5314 NONAME
	_ZN26QStyleOptionQ3ListViewItemC2Ei @ 5315 NONAME
	_ZN26QStyleOptionQ3ListViewItemC2Ev @ 5316 NONAME
	_ZN26QStyleOptionTabWidgetFrameC1Ei @ 5317 NONAME
	_ZN26QStyleOptionTabWidgetFrameC1Ev @ 5318 NONAME
	_ZN26QStyleOptionTabWidgetFrameC2Ei @ 5319 NONAME
	_ZN26QStyleOptionTabWidgetFrameC2Ev @ 5320 NONAME
	_ZN26QTableWidgetSelectionRangeC1ERKS_ @ 5321 NONAME
	_ZN26QTableWidgetSelectionRangeC1Eiiii @ 5322 NONAME
	_ZN26QTableWidgetSelectionRangeC1Ev @ 5323 NONAME
	_ZN26QTableWidgetSelectionRangeC2ERKS_ @ 5324 NONAME
	_ZN26QTableWidgetSelectionRangeC2Eiiii @ 5325 NONAME
	_ZN26QTableWidgetSelectionRangeC2Ev @ 5326 NONAME
	_ZN26QTableWidgetSelectionRangeD1Ev @ 5327 NONAME
	_ZN26QTableWidgetSelectionRangeD2Ev @ 5328 NONAME
	_ZN27QAbstractTextDocumentLayout11formatIndexEi @ 5329 NONAME
	_ZN27QAbstractTextDocumentLayout11qt_metacallEN11QMetaObject4CallEiPPv @ 5330 NONAME
	_ZN27QAbstractTextDocumentLayout11qt_metacastEPKc @ 5331 NONAME
	_ZN27QAbstractTextDocumentLayout11updateBlockERK10QTextBlock @ 5332 NONAME
	_ZN27QAbstractTextDocumentLayout14setPaintDeviceEP12QPaintDevice @ 5333 NONAME
	_ZN27QAbstractTextDocumentLayout15registerHandlerEiP7QObject @ 5334 NONAME
	_ZN27QAbstractTextDocumentLayout16drawInlineObjectEP8QPainterRK6QRectF17QTextInlineObjectiRK11QTextFormat @ 5335 NONAME
	_ZN27QAbstractTextDocumentLayout16pageCountChangedEi @ 5336 NONAME
	_ZN27QAbstractTextDocumentLayout16staticMetaObjectE @ 5337 NONAME DATA 16
	_ZN27QAbstractTextDocumentLayout18resizeInlineObjectE17QTextInlineObjectiRK11QTextFormat @ 5338 NONAME
	_ZN27QAbstractTextDocumentLayout19documentSizeChangedERK6QSizeF @ 5339 NONAME
	_ZN27QAbstractTextDocumentLayout19getStaticMetaObjectEv @ 5340 NONAME
	_ZN27QAbstractTextDocumentLayout20positionInlineObjectE17QTextInlineObjectiRK11QTextFormat @ 5341 NONAME
	_ZN27QAbstractTextDocumentLayout6formatEi @ 5342 NONAME
	_ZN27QAbstractTextDocumentLayout6updateERK6QRectF @ 5343 NONAME
	_ZN27QAbstractTextDocumentLayoutC2EP13QTextDocument @ 5344 NONAME
	_ZN27QAbstractTextDocumentLayoutC2ER34QAbstractTextDocumentLayoutPrivateP13QTextDocument @ 5345 NONAME
	_ZN27QAbstractTextDocumentLayoutD0Ev @ 5346 NONAME
	_ZN27QAbstractTextDocumentLayoutD1Ev @ 5347 NONAME
	_ZN27QAbstractTextDocumentLayoutD2Ev @ 5348 NONAME
	_ZN27QGraphicsSceneDragDropEvent10setButtonsE6QFlagsIN2Qt11MouseButtonEE @ 5349 NONAME
	_ZN27QGraphicsSceneDragDropEvent11setMimeDataEPK9QMimeData @ 5350 NONAME
	_ZN27QGraphicsSceneDragDropEvent11setScenePosERK7QPointF @ 5351 NONAME
	_ZN27QGraphicsSceneDragDropEvent12setModifiersE6QFlagsIN2Qt16KeyboardModifierEE @ 5352 NONAME
	_ZN27QGraphicsSceneDragDropEvent12setScreenPosERK6QPoint @ 5353 NONAME
	_ZN27QGraphicsSceneDragDropEvent13setDropActionEN2Qt10DropActionE @ 5354 NONAME
	_ZN27QGraphicsSceneDragDropEvent17setProposedActionEN2Qt10DropActionE @ 5355 NONAME
	_ZN27QGraphicsSceneDragDropEvent18setPossibleActionsE6QFlagsIN2Qt10DropActionEE @ 5356 NONAME
	_ZN27QGraphicsSceneDragDropEvent20acceptProposedActionEv @ 5357 NONAME
	_ZN27QGraphicsSceneDragDropEvent6setPosERK7QPointF @ 5358 NONAME
	_ZN27QGraphicsSceneDragDropEvent9setSourceEP7QWidget @ 5359 NONAME
	_ZN27QGraphicsSceneDragDropEventC1EN6QEvent4TypeE @ 5360 NONAME
	_ZN27QGraphicsSceneDragDropEventC2EN6QEvent4TypeE @ 5361 NONAME
	_ZN27QGraphicsSceneDragDropEventD0Ev @ 5362 NONAME
	_ZN27QGraphicsSceneDragDropEventD1Ev @ 5363 NONAME
	_ZN27QGraphicsSceneDragDropEventD2Ev @ 5364 NONAME
	_ZN2Qt12codecForHtmlERK10QByteArray @ 5365 NONAME
	_ZN2Qt15mightBeRichTextERK7QString @ 5366 NONAME
	_ZN2Qt20convertFromPlainTextERK7QStringNS_14WhiteSpaceModeE @ 5367 NONAME
	_ZN2Qt6escapeERK7QString @ 5368 NONAME
	_ZN30QGraphicsSceneContextMenuEvent11setScenePosERK7QPointF @ 5369 NONAME
	_ZN30QGraphicsSceneContextMenuEvent12setModifiersE6QFlagsIN2Qt16KeyboardModifierEE @ 5370 NONAME
	_ZN30QGraphicsSceneContextMenuEvent12setScreenPosERK6QPoint @ 5371 NONAME
	_ZN30QGraphicsSceneContextMenuEvent6setPosERK7QPointF @ 5372 NONAME
	_ZN30QGraphicsSceneContextMenuEvent9setReasonENS_6ReasonE @ 5373 NONAME
	_ZN30QGraphicsSceneContextMenuEventC1EN6QEvent4TypeE @ 5374 NONAME
	_ZN30QGraphicsSceneContextMenuEventC2EN6QEvent4TypeE @ 5375 NONAME
	_ZN30QGraphicsSceneContextMenuEventD0Ev @ 5376 NONAME
	_ZN30QGraphicsSceneContextMenuEventD1Ev @ 5377 NONAME
	_ZN30QGraphicsSceneContextMenuEventD2Ev @ 5378 NONAME
	_ZN4QCss13StyleSelector15selectorMatchesERKNS_8SelectorENS0_7NodePtrE @ 5379 NONAME
	_ZN4QCss13StyleSelector17styleRulesForNodeENS0_7NodePtrE @ 5380 NONAME
	_ZN4QCss13StyleSelector19declarationsForNodeENS0_7NodePtrEPKc @ 5381 NONAME
	_ZN4QCss13StyleSelector20basicSelectorMatchesERKNS_13BasicSelectorENS0_7NodePtrE @ 5382 NONAME
	_ZN4QCss13StyleSelector9matchRuleENS0_7NodePtrERKNS_9StyleRuleENS_16StyleSheetOriginEiP4QMapIjS2_E @ 5383 NONAME
	_ZN4QCss13StyleSelectorD0Ev @ 5384 NONAME
	_ZN4QCss13StyleSelectorD1Ev @ 5385 NONAME
	_ZN4QCss13StyleSelectorD2Ev @ 5386 NONAME
	_ZN4QCss6Parser10lexemUntilENS_9TokenTypeE @ 5387 NONAME
	_ZN4QCss6Parser10parseClassEP7QString @ 5388 NONAME
	_ZN4QCss6Parser10parseMediaEPNS_9MediaRuleE @ 5389 NONAME
	_ZN4QCss6Parser11errorSymbolEv @ 5390 NONAME
	_ZN4QCss6Parser11parseAttribEPNS_17AttributeSelectorE @ 5391 NONAME
	_ZN4QCss6Parser11parseImportEPNS_10ImportRuleE @ 5392 NONAME
	_ZN4QCss6Parser11parseMediumEP11QStringList @ 5393 NONAME
	_ZN4QCss6Parser11parsePseudoEPNS_6PseudoE @ 5394 NONAME
	_ZN4QCss6Parser12parseRulesetEPNS_9StyleRuleE @ 5395 NONAME
	_ZN4QCss6Parser13parseFunctionEP7QStringS2_ @ 5396 NONAME
	_ZN4QCss6Parser13parseHexColorEP6QColor @ 5397 NONAME
	_ZN4QCss6Parser13parsePropertyEPNS_11DeclarationE @ 5398 NONAME
	_ZN4QCss6Parser13parseSelectorEPNS_8SelectorE @ 5399 NONAME
	_ZN4QCss6Parser15parseCombinatorEPNS_13BasicSelector8RelationE @ 5400 NONAME
	_ZN4QCss6Parser15parsePseudoPageEP7QString @ 5401 NONAME
	_ZN4QCss6Parser15testAndParseUriEP7QString @ 5402 NONAME
	_ZN4QCss6Parser16parseElementNameEP7QString @ 5403 NONAME
	_ZN4QCss6Parser17parseNextOperatorEPNS_5ValueE @ 5404 NONAME
	_ZN4QCss6Parser18testSimpleSelectorEv @ 5405 NONAME
	_ZN4QCss6Parser19parseSimpleSelectorEPNS_13BasicSelectorE @ 5406 NONAME
	_ZN4QCss6Parser20parseNextDeclarationEPNS_11DeclarationE @ 5407 NONAME
	_ZN4QCss6Parser20testTokenAndEndsWithENS_9TokenTypeERK13QLatin1String @ 5408 NONAME
	_ZN4QCss6Parser4initERK7QStringb @ 5409 NONAME
	_ZN4QCss6Parser4nextENS_9TokenTypeE @ 5410 NONAME
	_ZN4QCss6Parser4testENS_9TokenTypeE @ 5411 NONAME
	_ZN4QCss6Parser5parseEPNS_10StyleSheetEN2Qt15CaseSensitivityE @ 5412 NONAME
	_ZN4QCss6Parser5untilENS_9TokenTypeES1_ @ 5413 NONAME
	_ZN4QCss6Parser8testPrioEv @ 5414 NONAME
	_ZN4QCss6Parser8testTermEv @ 5415 NONAME
	_ZN4QCss6Parser9parseExprEP7QVectorINS_5ValueEE @ 5416 NONAME
	_ZN4QCss6Parser9parsePageEPNS_8PageRuleE @ 5417 NONAME
	_ZN4QCss6Parser9parsePrioEPNS_11DeclarationE @ 5418 NONAME
	_ZN4QCss6Parser9parseTermEPNS_5ValueE @ 5419 NONAME
	_ZN4QCss6ParserC1ERK7QStringb @ 5420 NONAME
	_ZN4QCss6ParserC1Ev @ 5421 NONAME
	_ZN4QCss6ParserC2ERK7QStringb @ 5422 NONAME
	_ZN4QCss6ParserC2Ev @ 5423 NONAME
	_ZN4QPen10isDetachedEv @ 5424 NONAME
	_ZN4QPen11setCapStyleEN2Qt11PenCapStyleE @ 5425 NONAME
	_ZN4QPen11setCosmeticEb @ 5426 NONAME
	_ZN4QPen12setJoinStyleEN2Qt12PenJoinStyleE @ 5427 NONAME
	_ZN4QPen13setDashOffsetEf @ 5428 NONAME
	_ZN4QPen13setMiterLimitEf @ 5429 NONAME
	_ZN4QPen14setDashPatternERK7QVectorIfE @ 5430 NONAME
	_ZN4QPen6detachEv @ 5431 NONAME
	_ZN4QPen8setBrushERK6QBrush @ 5432 NONAME
	_ZN4QPen8setColorERK6QColor @ 5433 NONAME
	_ZN4QPen8setStyleEN2Qt8PenStyleE @ 5434 NONAME
	_ZN4QPen8setWidthEi @ 5435 NONAME
	_ZN4QPen9setWidthFEf @ 5436 NONAME
	_ZN4QPenC1EN2Qt8PenStyleE @ 5437 NONAME
	_ZN4QPenC1ERK6QBrushfN2Qt8PenStyleENS3_11PenCapStyleENS3_12PenJoinStyleE @ 5438 NONAME
	_ZN4QPenC1ERK6QColor @ 5439 NONAME
	_ZN4QPenC1ERKS_ @ 5440 NONAME
	_ZN4QPenC1Ev @ 5441 NONAME
	_ZN4QPenC2EN2Qt8PenStyleE @ 5442 NONAME
	_ZN4QPenC2ERK6QBrushfN2Qt8PenStyleENS3_11PenCapStyleENS3_12PenJoinStyleE @ 5443 NONAME
	_ZN4QPenC2ERK6QColor @ 5444 NONAME
	_ZN4QPenC2ERKS_ @ 5445 NONAME
	_ZN4QPenC2Ev @ 5446 NONAME
	_ZN4QPenD1Ev @ 5447 NONAME
	_ZN4QPenD2Ev @ 5448 NONAME
	_ZN4QPenaSERKS_ @ 5449 NONAME
	_ZN5QDial10paintEventEP11QPaintEvent @ 5450 NONAME
	_ZN5QDial11qt_metacallEN11QMetaObject4CallEiPPv @ 5451 NONAME
	_ZN5QDial11qt_metacastEPKc @ 5452 NONAME
	_ZN5QDial11resizeEventEP12QResizeEvent @ 5453 NONAME
	_ZN5QDial11setWrappingEb @ 5454 NONAME
	_ZN5QDial12sliderChangeEN15QAbstractSlider12SliderChangeE @ 5455 NONAME
	_ZN5QDial14mouseMoveEventEP11QMouseEvent @ 5456 NONAME
	_ZN5QDial14setNotchTargetEd @ 5457 NONAME
	_ZN5QDial15mousePressEventEP11QMouseEvent @ 5458 NONAME
	_ZN5QDial16staticMetaObjectE @ 5459 NONAME DATA 16
	_ZN5QDial17mouseReleaseEventEP11QMouseEvent @ 5460 NONAME
	_ZN5QDial17setNotchesVisibleEb @ 5461 NONAME
	_ZN5QDial19getStaticMetaObjectEv @ 5462 NONAME
	_ZN5QDial5eventEP6QEvent @ 5463 NONAME
	_ZN5QDialC1EP7QWidget @ 5464 NONAME
	_ZN5QDialC2EP7QWidget @ 5465 NONAME
	_ZN5QDialD0Ev @ 5466 NONAME
	_ZN5QDialD1Ev @ 5467 NONAME
	_ZN5QDialD2Ev @ 5468 NONAME
	_ZN5QDrag10setHotSpotERK6QPoint @ 5469 NONAME
	_ZN5QDrag11qt_metacallEN11QMetaObject4CallEiPPv @ 5470 NONAME
	_ZN5QDrag11qt_metacastEPKc @ 5471 NONAME
	_ZN5QDrag11setMimeDataEP9QMimeData @ 5472 NONAME
	_ZN5QDrag13actionChangedEN2Qt10DropActionE @ 5473 NONAME
	_ZN5QDrag13setDragCursorERK7QPixmapN2Qt10DropActionE @ 5474 NONAME
	_ZN5QDrag13targetChangedEP7QWidget @ 5475 NONAME
	_ZN5QDrag16staticMetaObjectE @ 5476 NONAME DATA 16
	_ZN5QDrag19getStaticMetaObjectEv @ 5477 NONAME
	_ZN5QDrag4execE6QFlagsIN2Qt10DropActionEE @ 5478 NONAME
	_ZN5QDrag4execE6QFlagsIN2Qt10DropActionEES2_ @ 5479 NONAME
	_ZN5QDrag5startE6QFlagsIN2Qt10DropActionEE @ 5480 NONAME
	_ZN5QDrag9setPixmapERK7QPixmap @ 5481 NONAME
	_ZN5QDragC1EP7QWidget @ 5482 NONAME
	_ZN5QDragC2EP7QWidget @ 5483 NONAME
	_ZN5QDragD0Ev @ 5484 NONAME
	_ZN5QDragD1Ev @ 5485 NONAME
	_ZN5QDragD2Ev @ 5486 NONAME
	_ZN5QFont10fromStringERK7QString @ 5487 NONAME
	_ZN5QFont10setKerningEb @ 5488 NONAME
	_ZN5QFont10setRawModeEb @ 5489 NONAME
	_ZN5QFont10setStretchEi @ 5490 NONAME
	_ZN5QFont10substituteERK7QString @ 5491 NONAME
	_ZN5QFont11setOverlineEb @ 5492 NONAME
	_ZN5QFont11substitutesERK7QString @ 5493 NONAME
	_ZN5QFont12setPixelSizeEi @ 5494 NONAME
	_ZN5QFont12setPointSizeEi @ 5495 NONAME
	_ZN5QFont12setStrikeOutEb @ 5496 NONAME
	_ZN5QFont12setStyleHintENS_9StyleHintENS_13StyleStrategyE @ 5497 NONAME
	_ZN5QFont12setUnderlineEb @ 5498 NONAME
	_ZN5QFont13setFixedPitchEb @ 5499 NONAME
	_ZN5QFont13setPointSizeFEf @ 5500 NONAME
	_ZN5QFont13substitutionsEv @ 5501 NONAME
	_ZN5QFont14setWordSpacingEf @ 5502 NONAME
	_ZN5QFont15cacheStatisticsEv @ 5503 NONAME
	_ZN5QFont16setLetterSpacingENS_11SpacingTypeEf @ 5504 NONAME
	_ZN5QFont16setStyleStrategyENS_13StyleStrategyE @ 5505 NONAME
	_ZN5QFont16staticMetaObjectE @ 5506 NONAME DATA 16
	_ZN5QFont17setCapitalizationENS_14CapitalizationE @ 5507 NONAME
	_ZN5QFont18insertSubstitutionERK7QStringS2_ @ 5508 NONAME
	_ZN5QFont18removeSubstitutionERK7QString @ 5509 NONAME
	_ZN5QFont19getStaticMetaObjectEv @ 5510 NONAME
	_ZN5QFont19insertSubstitutionsERK7QStringRK11QStringList @ 5511 NONAME
	_ZN5QFont6detachEv @ 5512 NONAME
	_ZN5QFont8setStyleENS_5StyleE @ 5513 NONAME
	_ZN5QFont9setFamilyERK7QString @ 5514 NONAME
	_ZN5QFont9setWeightEi @ 5515 NONAME
	_ZN5QFontC1EP12QFontPrivate @ 5516 NONAME
	_ZN5QFontC1ERK7QStringiib @ 5517 NONAME
	_ZN5QFontC1ERKS_ @ 5518 NONAME
	_ZN5QFontC1ERKS_P12QPaintDevice @ 5519 NONAME
	_ZN5QFontC1Ev @ 5520 NONAME
	_ZN5QFontC2EP12QFontPrivate @ 5521 NONAME
	_ZN5QFontC2ERK7QStringiib @ 5522 NONAME
	_ZN5QFontC2ERKS_ @ 5523 NONAME
	_ZN5QFontC2ERKS_P12QPaintDevice @ 5524 NONAME
	_ZN5QFontC2Ev @ 5525 NONAME
	_ZN5QFontD1Ev @ 5526 NONAME
	_ZN5QFontD2Ev @ 5527 NONAME
	_ZN5QFontaSERKS_ @ 5528 NONAME
	_ZN5QIcon12hasThemeIconERK7QString @ 5529 NONAME
	_ZN5QIcon12setThemeNameERK7QString @ 5530 NONAME
	_ZN5QIcon16themeSearchPathsEv @ 5531 NONAME
	_ZN5QIcon19setThemeSearchPathsERK11QStringList @ 5532 NONAME
	_ZN5QIcon6detachEv @ 5533 NONAME
	_ZN5QIcon7addFileERK7QStringRK5QSizeNS_4ModeENS_5StateE @ 5534 NONAME
	_ZN5QIcon9addPixmapERK7QPixmapNS_4ModeENS_5StateE @ 5535 NONAME
	_ZN5QIcon9fromThemeERK7QStringRKS_ @ 5536 NONAME
	_ZN5QIcon9themeNameEv @ 5537 NONAME
	_ZN5QIconC1EP11QIconEngine @ 5538 NONAME
	_ZN5QIconC1EP13QIconEngineV2 @ 5539 NONAME
	_ZN5QIconC1ERK7QPixmap @ 5540 NONAME
	_ZN5QIconC1ERK7QString @ 5541 NONAME
	_ZN5QIconC1ERKS_ @ 5542 NONAME
	_ZN5QIconC1Ev @ 5543 NONAME
	_ZN5QIconC2EP11QIconEngine @ 5544 NONAME
	_ZN5QIconC2EP13QIconEngineV2 @ 5545 NONAME
	_ZN5QIconC2ERK7QPixmap @ 5546 NONAME
	_ZN5QIconC2ERK7QString @ 5547 NONAME
	_ZN5QIconC2ERKS_ @ 5548 NONAME
	_ZN5QIconC2Ev @ 5549 NONAME
	_ZN5QIconD1Ev @ 5550 NONAME
	_ZN5QIconD2Ev @ 5551 NONAME
	_ZN5QIconaSERKS_ @ 5552 NONAME
	_ZN5QMenu10enterEventEP6QEvent @ 5553 NONAME
	_ZN5QMenu10insertMenuEP7QActionPS_ @ 5554 NONAME
	_ZN5QMenu10leaveEventEP6QEvent @ 5555 NONAME
	_ZN5QMenu10paintEventEP11QPaintEvent @ 5556 NONAME
	_ZN5QMenu10timerEventEP11QTimerEvent @ 5557 NONAME
	_ZN5QMenu10wheelEventEP11QWheelEvent @ 5558 NONAME
	_ZN5QMenu11aboutToHideEv @ 5559 NONAME
	_ZN5QMenu11aboutToShowEv @ 5560 NONAME
	_ZN5QMenu11actionEventEP12QActionEvent @ 5561 NONAME
	_ZN5QMenu11changeEventEP6QEvent @ 5562 NONAME
	_ZN5QMenu11qt_metacallEN11QMetaObject4CallEiPPv @ 5563 NONAME
	_ZN5QMenu11qt_metacastEPKc @ 5564 NONAME
	_ZN5QMenu12addSeparatorEv @ 5565 NONAME
	_ZN5QMenu13keyPressEventEP9QKeyEvent @ 5566 NONAME
	_ZN5QMenu14mouseMoveEventEP11QMouseEvent @ 5567 NONAME
	_ZN5QMenu14setNoReplayForEP7QWidget @ 5568 NONAME
	_ZN5QMenu15hideTearOffMenuEv @ 5569 NONAME
	_ZN5QMenu15insertSeparatorEP7QAction @ 5570 NONAME
	_ZN5QMenu15mousePressEventEP11QMouseEvent @ 5571 NONAME
	_ZN5QMenu15setActiveActionEP7QAction @ 5572 NONAME
	_ZN5QMenu16setDefaultActionEP7QAction @ 5573 NONAME
	_ZN5QMenu16staticMetaObjectE @ 5574 NONAME DATA 16
	_ZN5QMenu17mouseReleaseEventEP11QMouseEvent @ 5575 NONAME
	_ZN5QMenu17setTearOffEnabledEb @ 5576 NONAME
	_ZN5QMenu18focusNextPrevChildEb @ 5577 NONAME
	_ZN5QMenu19getStaticMetaObjectEv @ 5578 NONAME
	_ZN5QMenu20internalDelayedPopupEv @ 5579 NONAME
	_ZN5QMenu23internalSetSloppyActionEv @ 5580 NONAME
	_ZN5QMenu24setSeparatorsCollapsibleEb @ 5581 NONAME
	_ZN5QMenu4execE5QListIP7QActionERK6QPointS2_ @ 5582 NONAME
	_ZN5QMenu4execE5QListIP7QActionERK6QPointS2_P7QWidget @ 5583 NONAME
	_ZN5QMenu4execERK6QPointP7QAction @ 5584 NONAME
	_ZN5QMenu4execEv @ 5585 NONAME
	_ZN5QMenu5clearEv @ 5586 NONAME
	_ZN5QMenu5eventEP6QEvent @ 5587 NONAME
	_ZN5QMenu5popupERK6QPointP7QAction @ 5588 NONAME
	_ZN5QMenu7addMenuEPS_ @ 5589 NONAME
	_ZN5QMenu7addMenuERK5QIconRK7QString @ 5590 NONAME
	_ZN5QMenu7addMenuERK7QString @ 5591 NONAME
	_ZN5QMenu7hoveredEP7QAction @ 5592 NONAME
	_ZN5QMenu7setIconERK5QIcon @ 5593 NONAME
	_ZN5QMenu8setTitleERK7QString @ 5594 NONAME
	_ZN5QMenu9addActionERK5QIconRK7QString @ 5595 NONAME
	_ZN5QMenu9addActionERK5QIconRK7QStringPK7QObjectPKcRK12QKeySequence @ 5596 NONAME
	_ZN5QMenu9addActionERK7QString @ 5597 NONAME
	_ZN5QMenu9addActionERK7QStringPK7QObjectPKcRK12QKeySequence @ 5598 NONAME
	_ZN5QMenu9hideEventEP10QHideEvent @ 5599 NONAME
	_ZN5QMenu9triggeredEP7QAction @ 5600 NONAME
	_ZN5QMenuC1EP7QWidget @ 5601 NONAME
	_ZN5QMenuC1ER12QMenuPrivateP7QWidget @ 5602 NONAME
	_ZN5QMenuC1ERK7QStringP7QWidget @ 5603 NONAME
	_ZN5QMenuC2EP7QWidget @ 5604 NONAME
	_ZN5QMenuC2ER12QMenuPrivateP7QWidget @ 5605 NONAME
	_ZN5QMenuC2ERK7QStringP7QWidget @ 5606 NONAME
	_ZN5QMenuD0Ev @ 5607 NONAME
	_ZN5QMenuD1Ev @ 5608 NONAME
	_ZN5QMenuD2Ev @ 5609 NONAME
	_ZN6QBrush10setTextureERK7QPixmap @ 5610 NONAME
	_ZN6QBrush12setTransformERK10QTransform @ 5611 NONAME
	_ZN6QBrush15setTextureImageERK6QImage @ 5612 NONAME
	_ZN6QBrush4initERK6QColorN2Qt10BrushStyleE @ 5613 NONAME
	_ZN6QBrush6detachEN2Qt10BrushStyleE @ 5614 NONAME
	_ZN6QBrush7cleanUpEP10QBrushData @ 5615 NONAME
	_ZN6QBrush8setColorERK6QColor @ 5616 NONAME
	_ZN6QBrush8setStyleEN2Qt10BrushStyleE @ 5617 NONAME
	_ZN6QBrush9setMatrixERK7QMatrix @ 5618 NONAME
	_ZN6QBrushC1EN2Qt10BrushStyleE @ 5619 NONAME
	_ZN6QBrushC1EN2Qt11GlobalColorENS0_10BrushStyleE @ 5620 NONAME
	_ZN6QBrushC1EN2Qt11GlobalColorERK7QPixmap @ 5621 NONAME
	_ZN6QBrushC1ERK6QColorN2Qt10BrushStyleE @ 5622 NONAME
	_ZN6QBrushC1ERK6QColorRK7QPixmap @ 5623 NONAME
	_ZN6QBrushC1ERK6QImage @ 5624 NONAME
	_ZN6QBrushC1ERK7QPixmap @ 5625 NONAME
	_ZN6QBrushC1ERK9QGradient @ 5626 NONAME
	_ZN6QBrushC1ERKS_ @ 5627 NONAME
	_ZN6QBrushC1Ev @ 5628 NONAME
	_ZN6QBrushC2EN2Qt10BrushStyleE @ 5629 NONAME
	_ZN6QBrushC2EN2Qt11GlobalColorENS0_10BrushStyleE @ 5630 NONAME
	_ZN6QBrushC2EN2Qt11GlobalColorERK7QPixmap @ 5631 NONAME
	_ZN6QBrushC2ERK6QColorN2Qt10BrushStyleE @ 5632 NONAME
	_ZN6QBrushC2ERK6QColorRK7QPixmap @ 5633 NONAME
	_ZN6QBrushC2ERK6QImage @ 5634 NONAME
	_ZN6QBrushC2ERK7QPixmap @ 5635 NONAME
	_ZN6QBrushC2ERK9QGradient @ 5636 NONAME
	_ZN6QBrushC2ERKS_ @ 5637 NONAME
	_ZN6QBrushC2Ev @ 5638 NONAME
	_ZN6QBrushD1Ev @ 5639 NONAME
	_ZN6QBrushD2Ev @ 5640 NONAME
	_ZN6QBrushaSERKS_ @ 5641 NONAME
	_ZN6QColor10colorNamesEv @ 5642 NONAME
	_ZN6QColor10invalidateEv @ 5643 NONAME
	_ZN6QColor13setNamedColorERK7QString @ 5644 NONAME
	_ZN6QColor6setHslEiiii @ 5645 NONAME
	_ZN6QColor6setHsvEiiii @ 5646 NONAME
	_ZN6QColor6setRedEi @ 5647 NONAME
	_ZN6QColor6setRgbEiiii @ 5648 NONAME
	_ZN6QColor6setRgbEj @ 5649 NONAME
	_ZN6QColor7fromHslEiiii @ 5650 NONAME
	_ZN6QColor7fromHsvEiiii @ 5651 NONAME
	_ZN6QColor7fromRgbEiiii @ 5652 NONAME
	_ZN6QColor7fromRgbEj @ 5653 NONAME
	_ZN6QColor7getCmykEPiS0_S0_S0_S0_ @ 5654 NONAME
	_ZN6QColor7setBlueEi @ 5655 NONAME
	_ZN6QColor7setCmykEiiiii @ 5656 NONAME
	_ZN6QColor7setHslFEffff @ 5657 NONAME
	_ZN6QColor7setHsvFEffff @ 5658 NONAME
	_ZN6QColor7setRedFEf @ 5659 NONAME
	_ZN6QColor7setRgbFEffff @ 5660 NONAME
	_ZN6QColor7setRgbaEj @ 5661 NONAME
	_ZN6QColor8fromCmykEiiiii @ 5662 NONAME
	_ZN6QColor8fromHslFEffff @ 5663 NONAME
	_ZN6QColor8fromHsvFEffff @ 5664 NONAME
	_ZN6QColor8fromRgbFEffff @ 5665 NONAME
	_ZN6QColor8fromRgbaEj @ 5666 NONAME
	_ZN6QColor8getCmykFEPfS0_S0_S0_S0_ @ 5667 NONAME
	_ZN6QColor8setAlphaEi @ 5668 NONAME
	_ZN6QColor8setBlueFEf @ 5669 NONAME
	_ZN6QColor8setCmykFEfffff @ 5670 NONAME
	_ZN6QColor8setGreenEi @ 5671 NONAME
	_ZN6QColor9fromCmykFEfffff @ 5672 NONAME
	_ZN6QColor9setAlphaFEf @ 5673 NONAME
	_ZN6QColor9setGreenFEf @ 5674 NONAME
	_ZN6QColorC1EN2Qt11GlobalColorE @ 5675 NONAME
	_ZN6QColorC1ENS_4SpecE @ 5676 NONAME
	_ZN6QColorC1Ej @ 5677 NONAME
	_ZN6QColorC2EN2Qt11GlobalColorE @ 5678 NONAME
	_ZN6QColorC2ENS_4SpecE @ 5679 NONAME
	_ZN6QColorC2Ej @ 5680 NONAME
	_ZN6QColoraSEN2Qt11GlobalColorE @ 5681 NONAME
	_ZN6QColoraSERKS_ @ 5682 NONAME
	_ZN6QFrame10paintEventEP11QPaintEvent @ 5683 NONAME
	_ZN6QFrame11changeEventEP6QEvent @ 5684 NONAME
	_ZN6QFrame11qt_metacallEN11QMetaObject4CallEiPPv @ 5685 NONAME
	_ZN6QFrame11qt_metacastEPKc @ 5686 NONAME
	_ZN6QFrame12setFrameRectERK5QRect @ 5687 NONAME
	_ZN6QFrame12setLineWidthEi @ 5688 NONAME
	_ZN6QFrame13setFrameShapeENS_5ShapeE @ 5689 NONAME
	_ZN6QFrame13setFrameStyleEi @ 5690 NONAME
	_ZN6QFrame14setFrameShadowENS_6ShadowE @ 5691 NONAME
	_ZN6QFrame15setMidLineWidthEi @ 5692 NONAME
	_ZN6QFrame16staticMetaObjectE @ 5693 NONAME DATA 16
	_ZN6QFrame19getStaticMetaObjectEv @ 5694 NONAME
	_ZN6QFrame5eventEP6QEvent @ 5695 NONAME
	_ZN6QFrame9drawFrameEP8QPainter @ 5696 NONAME
	_ZN6QFrameC1EP7QWidget6QFlagsIN2Qt10WindowTypeEE @ 5697 NONAME
	_ZN6QFrameC1ER13QFramePrivateP7QWidget6QFlagsIN2Qt10WindowTypeEE @ 5698 NONAME
	_ZN6QFrameC2EP7QWidget6QFlagsIN2Qt10WindowTypeEE @ 5699 NONAME
	_ZN6QFrameC2ER13QFramePrivateP7QWidget6QFlagsIN2Qt10WindowTypeEE @ 5700 NONAME
	_ZN6QFrameD0Ev @ 5701 NONAME
	_ZN6QFrameD1Ev @ 5702 NONAME
	_ZN6QFrameD2Ev @ 5703 NONAME
	_ZN6QImage10trueMatrixERK10QTransformii @ 5704 NONAME
	_ZN6QImage10trueMatrixERK7QMatrixii @ 5705 NONAME
	_ZN6QImage12invertPixelsENS_10InvertModeE @ 5706 NONAME
	_ZN6QImage12loadFromDataEPKhiPKc @ 5707 NONAME
	_ZN6QImage12setNumColorsEi @ 5708 NONAME
	_ZN6QImage13setColorTableE7QVectorIjE @ 5709 NONAME
	_ZN6QImage15setAlphaChannelERKS_ @ 5710 NONAME
	_ZN6QImage16setDotsPerMeterXEi @ 5711 NONAME
	_ZN6QImage16setDotsPerMeterYEi @ 5712 NONAME
	_ZN6QImage4bitsEv @ 5713 NONAME
	_ZN6QImage4fillEj @ 5714 NONAME
	_ZN6QImage4loadEP9QIODevicePKc @ 5715 NONAME
	_ZN6QImage4loadERK7QStringPKc @ 5716 NONAME
	_ZN6QImage6detachEv @ 5717 NONAME
	_ZN6QImage7setTextEPKcS1_RK7QString @ 5718 NONAME
	_ZN6QImage7setTextERK7QStringS2_ @ 5719 NONAME
	_ZN6QImage8fromDataEPKhiPKc @ 5720 NONAME
	_ZN6QImage8scanLineEi @ 5721 NONAME
	_ZN6QImage8setColorEij @ 5722 NONAME
	_ZN6QImage8setPixelEiij @ 5723 NONAME
	_ZN6QImage9setOffsetERK6QPoint @ 5724 NONAME
	_ZN6QImageC1EPKPKc @ 5725 NONAME
	_ZN6QImageC1EPKcS1_ @ 5726 NONAME
	_ZN6QImageC1EPKhiiNS_6FormatE @ 5727 NONAME
	_ZN6QImageC1EPKhiiiNS_6FormatE @ 5728 NONAME
	_ZN6QImageC1EPhiiNS_6FormatE @ 5729 NONAME
	_ZN6QImageC1EPhiiiNS_6FormatE @ 5730 NONAME
	_ZN6QImageC1ERK5QSizeNS_6FormatE @ 5731 NONAME
	_ZN6QImageC1ERK7QStringPKc @ 5732 NONAME
	_ZN6QImageC1ERKS_ @ 5733 NONAME
	_ZN6QImageC1EiiNS_6FormatE @ 5734 NONAME
	_ZN6QImageC1Ev @ 5735 NONAME
	_ZN6QImageC2EPKPKc @ 5736 NONAME
	_ZN6QImageC2EPKcS1_ @ 5737 NONAME
	_ZN6QImageC2EPKhiiNS_6FormatE @ 5738 NONAME
	_ZN6QImageC2EPKhiiiNS_6FormatE @ 5739 NONAME
	_ZN6QImageC2EPhiiNS_6FormatE @ 5740 NONAME
	_ZN6QImageC2EPhiiiNS_6FormatE @ 5741 NONAME
	_ZN6QImageC2ERK5QSizeNS_6FormatE @ 5742 NONAME
	_ZN6QImageC2ERK7QStringPKc @ 5743 NONAME
	_ZN6QImageC2ERKS_ @ 5744 NONAME
	_ZN6QImageC2EiiNS_6FormatE @ 5745 NONAME
	_ZN6QImageC2Ev @ 5746 NONAME
	_ZN6QImageD0Ev @ 5747 NONAME
	_ZN6QImageD1Ev @ 5748 NONAME
	_ZN6QImageD2Ev @ 5749 NONAME
	_ZN6QImageaSERKS_ @ 5750 NONAME
	_ZN6QLabel10paintEventEP11QPaintEvent @ 5751 NONAME
	_ZN6QLabel10setPictureERK8QPicture @ 5752 NONAME
	_ZN6QLabel11changeEventEP6QEvent @ 5753 NONAME
	_ZN6QLabel11linkHoveredERK7QString @ 5754 NONAME
	_ZN6QLabel11qt_metacallEN11QMetaObject4CallEiPPv @ 5755 NONAME
	_ZN6QLabel11qt_metacastEPKc @ 5756 NONAME
	_ZN6QLabel11setWordWrapEb @ 5757 NONAME
	_ZN6QLabel12focusInEventEP11QFocusEvent @ 5758 NONAME
	_ZN6QLabel12setAlignmentE6QFlagsIN2Qt13AlignmentFlagEE @ 5759 NONAME
	_ZN6QLabel13focusOutEventEP11QFocusEvent @ 5760 NONAME
	_ZN6QLabel13keyPressEventEP9QKeyEvent @ 5761 NONAME
	_ZN6QLabel13linkActivatedERK7QString @ 5762 NONAME
	_ZN6QLabel13setTextFormatEN2Qt10TextFormatE @ 5763 NONAME
	_ZN6QLabel14mouseMoveEventEP11QMouseEvent @ 5764 NONAME
	_ZN6QLabel15mousePressEventEP11QMouseEvent @ 5765 NONAME
	_ZN6QLabel16contextMenuEventEP17QContextMenuEvent @ 5766 NONAME
	_ZN6QLabel16staticMetaObjectE @ 5767 NONAME DATA 16
	_ZN6QLabel17mouseReleaseEventEP11QMouseEvent @ 5768 NONAME
	_ZN6QLabel17setScaledContentsEb @ 5769 NONAME
	_ZN6QLabel18focusNextPrevChildEb @ 5770 NONAME
	_ZN6QLabel19getStaticMetaObjectEv @ 5771 NONAME
	_ZN6QLabel20setOpenExternalLinksEb @ 5772 NONAME
	_ZN6QLabel23setTextInteractionFlagsE6QFlagsIN2Qt19TextInteractionFlagEE @ 5773 NONAME
	_ZN6QLabel5clearEv @ 5774 NONAME
	_ZN6QLabel5eventEP6QEvent @ 5775 NONAME
	_ZN6QLabel6setNumEd @ 5776 NONAME
	_ZN6QLabel6setNumEi @ 5777 NONAME
	_ZN6QLabel7setTextERK7QString @ 5778 NONAME
	_ZN6QLabel8setBuddyEP7QWidget @ 5779 NONAME
	_ZN6QLabel8setMovieEP6QMovie @ 5780 NONAME
	_ZN6QLabel9setIndentEi @ 5781 NONAME
	_ZN6QLabel9setMarginEi @ 5782 NONAME
	_ZN6QLabel9setPixmapERK7QPixmap @ 5783 NONAME
	_ZN6QLabelC1EP7QWidget6QFlagsIN2Qt10WindowTypeEE @ 5784 NONAME
	_ZN6QLabelC1ERK7QStringP7QWidget6QFlagsIN2Qt10WindowTypeEE @ 5785 NONAME
	_ZN6QLabelC2EP7QWidget6QFlagsIN2Qt10WindowTypeEE @ 5786 NONAME
	_ZN6QLabelC2ERK7QStringP7QWidget6QFlagsIN2Qt10WindowTypeEE @ 5787 NONAME
	_ZN6QLabelD0Ev @ 5788 NONAME
	_ZN6QLabelD1Ev @ 5789 NONAME
	_ZN6QLabelD2Ev @ 5790 NONAME
	_ZN6QMovie10scaledSizeEv @ 5791 NONAME
	_ZN6QMovie11jumpToFrameEi @ 5792 NONAME
	_ZN6QMovie11qt_metacallEN11QMetaObject4CallEiPPv @ 5793 NONAME
	_ZN6QMovie11qt_metacastEPKc @ 5794 NONAME
	_ZN6QMovie11setFileNameERK7QString @ 5795 NONAME
	_ZN6QMovie12frameChangedEi @ 5796 NONAME
	_ZN6QMovie12setCacheModeENS_9CacheModeE @ 5797 NONAME
	_ZN6QMovie12stateChangedENS_10MovieStateE @ 5798 NONAME
	_ZN6QMovie13setScaledSizeERK5QSize @ 5799 NONAME
	_ZN6QMovie15jumpToNextFrameEv @ 5800 NONAME
	_ZN6QMovie16staticMetaObjectE @ 5801 NONAME DATA 16
	_ZN6QMovie16supportedFormatsEv @ 5802 NONAME
	_ZN6QMovie18setBackgroundColorERK6QColor @ 5803 NONAME
	_ZN6QMovie19getStaticMetaObjectEv @ 5804 NONAME
	_ZN6QMovie4stopEv @ 5805 NONAME
	_ZN6QMovie5errorEN12QImageReader16ImageReaderErrorE @ 5806 NONAME
	_ZN6QMovie5startEv @ 5807 NONAME
	_ZN6QMovie7resizedERK5QSize @ 5808 NONAME
	_ZN6QMovie7startedEv @ 5809 NONAME
	_ZN6QMovie7updatedERK5QRect @ 5810 NONAME
	_ZN6QMovie8finishedEv @ 5811 NONAME
	_ZN6QMovie8setSpeedEi @ 5812 NONAME
	_ZN6QMovie9cacheModeEv @ 5813 NONAME
	_ZN6QMovie9setDeviceEP9QIODevice @ 5814 NONAME
	_ZN6QMovie9setFormatERK10QByteArray @ 5815 NONAME
	_ZN6QMovie9setPausedEb @ 5816 NONAME
	_ZN6QMovieC1EP7QObject @ 5817 NONAME
	_ZN6QMovieC1EP9QIODeviceRK10QByteArrayP7QObject @ 5818 NONAME
	_ZN6QMovieC1ERK7QStringRK10QByteArrayP7QObject @ 5819 NONAME
	_ZN6QMovieC2EP7QObject @ 5820 NONAME
	_ZN6QMovieC2EP9QIODeviceRK10QByteArrayP7QObject @ 5821 NONAME
	_ZN6QMovieC2ERK7QStringRK10QByteArrayP7QObject @ 5822 NONAME
	_ZN6QMovieD0Ev @ 5823 NONAME
	_ZN6QMovieD1Ev @ 5824 NONAME
	_ZN6QMovieD2Ev @ 5825 NONAME
	_ZN6QSound11isAvailableEv @ 5826 NONAME
	_ZN6QSound11qt_metacallEN11QMetaObject4CallEiPPv @ 5827 NONAME
	_ZN6QSound11qt_metacastEPKc @ 5828 NONAME
	_ZN6QSound16staticMetaObjectE @ 5829 NONAME DATA 16
	_ZN6QSound19getStaticMetaObjectEv @ 5830 NONAME
	_ZN6QSound4playERK7QString @ 5831 NONAME
	_ZN6QSound4playEv @ 5832 NONAME
	_ZN6QSound4stopEv @ 5833 NONAME
	_ZN6QSound8setLoopsEi @ 5834 NONAME
	_ZN6QSoundC1ERK7QStringP7QObject @ 5835 NONAME
	_ZN6QSoundC2ERK7QStringP7QObject @ 5836 NONAME
	_ZN6QSoundD0Ev @ 5837 NONAME
	_ZN6QSoundD1Ev @ 5838 NONAME
	_ZN6QSoundD2Ev @ 5839 NONAME
	_ZN6QStyle10visualRectEN2Qt15LayoutDirectionERK5QRectS4_ @ 5840 NONAME
	_ZN6QStyle11alignedRectEN2Qt15LayoutDirectionE6QFlagsINS0_13AlignmentFlagEERK5QSizeRK5QRect @ 5841 NONAME
	_ZN6QStyle11qt_metacallEN11QMetaObject4CallEiPPv @ 5842 NONAME
	_ZN6QStyle11qt_metacastEPKc @ 5843 NONAME
	_ZN6QStyle15visualAlignmentEN2Qt15LayoutDirectionE6QFlagsINS0_13AlignmentFlagEE @ 5844 NONAME
	_ZN6QStyle16staticMetaObjectE @ 5845 NONAME DATA 16
	_ZN6QStyle19getStaticMetaObjectEv @ 5846 NONAME
	_ZN6QStyle23sliderPositionFromValueEiiiib @ 5847 NONAME
	_ZN6QStyle23sliderValueFromPositionEiiiib @ 5848 NONAME
	_ZN6QStyle6polishEP12QApplication @ 5849 NONAME
	_ZN6QStyle6polishEP7QWidget @ 5850 NONAME
	_ZN6QStyle6polishER8QPalette @ 5851 NONAME
	_ZN6QStyle8setProxyEPS_ @ 5852 NONAME
	_ZN6QStyle8unpolishEP12QApplication @ 5853 NONAME
	_ZN6QStyle8unpolishEP7QWidget @ 5854 NONAME
	_ZN6QStyle9visualPosEN2Qt15LayoutDirectionERK5QRectRK6QPoint @ 5855 NONAME
	_ZN6QStyleC2ER13QStylePrivate @ 5856 NONAME
	_ZN6QStyleC2Ev @ 5857 NONAME
	_ZN6QStyleD0Ev @ 5858 NONAME
	_ZN6QStyleD1Ev @ 5859 NONAME
	_ZN6QStyleD2Ev @ 5860 NONAME
	_ZN7QAction10setCheckedEb @ 5861 NONAME
	_ZN7QAction10setEnabledEb @ 5862 NONAME
	_ZN7QAction10setToolTipERK7QString @ 5863 NONAME
	_ZN7QAction10setVisibleEb @ 5864 NONAME
	_ZN7QAction11qt_metacallEN11QMetaObject4CallEiPPv @ 5865 NONAME
	_ZN7QAction11qt_metacastEPKc @ 5866 NONAME
	_ZN7QAction11setIconTextERK7QString @ 5867 NONAME
	_ZN7QAction11setMenuRoleENS_8MenuRoleE @ 5868 NONAME
	_ZN7QAction11setPriorityENS_8PriorityE @ 5869 NONAME
	_ZN7QAction11setShortcutERK12QKeySequence @ 5870 NONAME
	_ZN7QAction12setCheckableEb @ 5871 NONAME
	_ZN7QAction12setSeparatorEb @ 5872 NONAME
	_ZN7QAction12setShortcutsEN12QKeySequence11StandardKeyE @ 5873 NONAME
	_ZN7QAction12setShortcutsERK5QListI12QKeySequenceE @ 5874 NONAME
	_ZN7QAction12setStatusTipERK7QString @ 5875 NONAME
	_ZN7QAction12setWhatsThisERK7QString @ 5876 NONAME
	_ZN7QAction13setAutoRepeatEb @ 5877 NONAME
	_ZN7QAction14setActionGroupEP12QActionGroup @ 5878 NONAME
	_ZN7QAction14setSoftKeyRoleENS_11SoftKeyRoleE @ 5879 NONAME
	_ZN7QAction14showStatusTextEP7QWidget @ 5880 NONAME
	_ZN7QAction16staticMetaObjectE @ 5881 NONAME DATA 16
	_ZN7QAction18setShortcutContextEN2Qt15ShortcutContextE @ 5882 NONAME
	_ZN7QAction19getStaticMetaObjectEv @ 5883 NONAME
	_ZN7QAction20setIconVisibleInMenuEb @ 5884 NONAME
	_ZN7QAction5eventEP6QEvent @ 5885 NONAME
	_ZN7QAction6toggleEv @ 5886 NONAME
	_ZN7QAction7changedEv @ 5887 NONAME
	_ZN7QAction7hoveredEv @ 5888 NONAME
	_ZN7QAction7setDataERK8QVariant @ 5889 NONAME
	_ZN7QAction7setFontERK5QFont @ 5890 NONAME
	_ZN7QAction7setIconERK5QIcon @ 5891 NONAME
	_ZN7QAction7setMenuEP5QMenu @ 5892 NONAME
	_ZN7QAction7setTextERK7QString @ 5893 NONAME
	_ZN7QAction7toggledEb @ 5894 NONAME
	_ZN7QAction8activateENS_11ActionEventE @ 5895 NONAME
	_ZN7QAction9triggeredEb @ 5896 NONAME
	_ZN7QActionC1EP7QObject @ 5897 NONAME
	_ZN7QActionC1ER14QActionPrivateP7QObject @ 5898 NONAME
	_ZN7QActionC1ERK5QIconRK7QStringP7QObject @ 5899 NONAME
	_ZN7QActionC1ERK7QStringP7QObject @ 5900 NONAME
	_ZN7QActionC2EP7QObject @ 5901 NONAME
	_ZN7QActionC2ER14QActionPrivateP7QObject @ 5902 NONAME
	_ZN7QActionC2ERK5QIconRK7QStringP7QObject @ 5903 NONAME
	_ZN7QActionC2ERK7QStringP7QObject @ 5904 NONAME
	_ZN7QActionD0Ev @ 5905 NONAME
	_ZN7QActionD1Ev @ 5906 NONAME
	_ZN7QActionD2Ev @ 5907 NONAME
	_ZN7QBezier10fromPointsERK7QPointFS2_S2_S2_ @ 5908 NONAME
	_ZN7QBezier17findIntersectionsERKS_S1_ @ 5909 NONAME ABSENT
	_ZN7QBezier17findIntersectionsERKS_S1_P7QVectorI5QPairIffEE @ 5910 NONAME ABSENT
	_ZN7QBezier20splitAtIntersectionsERS_ @ 5911 NONAME ABSENT
	_ZN7QBitmap8fromDataERK5QSizePKhN6QImage6FormatE @ 5912 NONAME
	_ZN7QBitmap9fromImageERK6QImage6QFlagsIN2Qt19ImageConversionFlagEE @ 5913 NONAME
	_ZN7QBitmapC1ERK5QSize @ 5914 NONAME
	_ZN7QBitmapC1ERK7QPixmap @ 5915 NONAME
	_ZN7QBitmapC1ERK7QStringPKc @ 5916 NONAME
	_ZN7QBitmapC1Eii @ 5917 NONAME
	_ZN7QBitmapC1Ev @ 5918 NONAME
	_ZN7QBitmapC2ERK5QSize @ 5919 NONAME
	_ZN7QBitmapC2ERK7QPixmap @ 5920 NONAME
	_ZN7QBitmapC2ERK7QStringPKc @ 5921 NONAME
	_ZN7QBitmapC2Eii @ 5922 NONAME
	_ZN7QBitmapC2Ev @ 5923 NONAME
	_ZN7QBitmapD0Ev @ 5924 NONAME
	_ZN7QBitmapD1Ev @ 5925 NONAME
	_ZN7QBitmapD2Ev @ 5926 NONAME
	_ZN7QBitmapaSERK7QPixmap @ 5927 NONAME
	_ZN7QCursor3posEv @ 5928 NONAME
	_ZN7QCursor6setPosEii @ 5929 NONAME
	_ZN7QCursor8setShapeEN2Qt11CursorShapeE @ 5930 NONAME
	_ZN7QCursorC1EN2Qt11CursorShapeE @ 5931 NONAME
	_ZN7QCursorC1ERK7QBitmapS2_ii @ 5932 NONAME
	_ZN7QCursorC1ERK7QPixmapii @ 5933 NONAME
	_ZN7QCursorC1ERKS_ @ 5934 NONAME
	_ZN7QCursorC1Ev @ 5935 NONAME
	_ZN7QCursorC2EN2Qt11CursorShapeE @ 5936 NONAME
	_ZN7QCursorC2ERK7QBitmapS2_ii @ 5937 NONAME
	_ZN7QCursorC2ERK7QPixmapii @ 5938 NONAME
	_ZN7QCursorC2ERKS_ @ 5939 NONAME
	_ZN7QCursorC2Ev @ 5940 NONAME
	_ZN7QCursorD1Ev @ 5941 NONAME
	_ZN7QCursorD2Ev @ 5942 NONAME
	_ZN7QCursoraSERKS_ @ 5943 NONAME
	_ZN7QDialog10closeEventEP11QCloseEvent @ 5944 NONAME
	_ZN7QDialog10setVisibleEb @ 5945 NONAME
	_ZN7QDialog11eventFilterEP7QObjectP6QEvent @ 5946 NONAME
	_ZN7QDialog11qt_metacallEN11QMetaObject4CallEiPPv @ 5947 NONAME
	_ZN7QDialog11qt_metacastEPKc @ 5948 NONAME
	_ZN7QDialog11resizeEventEP12QResizeEvent @ 5949 NONAME
	_ZN7QDialog12setExtensionEP7QWidget @ 5950 NONAME
	_ZN7QDialog13keyPressEventEP9QKeyEvent @ 5951 NONAME
	_ZN7QDialog13showExtensionEb @ 5952 NONAME
	_ZN7QDialog14adjustPositionEP7QWidget @ 5953 NONAME
	_ZN7QDialog14setOrientationEN2Qt11OrientationE @ 5954 NONAME
	_ZN7QDialog16contextMenuEventEP17QContextMenuEvent @ 5955 NONAME
	_ZN7QDialog16staticMetaObjectE @ 5956 NONAME DATA 16
	_ZN7QDialog18setSizeGripEnabledEb @ 5957 NONAME
	_ZN7QDialog19getStaticMetaObjectEv @ 5958 NONAME
	_ZN7QDialog19s60AdjustedPositionEv @ 5959 NONAME ABSENT
	_ZN7QDialog4doneEi @ 5960 NONAME
	_ZN7QDialog4execEv @ 5961 NONAME
	_ZN7QDialog4openEv @ 5962 NONAME
	_ZN7QDialog5eventEP6QEvent @ 5963 NONAME
	_ZN7QDialog6acceptEv @ 5964 NONAME
	_ZN7QDialog6rejectEv @ 5965 NONAME
	_ZN7QDialog8acceptedEv @ 5966 NONAME
	_ZN7QDialog8finishedEi @ 5967 NONAME
	_ZN7QDialog8rejectedEv @ 5968 NONAME
	_ZN7QDialog8setModalEb @ 5969 NONAME
	_ZN7QDialog9setResultEi @ 5970 NONAME
	_ZN7QDialog9showEventEP10QShowEvent @ 5971 NONAME
	_ZN7QDialogC1EP7QWidget6QFlagsIN2Qt10WindowTypeEE @ 5972 NONAME
	_ZN7QDialogC1ER14QDialogPrivateP7QWidget6QFlagsIN2Qt10WindowTypeEE @ 5973 NONAME
	_ZN7QDialogC2EP7QWidget6QFlagsIN2Qt10WindowTypeEE @ 5974 NONAME
	_ZN7QDialogC2ER14QDialogPrivateP7QWidget6QFlagsIN2Qt10WindowTypeEE @ 5975 NONAME
	_ZN7QDialogD0Ev @ 5976 NONAME
	_ZN7QDialogD1Ev @ 5977 NONAME
	_ZN7QDialogD2Ev @ 5978 NONAME
	_ZN7QLayout10childEventEP11QChildEvent @ 5979 NONAME
	_ZN7QLayout10invalidateEv @ 5980 NONAME
	_ZN7QLayout10removeItemEP11QLayoutItem @ 5981 NONAME
	_ZN7QLayout10setEnabledEb @ 5982 NONAME
	_ZN7QLayout10setMenuBarEP7QWidget @ 5983 NONAME
	_ZN7QLayout10setSpacingEi @ 5984 NONAME
	_ZN7QLayout11qt_metacallEN11QMetaObject4CallEiPPv @ 5985 NONAME
	_ZN7QLayout11qt_metacastEPKc @ 5986 NONAME
	_ZN7QLayout11setGeometryERK5QRect @ 5987 NONAME
	_ZN7QLayout11widgetEventEP6QEvent @ 5988 NONAME
	_ZN7QLayout12removeWidgetEP7QWidget @ 5989 NONAME
	_ZN7QLayout12setAlignmentEP7QWidget6QFlagsIN2Qt13AlignmentFlagEE @ 5990 NONAME
	_ZN7QLayout12setAlignmentEPS_6QFlagsIN2Qt13AlignmentFlagEE @ 5991 NONAME
	_ZN7QLayout14addChildLayoutEPS_ @ 5992 NONAME
	_ZN7QLayout14addChildWidgetEP7QWidget @ 5993 NONAME
	_ZN7QLayout16staticMetaObjectE @ 5994 NONAME DATA 16
	_ZN7QLayout17setSizeConstraintENS_14SizeConstraintE @ 5995 NONAME
	_ZN7QLayout18setContentsMarginsEiiii @ 5996 NONAME
	_ZN7QLayout19getStaticMetaObjectEv @ 5997 NONAME
	_ZN7QLayout21closestAcceptableSizeEPK7QWidgetRK5QSize @ 5998 NONAME
	_ZN7QLayout23activateRecursiveHelperEP11QLayoutItem @ 5999 NONAME
	_ZN7QLayout6layoutEv @ 6000 NONAME
	_ZN7QLayout6updateEv @ 6001 NONAME
	_ZN7QLayout8activateEv @ 6002 NONAME
	_ZN7QLayout9addWidgetEP7QWidget @ 6003 NONAME
	_ZN7QLayout9setMarginEi @ 6004 NONAME
	_ZN7QLayoutC2EP7QWidget @ 6005 NONAME
	_ZN7QLayoutC2ER14QLayoutPrivatePS_P7QWidget @ 6006 NONAME
	_ZN7QLayoutC2Ev @ 6007 NONAME
	_ZN7QLayoutD0Ev @ 6008 NONAME
	_ZN7QLayoutD1Ev @ 6009 NONAME
	_ZN7QLayoutD2Ev @ 6010 NONAME
	_ZN7QMatrix5resetEv @ 6011 NONAME
	_ZN7QMatrix5scaleEff @ 6012 NONAME
	_ZN7QMatrix5shearEff @ 6013 NONAME
	_ZN7QMatrix6rotateEf @ 6014 NONAME
	_ZN7QMatrix9setMatrixEffffff @ 6015 NONAME
	_ZN7QMatrix9translateEff @ 6016 NONAME
	_ZN7QMatrixC1ERKS_ @ 6017 NONAME
	_ZN7QMatrixC1Effffff @ 6018 NONAME
	_ZN7QMatrixC1Ev @ 6019 NONAME
	_ZN7QMatrixC2ERKS_ @ 6020 NONAME
	_ZN7QMatrixC2Effffff @ 6021 NONAME
	_ZN7QMatrixC2Ev @ 6022 NONAME
	_ZN7QMatrixaSERKS_ @ 6023 NONAME
	_ZN7QMatrixmLERKS_ @ 6024 NONAME
	_ZN7QPixmap10grabWidgetEP7QWidgetRK5QRect @ 6025 NONAME
	_ZN7QPixmap10grabWindowEP11CCoeControliiii @ 6026 NONAME
	_ZN7QPixmap10trueMatrixERK10QTransformii @ 6027 NONAME
	_ZN7QPixmap10trueMatrixERK7QMatrixii @ 6028 NONAME
	_ZN7QPixmap12defaultDepthEv @ 6029 NONAME
	_ZN7QPixmap12loadFromDataEPKhjPKc6QFlagsIN2Qt19ImageConversionFlagEE @ 6030 NONAME
	_ZN7QPixmap15setAlphaChannelERKS_ @ 6031 NONAME
	_ZN7QPixmap19fromSymbianRSgImageEP8RSgImage @ 6032 NONAME
	_ZN7QPixmap21fromSymbianCFbsBitmapEP10CFbsBitmap @ 6033 NONAME
	_ZN7QPixmap4fillEPK7QWidgetRK6QPoint @ 6034 NONAME
	_ZN7QPixmap4fillERK6QColor @ 6035 NONAME
	_ZN7QPixmap4initEiiNS_4TypeE @ 6036 NONAME
	_ZN7QPixmap4initEiii @ 6037 NONAME
	_ZN7QPixmap4loadERK7QStringPKc6QFlagsIN2Qt19ImageConversionFlagEE @ 6038 NONAME
	_ZN7QPixmap5derefEv @ 6039 NONAME
	_ZN7QPixmap6detachEv @ 6040 NONAME
	_ZN7QPixmap6scrollEiiRK5QRectP7QRegion @ 6041 NONAME
	_ZN7QPixmap7setMaskERK7QBitmap @ 6042 NONAME
	_ZN7QPixmap9fromImageERK6QImage6QFlagsIN2Qt19ImageConversionFlagEE @ 6043 NONAME
	_ZN7QPixmapC1EP11QPixmapData @ 6044 NONAME
	_ZN7QPixmapC1EPKPKc @ 6045 NONAME
	_ZN7QPixmapC1ERK5QSize @ 6046 NONAME
	_ZN7QPixmapC1ERK5QSizeNS_4TypeE @ 6047 NONAME
	_ZN7QPixmapC1ERK5QSizei @ 6048 NONAME
	_ZN7QPixmapC1ERK7QStringPKc6QFlagsIN2Qt19ImageConversionFlagEE @ 6049 NONAME
	_ZN7QPixmapC1ERKS_ @ 6050 NONAME
	_ZN7QPixmapC1Eii @ 6051 NONAME
	_ZN7QPixmapC1Ev @ 6052 NONAME
	_ZN7QPixmapC2EP11QPixmapData @ 6053 NONAME
	_ZN7QPixmapC2EPKPKc @ 6054 NONAME
	_ZN7QPixmapC2ERK5QSize @ 6055 NONAME
	_ZN7QPixmapC2ERK5QSizeNS_4TypeE @ 6056 NONAME
	_ZN7QPixmapC2ERK5QSizei @ 6057 NONAME
	_ZN7QPixmapC2ERK7QStringPKc6QFlagsIN2Qt19ImageConversionFlagEE @ 6058 NONAME
	_ZN7QPixmapC2ERKS_ @ 6059 NONAME
	_ZN7QPixmapC2Eii @ 6060 NONAME
	_ZN7QPixmapC2Ev @ 6061 NONAME
	_ZN7QPixmapD0Ev @ 6062 NONAME
	_ZN7QPixmapD1Ev @ 6063 NONAME
	_ZN7QPixmapD2Ev @ 6064 NONAME
	_ZN7QPixmapaSERKS_ @ 6065 NONAME
	_ZN7QRegion12shared_emptyE @ 6066 NONAME DATA 8
	_ZN7QRegion4execERK10QByteArrayiN11QDataStream9ByteOrderE @ 6067 NONAME
	_ZN7QRegion6detachEv @ 6068 NONAME
	_ZN7QRegion7cleanUpEPNS_11QRegionDataE @ 6069 NONAME
	_ZN7QRegion8setRectsEPK5QRecti @ 6070 NONAME
	_ZN7QRegion9translateEii @ 6071 NONAME
	_ZN7QRegionC1ERK5QRectNS_10RegionTypeE @ 6072 NONAME
	_ZN7QRegionC1ERK7QBitmap @ 6073 NONAME
	_ZN7QRegionC1ERK8QPolygonN2Qt8FillRuleE @ 6074 NONAME
	_ZN7QRegionC1ERKS_ @ 6075 NONAME
	_ZN7QRegionC1EiiiiNS_10RegionTypeE @ 6076 NONAME
	_ZN7QRegionC1Ev @ 6077 NONAME
	_ZN7QRegionC2ERK5QRectNS_10RegionTypeE @ 6078 NONAME
	_ZN7QRegionC2ERK7QBitmap @ 6079 NONAME
	_ZN7QRegionC2ERK8QPolygonN2Qt8FillRuleE @ 6080 NONAME
	_ZN7QRegionC2ERKS_ @ 6081 NONAME
	_ZN7QRegionC2EiiiiNS_10RegionTypeE @ 6082 NONAME
	_ZN7QRegionC2Ev @ 6083 NONAME
	_ZN7QRegionD1Ev @ 6084 NONAME
	_ZN7QRegionD2Ev @ 6085 NONAME
	_ZN7QRegionaNERK5QRect @ 6086 NONAME
	_ZN7QRegionaNERKS_ @ 6087 NONAME
	_ZN7QRegionaSERKS_ @ 6088 NONAME
	_ZN7QRegioneOERKS_ @ 6089 NONAME
	_ZN7QRegionmIERKS_ @ 6090 NONAME
	_ZN7QRegionoRERKS_ @ 6091 NONAME
	_ZN7QRegionpLERK5QRect @ 6092 NONAME
	_ZN7QRegionpLERKS_ @ 6093 NONAME
	_ZN7QSlider10paintEventEP11QPaintEvent @ 6094 NONAME
	_ZN7QSlider11qt_metacallEN11QMetaObject4CallEiPPv @ 6095 NONAME
	_ZN7QSlider11qt_metacastEPKc @ 6096 NONAME
	_ZN7QSlider14mouseMoveEventEP11QMouseEvent @ 6097 NONAME
	_ZN7QSlider15mousePressEventEP11QMouseEvent @ 6098 NONAME
	_ZN7QSlider15setTickIntervalEi @ 6099 NONAME
	_ZN7QSlider15setTickPositionENS_12TickPositionE @ 6100 NONAME
	_ZN7QSlider16staticMetaObjectE @ 6101 NONAME DATA 16
	_ZN7QSlider17mouseReleaseEventEP11QMouseEvent @ 6102 NONAME
	_ZN7QSlider19getStaticMetaObjectEv @ 6103 NONAME
	_ZN7QSlider5eventEP6QEvent @ 6104 NONAME
	_ZN7QSliderC1EN2Qt11OrientationEP7QWidget @ 6105 NONAME
	_ZN7QSliderC1EP7QWidget @ 6106 NONAME
	_ZN7QSliderC2EN2Qt11OrientationEP7QWidget @ 6107 NONAME
	_ZN7QSliderC2EP7QWidget @ 6108 NONAME
	_ZN7QSliderD0Ev @ 6109 NONAME
	_ZN7QSliderD1Ev @ 6110 NONAME
	_ZN7QSliderD2Ev @ 6111 NONAME
	_ZN7QTabBar10paintEventEP11QPaintEvent @ 6112 NONAME
	_ZN7QTabBar10setMovableEb @ 6113 NONAME
	_ZN7QTabBar10setTabDataEiRK8QVariant @ 6114 NONAME
	_ZN7QTabBar10setTabIconEiRK5QIcon @ 6115 NONAME
	_ZN7QTabBar10setTabTextEiRK7QString @ 6116 NONAME
	_ZN7QTabBar10tabRemovedEi @ 6117 NONAME
	_ZN7QTabBar10wheelEventEP11QWheelEvent @ 6118 NONAME
	_ZN7QTabBar11changeEventEP6QEvent @ 6119 NONAME
	_ZN7QTabBar11qt_metacallEN11QMetaObject4CallEiPPv @ 6120 NONAME
	_ZN7QTabBar11qt_metacastEPKc @ 6121 NONAME
	_ZN7QTabBar11resizeEventEP12QResizeEvent @ 6122 NONAME
	_ZN7QTabBar11setDrawBaseEb @ 6123 NONAME
	_ZN7QTabBar11setIconSizeERK5QSize @ 6124 NONAME
	_ZN7QTabBar11tabInsertedEi @ 6125 NONAME
	_ZN7QTabBar12setElideModeEN2Qt13TextElideModeE @ 6126 NONAME
	_ZN7QTabBar12setExpandingEb @ 6127 NONAME
	_ZN7QTabBar12setTabButtonEiNS_14ButtonPositionEP7QWidget @ 6128 NONAME
	_ZN7QTabBar13keyPressEventEP9QKeyEvent @ 6129 NONAME
	_ZN7QTabBar13setTabEnabledEib @ 6130 NONAME
	_ZN7QTabBar13setTabToolTipEiRK7QString @ 6131 NONAME
	_ZN7QTabBar14currentChangedEi @ 6132 NONAME
	_ZN7QTabBar14mouseMoveEventEP11QMouseEvent @ 6133 NONAME
	_ZN7QTabBar15mousePressEventEP11QMouseEvent @ 6134 NONAME
	_ZN7QTabBar15setCurrentIndexEi @ 6135 NONAME
	_ZN7QTabBar15setDocumentModeEb @ 6136 NONAME
	_ZN7QTabBar15setTabTextColorEiRK6QColor @ 6137 NONAME
	_ZN7QTabBar15setTabWhatsThisEiRK7QString @ 6138 NONAME
	_ZN7QTabBar15setTabsClosableEb @ 6139 NONAME
	_ZN7QTabBar15tabLayoutChangeEv @ 6140 NONAME
	_ZN7QTabBar16staticMetaObjectE @ 6141 NONAME DATA 16
	_ZN7QTabBar17mouseReleaseEventEP11QMouseEvent @ 6142 NONAME
	_ZN7QTabBar17tabCloseRequestedEi @ 6143 NONAME
	_ZN7QTabBar19getStaticMetaObjectEv @ 6144 NONAME
	_ZN7QTabBar20setUsesScrollButtonsEb @ 6145 NONAME
	_ZN7QTabBar28setSelectionBehaviorOnRemoveENS_17SelectionBehaviorE @ 6146 NONAME
	_ZN7QTabBar5eventEP6QEvent @ 6147 NONAME
	_ZN7QTabBar6addTabERK5QIconRK7QString @ 6148 NONAME
	_ZN7QTabBar6addTabERK7QString @ 6149 NONAME
	_ZN7QTabBar7moveTabEii @ 6150 NONAME
	_ZN7QTabBar8setShapeENS_5ShapeE @ 6151 NONAME
	_ZN7QTabBar8tabMovedEii @ 6152 NONAME
	_ZN7QTabBar9hideEventEP10QHideEvent @ 6153 NONAME
	_ZN7QTabBar9insertTabEiRK5QIconRK7QString @ 6154 NONAME
	_ZN7QTabBar9insertTabEiRK7QString @ 6155 NONAME
	_ZN7QTabBar9removeTabEi @ 6156 NONAME
	_ZN7QTabBar9showEventEP10QShowEvent @ 6157 NONAME
	_ZN7QTabBarC1EP7QWidget @ 6158 NONAME
	_ZN7QTabBarC2EP7QWidget @ 6159 NONAME
	_ZN7QTabBarD0Ev @ 6160 NONAME
	_ZN7QTabBarD1Ev @ 6161 NONAME
	_ZN7QTabBarD2Ev @ 6162 NONAME
	_ZN7QWidget10addActionsE5QListIP7QActionE @ 6163 NONAME
	_ZN7QWidget10adjustSizeEv @ 6164 NONAME
	_ZN7QWidget10clearFocusEv @ 6165 NONAME
	_ZN7QWidget10closeEventEP11QCloseEvent @ 6166 NONAME
	_ZN7QWidget10enterEventEP6QEvent @ 6167 NONAME
	_ZN7QWidget10fontChangeERK5QFont @ 6168 NONAME
	_ZN7QWidget10leaveEventEP6QEvent @ 6169 NONAME
	_ZN7QWidget10paintEventEP11QPaintEvent @ 6170 NONAME
	_ZN7QWidget10setEnabledEb @ 6171 NONAME
	_ZN7QWidget10setPaletteERK8QPalette @ 6172 NONAME
	_ZN7QWidget10setToolTipERK7QString @ 6173 NONAME
	_ZN7QWidget10setVisibleEb @ 6174 NONAME
	_ZN7QWidget10showNormalEv @ 6175 NONAME
	_ZN7QWidget10stackUnderEPS_ @ 6176 NONAME
	_ZN7QWidget10takeLayoutEv @ 6177 NONAME
	_ZN7QWidget10wheelEventEP11QWheelEvent @ 6178 NONAME
	_ZN7QWidget11actionEventEP12QActionEvent @ 6179 NONAME
	_ZN7QWidget11changeEventEP6QEvent @ 6180 NONAME
	_ZN7QWidget11createWinIdEv @ 6181 NONAME
	_ZN7QWidget11grabGestureEN2Qt11GestureTypeENS0_14GestureContextE @ 6182 NONAME ABSENT
	_ZN7QWidget11qt_metacallEN11QMetaObject4CallEiPPv @ 6183 NONAME
	_ZN7QWidget11qt_metacastEPKc @ 6184 NONAME
	_ZN7QWidget11resizeEventEP12QResizeEvent @ 6185 NONAME
	_ZN7QWidget11setBaseSizeEii @ 6186 NONAME
	_ZN7QWidget11setDisabledEb @ 6187 NONAME
	_ZN7QWidget11setGeometryERK5QRect @ 6188 NONAME
	_ZN7QWidget11setTabOrderEPS_S0_ @ 6189 NONAME
	_ZN7QWidget11styleChangeER6QStyle @ 6190 NONAME
	_ZN7QWidget11tabletEventEP12QTabletEvent @ 6191 NONAME
	_ZN7QWidget11unsetCursorEv @ 6192 NONAME
	_ZN7QWidget11unsetLocaleEv @ 6193 NONAME
	_ZN7QWidget12focusInEventEP11QFocusEvent @ 6194 NONAME
	_ZN7QWidget12grabKeyboardEv @ 6195 NONAME
	_ZN7QWidget12grabShortcutERK12QKeySequenceN2Qt15ShortcutContextE @ 6196 NONAME
	_ZN7QWidget12inputContextEv @ 6197 NONAME
	_ZN7QWidget12insertActionEP7QActionS1_ @ 6198 NONAME
	_ZN7QWidget12mouseGrabberEv @ 6199 NONAME
	_ZN7QWidget12releaseMouseEv @ 6200 NONAME
	_ZN7QWidget12removeActionEP7QAction @ 6201 NONAME
	_ZN7QWidget12setAttributeEN2Qt15WidgetAttributeEb @ 6202 NONAME
	_ZN7QWidget12setEditFocusEb @ 6203 NONAME
	_ZN7QWidget12setFixedSizeERK5QSize @ 6204 NONAME
	_ZN7QWidget12setFixedSizeEii @ 6205 NONAME
	_ZN7QWidget12setStatusTipERK7QString @ 6206 NONAME
	_ZN7QWidget12setWhatsThisERK7QString @ 6207 NONAME
	_ZN7QWidget13dragMoveEventEP14QDragMoveEvent @ 6208 NONAME
	_ZN7QWidget13enabledChangeEb @ 6209 NONAME
	_ZN7QWidget13focusOutEventEP11QFocusEvent @ 6210 NONAME
	_ZN7QWidget13insertActionsEP7QAction5QListIS1_E @ 6211 NONAME
	_ZN7QWidget13keyPressEventEP9QKeyEvent @ 6212 NONAME
	_ZN7QWidget13paletteChangeERK8QPalette @ 6213 NONAME
	_ZN7QWidget13setFixedWidthEi @ 6214 NONAME
	_ZN7QWidget13setFocusProxyEPS_ @ 6215 NONAME
	_ZN7QWidget13setSizePolicyE11QSizePolicy @ 6216 NONAME
	_ZN7QWidget13setStyleSheetERK7QString @ 6217 NONAME
	_ZN7QWidget13setWindowIconERK5QIcon @ 6218 NONAME
	_ZN7QWidget13setWindowRoleERK7QString @ 6219 NONAME
	_ZN7QWidget13showMaximizedEv @ 6220 NONAME
	_ZN7QWidget13showMinimizedEv @ 6221 NONAME
	_ZN7QWidget14activateWindowEv @ 6222 NONAME
	_ZN7QWidget14dragEnterEventEP15QDragEnterEvent @ 6223 NONAME
	_ZN7QWidget14dragLeaveEventEP15QDragLeaveEvent @ 6224 NONAME
	_ZN7QWidget14languageChangeEv @ 6225 NONAME
	_ZN7QWidget14mouseMoveEventEP11QMouseEvent @ 6226 NONAME
	_ZN7QWidget14setAcceptDropsEb @ 6227 NONAME
	_ZN7QWidget14setFixedHeightEi @ 6228 NONAME
	_ZN7QWidget14setFocusPolicyEN2Qt11FocusPolicyE @ 6229 NONAME
	_ZN7QWidget14setMaximumSizeEii @ 6230 NONAME
	_ZN7QWidget14setMinimumSizeEii @ 6231 NONAME
	_ZN7QWidget14setWindowFlagsE6QFlagsIN2Qt10WindowTypeEE @ 6232 NONAME
	_ZN7QWidget14setWindowStateE6QFlagsIN2Qt11WindowStateEE @ 6233 NONAME
	_ZN7QWidget14setWindowTitleERK7QString @ 6234 NONAME
	_ZN7QWidget14showFullScreenEv @ 6235 NONAME
	_ZN7QWidget14updateGeometryEv @ 6236 NONAME
	_ZN7QWidget15keyReleaseEventEP9QKeyEvent @ 6237 NONAME
	_ZN7QWidget15keyboardGrabberEv @ 6238 NONAME
	_ZN7QWidget15mousePressEventEP11QMouseEvent @ 6239 NONAME
	_ZN7QWidget15releaseKeyboardEv @ 6240 NONAME
	_ZN7QWidget15releaseShortcutEi @ 6241 NONAME
	_ZN7QWidget15restoreGeometryERK10QByteArray @ 6242 NONAME
	_ZN7QWidget15setInputContextEP13QInputContext @ 6243 NONAME
	_ZN7QWidget15setMaximumWidthEi @ 6244 NONAME
	_ZN7QWidget15setMinimumWidthEi @ 6245 NONAME
	_ZN7QWidget16contextMenuEventEP17QContextMenuEvent @ 6246 NONAME
	_ZN7QWidget16inputMethodEventEP17QInputMethodEvent @ 6247 NONAME
	_ZN7QWidget16setMaximumHeightEi @ 6248 NONAME
	_ZN7QWidget16setMinimumHeightEi @ 6249 NONAME
	_ZN7QWidget16setSizeIncrementEii @ 6250 NONAME
	_ZN7QWidget16setWindowOpacityEf @ 6251 NONAME
	_ZN7QWidget16setWindowSurfaceEP14QWindowSurface @ 6252 NONAME
	_ZN7QWidget16staticMetaObjectE @ 6253 NONAME DATA 16
	_ZN7QWidget16updateMicroFocusEv @ 6254 NONAME
	_ZN7QWidget17mouseReleaseEventEP11QMouseEvent @ 6255 NONAME
	_ZN7QWidget17resetInputContextEv @ 6256 NONAME
	_ZN7QWidget17setBackgroundRoleEN8QPalette9ColorRoleE @ 6257 NONAME
	_ZN7QWidget17setForegroundRoleEN8QPalette9ColorRoleE @ 6258 NONAME
	_ZN7QWidget17setGraphicsEffectEP15QGraphicsEffect @ 6259 NONAME
	_ZN7QWidget17setUpdatesEnabledEb @ 6260 NONAME
	_ZN7QWidget17setWindowFilePathERK7QString @ 6261 NONAME
	_ZN7QWidget17setWindowIconTextERK7QString @ 6262 NONAME
	_ZN7QWidget17setWindowModalityEN2Qt14WindowModalityE @ 6263 NONAME
	_ZN7QWidget17setWindowModifiedEb @ 6264 NONAME
	_ZN7QWidget18focusNextPrevChildEb @ 6265 NONAME
	_ZN7QWidget18setContentsMarginsERK8QMargins @ 6266 NONAME
	_ZN7QWidget18setContentsMarginsEiiii @ 6267 NONAME
	_ZN7QWidget18setLayoutDirectionEN2Qt15LayoutDirectionE @ 6268 NONAME
	_ZN7QWidget18setShortcutEnabledEib @ 6269 NONAME
	_ZN7QWidget19getStaticMetaObjectEv @ 6270 NONAME
	_ZN7QWidget19overrideWindowFlagsE6QFlagsIN2Qt10WindowTypeEE @ 6271 NONAME
	_ZN7QWidget19overrideWindowStateE6QFlagsIN2Qt11WindowStateEE @ 6272 NONAME
	_ZN7QWidget19setInputMethodHintsE6QFlagsIN2Qt15InputMethodHintEE @ 6273 NONAME
	_ZN7QWidget20setContextMenuPolicyEN2Qt17ContextMenuPolicyE @ 6274 NONAME
	_ZN7QWidget20unsetLayoutDirectionEv @ 6275 NONAME
	_ZN7QWidget21mouseDoubleClickEventEP11QMouseEvent @ 6276 NONAME
	_ZN7QWidget21setAutoFillBackgroundEb @ 6277 NONAME
	_ZN7QWidget21setShortcutAutoRepeatEib @ 6278 NONAME
	_ZN7QWidget22windowActivationChangeEb @ 6279 NONAME
	_ZN7QWidget26customContextMenuRequestedERK6QPoint @ 6280 NONAME
	_ZN7QWidget4findEP11CCoeControl @ 6281 NONAME
	_ZN7QWidget4moveERK6QPoint @ 6282 NONAME
	_ZN7QWidget5closeEv @ 6283 NONAME
	_ZN7QWidget5eventEP6QEvent @ 6284 NONAME
	_ZN7QWidget5lowerEv @ 6285 NONAME
	_ZN7QWidget5raiseEv @ 6286 NONAME
	_ZN7QWidget6createEP11CCoeControlbb @ 6287 NONAME
	_ZN7QWidget6renderEP12QPaintDeviceRK6QPointRK7QRegion6QFlagsINS_10RenderFlagEE @ 6288 NONAME
	_ZN7QWidget6renderEP8QPainterRK6QPointRK7QRegion6QFlagsINS_10RenderFlagEE @ 6289 NONAME
	_ZN7QWidget6resizeERK5QSize @ 6290 NONAME
	_ZN7QWidget6scrollEii @ 6291 NONAME
	_ZN7QWidget6scrollEiiRK5QRect @ 6292 NONAME
	_ZN7QWidget6updateERK5QRect @ 6293 NONAME
	_ZN7QWidget6updateERK7QRegion @ 6294 NONAME
	_ZN7QWidget6updateEv @ 6295 NONAME
	_ZN7QWidget7destroyEbb @ 6296 NONAME
	_ZN7QWidget7repaintERK5QRect @ 6297 NONAME
	_ZN7QWidget7repaintERK7QRegion @ 6298 NONAME
	_ZN7QWidget7repaintEiiii @ 6299 NONAME
	_ZN7QWidget7repaintEv @ 6300 NONAME
	_ZN7QWidget7setFontERK5QFont @ 6301 NONAME
	_ZN7QWidget7setMaskERK7QBitmap @ 6302 NONAME
	_ZN7QWidget7setMaskERK7QRegion @ 6303 NONAME
	_ZN7QWidget8setFocusEN2Qt11FocusReasonE @ 6304 NONAME
	_ZN7QWidget8setStyleEP6QStyle @ 6305 NONAME
	_ZN7QWidget9addActionEP7QAction @ 6306 NONAME
	_ZN7QWidget9clearMaskEv @ 6307 NONAME
	_ZN7QWidget9dropEventEP10QDropEvent @ 6308 NONAME
	_ZN7QWidget9grabMouseERK7QCursor @ 6309 NONAME
	_ZN7QWidget9grabMouseEv @ 6310 NONAME
	_ZN7QWidget9hideEventEP10QHideEvent @ 6311 NONAME
	_ZN7QWidget9moveEventEP10QMoveEvent @ 6312 NONAME
	_ZN7QWidget9setCursorERK7QCursor @ 6313 NONAME
	_ZN7QWidget9setLayoutEP7QLayout @ 6314 NONAME
	_ZN7QWidget9setLocaleERK7QLocale @ 6315 NONAME
	_ZN7QWidget9setParentEPS_ @ 6316 NONAME
	_ZN7QWidget9setParentEPS_6QFlagsIN2Qt10WindowTypeEE @ 6317 NONAME
	_ZN7QWidget9showEventEP10QShowEvent @ 6318 NONAME
	_ZN7QWidgetC1EPS_6QFlagsIN2Qt10WindowTypeEE @ 6319 NONAME
	_ZN7QWidgetC1ER14QWidgetPrivatePS_6QFlagsIN2Qt10WindowTypeEE @ 6320 NONAME
	_ZN7QWidgetC2EPS_6QFlagsIN2Qt10WindowTypeEE @ 6321 NONAME
	_ZN7QWidgetC2ER14QWidgetPrivatePS_6QFlagsIN2Qt10WindowTypeEE @ 6322 NONAME
	_ZN7QWidgetD0Ev @ 6323 NONAME
	_ZN7QWidgetD1Ev @ 6324 NONAME
	_ZN7QWidgetD2Ev @ 6325 NONAME
	_ZN7QWizard10paintEventEP11QPaintEvent @ 6326 NONAME
	_ZN7QWizard10removePageEi @ 6327 NONAME
	_ZN7QWizard10setOptionsE6QFlagsINS_12WizardOptionEE @ 6328 NONAME
	_ZN7QWizard10setStartIdEi @ 6329 NONAME
	_ZN7QWizard10setVisibleEb @ 6330 NONAME
	_ZN7QWizard11cleanupPageEi @ 6331 NONAME
	_ZN7QWizard11qt_metacallEN11QMetaObject4CallEiPPv @ 6332 NONAME
	_ZN7QWizard11qt_metacastEPKc @ 6333 NONAME
	_ZN7QWizard11resizeEventEP12QResizeEvent @ 6334 NONAME
	_ZN7QWizard13helpRequestedEv @ 6335 NONAME
	_ZN7QWizard13setButtonTextENS_12WizardButtonERK7QString @ 6336 NONAME
	_ZN7QWizard14initializePageEi @ 6337 NONAME
	_ZN7QWizard14setTitleFormatEN2Qt10TextFormatE @ 6338 NONAME
	_ZN7QWizard14setWizardStyleENS_11WizardStyleE @ 6339 NONAME
	_ZN7QWizard15setButtonLayoutERK5QListINS_12WizardButtonEE @ 6340 NONAME
	_ZN7QWizard16currentIdChangedEi @ 6341 NONAME
	_ZN7QWizard16staticMetaObjectE @ 6342 NONAME DATA 16
	_ZN7QWizard17setSubTitleFormatEN2Qt10TextFormatE @ 6343 NONAME
	_ZN7QWizard18setDefaultPropertyEPKcS1_S1_ @ 6344 NONAME
	_ZN7QWizard19customButtonClickedEi @ 6345 NONAME
	_ZN7QWizard19getStaticMetaObjectEv @ 6346 NONAME
	_ZN7QWizard19validateCurrentPageEv @ 6347 NONAME
	_ZN7QWizard4backEv @ 6348 NONAME
	_ZN7QWizard4doneEi @ 6349 NONAME
	_ZN7QWizard4nextEv @ 6350 NONAME
	_ZN7QWizard5eventEP6QEvent @ 6351 NONAME
	_ZN7QWizard7addPageEP11QWizardPage @ 6352 NONAME
	_ZN7QWizard7restartEv @ 6353 NONAME
	_ZN7QWizard7setPageEiP11QWizardPage @ 6354 NONAME
	_ZN7QWizard8setFieldERK7QStringRK8QVariant @ 6355 NONAME
	_ZN7QWizard9setButtonENS_12WizardButtonEP15QAbstractButton @ 6356 NONAME
	_ZN7QWizard9setOptionENS_12WizardOptionEb @ 6357 NONAME
	_ZN7QWizard9setPixmapENS_12WizardPixmapERK7QPixmap @ 6358 NONAME
	_ZN7QWizardC1EP7QWidget6QFlagsIN2Qt10WindowTypeEE @ 6359 NONAME
	_ZN7QWizardC2EP7QWidget6QFlagsIN2Qt10WindowTypeEE @ 6360 NONAME
	_ZN7QWizardD0Ev @ 6361 NONAME
	_ZN7QWizardD1Ev @ 6362 NONAME
	_ZN7QWizardD2Ev @ 6363 NONAME
	_ZN8QGesture10setHotSpotERK7QPointF @ 6364 NONAME
	_ZN8QGesture11qt_metacallEN11QMetaObject4CallEiPPv @ 6365 NONAME
	_ZN8QGesture11qt_metacastEPKc @ 6366 NONAME
	_ZN8QGesture12unsetHotSpotEv @ 6367 NONAME
	_ZN8QGesture15setTargetObjectEP7QObject @ 6368 NONAME ABSENT
	_ZN8QGesture16staticMetaObjectE @ 6369 NONAME DATA 16
	_ZN8QGesture19getStaticMetaObjectEv @ 6370 NONAME
	_ZN8QGestureC1EN2Qt11GestureTypeEP7QObject @ 6371 NONAME ABSENT
	_ZN8QGestureC1EP7QObject @ 6372 NONAME
	_ZN8QGestureC1ER15QGesturePrivateN2Qt11GestureTypeEP7QObject @ 6373 NONAME ABSENT
	_ZN8QGestureC2EN2Qt11GestureTypeEP7QObject @ 6374 NONAME ABSENT
	_ZN8QGestureC2EP7QObject @ 6375 NONAME
	_ZN8QGestureC2ER15QGesturePrivateN2Qt11GestureTypeEP7QObject @ 6376 NONAME ABSENT
	_ZN8QGestureD0Ev @ 6377 NONAME
	_ZN8QGestureD1Ev @ 6378 NONAME
	_ZN8QGestureD2Ev @ 6379 NONAME
	_ZN8QMdiArea10childEventEP11QChildEvent @ 6380 NONAME
	_ZN8QMdiArea10paintEventEP11QPaintEvent @ 6381 NONAME
	_ZN8QMdiArea10timerEventEP11QTimerEvent @ 6382 NONAME
	_ZN8QMdiArea11eventFilterEP7QObjectP6QEvent @ 6383 NONAME
	_ZN8QMdiArea11qt_metacallEN11QMetaObject4CallEiPPv @ 6384 NONAME
	_ZN8QMdiArea11qt_metacastEPKc @ 6385 NONAME
	_ZN8QMdiArea11resizeEventEP12QResizeEvent @ 6386 NONAME
	_ZN8QMdiArea11setTabShapeEN10QTabWidget8TabShapeE @ 6387 NONAME
	_ZN8QMdiArea11setViewModeENS_8ViewModeE @ 6388 NONAME
	_ZN8QMdiArea12addSubWindowEP7QWidget6QFlagsIN2Qt10WindowTypeEE @ 6389 NONAME
	_ZN8QMdiArea13setBackgroundERK6QBrush @ 6390 NONAME
	_ZN8QMdiArea13setupViewportEP7QWidget @ 6391 NONAME
	_ZN8QMdiArea13viewportEventEP6QEvent @ 6392 NONAME
	_ZN8QMdiArea14setTabPositionEN10QTabWidget11TabPositionE @ 6393 NONAME
	_ZN8QMdiArea14tileSubWindowsEv @ 6394 NONAME
	_ZN8QMdiArea15removeSubWindowEP7QWidget @ 6395 NONAME
	_ZN8QMdiArea15setDocumentModeEb @ 6396 NONAME
	_ZN8QMdiArea16scrollContentsByEii @ 6397 NONAME
	_ZN8QMdiArea16staticMetaObjectE @ 6398 NONAME DATA 16
	_ZN8QMdiArea17cascadeSubWindowsEv @ 6399 NONAME
	_ZN8QMdiArea18closeAllSubWindowsEv @ 6400 NONAME
	_ZN8QMdiArea18setActivationOrderENS_11WindowOrderE @ 6401 NONAME
	_ZN8QMdiArea18setActiveSubWindowEP13QMdiSubWindow @ 6402 NONAME
	_ZN8QMdiArea18subWindowActivatedEP13QMdiSubWindow @ 6403 NONAME
	_ZN8QMdiArea19getStaticMetaObjectEv @ 6404 NONAME
	_ZN8QMdiArea20closeActiveSubWindowEv @ 6405 NONAME
	_ZN8QMdiArea21activateNextSubWindowEv @ 6406 NONAME
	_ZN8QMdiArea25activatePreviousSubWindowEv @ 6407 NONAME
	_ZN8QMdiArea5eventEP6QEvent @ 6408 NONAME
	_ZN8QMdiArea9setOptionENS_10AreaOptionEb @ 6409 NONAME
	_ZN8QMdiArea9showEventEP10QShowEvent @ 6410 NONAME
	_ZN8QMdiAreaC1EP7QWidget @ 6411 NONAME
	_ZN8QMdiAreaC2EP7QWidget @ 6412 NONAME
	_ZN8QMdiAreaD0Ev @ 6413 NONAME
	_ZN8QMdiAreaD1Ev @ 6414 NONAME
	_ZN8QMdiAreaD2Ev @ 6415 NONAME
	_ZN8QMenuBar10insertMenuEP7QActionP5QMenu @ 6416 NONAME
	_ZN8QMenuBar10leaveEventEP6QEvent @ 6417 NONAME
	_ZN8QMenuBar10paintEventEP11QPaintEvent @ 6418 NONAME
	_ZN8QMenuBar10setVisibleEb @ 6419 NONAME
	_ZN8QMenuBar10timerEventEP11QTimerEvent @ 6420 NONAME
	_ZN8QMenuBar11actionEventEP12QActionEvent @ 6421 NONAME
	_ZN8QMenuBar11changeEventEP6QEvent @ 6422 NONAME
	_ZN8QMenuBar11eventFilterEP7QObjectP6QEvent @ 6423 NONAME
	_ZN8QMenuBar11qt_metacallEN11QMetaObject4CallEiPPv @ 6424 NONAME
	_ZN8QMenuBar11qt_metacastEPKc @ 6425 NONAME
	_ZN8QMenuBar11resizeEventEP12QResizeEvent @ 6426 NONAME
	_ZN8QMenuBar12addSeparatorEv @ 6427 NONAME
	_ZN8QMenuBar12focusInEventEP11QFocusEvent @ 6428 NONAME
	_ZN8QMenuBar12setDefaultUpEb @ 6429 NONAME
	_ZN8QMenuBar13focusOutEventEP11QFocusEvent @ 6430 NONAME
	_ZN8QMenuBar13keyPressEventEP9QKeyEvent @ 6431 NONAME
	_ZN8QMenuBar14mouseMoveEventEP11QMouseEvent @ 6432 NONAME
	_ZN8QMenuBar15insertSeparatorEP7QAction @ 6433 NONAME
	_ZN8QMenuBar15mousePressEventEP11QMouseEvent @ 6434 NONAME
	_ZN8QMenuBar15setActiveActionEP7QAction @ 6435 NONAME
	_ZN8QMenuBar15setCornerWidgetEP7QWidgetN2Qt6CornerE @ 6436 NONAME
	_ZN8QMenuBar16setNativeMenuBarEb @ 6437 NONAME
	_ZN8QMenuBar16staticMetaObjectE @ 6438 NONAME DATA 16
	_ZN8QMenuBar17mouseReleaseEventEP11QMouseEvent @ 6439 NONAME
	_ZN8QMenuBar19getStaticMetaObjectEv @ 6440 NONAME
	_ZN8QMenuBar5clearEv @ 6441 NONAME
	_ZN8QMenuBar5eventEP6QEvent @ 6442 NONAME
	_ZN8QMenuBar7addMenuEP5QMenu @ 6443 NONAME
	_ZN8QMenuBar7addMenuERK5QIconRK7QString @ 6444 NONAME
	_ZN8QMenuBar7addMenuERK7QString @ 6445 NONAME
	_ZN8QMenuBar7hoveredEP7QAction @ 6446 NONAME
	_ZN8QMenuBar9addActionERK7QString @ 6447 NONAME
	_ZN8QMenuBar9addActionERK7QStringPK7QObjectPKc @ 6448 NONAME
	_ZN8QMenuBar9triggeredEP7QAction @ 6449 NONAME
	_ZN8QMenuBarC1EP7QWidget @ 6450 NONAME
	_ZN8QMenuBarC2EP7QWidget @ 6451 NONAME
	_ZN8QMenuBarD0Ev @ 6452 NONAME
	_ZN8QMenuBarD1Ev @ 6453 NONAME
	_ZN8QMenuBarD2Ev @ 6454 NONAME
	_ZN8QPainter10drawPixmapERK6QRectFRK7QPixmapS2_ @ 6455 NONAME
	_ZN8QPainter10drawPixmapERK7QPointFRK7QPixmap @ 6456 NONAME
	_ZN8QPainter10drawPointsEPK6QPointi @ 6457 NONAME
	_ZN8QPainter10drawPointsEPK7QPointFi @ 6458 NONAME
	_ZN8QPainter10redirectedEPK12QPaintDeviceP6QPoint @ 6459 NONAME
	_ZN8QPainter10setOpacityEf @ 6460 NONAME
	_ZN8QPainter10strokePathERK12QPainterPathRK4QPen @ 6461 NONAME
	_ZN8QPainter11drawEllipseERK5QRect @ 6462 NONAME
	_ZN8QPainter11drawEllipseERK6QRectF @ 6463 NONAME
	_ZN8QPainter11drawPictureERK7QPointFRK8QPicture @ 6464 NONAME
	_ZN8QPainter11drawPolygonEPK6QPointiN2Qt8FillRuleE @ 6465 NONAME
	_ZN8QPainter11drawPolygonEPK7QPointFiN2Qt8FillRuleE @ 6466 NONAME
	_ZN8QPainter11resetMatrixEv @ 6467 NONAME
	_ZN8QPainter11setClipPathERK12QPainterPathN2Qt13ClipOperationE @ 6468 NONAME
	_ZN8QPainter11setClipRectERK5QRectN2Qt13ClipOperationE @ 6469 NONAME
	_ZN8QPainter11setClipRectERK6QRectFN2Qt13ClipOperationE @ 6470 NONAME
	_ZN8QPainter11setClippingEb @ 6471 NONAME
	_ZN8QPainter11setViewportERK5QRect @ 6472 NONAME
	_ZN8QPainter12boundingRectERK5QRectiRK7QString @ 6473 NONAME
	_ZN8QPainter12boundingRectERK6QRectFRK7QStringRK11QTextOption @ 6474 NONAME
	_ZN8QPainter12boundingRectERK6QRectFiRK7QString @ 6475 NONAME
	_ZN8QPainter12drawPolylineEPK6QPointi @ 6476 NONAME
	_ZN8QPainter12drawPolylineEPK7QPointFi @ 6477 NONAME
	_ZN8QPainter12drawTextItemERK7QPointFRK9QTextItem @ 6478 NONAME
	_ZN8QPainter12setTransformERK10QTransformb @ 6479 NONAME
	_ZN8QPainter13drawRoundRectERK6QRectFii @ 6480 NONAME
	_ZN8QPainter13setBackgroundERK6QBrush @ 6481 NONAME
	_ZN8QPainter13setClipRegionERK7QRegionN2Qt13ClipOperationE @ 6482 NONAME
	_ZN8QPainter13setRedirectedEPK12QPaintDevicePS0_RK6QPoint @ 6483 NONAME
	_ZN8QPainter13setRenderHintENS_10RenderHintEb @ 6484 NONAME
	_ZN8QPainter14resetTransformEv @ 6485 NONAME
	_ZN8QPainter14setBrushOriginERK7QPointF @ 6486 NONAME
	_ZN8QPainter14setRenderHintsE6QFlagsINS_10RenderHintEEb @ 6487 NONAME
	_ZN8QPainter14setWorldMatrixERK7QMatrixb @ 6488 NONAME
	_ZN8QPainter15drawRoundedRectERK6QRectFffN2Qt8SizeModeE @ 6489 NONAME
	_ZN8QPainter15drawTiledPixmapERK6QRectFRK7QPixmapRK7QPointF @ 6490 NONAME
	_ZN8QPainter16setMatrixEnabledEb @ 6491 NONAME
	_ZN8QPainter16staticMetaObjectE @ 6492 NONAME DATA 16
	_ZN8QPainter17drawConvexPolygonEPK6QPointi @ 6493 NONAME
	_ZN8QPainter17drawConvexPolygonEPK7QPointFi @ 6494 NONAME
	_ZN8QPainter17endNativePaintingEv @ 6495 NONAME
	_ZN8QPainter17restoreRedirectedEPK12QPaintDevice @ 6496 NONAME
	_ZN8QPainter17setBackgroundModeEN2Qt6BGModeE @ 6497 NONAME
	_ZN8QPainter17setWorldTransformERK10QTransformb @ 6498 NONAME
	_ZN8QPainter18setCompositionModeENS_15CompositionModeE @ 6499 NONAME
	_ZN8QPainter18setLayoutDirectionEN2Qt15LayoutDirectionE @ 6500 NONAME
	_ZN8QPainter19beginNativePaintingEv @ 6501 NONAME
	_ZN8QPainter19getStaticMetaObjectEv @ 6502 NONAME
	_ZN8QPainter21setWorldMatrixEnabledEb @ 6503 NONAME
	_ZN8QPainter23setViewTransformEnabledEb @ 6504 NONAME
	_ZN8QPainter3endEv @ 6505 NONAME
	_ZN8QPainter4saveEv @ 6506 NONAME
	_ZN8QPainter5beginEP12QPaintDevice @ 6507 NONAME
	_ZN8QPainter5scaleEff @ 6508 NONAME
	_ZN8QPainter5shearEff @ 6509 NONAME
	_ZN8QPainter6rotateEf @ 6510 NONAME
	_ZN8QPainter6setPenEN2Qt8PenStyleE @ 6511 NONAME
	_ZN8QPainter6setPenERK4QPen @ 6512 NONAME
	_ZN8QPainter6setPenERK6QColor @ 6513 NONAME
	_ZN8QPainter7drawArcERK6QRectFii @ 6514 NONAME
	_ZN8QPainter7drawPieERK6QRectFii @ 6515 NONAME
	_ZN8QPainter7restoreEv @ 6516 NONAME
	_ZN8QPainter7setFontERK5QFont @ 6517 NONAME
	_ZN8QPainter8drawPathERK12QPainterPath @ 6518 NONAME
	_ZN8QPainter8drawTextERK5QRectiRK7QStringPS0_ @ 6519 NONAME
	_ZN8QPainter8drawTextERK6QRectFRK7QStringRK11QTextOption @ 6520 NONAME
	_ZN8QPainter8drawTextERK6QRectFiRK7QStringPS0_ @ 6521 NONAME
	_ZN8QPainter8drawTextERK7QPointFRK7QString @ 6522 NONAME
	_ZN8QPainter8drawTextERK7QPointFRK7QStringii @ 6523 NONAME
	_ZN8QPainter8fillPathERK12QPainterPathRK6QBrush @ 6524 NONAME
	_ZN8QPainter8fillRectERK5QRectRK6QBrush @ 6525 NONAME
	_ZN8QPainter8fillRectERK5QRectRK6QColor @ 6526 NONAME
	_ZN8QPainter8fillRectERK6QRectFRK6QBrush @ 6527 NONAME
	_ZN8QPainter8fillRectERK6QRectFRK6QColor @ 6528 NONAME
	_ZN8QPainter8initFromEPK7QWidget @ 6529 NONAME
	_ZN8QPainter8setBrushEN2Qt10BrushStyleE @ 6530 NONAME
	_ZN8QPainter8setBrushERK6QBrush @ 6531 NONAME
	_ZN8QPainter9drawChordERK6QRectFii @ 6532 NONAME
	_ZN8QPainter9drawImageERK6QRectFRK6QImageS2_6QFlagsIN2Qt19ImageConversionFlagEE @ 6533 NONAME
	_ZN8QPainter9drawImageERK7QPointFRK6QImage @ 6534 NONAME
	_ZN8QPainter9drawLinesEPK5QLinei @ 6535 NONAME
	_ZN8QPainter9drawLinesEPK6QLineFi @ 6536 NONAME
	_ZN8QPainter9drawLinesEPK6QPointi @ 6537 NONAME
	_ZN8QPainter9drawLinesEPK7QPointFi @ 6538 NONAME
	_ZN8QPainter9drawRectsEPK5QRecti @ 6539 NONAME
	_ZN8QPainter9drawRectsEPK6QRectFi @ 6540 NONAME
	_ZN8QPainter9eraseRectERK6QRectF @ 6541 NONAME
	_ZN8QPainter9setMatrixERK7QMatrixb @ 6542 NONAME
	_ZN8QPainter9setWindowERK5QRect @ 6543 NONAME
	_ZN8QPainter9translateERK7QPointF @ 6544 NONAME
	_ZN8QPainterC1EP12QPaintDevice @ 6545 NONAME
	_ZN8QPainterC1Ev @ 6546 NONAME
	_ZN8QPainterC2EP12QPaintDevice @ 6547 NONAME
	_ZN8QPainterC2Ev @ 6548 NONAME
	_ZN8QPainterD1Ev @ 6549 NONAME
	_ZN8QPainterD2Ev @ 6550 NONAME
	_ZN8QPalette13setColorGroupENS_10ColorGroupERK6QBrushS3_S3_S3_S3_S3_S3_S3_S3_ @ 6551 NONAME
	_ZN8QPalette13setColorGroupENS_10ColorGroupERK6QBrushS3_S3_S3_S3_S3_S3_S3_S3_S3_S3_S3_S3_S3_S3_S3_S3_ @ 6552 NONAME
	_ZN8QPalette13setColorGroupENS_10ColorGroupERK6QBrushS3_S3_S3_S3_S3_S3_S3_S3_S3_S3_S3_S3_S3_S3_S3_S3_S3_S3_ @ 6553 NONAME
	_ZN8QPalette16staticMetaObjectE @ 6554 NONAME DATA 16
	_ZN8QPalette19getStaticMetaObjectEv @ 6555 NONAME
	_ZN8QPalette4initEv @ 6556 NONAME
	_ZN8QPalette6detachEv @ 6557 NONAME
	_ZN8QPalette8setBrushENS_10ColorGroupENS_9ColorRoleERK6QBrush @ 6558 NONAME
	_ZN8QPaletteC1EN2Qt11GlobalColorE @ 6559 NONAME
	_ZN8QPaletteC1ERK6QBrushS2_S2_S2_S2_S2_S2_S2_S2_ @ 6560 NONAME
	_ZN8QPaletteC1ERK6QColor @ 6561 NONAME
	_ZN8QPaletteC1ERK6QColorS2_ @ 6562 NONAME
	_ZN8QPaletteC1ERK6QColorS2_S2_S2_S2_S2_S2_ @ 6563 NONAME
	_ZN8QPaletteC1ERKS_ @ 6564 NONAME
	_ZN8QPaletteC1Ev @ 6565 NONAME
	_ZN8QPaletteC2EN2Qt11GlobalColorE @ 6566 NONAME
	_ZN8QPaletteC2ERK6QBrushS2_S2_S2_S2_S2_S2_S2_S2_ @ 6567 NONAME
	_ZN8QPaletteC2ERK6QColor @ 6568 NONAME
	_ZN8QPaletteC2ERK6QColorS2_ @ 6569 NONAME
	_ZN8QPaletteC2ERK6QColorS2_S2_S2_S2_S2_S2_ @ 6570 NONAME
	_ZN8QPaletteC2ERKS_ @ 6571 NONAME
	_ZN8QPaletteC2Ev @ 6572 NONAME
	_ZN8QPaletteD1Ev @ 6573 NONAME
	_ZN8QPaletteD2Ev @ 6574 NONAME
	_ZN8QPaletteaSERKS_ @ 6575 NONAME
	_ZN8QPicture12inputFormatsEv @ 6576 NONAME
	_ZN8QPicture13detach_helperEv @ 6577 NONAME
	_ZN8QPicture13outputFormatsEv @ 6578 NONAME
	_ZN8QPicture13pictureFormatERK7QString @ 6579 NONAME
	_ZN8QPicture15inputFormatListEv @ 6580 NONAME
	_ZN8QPicture15setBoundingRectERK5QRect @ 6581 NONAME
	_ZN8QPicture16outputFormatListEv @ 6582 NONAME
	_ZN8QPicture4execEP8QPainterR11QDataStreami @ 6583 NONAME
	_ZN8QPicture4loadEP9QIODevicePKc @ 6584 NONAME
	_ZN8QPicture4loadERK7QStringPKc @ 6585 NONAME
	_ZN8QPicture4playEP8QPainter @ 6586 NONAME
	_ZN8QPicture4saveEP9QIODevicePKc @ 6587 NONAME
	_ZN8QPicture4saveERK7QStringPKc @ 6588 NONAME
	_ZN8QPicture6detachEv @ 6589 NONAME
	_ZN8QPicture7setDataEPKcj @ 6590 NONAME
	_ZN8QPictureC1ER15QPicturePrivate @ 6591 NONAME
	_ZN8QPictureC1ERKS_ @ 6592 NONAME
	_ZN8QPictureC1Ei @ 6593 NONAME
	_ZN8QPictureC2ER15QPicturePrivate @ 6594 NONAME
	_ZN8QPictureC2ERKS_ @ 6595 NONAME
	_ZN8QPictureC2Ei @ 6596 NONAME
	_ZN8QPictureD0Ev @ 6597 NONAME
	_ZN8QPictureD1Ev @ 6598 NONAME
	_ZN8QPictureD2Ev @ 6599 NONAME
	_ZN8QPictureaSERKS_ @ 6600 NONAME
	_ZN8QPolygon9putPointsEiiPKi @ 6601 NONAME
	_ZN8QPolygon9putPointsEiiRKS_i @ 6602 NONAME
	_ZN8QPolygon9putPointsEiiiiz @ 6603 NONAME
	_ZN8QPolygon9setPointsEiPKi @ 6604 NONAME
	_ZN8QPolygon9setPointsEiiiz @ 6605 NONAME
	_ZN8QPolygon9translateEii @ 6606 NONAME
	_ZN8QPolygonC1ERK5QRectb @ 6607 NONAME
	_ZN8QPolygonC1EiPKi @ 6608 NONAME
	_ZN8QPolygonC2ERK5QRectb @ 6609 NONAME
	_ZN8QPolygonC2EiPKi @ 6610 NONAME
	_ZN8QSpinBox10setMaximumEi @ 6611 NONAME
	_ZN8QSpinBox10setMinimumEi @ 6612 NONAME
	_ZN8QSpinBox11qt_metacallEN11QMetaObject4CallEiPPv @ 6613 NONAME
	_ZN8QSpinBox11qt_metacastEPKc @ 6614 NONAME
	_ZN8QSpinBox12valueChangedERK7QString @ 6615 NONAME
	_ZN8QSpinBox12valueChangedEi @ 6616 NONAME
	_ZN8QSpinBox13setSingleStepEi @ 6617 NONAME
	_ZN8QSpinBox16staticMetaObjectE @ 6618 NONAME DATA 16
	_ZN8QSpinBox19getStaticMetaObjectEv @ 6619 NONAME
	_ZN8QSpinBox5eventEP6QEvent @ 6620 NONAME
	_ZN8QSpinBox8setRangeEii @ 6621 NONAME
	_ZN8QSpinBox8setValueEi @ 6622 NONAME
	_ZN8QSpinBox9setPrefixERK7QString @ 6623 NONAME
	_ZN8QSpinBox9setSuffixERK7QString @ 6624 NONAME
	_ZN8QSpinBoxC1EP7QWidget @ 6625 NONAME
	_ZN8QSpinBoxC2EP7QWidget @ 6626 NONAME
	_ZN8QStroker10joinPointsEffRK6QLineFNS_12LineJoinModeE @ 6627 NONAME
	_ZN8QStroker14capForJoinModeENS_12LineJoinModeE @ 6628 NONAME
	_ZN8QStroker14joinModeForCapEN2Qt11PenCapStyleE @ 6629 NONAME
	_ZN8QStroker15joinForJoinModeENS_12LineJoinModeE @ 6630 NONAME
	_ZN8QStroker15joinModeForJoinEN2Qt12PenJoinStyleE @ 6631 NONAME
	_ZN8QStroker21processCurrentSubpathEv @ 6632 NONAME
	_ZN8QStrokerC1Ev @ 6633 NONAME
	_ZN8QStrokerC2Ev @ 6634 NONAME
	_ZN8QStrokerD0Ev @ 6635 NONAME
	_ZN8QStrokerD1Ev @ 6636 NONAME
	_ZN8QStrokerD2Ev @ 6637 NONAME
	_ZN8QToolBar10childEventEP11QChildEvent @ 6638 NONAME
	_ZN8QToolBar10paintEventEP11QPaintEvent @ 6639 NONAME
	_ZN8QToolBar10setMovableEb @ 6640 NONAME
	_ZN8QToolBar11actionEventEP12QActionEvent @ 6641 NONAME
	_ZN8QToolBar11changeEventEP6QEvent @ 6642 NONAME
	_ZN8QToolBar11qt_metacallEN11QMetaObject4CallEiPPv @ 6643 NONAME
	_ZN8QToolBar11qt_metacastEPKc @ 6644 NONAME
	_ZN8QToolBar11resizeEventEP12QResizeEvent @ 6645 NONAME
	_ZN8QToolBar11setIconSizeERK5QSize @ 6646 NONAME
	_ZN8QToolBar12addSeparatorEv @ 6647 NONAME
	_ZN8QToolBar12insertWidgetEP7QActionP7QWidget @ 6648 NONAME
	_ZN8QToolBar12setFloatableEb @ 6649 NONAME
	_ZN8QToolBar14movableChangedEb @ 6650 NONAME
	_ZN8QToolBar14setOrientationEN2Qt11OrientationE @ 6651 NONAME
	_ZN8QToolBar15actionTriggeredEP7QAction @ 6652 NONAME
	_ZN8QToolBar15iconSizeChangedERK5QSize @ 6653 NONAME
	_ZN8QToolBar15insertSeparatorEP7QAction @ 6654 NONAME
	_ZN8QToolBar15setAllowedAreasE6QFlagsIN2Qt11ToolBarAreaEE @ 6655 NONAME
	_ZN8QToolBar16staticMetaObjectE @ 6656 NONAME DATA 16
	_ZN8QToolBar18orientationChangedEN2Qt11OrientationE @ 6657 NONAME
	_ZN8QToolBar18setToolButtonStyleEN2Qt15ToolButtonStyleE @ 6658 NONAME
	_ZN8QToolBar19allowedAreasChangedE6QFlagsIN2Qt11ToolBarAreaEE @ 6659 NONAME
	_ZN8QToolBar19getStaticMetaObjectEv @ 6660 NONAME
	_ZN8QToolBar22toolButtonStyleChangedEN2Qt15ToolButtonStyleE @ 6661 NONAME
	_ZN8QToolBar5clearEv @ 6662 NONAME
	_ZN8QToolBar5eventEP6QEvent @ 6663 NONAME
	_ZN8QToolBar9addActionERK5QIconRK7QString @ 6664 NONAME
	_ZN8QToolBar9addActionERK5QIconRK7QStringPK7QObjectPKc @ 6665 NONAME
	_ZN8QToolBar9addActionERK7QString @ 6666 NONAME
	_ZN8QToolBar9addActionERK7QStringPK7QObjectPKc @ 6667 NONAME
	_ZN8QToolBar9addWidgetEP7QWidget @ 6668 NONAME
	_ZN8QToolBarC1EP7QWidget @ 6669 NONAME
	_ZN8QToolBarC1ERK7QStringP7QWidget @ 6670 NONAME
	_ZN8QToolBarC2EP7QWidget @ 6671 NONAME
	_ZN8QToolBarC2ERK7QStringP7QWidget @ 6672 NONAME
	_ZN8QToolBarD0Ev @ 6673 NONAME
	_ZN8QToolBarD1Ev @ 6674 NONAME
	_ZN8QToolBarD2Ev @ 6675 NONAME
	_ZN8QToolBox10insertItemEiP7QWidgetRK5QIconRK7QString @ 6676 NONAME
	_ZN8QToolBox10removeItemEi @ 6677 NONAME
	_ZN8QToolBox11changeEventEP6QEvent @ 6678 NONAME
	_ZN8QToolBox11itemRemovedEi @ 6679 NONAME
	_ZN8QToolBox11qt_metacallEN11QMetaObject4CallEiPPv @ 6680 NONAME
	_ZN8QToolBox11qt_metacastEPKc @ 6681 NONAME
	_ZN8QToolBox11setItemIconEiRK5QIcon @ 6682 NONAME
	_ZN8QToolBox11setItemTextEiRK7QString @ 6683 NONAME
	_ZN8QToolBox12itemInsertedEi @ 6684 NONAME
	_ZN8QToolBox14currentChangedEi @ 6685 NONAME
	_ZN8QToolBox14setItemEnabledEib @ 6686 NONAME
	_ZN8QToolBox14setItemToolTipEiRK7QString @ 6687 NONAME
	_ZN8QToolBox15setCurrentIndexEi @ 6688 NONAME
	_ZN8QToolBox16setCurrentWidgetEP7QWidget @ 6689 NONAME
	_ZN8QToolBox16staticMetaObjectE @ 6690 NONAME DATA 16
	_ZN8QToolBox19getStaticMetaObjectEv @ 6691 NONAME
	_ZN8QToolBox5eventEP6QEvent @ 6692 NONAME
	_ZN8QToolBox9showEventEP10QShowEvent @ 6693 NONAME
	_ZN8QToolBoxC1EP7QWidget6QFlagsIN2Qt10WindowTypeEE @ 6694 NONAME
	_ZN8QToolBoxC2EP7QWidget6QFlagsIN2Qt10WindowTypeEE @ 6695 NONAME
	_ZN8QToolBoxD0Ev @ 6696 NONAME
	_ZN8QToolBoxD1Ev @ 6697 NONAME
	_ZN8QToolBoxD2Ev @ 6698 NONAME
	_ZN8QToolTip10setPaletteERK8QPalette @ 6699 NONAME
	_ZN8QToolTip4fontEv @ 6700 NONAME
	_ZN8QToolTip4textEv @ 6701 NONAME
	_ZN8QToolTip7paletteEv @ 6702 NONAME
	_ZN8QToolTip7setFontERK5QFont @ 6703 NONAME
	_ZN8QToolTip8showTextERK6QPointRK7QStringP7QWidget @ 6704 NONAME
	_ZN8QToolTip8showTextERK6QPointRK7QStringP7QWidgetRK5QRect @ 6705 NONAME
	_ZN8QToolTip9isVisibleEv @ 6706 NONAME
	_ZN9QCheckBox10paintEventEP11QPaintEvent @ 6707 NONAME
	_ZN9QCheckBox11qt_metacallEN11QMetaObject4CallEiPPv @ 6708 NONAME
	_ZN9QCheckBox11qt_metacastEPKc @ 6709 NONAME
	_ZN9QCheckBox11setTristateEb @ 6710 NONAME
	_ZN9QCheckBox12stateChangedEi @ 6711 NONAME
	_ZN9QCheckBox13checkStateSetEv @ 6712 NONAME
	_ZN9QCheckBox13setCheckStateEN2Qt10CheckStateE @ 6713 NONAME
	_ZN9QCheckBox14mouseMoveEventEP11QMouseEvent @ 6714 NONAME
	_ZN9QCheckBox14nextCheckStateEv @ 6715 NONAME
	_ZN9QCheckBox16staticMetaObjectE @ 6716 NONAME DATA 16
	_ZN9QCheckBox19getStaticMetaObjectEv @ 6717 NONAME
	_ZN9QCheckBox5eventEP6QEvent @ 6718 NONAME
	_ZN9QCheckBoxC1EP7QWidget @ 6719 NONAME
	_ZN9QCheckBoxC1ERK7QStringP7QWidget @ 6720 NONAME
	_ZN9QCheckBoxC2EP7QWidget @ 6721 NONAME
	_ZN9QCheckBoxC2ERK7QStringP7QWidget @ 6722 NONAME
	_ZN9QColormap10initializeEv @ 6723 NONAME
	_ZN9QColormap7cleanupEv @ 6724 NONAME
	_ZN9QColormap8instanceEi @ 6725 NONAME
	_ZN9QColormapC1ERKS_ @ 6726 NONAME
	_ZN9QColormapC1Ev @ 6727 NONAME
	_ZN9QColormapC2ERKS_ @ 6728 NONAME
	_ZN9QColormapC2Ev @ 6729 NONAME
	_ZN9QColormapD1Ev @ 6730 NONAME
	_ZN9QColormapD2Ev @ 6731 NONAME
	_ZN9QColormapaSERKS_ @ 6732 NONAME
	_ZN9QComboBox10insertItemEiRK5QIconRK7QStringRK8QVariant @ 6733 NONAME
	_ZN9QComboBox10paintEventEP11QPaintEvent @ 6734 NONAME
	_ZN9QComboBox10removeItemEi @ 6735 NONAME
	_ZN9QComboBox10wheelEventEP11QWheelEvent @ 6736 NONAME
	_ZN9QComboBox11changeEventEP6QEvent @ 6737 NONAME
	_ZN9QComboBox11highlightedERK7QString @ 6738 NONAME
	_ZN9QComboBox11highlightedEi @ 6739 NONAME
	_ZN9QComboBox11insertItemsEiRK11QStringList @ 6740 NONAME
	_ZN9QComboBox11qt_metacallEN11QMetaObject4CallEiPPv @ 6741 NONAME
	_ZN9QComboBox11qt_metacastEPKc @ 6742 NONAME
	_ZN9QComboBox11resizeEventEP12QResizeEvent @ 6743 NONAME
	_ZN9QComboBox11setEditTextERK7QString @ 6744 NONAME
	_ZN9QComboBox11setEditableEb @ 6745 NONAME
	_ZN9QComboBox11setIconSizeERK5QSize @ 6746 NONAME
	_ZN9QComboBox11setItemDataEiRK8QVarianti @ 6747 NONAME
	_ZN9QComboBox11setItemIconEiRK5QIcon @ 6748 NONAME
	_ZN9QComboBox11setItemTextEiRK7QString @ 6749 NONAME
	_ZN9QComboBox11setLineEditEP9QLineEdit @ 6750 NONAME
	_ZN9QComboBox11setMaxCountEi @ 6751 NONAME
	_ZN9QComboBox12focusInEventEP11QFocusEvent @ 6752 NONAME
	_ZN9QComboBox12setCompleterEP10QCompleter @ 6753 NONAME
	_ZN9QComboBox12setValidatorEPK10QValidator @ 6754 NONAME
	_ZN9QComboBox13clearEditTextEv @ 6755 NONAME
	_ZN9QComboBox13focusOutEventEP11QFocusEvent @ 6756 NONAME
	_ZN9QComboBox13keyPressEventEP9QKeyEvent @ 6757 NONAME
	_ZN9QComboBox14setModelColumnEi @ 6758 NONAME
	_ZN9QComboBox15editTextChangedERK7QString @ 6759 NONAME
	_ZN9QComboBox15insertSeparatorEi @ 6760 NONAME
	_ZN9QComboBox15keyReleaseEventEP9QKeyEvent @ 6761 NONAME
	_ZN9QComboBox15mousePressEventEP11QMouseEvent @ 6762 NONAME
	_ZN9QComboBox15setCurrentIndexEi @ 6763 NONAME
	_ZN9QComboBox15setInsertPolicyENS_12InsertPolicyE @ 6764 NONAME
	_ZN9QComboBox15setItemDelegateEP21QAbstractItemDelegate @ 6765 NONAME
	_ZN9QComboBox16contextMenuEventEP17QContextMenuEvent @ 6766 NONAME
	_ZN9QComboBox16inputMethodEventEP17QInputMethodEvent @ 6767 NONAME
	_ZN9QComboBox16staticMetaObjectE @ 6768 NONAME DATA 16
	_ZN9QComboBox17mouseReleaseEventEP11QMouseEvent @ 6769 NONAME
	_ZN9QComboBox17setAutoCompletionEb @ 6770 NONAME
	_ZN9QComboBox17setRootModelIndexERK11QModelIndex @ 6771 NONAME
	_ZN9QComboBox18setMaxVisibleItemsEi @ 6772 NONAME
	_ZN9QComboBox19currentIndexChangedERK7QString @ 6773 NONAME
	_ZN9QComboBox19currentIndexChangedEi @ 6774 NONAME
	_ZN9QComboBox19getStaticMetaObjectEv @ 6775 NONAME
	_ZN9QComboBox19setSizeAdjustPolicyENS_16SizeAdjustPolicyE @ 6776 NONAME
	_ZN9QComboBox20setDuplicatesEnabledEb @ 6777 NONAME
	_ZN9QComboBox24setMinimumContentsLengthEi @ 6778 NONAME
	_ZN9QComboBox32setAutoCompletionCaseSensitivityEN2Qt15CaseSensitivityE @ 6779 NONAME
	_ZN9QComboBox5clearEv @ 6780 NONAME
	_ZN9QComboBox5eventEP6QEvent @ 6781 NONAME
	_ZN9QComboBox7setViewEP17QAbstractItemView @ 6782 NONAME
	_ZN9QComboBox8setFrameEb @ 6783 NONAME
	_ZN9QComboBox8setModelEP18QAbstractItemModel @ 6784 NONAME
	_ZN9QComboBox9activatedERK7QString @ 6785 NONAME
	_ZN9QComboBox9activatedEi @ 6786 NONAME
	_ZN9QComboBox9hideEventEP10QHideEvent @ 6787 NONAME
	_ZN9QComboBox9hidePopupEv @ 6788 NONAME
	_ZN9QComboBox9showEventEP10QShowEvent @ 6789 NONAME
	_ZN9QComboBox9showPopupEv @ 6790 NONAME
	_ZN9QComboBoxC1EP7QWidget @ 6791 NONAME
	_ZN9QComboBoxC1ER16QComboBoxPrivateP7QWidget @ 6792 NONAME
	_ZN9QComboBoxC2EP7QWidget @ 6793 NONAME
	_ZN9QComboBoxC2ER16QComboBoxPrivateP7QWidget @ 6794 NONAME
	_ZN9QComboBoxD0Ev @ 6795 NONAME
	_ZN9QComboBoxD1Ev @ 6796 NONAME
	_ZN9QComboBoxD2Ev @ 6797 NONAME
	_ZN9QDateEdit11qt_metacallEN11QMetaObject4CallEiPPv @ 6798 NONAME
	_ZN9QDateEdit11qt_metacastEPKc @ 6799 NONAME
	_ZN9QDateEdit16staticMetaObjectE @ 6800 NONAME DATA 16
	_ZN9QDateEdit19getStaticMetaObjectEv @ 6801 NONAME
	_ZN9QDateEditC1EP7QWidget @ 6802 NONAME
	_ZN9QDateEditC1ERK5QDateP7QWidget @ 6803 NONAME
	_ZN9QDateEditC2EP7QWidget @ 6804 NONAME
	_ZN9QDateEditC2ERK5QDateP7QWidget @ 6805 NONAME
	_ZN9QDirModel10setSortingE6QFlagsIN4QDir8SortFlagEE @ 6806 NONAME
	_ZN9QDirModel11qt_metacallEN11QMetaObject4CallEiPPv @ 6807 NONAME
	_ZN9QDirModel11qt_metacastEPKc @ 6808 NONAME
	_ZN9QDirModel11setReadOnlyEb @ 6809 NONAME
	_ZN9QDirModel12dropMimeDataEPK9QMimeDataN2Qt10DropActionEiiRK11QModelIndex @ 6810 NONAME
	_ZN9QDirModel14setNameFiltersERK11QStringList @ 6811 NONAME
	_ZN9QDirModel15setIconProviderEP17QFileIconProvider @ 6812 NONAME
	_ZN9QDirModel16staticMetaObjectE @ 6813 NONAME DATA 16
	_ZN9QDirModel17setLazyChildCountEb @ 6814 NONAME
	_ZN9QDirModel18setResolveSymlinksEb @ 6815 NONAME
	_ZN9QDirModel19getStaticMetaObjectEv @ 6816 NONAME
	_ZN9QDirModel4sortEiN2Qt9SortOrderE @ 6817 NONAME
	_ZN9QDirModel5mkdirERK11QModelIndexRK7QString @ 6818 NONAME
	_ZN9QDirModel5rmdirERK11QModelIndex @ 6819 NONAME
	_ZN9QDirModel6removeERK11QModelIndex @ 6820 NONAME
	_ZN9QDirModel7refreshERK11QModelIndex @ 6821 NONAME
	_ZN9QDirModel7setDataERK11QModelIndexRK8QVarianti @ 6822 NONAME
	_ZN9QDirModel9setFilterE6QFlagsIN4QDir6FilterEE @ 6823 NONAME
	_ZN9QDirModelC1EP7QObject @ 6824 NONAME
	_ZN9QDirModelC1ER16QDirModelPrivateP7QObject @ 6825 NONAME
	_ZN9QDirModelC1ERK11QStringList6QFlagsIN4QDir6FilterEES3_INS4_8SortFlagEEP7QObject @ 6826 NONAME
	_ZN9QDirModelC2EP7QObject @ 6827 NONAME
	_ZN9QDirModelC2ER16QDirModelPrivateP7QObject @ 6828 NONAME
	_ZN9QDirModelC2ERK11QStringList6QFlagsIN4QDir6FilterEES3_INS4_8SortFlagEEP7QObject @ 6829 NONAME
	_ZN9QDirModelD0Ev @ 6830 NONAME
	_ZN9QDirModelD1Ev @ 6831 NONAME
	_ZN9QDirModelD2Ev @ 6832 NONAME
	_ZN9QFontInfoC1ERK5QFont @ 6833 NONAME
	_ZN9QFontInfoC1ERKS_ @ 6834 NONAME
	_ZN9QFontInfoC2ERK5QFont @ 6835 NONAME
	_ZN9QFontInfoC2ERKS_ @ 6836 NONAME
	_ZN9QFontInfoD1Ev @ 6837 NONAME
	_ZN9QFontInfoD2Ev @ 6838 NONAME
	_ZN9QFontInfoaSERKS_ @ 6839 NONAME
	_ZN9QGradient10setColorAtEfRK6QColor @ 6840 NONAME
	_ZN9QGradient16staticMetaObjectE @ 6841 NONAME DATA 16
	_ZN9QGradient17setCoordinateModeENS_14CoordinateModeE @ 6842 NONAME
	_ZN9QGradient19getStaticMetaObjectEv @ 6843 NONAME
	_ZN9QGradient20setInterpolationModeENS_17InterpolationModeE @ 6844 NONAME
	_ZN9QGradient8setStopsERK7QVectorI5QPairIf6QColorEE @ 6845 NONAME
	_ZN9QGradientC1Ev @ 6846 NONAME
	_ZN9QGradientC2Ev @ 6847 NONAME
	_ZN9QGradienteqERKS_ @ 6848 NONAME
	_ZN9QGroupBox10childEventEP11QChildEvent @ 6849 NONAME
	_ZN9QGroupBox10paintEventEP11QPaintEvent @ 6850 NONAME
	_ZN9QGroupBox10setCheckedEb @ 6851 NONAME
	_ZN9QGroupBox11changeEventEP6QEvent @ 6852 NONAME
	_ZN9QGroupBox11qt_metacallEN11QMetaObject4CallEiPPv @ 6853 NONAME
	_ZN9QGroupBox11qt_metacastEPKc @ 6854 NONAME
	_ZN9QGroupBox11resizeEventEP12QResizeEvent @ 6855 NONAME
	_ZN9QGroupBox12focusInEventEP11QFocusEvent @ 6856 NONAME
	_ZN9QGroupBox12setAlignmentEi @ 6857 NONAME
	_ZN9QGroupBox12setCheckableEb @ 6858 NONAME
	_ZN9QGroupBox14mouseMoveEventEP11QMouseEvent @ 6859 NONAME
	_ZN9QGroupBox15mousePressEventEP11QMouseEvent @ 6860 NONAME
	_ZN9QGroupBox16staticMetaObjectE @ 6861 NONAME DATA 16
	_ZN9QGroupBox17mouseReleaseEventEP11QMouseEvent @ 6862 NONAME
	_ZN9QGroupBox19getStaticMetaObjectEv @ 6863 NONAME
	_ZN9QGroupBox5eventEP6QEvent @ 6864 NONAME
	_ZN9QGroupBox7clickedEb @ 6865 NONAME
	_ZN9QGroupBox7setFlatEb @ 6866 NONAME
	_ZN9QGroupBox7toggledEb @ 6867 NONAME
	_ZN9QGroupBox8setTitleERK7QString @ 6868 NONAME
	_ZN9QGroupBoxC1EP7QWidget @ 6869 NONAME
	_ZN9QGroupBoxC1ERK7QStringP7QWidget @ 6870 NONAME
	_ZN9QGroupBoxC2EP7QWidget @ 6871 NONAME
	_ZN9QGroupBoxC2ERK7QStringP7QWidget @ 6872 NONAME
	_ZN9QGroupBoxD0Ev @ 6873 NONAME
	_ZN9QGroupBoxD1Ev @ 6874 NONAME
	_ZN9QGroupBoxD2Ev @ 6875 NONAME
	_ZN9QKeyEvent22createExtendedKeyEventEN6QEvent4TypeEi6QFlagsIN2Qt16KeyboardModifierEEjjjRK7QStringbt @ 6876 NONAME
	_ZN9QKeyEventC1EN6QEvent4TypeEi6QFlagsIN2Qt16KeyboardModifierEERK7QStringbt @ 6877 NONAME
	_ZN9QKeyEventC2EN6QEvent4TypeEi6QFlagsIN2Qt16KeyboardModifierEERK7QStringbt @ 6878 NONAME
	_ZN9QKeyEventD0Ev @ 6879 NONAME
	_ZN9QKeyEventD1Ev @ 6880 NONAME
	_ZN9QKeyEventD2Ev @ 6881 NONAME
	_ZN9QLineEdit10paintEventEP11QPaintEvent @ 6882 NONAME
	_ZN9QLineEdit10textEditedERK7QString @ 6883 NONAME
	_ZN9QLineEdit11changeEventEP6QEvent @ 6884 NONAME
	_ZN9QLineEdit11qt_metacallEN11QMetaObject4CallEiPPv @ 6885 NONAME
	_ZN9QLineEdit11qt_metacastEPKc @ 6886 NONAME
	_ZN9QLineEdit11setEchoModeENS_8EchoModeE @ 6887 NONAME
	_ZN9QLineEdit11setModifiedEb @ 6888 NONAME
	_ZN9QLineEdit11setReadOnlyEb @ 6889 NONAME
	_ZN9QLineEdit11textChangedERK7QString @ 6890 NONAME
	_ZN9QLineEdit12focusInEventEP11QFocusEvent @ 6891 NONAME
	_ZN9QLineEdit12setAlignmentE6QFlagsIN2Qt13AlignmentFlagEE @ 6892 NONAME
	_ZN9QLineEdit12setCompleterEP10QCompleter @ 6893 NONAME
	_ZN9QLineEdit12setInputMaskERK7QString @ 6894 NONAME
	_ZN9QLineEdit12setMaxLengthEi @ 6895 NONAME
	_ZN9QLineEdit12setSelectionEii @ 6896 NONAME
	_ZN9QLineEdit12setValidatorEPK10QValidator @ 6897 NONAME
	_ZN9QLineEdit13cursorForwardEbi @ 6898 NONAME
	_ZN9QLineEdit13dragMoveEventEP14QDragMoveEvent @ 6899 NONAME
	_ZN9QLineEdit13focusOutEventEP11QFocusEvent @ 6900 NONAME
	_ZN9QLineEdit13keyPressEventEP9QKeyEvent @ 6901 NONAME
	_ZN9QLineEdit13returnPressedEv @ 6902 NONAME
	_ZN9QLineEdit14cursorBackwardEbi @ 6903 NONAME
	_ZN9QLineEdit14dragEnterEventEP15QDragEnterEvent @ 6904 NONAME
	_ZN9QLineEdit14dragLeaveEventEP15QDragLeaveEvent @ 6905 NONAME
	_ZN9QLineEdit14mouseMoveEventEP11QMouseEvent @ 6906 NONAME
	_ZN9QLineEdit14setDragEnabledEb @ 6907 NONAME
	_ZN9QLineEdit14setTextMarginsEiiii @ 6908 NONAME
	_ZN9QLineEdit15editingFinishedEv @ 6909 NONAME
	_ZN9QLineEdit15mousePressEventEP11QMouseEvent @ 6910 NONAME
	_ZN9QLineEdit16contextMenuEventEP17QContextMenuEvent @ 6911 NONAME
	_ZN9QLineEdit16cursorPositionAtERK6QPoint @ 6912 NONAME
	_ZN9QLineEdit16inputMethodEventEP17QInputMethodEvent @ 6913 NONAME
	_ZN9QLineEdit16selectionChangedEv @ 6914 NONAME
	_ZN9QLineEdit16staticMetaObjectE @ 6915 NONAME DATA 16
	_ZN9QLineEdit17cursorWordForwardEb @ 6916 NONAME
	_ZN9QLineEdit17mouseReleaseEventEP11QMouseEvent @ 6917 NONAME
	_ZN9QLineEdit17setCursorPositionEi @ 6918 NONAME
	_ZN9QLineEdit18cursorWordBackwardEb @ 6919 NONAME
	_ZN9QLineEdit19getStaticMetaObjectEv @ 6920 NONAME
	_ZN9QLineEdit21cursorPositionChangedEii @ 6921 NONAME
	_ZN9QLineEdit21mouseDoubleClickEventEP11QMouseEvent @ 6922 NONAME
	_ZN9QLineEdit25createStandardContextMenuEv @ 6923 NONAME
	_ZN9QLineEdit3cutEv @ 6924 NONAME
	_ZN9QLineEdit3delEv @ 6925 NONAME
	_ZN9QLineEdit3endEb @ 6926 NONAME
	_ZN9QLineEdit4homeEb @ 6927 NONAME
	_ZN9QLineEdit4redoEv @ 6928 NONAME
	_ZN9QLineEdit4undoEv @ 6929 NONAME
	_ZN9QLineEdit5clearEv @ 6930 NONAME
	_ZN9QLineEdit5eventEP6QEvent @ 6931 NONAME
	_ZN9QLineEdit5pasteEv @ 6932 NONAME
	_ZN9QLineEdit6insertERK7QString @ 6933 NONAME
	_ZN9QLineEdit7setTextERK7QString @ 6934 NONAME
	_ZN9QLineEdit8deselectEv @ 6935 NONAME
	_ZN9QLineEdit8setFrameEb @ 6936 NONAME
	_ZN9QLineEdit9backspaceEv @ 6937 NONAME
	_ZN9QLineEdit9dropEventEP10QDropEvent @ 6938 NONAME
	_ZN9QLineEdit9selectAllEv @ 6939 NONAME
	_ZN9QLineEditC1EP7QWidget @ 6940 NONAME
	_ZN9QLineEditC1ERK7QStringP7QWidget @ 6941 NONAME
	_ZN9QLineEditC2EP7QWidget @ 6942 NONAME
	_ZN9QLineEditC2ERK7QStringP7QWidget @ 6943 NONAME
	_ZN9QLineEditD0Ev @ 6944 NONAME
	_ZN9QLineEditD1Ev @ 6945 NONAME
	_ZN9QLineEditD2Ev @ 6946 NONAME
	_ZN9QListView10moveCursorEN17QAbstractItemView12CursorActionE6QFlagsIN2Qt16KeyboardModifierEE @ 6947 NONAME
	_ZN9QListView10paintEventEP11QPaintEvent @ 6948 NONAME
	_ZN9QListView10setSpacingEi @ 6949 NONAME
	_ZN9QListView10timerEventEP11QTimerEvent @ 6950 NONAME
	_ZN9QListView11dataChangedERK11QModelIndexS2_ @ 6951 NONAME
	_ZN9QListView11qt_metacallEN11QMetaObject4CallEiPPv @ 6952 NONAME
	_ZN9QListView11qt_metacastEPKc @ 6953 NONAME
	_ZN9QListView11resizeEventEP12QResizeEvent @ 6954 NONAME
	_ZN9QListView11setGridSizeERK5QSize @ 6955 NONAME
	_ZN9QListView11setMovementENS_8MovementE @ 6956 NONAME
	_ZN9QListView11setViewModeENS_8ViewModeE @ 6957 NONAME
	_ZN9QListView11setWordWrapEb @ 6958 NONAME
	_ZN9QListView11setWrappingEb @ 6959 NONAME
	_ZN9QListView12indexesMovedERK5QListI11QModelIndexE @ 6960 NONAME
	_ZN9QListView12internalDragE6QFlagsIN2Qt10DropActionEE @ 6961 NONAME
	_ZN9QListView12internalDropEP10QDropEvent @ 6962 NONAME
	_ZN9QListView12rowsInsertedERK11QModelIndexii @ 6963 NONAME
	_ZN9QListView12setBatchSizeEi @ 6964 NONAME
	_ZN9QListView12setRootIndexERK11QModelIndex @ 6965 NONAME
	_ZN9QListView12setRowHiddenEib @ 6966 NONAME
	_ZN9QListView12setSelectionERK5QRect6QFlagsIN19QItemSelectionModel13SelectionFlagEE @ 6967 NONAME
	_ZN9QListView13doItemsLayoutEv @ 6968 NONAME
	_ZN9QListView13dragMoveEventEP14QDragMoveEvent @ 6969 NONAME
	_ZN9QListView13setLayoutModeENS_10LayoutModeE @ 6970 NONAME
	_ZN9QListView13setResizeModeENS_10ResizeModeE @ 6971 NONAME
	_ZN9QListView14currentChangedERK11QModelIndexS2_ @ 6972 NONAME
	_ZN9QListView14dragLeaveEventEP15QDragLeaveEvent @ 6973 NONAME
	_ZN9QListView14mouseMoveEventEP11QMouseEvent @ 6974 NONAME
	_ZN9QListView14resizeContentsEii @ 6975 NONAME
	_ZN9QListView14setModelColumnEi @ 6976 NONAME
	_ZN9QListView16scrollContentsByEii @ 6977 NONAME
	_ZN9QListView16selectionChangedERK14QItemSelectionS2_ @ 6978 NONAME
	_ZN9QListView16staticMetaObjectE @ 6979 NONAME DATA 16
	_ZN9QListView16updateGeometriesEv @ 6980 NONAME
	_ZN9QListView17mouseReleaseEventEP11QMouseEvent @ 6981 NONAME
	_ZN9QListView18clearPropertyFlagsEv @ 6982 NONAME
	_ZN9QListView19getStaticMetaObjectEv @ 6983 NONAME
	_ZN9QListView19setPositionForIndexERK6QPointRK11QModelIndex @ 6984 NONAME
	_ZN9QListView19setUniformItemSizesEb @ 6985 NONAME
	_ZN9QListView20rowsAboutToBeRemovedERK11QModelIndexii @ 6986 NONAME
	_ZN9QListView23setSelectionRectVisibleEb @ 6987 NONAME
	_ZN9QListView5eventEP6QEvent @ 6988 NONAME
	_ZN9QListView5resetEv @ 6989 NONAME
	_ZN9QListView7setFlowENS_4FlowE @ 6990 NONAME
	_ZN9QListView8scrollToERK11QModelIndexN17QAbstractItemView10ScrollHintE @ 6991 NONAME
	_ZN9QListView9dropEventEP10QDropEvent @ 6992 NONAME
	_ZN9QListView9startDragE6QFlagsIN2Qt10DropActionEE @ 6993 NONAME
	_ZN9QListViewC1EP7QWidget @ 6994 NONAME
	_ZN9QListViewC1ER16QListViewPrivateP7QWidget @ 6995 NONAME
	_ZN9QListViewC2EP7QWidget @ 6996 NONAME
	_ZN9QListViewC2ER16QListViewPrivateP7QWidget @ 6997 NONAME
	_ZN9QListViewD0Ev @ 6998 NONAME
	_ZN9QListViewD1Ev @ 6999 NONAME
	_ZN9QListViewD2Ev @ 7000 NONAME
	_ZN9QPolygonF9translateERK7QPointF @ 7001 NONAME
	_ZN9QPolygonFC1ERK6QRectF @ 7002 NONAME
	_ZN9QPolygonFC1ERK8QPolygon @ 7003 NONAME
	_ZN9QPolygonFC2ERK6QRectF @ 7004 NONAME
	_ZN9QPolygonFC2ERK8QPolygon @ 7005 NONAME
	_ZN9QS60Style11qt_metacallEN11QMetaObject4CallEiPPv @ 7006 NONAME
	_ZN9QS60Style11qt_metacastEPKc @ 7007 NONAME
	_ZN9QS60Style16setStylePropertyEPKcRK8QVariant @ 7008 NONAME ABSENT
	_ZN9QS60Style16staticMetaObjectE @ 7009 NONAME DATA 16
	_ZN9QS60Style19getStaticMetaObjectEv @ 7010 NONAME
	_ZN9QS60Style5eventEP6QEvent @ 7011 NONAME
	_ZN9QS60Style6polishEP12QApplication @ 7012 NONAME
	_ZN9QS60Style6polishEP7QWidget @ 7013 NONAME
	_ZN9QS60Style8unpolishEP12QApplication @ 7014 NONAME
	_ZN9QS60Style8unpolishEP7QWidget @ 7015 NONAME
	_ZN9QS60StyleC1Ev @ 7016 NONAME
	_ZN9QS60StyleC2Ev @ 7017 NONAME
	_ZN9QS60StyleD0Ev @ 7018 NONAME
	_ZN9QS60StyleD1Ev @ 7019 NONAME
	_ZN9QS60StyleD2Ev @ 7020 NONAME
	_ZN9QShortcut10setContextEN2Qt15ShortcutContextE @ 7021 NONAME
	_ZN9QShortcut10setEnabledEb @ 7022 NONAME
	_ZN9QShortcut11qt_metacallEN11QMetaObject4CallEiPPv @ 7023 NONAME
	_ZN9QShortcut11qt_metacastEPKc @ 7024 NONAME
	_ZN9QShortcut12setWhatsThisERK7QString @ 7025 NONAME
	_ZN9QShortcut13setAutoRepeatEb @ 7026 NONAME
	_ZN9QShortcut16staticMetaObjectE @ 7027 NONAME DATA 16
	_ZN9QShortcut19getStaticMetaObjectEv @ 7028 NONAME
	_ZN9QShortcut20activatedAmbiguouslyEv @ 7029 NONAME
	_ZN9QShortcut5eventEP6QEvent @ 7030 NONAME
	_ZN9QShortcut6setKeyERK12QKeySequence @ 7031 NONAME
	_ZN9QShortcut7contextEv @ 7032 NONAME
	_ZN9QShortcut9activatedEv @ 7033 NONAME
	_ZN9QShortcutC1EP7QWidget @ 7034 NONAME
	_ZN9QShortcutC1ERK12QKeySequenceP7QWidgetPKcS6_N2Qt15ShortcutContextE @ 7035 NONAME
	_ZN9QShortcutC2EP7QWidget @ 7036 NONAME
	_ZN9QShortcutC2ERK12QKeySequenceP7QWidgetPKcS6_N2Qt15ShortcutContextE @ 7037 NONAME
	_ZN9QShortcutD0Ev @ 7038 NONAME
	_ZN9QShortcutD1Ev @ 7039 NONAME
	_ZN9QShortcutD2Ev @ 7040 NONAME
	_ZN9QSizeGrip10paintEventEP11QPaintEvent @ 7041 NONAME
	_ZN9QSizeGrip10setVisibleEb @ 7042 NONAME
	_ZN9QSizeGrip11eventFilterEP7QObjectP6QEvent @ 7043 NONAME
	_ZN9QSizeGrip11qt_metacallEN11QMetaObject4CallEiPPv @ 7044 NONAME
	_ZN9QSizeGrip11qt_metacastEPKc @ 7045 NONAME
	_ZN9QSizeGrip14mouseMoveEventEP11QMouseEvent @ 7046 NONAME
	_ZN9QSizeGrip15mousePressEventEP11QMouseEvent @ 7047 NONAME
	_ZN9QSizeGrip16staticMetaObjectE @ 7048 NONAME DATA 16
	_ZN9QSizeGrip17mouseReleaseEventEP11QMouseEvent @ 7049 NONAME
	_ZN9QSizeGrip19getStaticMetaObjectEv @ 7050 NONAME
	_ZN9QSizeGrip5eventEP6QEvent @ 7051 NONAME
	_ZN9QSizeGrip9hideEventEP10QHideEvent @ 7052 NONAME
	_ZN9QSizeGrip9moveEventEP10QMoveEvent @ 7053 NONAME
	_ZN9QSizeGrip9showEventEP10QShowEvent @ 7054 NONAME
	_ZN9QSizeGripC1EP7QWidget @ 7055 NONAME
	_ZN9QSizeGripC2EP7QWidget @ 7056 NONAME
	_ZN9QSizeGripD0Ev @ 7057 NONAME
	_ZN9QSizeGripD1Ev @ 7058 NONAME
	_ZN9QSizeGripD2Ev @ 7059 NONAME
	_ZN9QSplitter10childEventEP11QChildEvent @ 7060 NONAME
	_ZN9QSplitter11changeEventEP6QEvent @ 7061 NONAME
	_ZN9QSplitter11qt_metacallEN11QMetaObject4CallEiPPv @ 7062 NONAME
	_ZN9QSplitter11qt_metacastEPKc @ 7063 NONAME
	_ZN9QSplitter11resizeEventEP12QResizeEvent @ 7064 NONAME
	_ZN9QSplitter12createHandleEv @ 7065 NONAME
	_ZN9QSplitter12insertWidgetEiP7QWidget @ 7066 NONAME
	_ZN9QSplitter12moveSplitterEii @ 7067 NONAME
	_ZN9QSplitter12restoreStateERK10QByteArray @ 7068 NONAME
	_ZN9QSplitter13setRubberBandEi @ 7069 NONAME
	_ZN9QSplitter13splitterMovedEii @ 7070 NONAME
	_ZN9QSplitter14setCollapsibleEib @ 7071 NONAME
	_ZN9QSplitter14setHandleWidthEi @ 7072 NONAME
	_ZN9QSplitter14setOrientationEN2Qt11OrientationE @ 7073 NONAME
	_ZN9QSplitter15setOpaqueResizeEb @ 7074 NONAME
	_ZN9QSplitter16setStretchFactorEii @ 7075 NONAME
	_ZN9QSplitter16staticMetaObjectE @ 7076 NONAME DATA 16
	_ZN9QSplitter19getStaticMetaObjectEv @ 7077 NONAME
	_ZN9QSplitter20closestLegalPositionEii @ 7078 NONAME
	_ZN9QSplitter22setChildrenCollapsibleEb @ 7079 NONAME
	_ZN9QSplitter5eventEP6QEvent @ 7080 NONAME
	_ZN9QSplitter7refreshEv @ 7081 NONAME
	_ZN9QSplitter8setSizesERK5QListIiE @ 7082 NONAME
	_ZN9QSplitter9addWidgetEP7QWidget @ 7083 NONAME
	_ZN9QSplitterC1EN2Qt11OrientationEP7QWidget @ 7084 NONAME
	_ZN9QSplitterC1EP7QWidget @ 7085 NONAME
	_ZN9QSplitterC2EN2Qt11OrientationEP7QWidget @ 7086 NONAME
	_ZN9QSplitterC2EP7QWidget @ 7087 NONAME
	_ZN9QSplitterD0Ev @ 7088 NONAME
	_ZN9QSplitterD1Ev @ 7089 NONAME
	_ZN9QSplitterD2Ev @ 7090 NONAME
	_ZN9QTextEdit10insertHtmlERK7QString @ 7091 NONAME
	_ZN9QTextEdit10moveCursorEN11QTextCursor13MoveOperationENS0_8MoveModeE @ 7092 NONAME
	_ZN9QTextEdit10paintEventEP11QPaintEvent @ 7093 NONAME
	_ZN9QTextEdit10timerEventEP11QTimerEvent @ 7094 NONAME
	_ZN9QTextEdit10wheelEventEP11QWheelEvent @ 7095 NONAME
	_ZN9QTextEdit11changeEventEP6QEvent @ 7096 NONAME
	_ZN9QTextEdit11qt_metacallEN11QMetaObject4CallEiPPv @ 7097 NONAME
	_ZN9QTextEdit11qt_metacastEPKc @ 7098 NONAME
	_ZN9QTextEdit11resizeEventEP12QResizeEvent @ 7099 NONAME
	_ZN9QTextEdit11setDocumentEP13QTextDocument @ 7100 NONAME
	_ZN9QTextEdit11setReadOnlyEb @ 7101 NONAME
	_ZN9QTextEdit11textChangedEv @ 7102 NONAME
	_ZN9QTextEdit12focusInEventEP11QFocusEvent @ 7103 NONAME
	_ZN9QTextEdit12loadResourceEiRK4QUrl @ 7104 NONAME
	_ZN9QTextEdit12setAlignmentE6QFlagsIN2Qt13AlignmentFlagEE @ 7105 NONAME
	_ZN9QTextEdit12setPlainTextERK7QString @ 7106 NONAME
	_ZN9QTextEdit12setTextColorERK6QColor @ 7107 NONAME
	_ZN9QTextEdit13copyAvailableEb @ 7108 NONAME
	_ZN9QTextEdit13dragMoveEventEP14QDragMoveEvent @ 7109 NONAME
	_ZN9QTextEdit13focusOutEventEP11QFocusEvent @ 7110 NONAME
	_ZN9QTextEdit13keyPressEventEP9QKeyEvent @ 7111 NONAME
	_ZN9QTextEdit13redoAvailableEb @ 7112 NONAME
	_ZN9QTextEdit13setFontFamilyERK7QString @ 7113 NONAME
	_ZN9QTextEdit13setFontItalicEb @ 7114 NONAME
	_ZN9QTextEdit13setFontWeightEi @ 7115 NONAME
	_ZN9QTextEdit13setTextCursorERK11QTextCursor @ 7116 NONAME
	_ZN9QTextEdit13undoAvailableEb @ 7117 NONAME
	_ZN9QTextEdit14dragEnterEventEP15QDragEnterEvent @ 7118 NONAME
	_ZN9QTextEdit14dragLeaveEventEP15QDragLeaveEvent @ 7119 NONAME
	_ZN9QTextEdit14mouseMoveEventEP11QMouseEvent @ 7120 NONAME
	_ZN9QTextEdit14scrollToAnchorERK7QString @ 7121 NONAME
	_ZN9QTextEdit14setCurrentFontERK5QFont @ 7122 NONAME
	_ZN9QTextEdit14setCursorWidthEi @ 7123 NONAME
	_ZN9QTextEdit15insertPlainTextERK7QString @ 7124 NONAME
	_ZN9QTextEdit15keyReleaseEventEP9QKeyEvent @ 7125 NONAME
	_ZN9QTextEdit15mousePressEventEP11QMouseEvent @ 7126 NONAME
	_ZN9QTextEdit15setLineWrapModeENS_12LineWrapModeE @ 7127 NONAME
	_ZN9QTextEdit15setTabStopWidthEi @ 7128 NONAME
	_ZN9QTextEdit15setWordWrapModeEN11QTextOption8WrapModeE @ 7129 NONAME
	_ZN9QTextEdit16contextMenuEventEP17QContextMenuEvent @ 7130 NONAME
	_ZN9QTextEdit16inputMethodEventEP17QInputMethodEvent @ 7131 NONAME
	_ZN9QTextEdit16scrollContentsByEii @ 7132 NONAME
	_ZN9QTextEdit16selectionChangedEv @ 7133 NONAME
	_ZN9QTextEdit16setFontPointSizeEf @ 7134 NONAME
	_ZN9QTextEdit16setFontUnderlineEb @ 7135 NONAME
	_ZN9QTextEdit16setOverwriteModeEb @ 7136 NONAME
	_ZN9QTextEdit16staticMetaObjectE @ 7137 NONAME DATA 16
	_ZN9QTextEdit17mouseReleaseEventEP11QMouseEvent @ 7138 NONAME
	_ZN9QTextEdit17setAcceptRichTextEb @ 7139 NONAME
	_ZN9QTextEdit17setAutoFormattingE6QFlagsINS_18AutoFormattingFlagEE @ 7140 NONAME
	_ZN9QTextEdit18focusNextPrevChildEb @ 7141 NONAME
	_ZN9QTextEdit18insertFromMimeDataEPK9QMimeData @ 7142 NONAME
	_ZN9QTextEdit18setExtraSelectionsERK5QListINS_14ExtraSelectionEE @ 7143 NONAME
	_ZN9QTextEdit18setTabChangesFocusEb @ 7144 NONAME
	_ZN9QTextEdit19ensureCursorVisibleEv @ 7145 NONAME
	_ZN9QTextEdit19getStaticMetaObjectEv @ 7146 NONAME
	_ZN9QTextEdit20setCurrentCharFormatERK15QTextCharFormat @ 7147 NONAME
	_ZN9QTextEdit21cursorPositionChangedEv @ 7148 NONAME
	_ZN9QTextEdit21mouseDoubleClickEventEP11QMouseEvent @ 7149 NONAME
	_ZN9QTextEdit22mergeCurrentCharFormatERK15QTextCharFormat @ 7150 NONAME
	_ZN9QTextEdit22setTextBackgroundColorERK6QColor @ 7151 NONAME
	_ZN9QTextEdit23setTextInteractionFlagsE6QFlagsIN2Qt19TextInteractionFlagEE @ 7152 NONAME
	_ZN9QTextEdit24currentCharFormatChangedERK15QTextCharFormat @ 7153 NONAME
	_ZN9QTextEdit24setLineWrapColumnOrWidthEi @ 7154 NONAME
	_ZN9QTextEdit25createStandardContextMenuERK6QPoint @ 7155 NONAME
	_ZN9QTextEdit25createStandardContextMenuEv @ 7156 NONAME
	_ZN9QTextEdit3cutEv @ 7157 NONAME
	_ZN9QTextEdit4copyEv @ 7158 NONAME
	_ZN9QTextEdit4findERK7QString6QFlagsIN13QTextDocument8FindFlagEE @ 7159 NONAME
	_ZN9QTextEdit4redoEv @ 7160 NONAME
	_ZN9QTextEdit4undoEv @ 7161 NONAME
	_ZN9QTextEdit5clearEv @ 7162 NONAME
	_ZN9QTextEdit5eventEP6QEvent @ 7163 NONAME
	_ZN9QTextEdit5pasteEv @ 7164 NONAME
	_ZN9QTextEdit6appendERK7QString @ 7165 NONAME
	_ZN9QTextEdit6zoomInEi @ 7166 NONAME
	_ZN9QTextEdit7setHtmlERK7QString @ 7167 NONAME
	_ZN9QTextEdit7setTextERK7QString @ 7168 NONAME
	_ZN9QTextEdit7zoomOutEi @ 7169 NONAME
	_ZN9QTextEdit9dropEventEP10QDropEvent @ 7170 NONAME
	_ZN9QTextEdit9selectAllEv @ 7171 NONAME
	_ZN9QTextEdit9showEventEP10QShowEvent @ 7172 NONAME
	_ZN9QTextEditC1EP7QWidget @ 7173 NONAME
	_ZN9QTextEditC1ER16QTextEditPrivateP7QWidget @ 7174 NONAME
	_ZN9QTextEditC1ERK7QStringP7QWidget @ 7175 NONAME
	_ZN9QTextEditC2EP7QWidget @ 7176 NONAME
	_ZN9QTextEditC2ER16QTextEditPrivateP7QWidget @ 7177 NONAME
	_ZN9QTextEditC2ERK7QStringP7QWidget @ 7178 NONAME
	_ZN9QTextEditD0Ev @ 7179 NONAME
	_ZN9QTextEditD1Ev @ 7180 NONAME
	_ZN9QTextEditD2Ev @ 7181 NONAME
	_ZN9QTextLine11setPositionERK7QPointF @ 7182 NONAME
	_ZN9QTextLine12setLineWidthEf @ 7183 NONAME
	_ZN9QTextLine13layout_helperEi @ 7184 NONAME
	_ZN9QTextLine13setNumColumnsEi @ 7185 NONAME
	_ZN9QTextLine13setNumColumnsEif @ 7186 NONAME
	_ZN9QTextList10removeItemEi @ 7187 NONAME
	_ZN9QTextList11qt_metacallEN11QMetaObject4CallEiPPv @ 7188 NONAME
	_ZN9QTextList11qt_metacastEPKc @ 7189 NONAME
	_ZN9QTextList16staticMetaObjectE @ 7190 NONAME DATA 16
	_ZN9QTextList19getStaticMetaObjectEv @ 7191 NONAME
	_ZN9QTextList3addERK10QTextBlock @ 7192 NONAME
	_ZN9QTextList6removeERK10QTextBlock @ 7193 NONAME
	_ZN9QTextListC1EP13QTextDocument @ 7194 NONAME
	_ZN9QTextListC2EP13QTextDocument @ 7195 NONAME
	_ZN9QTextListD0Ev @ 7196 NONAME
	_ZN9QTextListD1Ev @ 7197 NONAME
	_ZN9QTextListD2Ev @ 7198 NONAME
	_ZN9QTimeEdit11qt_metacallEN11QMetaObject4CallEiPPv @ 7199 NONAME
	_ZN9QTimeEdit11qt_metacastEPKc @ 7200 NONAME
	_ZN9QTimeEdit16staticMetaObjectE @ 7201 NONAME DATA 16
	_ZN9QTimeEdit19getStaticMetaObjectEv @ 7202 NONAME
	_ZN9QTimeEditC1EP7QWidget @ 7203 NONAME
	_ZN9QTimeEditC1ERK5QTimeP7QWidget @ 7204 NONAME
	_ZN9QTimeEditC2EP7QWidget @ 7205 NONAME
	_ZN9QTimeEditC2ERK5QTimeP7QWidget @ 7206 NONAME
	_ZN9QTreeView10hideColumnEi @ 7207 NONAME
	_ZN9QTreeView10moveCursorEN17QAbstractItemView12CursorActionE6QFlagsIN2Qt16KeyboardModifierEE @ 7208 NONAME
	_ZN9QTreeView10paintEventEP11QPaintEvent @ 7209 NONAME
	_ZN9QTreeView10showColumnEi @ 7210 NONAME
	_ZN9QTreeView10timerEventEP11QTimerEvent @ 7211 NONAME
	_ZN9QTreeView11collapseAllEv @ 7212 NONAME
	_ZN9QTreeView11columnMovedEv @ 7213 NONAME
	_ZN9QTreeView11dataChangedERK11QModelIndexS2_ @ 7214 NONAME
	_ZN9QTreeView11qt_metacallEN11QMetaObject4CallEiPPv @ 7215 NONAME
	_ZN9QTreeView11qt_metacastEPKc @ 7216 NONAME
	_ZN9QTreeView11rowsRemovedERK11QModelIndexii @ 7217 NONAME
	_ZN9QTreeView11setAnimatedEb @ 7218 NONAME
	_ZN9QTreeView11setExpandedERK11QModelIndexb @ 7219 NONAME
	_ZN9QTreeView11setWordWrapEb @ 7220 NONAME
	_ZN9QTreeView12rowsInsertedERK11QModelIndexii @ 7221 NONAME
	_ZN9QTreeView12setRootIndexERK11QModelIndex @ 7222 NONAME
	_ZN9QTreeView12setRowHiddenEiRK11QModelIndexb @ 7223 NONAME
	_ZN9QTreeView12setSelectionERK5QRect6QFlagsIN19QItemSelectionModel13SelectionFlagEE @ 7224 NONAME
	_ZN9QTreeView12sortByColumnEi @ 7225 NONAME
	_ZN9QTreeView12sortByColumnEiN2Qt9SortOrderE @ 7226 NONAME
	_ZN9QTreeView13columnResizedEiii @ 7227 NONAME
	_ZN9QTreeView13doItemsLayoutEv @ 7228 NONAME
	_ZN9QTreeView13dragMoveEventEP14QDragMoveEvent @ 7229 NONAME
	_ZN9QTreeView13expandToDepthEi @ 7230 NONAME
	_ZN9QTreeView13keyPressEventEP9QKeyEvent @ 7231 NONAME
	_ZN9QTreeView13viewportEventEP6QEvent @ 7232 NONAME
	_ZN9QTreeView14currentChangedERK11QModelIndexS2_ @ 7233 NONAME
	_ZN9QTreeView14keyboardSearchERK7QString @ 7234 NONAME
	_ZN9QTreeView14mouseMoveEventEP11QMouseEvent @ 7235 NONAME
	_ZN9QTreeView14setColumnWidthEii @ 7236 NONAME
	_ZN9QTreeView14setIndentationEi @ 7237 NONAME
	_ZN9QTreeView15mousePressEventEP11QMouseEvent @ 7238 NONAME
	_ZN9QTreeView15setColumnHiddenEib @ 7239 NONAME
	_ZN9QTreeView15setHeaderHiddenEb @ 7240 NONAME
	_ZN9QTreeView16scrollContentsByEii @ 7241 NONAME
	_ZN9QTreeView16selectionChangedERK14QItemSelectionS2_ @ 7242 NONAME
	_ZN9QTreeView16staticMetaObjectE @ 7243 NONAME DATA 16
	_ZN9QTreeView16updateGeometriesEv @ 7244 NONAME
	_ZN9QTreeView17mouseReleaseEventEP11QMouseEvent @ 7245 NONAME
	_ZN9QTreeView17setSelectionModelEP19QItemSelectionModel @ 7246 NONAME
	_ZN9QTreeView17setSortingEnabledEb @ 7247 NONAME
	_ZN9QTreeView18columnCountChangedEii @ 7248 NONAME
	_ZN9QTreeView18setAutoExpandDelayEi @ 7249 NONAME
	_ZN9QTreeView18setItemsExpandableEb @ 7250 NONAME
	_ZN9QTreeView18setRootIsDecoratedEb @ 7251 NONAME
	_ZN9QTreeView19getStaticMetaObjectEv @ 7252 NONAME
	_ZN9QTreeView20rowsAboutToBeRemovedERK11QModelIndexii @ 7253 NONAME
	_ZN9QTreeView20setUniformRowHeightsEb @ 7254 NONAME
	_ZN9QTreeView21mouseDoubleClickEventEP11QMouseEvent @ 7255 NONAME
	_ZN9QTreeView21setFirstColumnSpannedEiRK11QModelIndexb @ 7256 NONAME
	_ZN9QTreeView22resizeColumnToContentsEi @ 7257 NONAME
	_ZN9QTreeView22setAllColumnsShowFocusEb @ 7258 NONAME
	_ZN9QTreeView23setExpandsOnDoubleClickEb @ 7259 NONAME
	_ZN9QTreeView25horizontalScrollbarActionEi @ 7260 NONAME
	_ZN9QTreeView5resetEv @ 7261 NONAME
	_ZN9QTreeView6expandERK11QModelIndex @ 7262 NONAME
	_ZN9QTreeView8collapseERK11QModelIndex @ 7263 NONAME
	_ZN9QTreeView8expandedERK11QModelIndex @ 7264 NONAME
	_ZN9QTreeView8reexpandEv @ 7265 NONAME
	_ZN9QTreeView8scrollToERK11QModelIndexN17QAbstractItemView10ScrollHintE @ 7266 NONAME
	_ZN9QTreeView8setModelEP18QAbstractItemModel @ 7267 NONAME
	_ZN9QTreeView9collapsedERK11QModelIndex @ 7268 NONAME
	_ZN9QTreeView9expandAllEv @ 7269 NONAME
	_ZN9QTreeView9selectAllEv @ 7270 NONAME
	_ZN9QTreeView9setHeaderEP11QHeaderView @ 7271 NONAME
	_ZN9QTreeViewC1EP7QWidget @ 7272 NONAME
	_ZN9QTreeViewC1ER16QTreeViewPrivateP7QWidget @ 7273 NONAME
	_ZN9QTreeViewC2EP7QWidget @ 7274 NONAME
	_ZN9QTreeViewC2ER16QTreeViewPrivateP7QWidget @ 7275 NONAME
	_ZN9QTreeViewD0Ev @ 7276 NONAME
	_ZN9QTreeViewD1Ev @ 7277 NONAME
	_ZN9QTreeViewD2Ev @ 7278 NONAME
	_ZN9QUndoView11qt_metacallEN11QMetaObject4CallEiPPv @ 7279 NONAME
	_ZN9QUndoView11qt_metacastEPKc @ 7280 NONAME
	_ZN9QUndoView12setCleanIconERK5QIcon @ 7281 NONAME
	_ZN9QUndoView13setEmptyLabelERK7QString @ 7282 NONAME
	_ZN9QUndoView16staticMetaObjectE @ 7283 NONAME DATA 16
	_ZN9QUndoView19getStaticMetaObjectEv @ 7284 NONAME
	_ZN9QUndoView8setGroupEP10QUndoGroup @ 7285 NONAME
	_ZN9QUndoView8setStackEP10QUndoStack @ 7286 NONAME
	_ZN9QUndoViewC1EP10QUndoGroupP7QWidget @ 7287 NONAME
	_ZN9QUndoViewC1EP10QUndoStackP7QWidget @ 7288 NONAME
	_ZN9QUndoViewC1EP7QWidget @ 7289 NONAME
	_ZN9QUndoViewC2EP10QUndoGroupP7QWidget @ 7290 NONAME
	_ZN9QUndoViewC2EP10QUndoStackP7QWidget @ 7291 NONAME
	_ZN9QUndoViewC2EP7QWidget @ 7292 NONAME
	_ZN9QUndoViewD0Ev @ 7293 NONAME
	_ZN9QUndoViewD1Ev @ 7294 NONAME
	_ZN9QUndoViewD2Ev @ 7295 NONAME
	_ZN9QVector2D10dotProductERKS_S1_ @ 7296 NONAME
	_ZN9QVector2D9normalizeEv @ 7297 NONAME
	_ZN9QVector2DC1ERK9QVector3D @ 7298 NONAME
	_ZN9QVector2DC1ERK9QVector4D @ 7299 NONAME
	_ZN9QVector2DC2ERK9QVector3D @ 7300 NONAME
	_ZN9QVector2DC2ERK9QVector4D @ 7301 NONAME
	_ZN9QVector3D10dotProductERKS_S1_ @ 7302 NONAME
	_ZN9QVector3D12crossProductERKS_S1_ @ 7303 NONAME
	_ZN9QVector3D6normalERKS_S1_ @ 7304 NONAME
	_ZN9QVector3D6normalERKS_S1_S1_ @ 7305 NONAME
	_ZN9QVector3D9normalizeEv @ 7306 NONAME
	_ZN9QVector3DC1ERK9QVector2D @ 7307 NONAME
	_ZN9QVector3DC1ERK9QVector2Df @ 7308 NONAME
	_ZN9QVector3DC1ERK9QVector4D @ 7309 NONAME
	_ZN9QVector3DC2ERK9QVector2D @ 7310 NONAME
	_ZN9QVector3DC2ERK9QVector2Df @ 7311 NONAME
	_ZN9QVector3DC2ERK9QVector4D @ 7312 NONAME
	_ZN9QVector4D10dotProductERKS_S1_ @ 7313 NONAME
	_ZN9QVector4D9normalizeEv @ 7314 NONAME
	_ZN9QVector4DC1ERK9QVector2D @ 7315 NONAME
	_ZN9QVector4DC1ERK9QVector2Dff @ 7316 NONAME
	_ZN9QVector4DC1ERK9QVector3D @ 7317 NONAME
	_ZN9QVector4DC1ERK9QVector3Df @ 7318 NONAME
	_ZN9QVector4DC2ERK9QVector2D @ 7319 NONAME
	_ZN9QVector4DC2ERK9QVector2Dff @ 7320 NONAME
	_ZN9QVector4DC2ERK9QVector3D @ 7321 NONAME
	_ZN9QVector4DC2ERK9QVector3Df @ 7322 NONAME
	_ZNK10QBoxLayout10metaObjectEv @ 7323 NONAME
	_ZNK10QBoxLayout11maximumSizeEv @ 7324 NONAME
	_ZNK10QBoxLayout11minimumSizeEv @ 7325 NONAME
	_ZNK10QBoxLayout14heightForWidthEi @ 7326 NONAME
	_ZNK10QBoxLayout17hasHeightForWidthEv @ 7327 NONAME
	_ZNK10QBoxLayout19expandingDirectionsEv @ 7328 NONAME
	_ZNK10QBoxLayout21minimumHeightForWidthEi @ 7329 NONAME
	_ZNK10QBoxLayout5countEv @ 7330 NONAME
	_ZNK10QBoxLayout6itemAtEi @ 7331 NONAME
	_ZNK10QBoxLayout7spacingEv @ 7332 NONAME
	_ZNK10QBoxLayout7stretchEi @ 7333 NONAME
	_ZNK10QBoxLayout8sizeHintEv @ 7334 NONAME
	_ZNK10QBoxLayout9directionEv @ 7335 NONAME
	_ZNK10QClipboard10metaObjectEv @ 7336 NONAME
	_ZNK10QClipboard12supportsModeENS_4ModeE @ 7337 NONAME
	_ZNK10QClipboard13ownsClipboardEv @ 7338 NONAME
	_ZNK10QClipboard13ownsSelectionEv @ 7339 NONAME
	_ZNK10QClipboard14ownsFindBufferEv @ 7340 NONAME
	_ZNK10QClipboard17supportsSelectionEv @ 7341 NONAME
	_ZNK10QClipboard18supportsFindBufferEv @ 7342 NONAME
	_ZNK10QClipboard4textENS_4ModeE @ 7343 NONAME
	_ZNK10QClipboard4textER7QStringNS_4ModeE @ 7344 NONAME
	_ZNK10QClipboard5imageENS_4ModeE @ 7345 NONAME
	_ZNK10QClipboard6pixmapENS_4ModeE @ 7346 NONAME
	_ZNK10QClipboard8mimeDataENS_4ModeE @ 7347 NONAME
	_ZNK10QClipboard8ownsModeENS_4ModeE @ 7348 NONAME
	_ZNK10QCompleter10currentRowEv @ 7349 NONAME
	_ZNK10QCompleter10metaObjectEv @ 7350 NONAME
	_ZNK10QCompleter10wrapAroundEv @ 7351 NONAME
	_ZNK10QCompleter12currentIndexEv @ 7352 NONAME
	_ZNK10QCompleter12modelSortingEv @ 7353 NONAME
	_ZNK10QCompleter13pathFromIndexERK11QModelIndex @ 7354 NONAME
	_ZNK10QCompleter14completionModeEv @ 7355 NONAME
	_ZNK10QCompleter14completionRoleEv @ 7356 NONAME
	_ZNK10QCompleter15caseSensitivityEv @ 7357 NONAME
	_ZNK10QCompleter15completionCountEv @ 7358 NONAME
	_ZNK10QCompleter15completionModelEv @ 7359 NONAME
	_ZNK10QCompleter15maxVisibleItemsEv @ 7360 NONAME
	_ZNK10QCompleter16completionColumnEv @ 7361 NONAME
	_ZNK10QCompleter16completionPrefixEv @ 7362 NONAME
	_ZNK10QCompleter17currentCompletionEv @ 7363 NONAME
	_ZNK10QCompleter5modelEv @ 7364 NONAME
	_ZNK10QCompleter5popupEv @ 7365 NONAME
	_ZNK10QCompleter6widgetEv @ 7366 NONAME
	_ZNK10QCompleter9splitPathERK7QString @ 7367 NONAME
	_ZNK10QDropEvent11encodedDataEPKc @ 7368 NONAME
	_ZNK10QDropEvent6formatEi @ 7369 NONAME
	_ZNK10QDropEvent6sourceEv @ 7370 NONAME
	_ZNK10QDropEvent8providesEPKc @ 7371 NONAME
	_ZNK10QImageData19checkForAlphaPixelsEv @ 7372 NONAME
	_ZNK10QImageData9doImageIOEPK6QImageP12QImageWriteri @ 7373 NONAME
	_ZNK10QLCDNumber10metaObjectEv @ 7374 NONAME
	_ZNK10QLCDNumber12segmentStyleEv @ 7375 NONAME
	_ZNK10QLCDNumber13checkOverflowEd @ 7376 NONAME
	_ZNK10QLCDNumber13checkOverflowEi @ 7377 NONAME
	_ZNK10QLCDNumber17smallDecimalPointEv @ 7378 NONAME
	_ZNK10QLCDNumber4modeEv @ 7379 NONAME
	_ZNK10QLCDNumber5valueEv @ 7380 NONAME
	_ZNK10QLCDNumber8intValueEv @ 7381 NONAME
	_ZNK10QLCDNumber8sizeHintEv @ 7382 NONAME
	_ZNK10QLCDNumber9numDigitsEv @ 7383 NONAME
	_ZNK10QMatrix4x410transposedEv @ 7384 NONAME
	_ZNK10QMatrix4x411determinantEv @ 7385 NONAME
	_ZNK10QMatrix4x411toTransformEf @ 7386 NONAME
	_ZNK10QMatrix4x412normalMatrixEv @ 7387 NONAME
	_ZNK10QMatrix4x412toValueArrayEPf @ 7388 NONAME ABSENT
	_ZNK10QMatrix4x418extractTranslationEv @ 7389 NONAME ABSENT
	_ZNK10QMatrix4x418orthonormalInverseEv @ 7390 NONAME
	_ZNK10QMatrix4x419extractAxisRotationERfR9QVector3D @ 7391 NONAME ABSENT
	_ZNK10QMatrix4x47mapRectERK5QRect @ 7392 NONAME
	_ZNK10QMatrix4x47mapRectERK6QRectF @ 7393 NONAME
	_ZNK10QMatrix4x48invertedEPb @ 7394 NONAME
	_ZNK10QMatrix4x48toAffineEv @ 7395 NONAME
	_ZNK10QMatrix4x4cv8QVariantEv @ 7396 NONAME
	_ZNK10QPictureIO10parametersEv @ 7397 NONAME
	_ZNK10QPictureIO11descriptionEv @ 7398 NONAME
	_ZNK10QPictureIO5gammaEv @ 7399 NONAME
	_ZNK10QPictureIO6formatEv @ 7400 NONAME
	_ZNK10QPictureIO6statusEv @ 7401 NONAME
	_ZNK10QPictureIO7pictureEv @ 7402 NONAME
	_ZNK10QPictureIO7qualityEv @ 7403 NONAME
	_ZNK10QPictureIO8fileNameEv @ 7404 NONAME
	_ZNK10QPictureIO8ioDeviceEv @ 7405 NONAME
	_ZNK10QScrollBar10metaObjectEv @ 7406 NONAME
	_ZNK10QScrollBar15initStyleOptionEP18QStyleOptionSlider @ 7407 NONAME
	_ZNK10QScrollBar8sizeHintEv @ 7408 NONAME
	_ZNK10QStatusBar10metaObjectEv @ 7409 NONAME
	_ZNK10QStatusBar14currentMessageEv @ 7410 NONAME
	_ZNK10QStatusBar17isSizeGripEnabledEv @ 7411 NONAME
	_ZNK10QTabWidget10metaObjectEv @ 7412 NONAME
	_ZNK10QTabWidget10tabToolTipEi @ 7413 NONAME
	_ZNK10QTabWidget11tabPositionEv @ 7414 NONAME
	_ZNK10QTabWidget12cornerWidgetEN2Qt6CornerE @ 7415 NONAME
	_ZNK10QTabWidget12currentIndexEv @ 7416 NONAME
	_ZNK10QTabWidget12documentModeEv @ 7417 NONAME
	_ZNK10QTabWidget12isTabEnabledEi @ 7418 NONAME
	_ZNK10QTabWidget12tabWhatsThisEi @ 7419 NONAME
	_ZNK10QTabWidget12tabsClosableEv @ 7420 NONAME
	_ZNK10QTabWidget13currentWidgetEv @ 7421 NONAME
	_ZNK10QTabWidget15initStyleOptionEP26QStyleOptionTabWidgetFrame @ 7422 NONAME
	_ZNK10QTabWidget15minimumSizeHintEv @ 7423 NONAME
	_ZNK10QTabWidget17usesScrollButtonsEv @ 7424 NONAME
	_ZNK10QTabWidget5countEv @ 7425 NONAME
	_ZNK10QTabWidget6tabBarEv @ 7426 NONAME
	_ZNK10QTabWidget6widgetEi @ 7427 NONAME
	_ZNK10QTabWidget7indexOfEP7QWidget @ 7428 NONAME
	_ZNK10QTabWidget7tabIconEi @ 7429 NONAME
	_ZNK10QTabWidget7tabTextEi @ 7430 NONAME
	_ZNK10QTabWidget8iconSizeEv @ 7431 NONAME
	_ZNK10QTabWidget8sizeHintEv @ 7432 NONAME
	_ZNK10QTabWidget8tabShapeEv @ 7433 NONAME
	_ZNK10QTabWidget9elideModeEv @ 7434 NONAME
	_ZNK10QTabWidget9isMovableEv @ 7435 NONAME
	_ZNK10QTableView10columnSpanEii @ 7436 NONAME
	_ZNK10QTableView10metaObjectEv @ 7437 NONAME
	_ZNK10QTableView10visualRectERK11QModelIndex @ 7438 NONAME
	_ZNK10QTableView11columnWidthEi @ 7439 NONAME
	_ZNK10QTableView11isRowHiddenEi @ 7440 NONAME
	_ZNK10QTableView11viewOptionsEv @ 7441 NONAME
	_ZNK10QTableView11visualIndexERK11QModelIndex @ 7442 NONAME
	_ZNK10QTableView13isIndexHiddenERK11QModelIndex @ 7443 NONAME
	_ZNK10QTableView14isColumnHiddenEi @ 7444 NONAME
	_ZNK10QTableView14sizeHintForRowEi @ 7445 NONAME
	_ZNK10QTableView14verticalHeaderEv @ 7446 NONAME
	_ZNK10QTableView14verticalOffsetEv @ 7447 NONAME
	_ZNK10QTableView15selectedIndexesEv @ 7448 NONAME
	_ZNK10QTableView16horizontalHeaderEv @ 7449 NONAME
	_ZNK10QTableView16horizontalOffsetEv @ 7450 NONAME
	_ZNK10QTableView16isSortingEnabledEv @ 7451 NONAME
	_ZNK10QTableView17sizeHintForColumnEi @ 7452 NONAME
	_ZNK10QTableView19rowViewportPositionEi @ 7453 NONAME
	_ZNK10QTableView21isCornerButtonEnabledEv @ 7454 NONAME
	_ZNK10QTableView22columnViewportPositionEi @ 7455 NONAME
	_ZNK10QTableView24visualRegionForSelectionERK14QItemSelection @ 7456 NONAME
	_ZNK10QTableView5rowAtEi @ 7457 NONAME
	_ZNK10QTableView7indexAtERK6QPoint @ 7458 NONAME
	_ZNK10QTableView7rowSpanEii @ 7459 NONAME
	_ZNK10QTableView8columnAtEi @ 7460 NONAME
	_ZNK10QTableView8showGridEv @ 7461 NONAME
	_ZNK10QTableView8wordWrapEv @ 7462 NONAME
	_ZNK10QTableView9gridStyleEv @ 7463 NONAME
	_ZNK10QTableView9rowHeightEi @ 7464 NONAME
	_ZNK10QTextBlock10charFormatEv @ 7465 NONAME
	_ZNK10QTextBlock11blockFormatEv @ 7466 NONAME
	_ZNK10QTextBlock11blockNumberEv @ 7467 NONAME
	_ZNK10QTextBlock15charFormatIndexEv @ 7468 NONAME
	_ZNK10QTextBlock15firstLineNumberEv @ 7469 NONAME
	_ZNK10QTextBlock16blockFormatIndexEv @ 7470 NONAME
	_ZNK10QTextBlock3endEv @ 7471 NONAME
	_ZNK10QTextBlock4nextEv @ 7472 NONAME
	_ZNK10QTextBlock4textEv @ 7473 NONAME
	_ZNK10QTextBlock5beginEv @ 7474 NONAME
	_ZNK10QTextBlock6layoutEv @ 7475 NONAME
	_ZNK10QTextBlock6lengthEv @ 7476 NONAME
	_ZNK10QTextBlock8containsEi @ 7477 NONAME
	_ZNK10QTextBlock8documentEv @ 7478 NONAME
	_ZNK10QTextBlock8iterator8fragmentEv @ 7479 NONAME
	_ZNK10QTextBlock8positionEv @ 7480 NONAME
	_ZNK10QTextBlock8previousEv @ 7481 NONAME
	_ZNK10QTextBlock8revisionEv @ 7482 NONAME
	_ZNK10QTextBlock8textListEv @ 7483 NONAME
	_ZNK10QTextBlock8userDataEv @ 7484 NONAME
	_ZNK10QTextBlock9isVisibleEv @ 7485 NONAME
	_ZNK10QTextBlock9lineCountEv @ 7486 NONAME
	_ZNK10QTextBlock9userStateEv @ 7487 NONAME
	_ZNK10QTextFrame10layoutDataEv @ 7488 NONAME
	_ZNK10QTextFrame10metaObjectEv @ 7489 NONAME
	_ZNK10QTextFrame11childFramesEv @ 7490 NONAME
	_ZNK10QTextFrame11parentFrameEv @ 7491 NONAME
	_ZNK10QTextFrame12lastPositionEv @ 7492 NONAME
	_ZNK10QTextFrame13firstPositionEv @ 7493 NONAME
	_ZNK10QTextFrame18lastCursorPositionEv @ 7494 NONAME
	_ZNK10QTextFrame19firstCursorPositionEv @ 7495 NONAME
	_ZNK10QTextFrame3endEv @ 7496 NONAME
	_ZNK10QTextFrame5beginEv @ 7497 NONAME
	_ZNK10QTextFrame8iterator12currentBlockEv @ 7498 NONAME
	_ZNK10QTextFrame8iterator12currentFrameEv @ 7499 NONAME
	_ZNK10QTextTable10metaObjectEv @ 7500 NONAME
	_ZNK10QTextTable4rowsEv @ 7501 NONAME
	_ZNK10QTextTable6cellAtERK11QTextCursor @ 7502 NONAME
	_ZNK10QTextTable6cellAtEi @ 7503 NONAME
	_ZNK10QTextTable6cellAtEii @ 7504 NONAME
	_ZNK10QTextTable6rowEndERK11QTextCursor @ 7505 NONAME
	_ZNK10QTextTable7columnsEv @ 7506 NONAME
	_ZNK10QTextTable8rowStartERK11QTextCursor @ 7507 NONAME
	_ZNK10QTransform10transposedEv @ 7508 NONAME
	_ZNK10QTransform12mapToPolygonERK5QRect @ 7509 NONAME
	_ZNK10QTransform3mapERK12QPainterPath @ 7510 NONAME
	_ZNK10QTransform3mapERK5QLine @ 7511 NONAME
	_ZNK10QTransform3mapERK6QLineF @ 7512 NONAME
	_ZNK10QTransform3mapERK6QPoint @ 7513 NONAME
	_ZNK10QTransform3mapERK7QPointF @ 7514 NONAME
	_ZNK10QTransform3mapERK7QRegion @ 7515 NONAME
	_ZNK10QTransform3mapERK8QPolygon @ 7516 NONAME
	_ZNK10QTransform3mapERK9QPolygonF @ 7517 NONAME
	_ZNK10QTransform3mapEffPfS0_ @ 7518 NONAME
	_ZNK10QTransform3mapEiiPiS0_ @ 7519 NONAME
	_ZNK10QTransform4typeEv @ 7520 NONAME
	_ZNK10QTransform7adjointEv @ 7521 NONAME
	_ZNK10QTransform7mapRectERK5QRect @ 7522 NONAME
	_ZNK10QTransform7mapRectERK6QRectF @ 7523 NONAME
	_ZNK10QTransform8invertedEPb @ 7524 NONAME
	_ZNK10QTransform8toAffineEv @ 7525 NONAME
	_ZNK10QTransformcv8QVariantEv @ 7526 NONAME
	_ZNK10QTransformeqERKS_ @ 7527 NONAME
	_ZNK10QTransformmlERKS_ @ 7528 NONAME
	_ZNK10QTransformneERKS_ @ 7529 NONAME
	_ZNK10QUndoGroup10metaObjectEv @ 7530 NONAME
	_ZNK10QUndoGroup11activeStackEv @ 7531 NONAME
	_ZNK10QUndoGroup16createRedoActionEP7QObjectRK7QString @ 7532 NONAME
	_ZNK10QUndoGroup16createUndoActionEP7QObjectRK7QString @ 7533 NONAME
	_ZNK10QUndoGroup6stacksEv @ 7534 NONAME
	_ZNK10QUndoGroup7canRedoEv @ 7535 NONAME
	_ZNK10QUndoGroup7canUndoEv @ 7536 NONAME
	_ZNK10QUndoGroup7isCleanEv @ 7537 NONAME
	_ZNK10QUndoGroup8redoTextEv @ 7538 NONAME
	_ZNK10QUndoGroup8undoTextEv @ 7539 NONAME
	_ZNK10QUndoStack10cleanIndexEv @ 7540 NONAME
	_ZNK10QUndoStack10metaObjectEv @ 7541 NONAME
	_ZNK10QUndoStack16createRedoActionEP7QObjectRK7QString @ 7542 NONAME
	_ZNK10QUndoStack16createUndoActionEP7QObjectRK7QString @ 7543 NONAME
	_ZNK10QUndoStack4textEi @ 7544 NONAME
	_ZNK10QUndoStack5countEv @ 7545 NONAME
	_ZNK10QUndoStack5indexEv @ 7546 NONAME
	_ZNK10QUndoStack7canRedoEv @ 7547 NONAME
	_ZNK10QUndoStack7canUndoEv @ 7548 NONAME
	_ZNK10QUndoStack7commandEi @ 7549 NONAME
	_ZNK10QUndoStack7isCleanEv @ 7550 NONAME
	_ZNK10QUndoStack8isActiveEv @ 7551 NONAME
	_ZNK10QUndoStack8redoTextEv @ 7552 NONAME
	_ZNK10QUndoStack8undoTextEv @ 7553 NONAME
	_ZNK10QUndoStack9undoLimitEv @ 7554 NONAME
	_ZNK10QValidator10metaObjectEv @ 7555 NONAME
	_ZNK10QValidator5fixupER7QString @ 7556 NONAME
	_ZNK10QValidator6localeEv @ 7557 NONAME
	_ZNK10QWorkspace10backgroundEv @ 7558 NONAME
	_ZNK10QWorkspace10metaObjectEv @ 7559 NONAME
	_ZNK10QWorkspace10windowListENS_11WindowOrderE @ 7560 NONAME
	_ZNK10QWorkspace12activeWindowEv @ 7561 NONAME
	_ZNK10QWorkspace17scrollBarsEnabledEv @ 7562 NONAME
	_ZNK10QWorkspace8sizeHintEv @ 7563 NONAME
	_ZNK11QColumnView10metaObjectEv @ 7564 NONAME
	_ZNK11QColumnView10visualRectERK11QModelIndex @ 7565 NONAME
	_ZNK11QColumnView12columnWidthsEv @ 7566 NONAME
	_ZNK11QColumnView13isIndexHiddenERK11QModelIndex @ 7567 NONAME
	_ZNK11QColumnView13previewWidgetEv @ 7568 NONAME
	_ZNK11QColumnView14verticalOffsetEv @ 7569 NONAME
	_ZNK11QColumnView16horizontalOffsetEv @ 7570 NONAME
	_ZNK11QColumnView16initializeColumnEP17QAbstractItemView @ 7571 NONAME
	_ZNK11QColumnView18resizeGripsVisibleEv @ 7572 NONAME
	_ZNK11QColumnView24visualRegionForSelectionERK14QItemSelection @ 7573 NONAME
	_ZNK11QColumnView7indexAtERK6QPoint @ 7574 NONAME
	_ZNK11QColumnView8sizeHintEv @ 7575 NONAME
	_ZNK11QDockWidget10metaObjectEv @ 7576 NONAME
	_ZNK11QDockWidget12allowedAreasEv @ 7577 NONAME
	_ZNK11QDockWidget14titleBarWidgetEv @ 7578 NONAME
	_ZNK11QDockWidget15initStyleOptionEP22QStyleOptionDockWidget @ 7579 NONAME
	_ZNK11QDockWidget16toggleViewActionEv @ 7580 NONAME
	_ZNK11QDockWidget6widgetEv @ 7581 NONAME
	_ZNK11QDockWidget8featuresEv @ 7582 NONAME
	_ZNK11QFileDialog10acceptModeEv @ 7583 NONAME
	_ZNK11QFileDialog10isReadOnlyEv @ 7584 NONAME
	_ZNK11QFileDialog10metaObjectEv @ 7585 NONAME
	_ZNK11QFileDialog10proxyModelEv @ 7586 NONAME
	_ZNK11QFileDialog10testOptionENS_6OptionE @ 7587 NONAME
	_ZNK11QFileDialog11nameFiltersEv @ 7588 NONAME
	_ZNK11QFileDialog11sidebarUrlsEv @ 7589 NONAME
	_ZNK11QFileDialog12iconProviderEv @ 7590 NONAME
	_ZNK11QFileDialog12itemDelegateEv @ 7591 NONAME
	_ZNK11QFileDialog13defaultSuffixEv @ 7592 NONAME
	_ZNK11QFileDialog13selectedFilesEv @ 7593 NONAME
	_ZNK11QFileDialog14selectedFilterEv @ 7594 NONAME
	_ZNK11QFileDialog15resolveSymlinksEv @ 7595 NONAME
	_ZNK11QFileDialog16confirmOverwriteEv @ 7596 NONAME
	_ZNK11QFileDialog18selectedNameFilterEv @ 7597 NONAME
	_ZNK11QFileDialog26isNameFilterDetailsVisibleEv @ 7598 NONAME
	_ZNK11QFileDialog6filterEv @ 7599 NONAME
	_ZNK11QFileDialog7filtersEv @ 7600 NONAME
	_ZNK11QFileDialog7historyEv @ 7601 NONAME
	_ZNK11QFileDialog7optionsEv @ 7602 NONAME
	_ZNK11QFileDialog8fileModeEv @ 7603 NONAME
	_ZNK11QFileDialog8viewModeEv @ 7604 NONAME
	_ZNK11QFileDialog9directoryEv @ 7605 NONAME
	_ZNK11QFileDialog9labelTextENS_11DialogLabelE @ 7606 NONAME
	_ZNK11QFileDialog9saveStateEv @ 7607 NONAME
	_ZNK11QFocusEvent6reasonEv @ 7608 NONAME
	_ZNK11QFocusFrame10metaObjectEv @ 7609 NONAME
	_ZNK11QFocusFrame15initStyleOptionEP12QStyleOption @ 7610 NONAME
	_ZNK11QFocusFrame6widgetEv @ 7611 NONAME
	_ZNK11QFontDialog10metaObjectEv @ 7612 NONAME
	_ZNK11QFontDialog10testOptionENS_16FontDialogOptionE @ 7613 NONAME
	_ZNK11QFontDialog11currentFontEv @ 7614 NONAME
	_ZNK11QFontDialog12selectedFontEv @ 7615 NONAME
	_ZNK11QFontDialog7optionsEv @ 7616 NONAME
	_ZNK11QFontEngine10glyphCacheEN21QFontEngineGlyphCache4TypeERK10QTransform @ 7617 NONAME ABSENT
	_ZNK11QFontEngine10glyphCacheEPvRK10QTransform @ 7618 NONAME ABSENT
	_ZNK11QFontEngine10glyphCountEv @ 7619 NONAME
	_ZNK11QFontEngine10propertiesEv @ 7620 NONAME
	_ZNK11QFontEngine12getSfntTableEj @ 7621 NONAME
	_ZNK11QFontEngine12harfbuzzFaceEv @ 7622 NONAME
	_ZNK11QFontEngine12harfbuzzFontEv @ 7623 NONAME
	_ZNK11QFontEngine13lineThicknessEv @ 7624 NONAME
	_ZNK11QFontEngine16averageCharWidthEv @ 7625 NONAME
	_ZNK11QFontEngine17underlinePositionEv @ 7626 NONAME
	_ZNK11QFontEngine7xHeightEv @ 7627 NONAME
	_ZNK11QFontEngine9doKerningEP12QGlyphLayout6QFlagsIN11QTextEngine10ShaperFlagEE @ 7628 NONAME
	_ZNK11QFormLayout10metaObjectEv @ 7629 NONAME
	_ZNK11QFormLayout11minimumSizeEv @ 7630 NONAME
	_ZNK11QFormLayout13formAlignmentEv @ 7631 NONAME
	_ZNK11QFormLayout13labelForFieldEP7QLayout @ 7632 NONAME
	_ZNK11QFormLayout13labelForFieldEP7QWidget @ 7633 NONAME
	_ZNK11QFormLayout13rowWrapPolicyEv @ 7634 NONAME
	_ZNK11QFormLayout14heightForWidthEi @ 7635 NONAME
	_ZNK11QFormLayout14labelAlignmentEv @ 7636 NONAME
	_ZNK11QFormLayout15getItemPositionEiPiPNS_8ItemRoleE @ 7637 NONAME
	_ZNK11QFormLayout15verticalSpacingEv @ 7638 NONAME
	_ZNK11QFormLayout17fieldGrowthPolicyEv @ 7639 NONAME
	_ZNK11QFormLayout17getLayoutPositionEP7QLayoutPiPNS_8ItemRoleE @ 7640 NONAME
	_ZNK11QFormLayout17getWidgetPositionEP7QWidgetPiPNS_8ItemRoleE @ 7641 NONAME
	_ZNK11QFormLayout17hasHeightForWidthEv @ 7642 NONAME
	_ZNK11QFormLayout17horizontalSpacingEv @ 7643 NONAME
	_ZNK11QFormLayout19expandingDirectionsEv @ 7644 NONAME
	_ZNK11QFormLayout5countEv @ 7645 NONAME
	_ZNK11QFormLayout6itemAtEi @ 7646 NONAME
	_ZNK11QFormLayout6itemAtEiNS_8ItemRoleE @ 7647 NONAME
	_ZNK11QFormLayout7spacingEv @ 7648 NONAME
	_ZNK11QFormLayout8rowCountEv @ 7649 NONAME
	_ZNK11QFormLayout8sizeHintEv @ 7650 NONAME
	_ZNK11QGridLayout10metaObjectEv @ 7651 NONAME
	_ZNK11QGridLayout10rowStretchEi @ 7652 NONAME
	_ZNK11QGridLayout11columnCountEv @ 7653 NONAME
	_ZNK11QGridLayout11maximumSizeEv @ 7654 NONAME
	_ZNK11QGridLayout11minimumSizeEv @ 7655 NONAME
	_ZNK11QGridLayout12originCornerEv @ 7656 NONAME
	_ZNK11QGridLayout13columnStretchEi @ 7657 NONAME
	_ZNK11QGridLayout14heightForWidthEi @ 7658 NONAME
	_ZNK11QGridLayout14itemAtPositionEii @ 7659 NONAME
	_ZNK11QGridLayout15verticalSpacingEv @ 7660 NONAME
	_ZNK11QGridLayout16rowMinimumHeightEi @ 7661 NONAME
	_ZNK11QGridLayout17hasHeightForWidthEv @ 7662 NONAME
	_ZNK11QGridLayout17horizontalSpacingEv @ 7663 NONAME
	_ZNK11QGridLayout18columnMinimumWidthEi @ 7664 NONAME
	_ZNK11QGridLayout19expandingDirectionsEv @ 7665 NONAME
	_ZNK11QGridLayout21minimumHeightForWidthEi @ 7666 NONAME
	_ZNK11QGridLayout5countEv @ 7667 NONAME
	_ZNK11QGridLayout6itemAtEi @ 7668 NONAME
	_ZNK11QGridLayout7spacingEv @ 7669 NONAME
	_ZNK11QGridLayout8cellRectEii @ 7670 NONAME
	_ZNK11QGridLayout8rowCountEv @ 7671 NONAME
	_ZNK11QGridLayout8sizeHintEv @ 7672 NONAME
	_ZNK11QHBoxLayout10metaObjectEv @ 7673 NONAME
	_ZNK11QHeaderView10metaObjectEv @ 7674 NONAME
	_ZNK11QHeaderView10resizeModeEi @ 7675 NONAME
	_ZNK11QHeaderView10visualRectERK11QModelIndex @ 7676 NONAME
	_ZNK11QHeaderView11isClickableEv @ 7677 NONAME
	_ZNK11QHeaderView11orientationEv @ 7678 NONAME
	_ZNK11QHeaderView11sectionSizeEi @ 7679 NONAME
	_ZNK11QHeaderView11visualIndexEi @ 7680 NONAME
	_ZNK11QHeaderView12logicalIndexEi @ 7681 NONAME
	_ZNK11QHeaderView12paintSectionEP8QPainterRK5QRecti @ 7682 NONAME
	_ZNK11QHeaderView13isIndexHiddenERK11QModelIndex @ 7683 NONAME
	_ZNK11QHeaderView13sectionsMovedEv @ 7684 NONAME
	_ZNK11QHeaderView13visualIndexAtEi @ 7685 NONAME
	_ZNK11QHeaderView14logicalIndexAtEi @ 7686 NONAME
	_ZNK11QHeaderView14sectionsHiddenEv @ 7687 NONAME
	_ZNK11QHeaderView14verticalOffsetEv @ 7688 NONAME
	_ZNK11QHeaderView15initStyleOptionEP18QStyleOptionHeader @ 7689 NONAME
	_ZNK11QHeaderView15isSectionHiddenEi @ 7690 NONAME
	_ZNK11QHeaderView15sectionPositionEi @ 7691 NONAME
	_ZNK11QHeaderView15sectionSizeHintEi @ 7692 NONAME
	_ZNK11QHeaderView16defaultAlignmentEv @ 7693 NONAME
	_ZNK11QHeaderView16horizontalOffsetEv @ 7694 NONAME
	_ZNK11QHeaderView17highlightSectionsEv @ 7695 NONAME
	_ZNK11QHeaderView18defaultSectionSizeEv @ 7696 NONAME
	_ZNK11QHeaderView18hiddenSectionCountEv @ 7697 NONAME
	_ZNK11QHeaderView18minimumSectionSizeEv @ 7698 NONAME
	_ZNK11QHeaderView18sortIndicatorOrderEv @ 7699 NONAME
	_ZNK11QHeaderView18stretchLastSectionEv @ 7700 NONAME
	_ZNK11QHeaderView19stretchSectionCountEv @ 7701 NONAME
	_ZNK11QHeaderView20isSortIndicatorShownEv @ 7702 NONAME
	_ZNK11QHeaderView20sortIndicatorSectionEv @ 7703 NONAME
	_ZNK11QHeaderView23cascadingSectionResizesEv @ 7704 NONAME
	_ZNK11QHeaderView23sectionSizeFromContentsEi @ 7705 NONAME
	_ZNK11QHeaderView23sectionViewportPositionEi @ 7706 NONAME
	_ZNK11QHeaderView24visualRegionForSelectionERK14QItemSelection @ 7707 NONAME
	_ZNK11QHeaderView5countEv @ 7708 NONAME
	_ZNK11QHeaderView6lengthEv @ 7709 NONAME
	_ZNK11QHeaderView6offsetEv @ 7710 NONAME
	_ZNK11QHeaderView7indexAtERK6QPoint @ 7711 NONAME
	_ZNK11QHeaderView8sizeHintEv @ 7712 NONAME
	_ZNK11QHeaderView9isMovableEv @ 7713 NONAME
	_ZNK11QHeaderView9saveStateEv @ 7714 NONAME
	_ZNK11QLayoutItem12controlTypesEv @ 7715 NONAME
	_ZNK11QLayoutItem14heightForWidthEi @ 7716 NONAME
	_ZNK11QLayoutItem17hasHeightForWidthEv @ 7717 NONAME
	_ZNK11QLayoutItem21minimumHeightForWidthEi @ 7718 NONAME
	_ZNK11QListWidget10currentRowEv @ 7719 NONAME
	_ZNK11QListWidget10itemWidgetEP15QListWidgetItem @ 7720 NONAME
	_ZNK11QListWidget10metaObjectEv @ 7721 NONAME
	_ZNK11QListWidget11currentItemEv @ 7722 NONAME
	_ZNK11QListWidget12isItemHiddenEPK15QListWidgetItem @ 7723 NONAME
	_ZNK11QListWidget13indexFromItemEP15QListWidgetItem @ 7724 NONAME
	_ZNK11QListWidget13itemFromIndexERK11QModelIndex @ 7725 NONAME
	_ZNK11QListWidget13selectedItemsEv @ 7726 NONAME
	_ZNK11QListWidget14isItemSelectedEPK15QListWidgetItem @ 7727 NONAME
	_ZNK11QListWidget14visualItemRectEPK15QListWidgetItem @ 7728 NONAME
	_ZNK11QListWidget16isSortingEnabledEv @ 7729 NONAME
	_ZNK11QListWidget20supportedDropActionsEv @ 7730 NONAME
	_ZNK11QListWidget3rowEPK15QListWidgetItem @ 7731 NONAME
	_ZNK11QListWidget4itemEi @ 7732 NONAME
	_ZNK11QListWidget5countEv @ 7733 NONAME
	_ZNK11QListWidget5itemsEPK9QMimeData @ 7734 NONAME
	_ZNK11QListWidget6itemAtERK6QPoint @ 7735 NONAME
	_ZNK11QListWidget8mimeDataE5QListIP15QListWidgetItemE @ 7736 NONAME
	_ZNK11QListWidget9findItemsERK7QString6QFlagsIN2Qt9MatchFlagEE @ 7737 NONAME
	_ZNK11QListWidget9mimeTypesEv @ 7738 NONAME
	_ZNK11QListWidget9sortOrderEv @ 7739 NONAME
	_ZNK11QMainWindow10isAnimatedEv @ 7740 NONAME
	_ZNK11QMainWindow10menuWidgetEv @ 7741 NONAME
	_ZNK11QMainWindow10metaObjectEv @ 7742 NONAME
	_ZNK11QMainWindow11dockOptionsEv @ 7743 NONAME
	_ZNK11QMainWindow11isSeparatorERK6QPoint @ 7744 NONAME
	_ZNK11QMainWindow11tabPositionEN2Qt14DockWidgetAreaE @ 7745 NONAME
	_ZNK11QMainWindow11toolBarAreaEP8QToolBar @ 7746 NONAME
	_ZNK11QMainWindow12documentModeEv @ 7747 NONAME
	_ZNK11QMainWindow12toolBarBreakEP8QToolBar @ 7748 NONAME
	_ZNK11QMainWindow13centralWidgetEv @ 7749 NONAME
	_ZNK11QMainWindow14dockWidgetAreaEP11QDockWidget @ 7750 NONAME
	_ZNK11QMainWindow15toolButtonStyleEv @ 7751 NONAME
	_ZNK11QMainWindow19tabifiedDockWidgetsEP11QDockWidget @ 7752 NONAME
	_ZNK11QMainWindow20isDockNestingEnabledEv @ 7753 NONAME
	_ZNK11QMainWindow27unifiedTitleAndToolBarOnMacEv @ 7754 NONAME
	_ZNK11QMainWindow6cornerEN2Qt6CornerE @ 7755 NONAME
	_ZNK11QMainWindow7menuBarEv @ 7756 NONAME
	_ZNK11QMainWindow8iconSizeEv @ 7757 NONAME
	_ZNK11QMainWindow8tabShapeEv @ 7758 NONAME
	_ZNK11QMainWindow9saveStateEi @ 7759 NONAME
	_ZNK11QMainWindow9statusBarEv @ 7760 NONAME
	_ZNK11QMessageBox10buttonRoleEP15QAbstractButton @ 7761 NONAME
	_ZNK11QMessageBox10buttonTextEi @ 7762 NONAME
	_ZNK11QMessageBox10iconPixmapEv @ 7763 NONAME
	_ZNK11QMessageBox10metaObjectEv @ 7764 NONAME
	_ZNK11QMessageBox10textFormatEv @ 7765 NONAME
	_ZNK11QMessageBox12detailedTextEv @ 7766 NONAME
	_ZNK11QMessageBox12escapeButtonEv @ 7767 NONAME
	_ZNK11QMessageBox13clickedButtonEv @ 7768 NONAME
	_ZNK11QMessageBox13defaultButtonEv @ 7769 NONAME
	_ZNK11QMessageBox14standardButtonEP15QAbstractButton @ 7770 NONAME
	_ZNK11QMessageBox15informativeTextEv @ 7771 NONAME
	_ZNK11QMessageBox15standardButtonsEv @ 7772 NONAME
	_ZNK11QMessageBox4iconEv @ 7773 NONAME
	_ZNK11QMessageBox4textEv @ 7774 NONAME
	_ZNK11QMessageBox6buttonENS_14StandardButtonE @ 7775 NONAME
	_ZNK11QMessageBox7buttonsEv @ 7776 NONAME
	_ZNK11QMessageBox8sizeHintEv @ 7777 NONAME
	_ZNK11QMimeSource8providesEPKc @ 7778 NONAME
	_ZNK11QMouseEvent4posFEv @ 7779 NONAME
	_ZNK11QPanGesture10lastOffsetEv @ 7780 NONAME
	_ZNK11QPanGesture10metaObjectEv @ 7781 NONAME
	_ZNK11QPanGesture11totalOffsetEv @ 7782 NONAME ABSENT
	_ZNK11QPanGesture12accelerationEv @ 7783 NONAME
	_ZNK11QPanGesture6offsetEv @ 7784 NONAME
	_ZNK11QPixmapData11transformedERK10QTransformN2Qt18TransformationModeE @ 7785 NONAME
	_ZNK11QPixmapData12alphaChannelEv @ 7786 NONAME
	_ZNK11QPixmapData4maskEv @ 7787 NONAME
	_ZNK11QProxyModel10headerDataEiN2Qt11OrientationEi @ 7788 NONAME
	_ZNK11QProxyModel10metaObjectEv @ 7789 NONAME
	_ZNK11QProxyModel11columnCountERK11QModelIndex @ 7790 NONAME
	_ZNK11QProxyModel11hasChildrenERK11QModelIndex @ 7791 NONAME
	_ZNK11QProxyModel13setProxyModelERK11QModelIndex @ 7792 NONAME
	_ZNK11QProxyModel14connectToModelEPK18QAbstractItemModel @ 7793 NONAME
	_ZNK11QProxyModel14setSourceModelERK11QModelIndex @ 7794 NONAME
	_ZNK11QProxyModel19disconnectFromModelEPK18QAbstractItemModel @ 7795 NONAME
	_ZNK11QProxyModel20supportedDropActionsEv @ 7796 NONAME
	_ZNK11QProxyModel4dataERK11QModelIndexi @ 7797 NONAME
	_ZNK11QProxyModel4spanERK11QModelIndex @ 7798 NONAME
	_ZNK11QProxyModel5flagsERK11QModelIndex @ 7799 NONAME
	_ZNK11QProxyModel5indexEiiRK11QModelIndex @ 7800 NONAME
	_ZNK11QProxyModel5matchERK11QModelIndexiRK8QVarianti6QFlagsIN2Qt9MatchFlagEE @ 7801 NONAME
	_ZNK11QProxyModel5modelEv @ 7802 NONAME
	_ZNK11QProxyModel6parentERK11QModelIndex @ 7803 NONAME
	_ZNK11QProxyModel8mimeDataERK5QListI11QModelIndexE @ 7804 NONAME
	_ZNK11QProxyModel8rowCountERK11QModelIndex @ 7805 NONAME
	_ZNK11QProxyModel9mimeTypesEv @ 7806 NONAME
	_ZNK11QProxyStyle10metaObjectEv @ 7807 NONAME
	_ZNK11QProxyStyle11drawControlEN6QStyle14ControlElementEPK12QStyleOptionP8QPainterPK7QWidget @ 7808 NONAME
	_ZNK11QProxyStyle11pixelMetricEN6QStyle11PixelMetricEPK12QStyleOptionPK7QWidget @ 7809 NONAME
	_ZNK11QProxyStyle12drawItemTextEP8QPainterRK5QRectiRK8QPalettebRK7QStringNS5_9ColorRoleE @ 7810 NONAME
	_ZNK11QProxyStyle12itemTextRectERK12QFontMetricsRK5QRectibRK7QString @ 7811 NONAME
	_ZNK11QProxyStyle13drawPrimitiveEN6QStyle16PrimitiveElementEPK12QStyleOptionP8QPainterPK7QWidget @ 7812 NONAME
	_ZNK11QProxyStyle14drawItemPixmapEP8QPainterRK5QRectiRK7QPixmap @ 7813 NONAME
	_ZNK11QProxyStyle14itemPixmapRectERK5QRectiRK7QPixmap @ 7814 NONAME
	_ZNK11QProxyStyle14standardPixmapEN6QStyle14StandardPixmapEPK12QStyleOptionPK7QWidget @ 7815 NONAME
	_ZNK11QProxyStyle14subControlRectEN6QStyle14ComplexControlEPK19QStyleOptionComplexNS0_10SubControlEPK7QWidget @ 7816 NONAME
	_ZNK11QProxyStyle14subElementRectEN6QStyle10SubElementEPK12QStyleOptionPK7QWidget @ 7817 NONAME
	_ZNK11QProxyStyle15standardPaletteEv @ 7818 NONAME
	_ZNK11QProxyStyle16sizeFromContentsEN6QStyle12ContentsTypeEPK12QStyleOptionRK5QSizePK7QWidget @ 7819 NONAME
	_ZNK11QProxyStyle18drawComplexControlEN6QStyle14ComplexControlEPK19QStyleOptionComplexP8QPainterPK7QWidget @ 7820 NONAME
	_ZNK11QProxyStyle19generatedIconPixmapEN5QIcon4ModeERK7QPixmapPK12QStyleOption @ 7821 NONAME
	_ZNK11QProxyStyle21hitTestComplexControlEN6QStyle14ComplexControlEPK19QStyleOptionComplexRK6QPointPK7QWidget @ 7822 NONAME
	_ZNK11QProxyStyle26standardIconImplementationEN6QStyle14StandardPixmapEPK12QStyleOptionPK7QWidget @ 7823 NONAME
	_ZNK11QProxyStyle27layoutSpacingImplementationEN11QSizePolicy11ControlTypeES1_N2Qt11OrientationEPK12QStyleOptionPK7QWidget @ 7824 NONAME
	_ZNK11QProxyStyle9baseStyleEv @ 7825 NONAME
	_ZNK11QProxyStyle9styleHintEN6QStyle9StyleHintEPK12QStyleOptionPK7QWidgetP16QStyleHintReturn @ 7826 NONAME
	_ZNK11QPushButton10metaObjectEv @ 7827 NONAME
	_ZNK11QPushButton11autoDefaultEv @ 7828 NONAME
	_ZNK11QPushButton15initStyleOptionEP18QStyleOptionButton @ 7829 NONAME
	_ZNK11QPushButton15minimumSizeHintEv @ 7830 NONAME
	_ZNK11QPushButton4menuEv @ 7831 NONAME
	_ZNK11QPushButton6isFlatEv @ 7832 NONAME
	_ZNK11QPushButton8sizeHintEv @ 7833 NONAME
	_ZNK11QPushButton9isDefaultEv @ 7834 NONAME
	_ZNK11QQuaternion10normalizedEv @ 7835 NONAME
	_ZNK11QQuaternion12rotateVectorERK9QVector3D @ 7836 NONAME ABSENT
	_ZNK11QQuaternion13lengthSquaredEv @ 7837 NONAME
	_ZNK11QQuaternion6lengthEv @ 7838 NONAME
	_ZNK11QQuaternioncv8QVariantEv @ 7839 NONAME
	_ZNK11QRubberBand10metaObjectEv @ 7840 NONAME
	_ZNK11QRubberBand15initStyleOptionEP22QStyleOptionRubberBand @ 7841 NONAME
	_ZNK11QRubberBand5shapeEv @ 7842 NONAME
	_ZNK11QScrollArea10metaObjectEv @ 7843 NONAME
	_ZNK11QScrollArea15widgetResizableEv @ 7844 NONAME
	_ZNK11QScrollArea6widgetEv @ 7845 NONAME
	_ZNK11QScrollArea8sizeHintEv @ 7846 NONAME
	_ZNK11QScrollArea9alignmentEv @ 7847 NONAME
	_ZNK11QSizePolicy11controlTypeEv @ 7848 NONAME
	_ZNK11QSizePolicycv8QVariantEv @ 7849 NONAME
	_ZNK11QSpacerItem11maximumSizeEv @ 7850 NONAME
	_ZNK11QSpacerItem11minimumSizeEv @ 7851 NONAME
	_ZNK11QSpacerItem19expandingDirectionsEv @ 7852 NONAME
	_ZNK11QSpacerItem7isEmptyEv @ 7853 NONAME
	_ZNK11QSpacerItem8geometryEv @ 7854 NONAME
	_ZNK11QSpacerItem8sizeHintEv @ 7855 NONAME
	_ZNK11QTextCursor10atBlockEndEv @ 7856 NONAME
	_ZNK11QTextCursor10charFormatEv @ 7857 NONAME
	_ZNK11QTextCursor11blockFormatEv @ 7858 NONAME
	_ZNK11QTextCursor11blockNumberEv @ 7859 NONAME
	_ZNK11QTextCursor11currentListEv @ 7860 NONAME
	_ZNK11QTextCursor12atBlockStartEv @ 7861 NONAME
	_ZNK11QTextCursor12columnNumberEv @ 7862 NONAME
	_ZNK11QTextCursor12currentFrameEv @ 7863 NONAME
	_ZNK11QTextCursor12currentTableEv @ 7864 NONAME
	_ZNK11QTextCursor12hasSelectionEv @ 7865 NONAME
	_ZNK11QTextCursor12selectedTextEv @ 7866 NONAME
	_ZNK11QTextCursor12selectionEndEv @ 7867 NONAME
	_ZNK11QTextCursor14selectionStartEv @ 7868 NONAME
	_ZNK11QTextCursor15blockCharFormatEv @ 7869 NONAME
	_ZNK11QTextCursor16visualNavigationEv @ 7870 NONAME
	_ZNK11QTextCursor18selectedTableCellsEPiS0_S0_S0_ @ 7871 NONAME
	_ZNK11QTextCursor19hasComplexSelectionEv @ 7872 NONAME
	_ZNK11QTextCursor5atEndEv @ 7873 NONAME
	_ZNK11QTextCursor5blockEv @ 7874 NONAME
	_ZNK11QTextCursor6anchorEv @ 7875 NONAME
	_ZNK11QTextCursor6isNullEv @ 7876 NONAME
	_ZNK11QTextCursor7atStartEv @ 7877 NONAME
	_ZNK11QTextCursor8documentEv @ 7878 NONAME
	_ZNK11QTextCursor8isCopyOfERKS_ @ 7879 NONAME
	_ZNK11QTextCursor8positionEv @ 7880 NONAME
	_ZNK11QTextCursor9selectionEv @ 7881 NONAME
	_ZNK11QTextCursoreqERKS_ @ 7882 NONAME
	_ZNK11QTextCursorgeERKS_ @ 7883 NONAME
	_ZNK11QTextCursorgtERKS_ @ 7884 NONAME
	_ZNK11QTextCursorleERKS_ @ 7885 NONAME
	_ZNK11QTextCursorltERKS_ @ 7886 NONAME
	_ZNK11QTextCursorneERKS_ @ 7887 NONAME
	_ZNK11QTextEngine10attributesEv @ 7888 NONAME
	_ZNK11QTextEngine10elidedTextEN2Qt13TextElideModeERK6QFixedi @ 7889 NONAME
	_ZNK11QTextEngine10fontEngineERK11QScriptItemP6QFixedS4_ @ 7890 NONAME ABSENT
	_ZNK11QTextEngine11boundingBoxEii @ 7891 NONAME
	_ZNK11QTextEngine11formatIndexEPK11QScriptItem @ 7892 NONAME
	_ZNK11QTextEngine11setBoundaryEi @ 7893 NONAME
	_ZNK11QTextEngine15atWordSeparatorEi @ 7894 NONAME
	_ZNK11QTextEngine16tightBoundingBoxEii @ 7895 NONAME
	_ZNK11QTextEngine17calculateTabWidthEi6QFixed @ 7896 NONAME
	_ZNK11QTextEngine21addRequiredBoundariesEv @ 7897 NONAME
	_ZNK11QTextEngine21shapeTextWithHarfbuzzEi @ 7898 NONAME
	_ZNK11QTextEngine24resolveAdditionalFormatsEv @ 7899 NONAME
	_ZNK11QTextEngine4fontERK11QScriptItem @ 7900 NONAME
	_ZNK11QTextEngine5shapeEi @ 7901 NONAME
	_ZNK11QTextEngine5widthEii @ 7902 NONAME
	_ZNK11QTextEngine6formatEPK11QScriptItem @ 7903 NONAME
	_ZNK11QTextEngine7atSpaceEi @ 7904 NONAME
	_ZNK11QTextEngine7itemizeEv @ 7905 NONAME
	_ZNK11QTextEngine8findItemEi @ 7906 NONAME
	_ZNK11QTextEngine8validateEv @ 7907 NONAME
	_ZNK11QTextEngine9shapeTextEi @ 7908 NONAME
	_ZNK11QTextEngine9splitItemEii @ 7909 NONAME
	_ZNK11QTextFormat10propertiesEv @ 7910 NONAME
	_ZNK11QTextFormat11hasPropertyEi @ 7911 NONAME
	_ZNK11QTextFormat11intPropertyEi @ 7912 NONAME
	_ZNK11QTextFormat11objectIndexEv @ 7913 NONAME
	_ZNK11QTextFormat11penPropertyEi @ 7914 NONAME
	_ZNK11QTextFormat12boolPropertyEi @ 7915 NONAME
	_ZNK11QTextFormat12toCharFormatEv @ 7916 NONAME
	_ZNK11QTextFormat12toListFormatEv @ 7917 NONAME
	_ZNK11QTextFormat13brushPropertyEi @ 7918 NONAME
	_ZNK11QTextFormat13colorPropertyEi @ 7919 NONAME
	_ZNK11QTextFormat13propertyCountEv @ 7920 NONAME
	_ZNK11QTextFormat13toBlockFormatEv @ 7921 NONAME
	_ZNK11QTextFormat13toFrameFormatEv @ 7922 NONAME
	_ZNK11QTextFormat13toImageFormatEv @ 7923 NONAME
	_ZNK11QTextFormat13toTableFormatEv @ 7924 NONAME
	_ZNK11QTextFormat14doublePropertyEi @ 7925 NONAME
	_ZNK11QTextFormat14lengthPropertyEi @ 7926 NONAME
	_ZNK11QTextFormat14stringPropertyEi @ 7927 NONAME
	_ZNK11QTextFormat17toTableCellFormatEv @ 7928 NONAME
	_ZNK11QTextFormat20lengthVectorPropertyEi @ 7929 NONAME
	_ZNK11QTextFormat4typeEv @ 7930 NONAME
	_ZNK11QTextFormat8propertyEi @ 7931 NONAME
	_ZNK11QTextFormatcv8QVariantEv @ 7932 NONAME
	_ZNK11QTextFormateqERKS_ @ 7933 NONAME
	_ZNK11QTextLayout10drawCursorEP8QPainterRK7QPointFi @ 7934 NONAME
	_ZNK11QTextLayout10drawCursorEP8QPainterRK7QPointFii @ 7935 NONAME
	_ZNK11QTextLayout10textOptionEv @ 7936 NONAME
	_ZNK11QTextLayout12boundingRectEv @ 7937 NONAME
	_ZNK11QTextLayout12cacheEnabledEv @ 7938 NONAME
	_ZNK11QTextLayout12maximumWidthEv @ 7939 NONAME
	_ZNK11QTextLayout12minimumWidthEv @ 7940 NONAME
	_ZNK11QTextLayout15preeditAreaTextEv @ 7941 NONAME
	_ZNK11QTextLayout17additionalFormatsEv @ 7942 NONAME
	_ZNK11QTextLayout18nextCursorPositionEiNS_10CursorModeE @ 7943 NONAME
	_ZNK11QTextLayout19lineForTextPositionEi @ 7944 NONAME
	_ZNK11QTextLayout19preeditAreaPositionEv @ 7945 NONAME
	_ZNK11QTextLayout21isValidCursorPositionEi @ 7946 NONAME
	_ZNK11QTextLayout22previousCursorPositionEiNS_10CursorModeE @ 7947 NONAME
	_ZNK11QTextLayout4drawEP8QPainterRK7QPointFRK7QVectorINS_11FormatRangeEERK6QRectF @ 7948 NONAME
	_ZNK11QTextLayout4fontEv @ 7949 NONAME
	_ZNK11QTextLayout4textEv @ 7950 NONAME
	_ZNK11QTextLayout6lineAtEi @ 7951 NONAME
	_ZNK11QTextLayout8positionEv @ 7952 NONAME
	_ZNK11QTextLayout9lineCountEv @ 7953 NONAME
	_ZNK11QTextLengthcv8QVariantEv @ 7954 NONAME
	_ZNK11QTextObject10metaObjectEv @ 7955 NONAME
	_ZNK11QTextObject11formatIndexEv @ 7956 NONAME
	_ZNK11QTextObject11objectIndexEv @ 7957 NONAME
	_ZNK11QTextObject6formatEv @ 7958 NONAME
	_ZNK11QTextObject8documentEv @ 7959 NONAME
	_ZNK11QTextObject9docHandleEv @ 7960 NONAME
	_ZNK11QTextOption4tabsEv @ 7961 NONAME
	_ZNK11QTextOption8tabArrayEv @ 7962 NONAME
	_ZNK11QToolButton10metaObjectEv @ 7963 NONAME
	_ZNK11QToolButton13defaultActionEv @ 7964 NONAME
	_ZNK11QToolButton15initStyleOptionEP22QStyleOptionToolButton @ 7965 NONAME
	_ZNK11QToolButton15minimumSizeHintEv @ 7966 NONAME
	_ZNK11QToolButton15toolButtonStyleEv @ 7967 NONAME
	_ZNK11QToolButton4menuEv @ 7968 NONAME
	_ZNK11QToolButton8sizeHintEv @ 7969 NONAME
	_ZNK11QToolButton9arrowTypeEv @ 7970 NONAME
	_ZNK11QToolButton9autoRaiseEv @ 7971 NONAME
	_ZNK11QToolButton9hitButtonERK6QPoint @ 7972 NONAME
	_ZNK11QToolButton9popupModeEv @ 7973 NONAME
	_ZNK11QTouchEvent10TouchPoint10screenRectEv @ 7974 NONAME
	_ZNK11QTouchEvent10TouchPoint12lastScenePosEv @ 7975 NONAME
	_ZNK11QTouchEvent10TouchPoint13lastScreenPosEv @ 7976 NONAME
	_ZNK11QTouchEvent10TouchPoint13normalizedPosEv @ 7977 NONAME
	_ZNK11QTouchEvent10TouchPoint13startScenePosEv @ 7978 NONAME
	_ZNK11QTouchEvent10TouchPoint14startScreenPosEv @ 7979 NONAME
	_ZNK11QTouchEvent10TouchPoint17lastNormalizedPosEv @ 7980 NONAME
	_ZNK11QTouchEvent10TouchPoint18startNormalizedPosEv @ 7981 NONAME
	_ZNK11QTouchEvent10TouchPoint2idEv @ 7982 NONAME
	_ZNK11QTouchEvent10TouchPoint3posEv @ 7983 NONAME
	_ZNK11QTouchEvent10TouchPoint4rectEv @ 7984 NONAME
	_ZNK11QTouchEvent10TouchPoint5stateEv @ 7985 NONAME
	_ZNK11QTouchEvent10TouchPoint7lastPosEv @ 7986 NONAME
	_ZNK11QTouchEvent10TouchPoint8pressureEv @ 7987 NONAME
	_ZNK11QTouchEvent10TouchPoint8scenePosEv @ 7988 NONAME
	_ZNK11QTouchEvent10TouchPoint8startPosEv @ 7989 NONAME
	_ZNK11QTouchEvent10TouchPoint9isPrimaryEv @ 7990 NONAME
	_ZNK11QTouchEvent10TouchPoint9sceneRectEv @ 7991 NONAME
	_ZNK11QTouchEvent10TouchPoint9screenPosEv @ 7992 NONAME
	_ZNK11QTreeWidget10headerItemEv @ 7993 NONAME
	_ZNK11QTreeWidget10itemWidgetEP15QTreeWidgetItemi @ 7994 NONAME
	_ZNK11QTreeWidget10metaObjectEv @ 7995 NONAME
	_ZNK11QTreeWidget10sortColumnEv @ 7996 NONAME
	_ZNK11QTreeWidget11columnCountEv @ 7997 NONAME
	_ZNK11QTreeWidget11currentItemEv @ 7998 NONAME
	_ZNK11QTreeWidget12isItemHiddenEPK15QTreeWidgetItem @ 7999 NONAME
	_ZNK11QTreeWidget12topLevelItemEi @ 8000 NONAME
	_ZNK11QTreeWidget13currentColumnEv @ 8001 NONAME
	_ZNK11QTreeWidget13indexFromItemEP15QTreeWidgetItemi @ 8002 NONAME
	_ZNK11QTreeWidget13itemFromIndexERK11QModelIndex @ 8003 NONAME
	_ZNK11QTreeWidget13selectedItemsEv @ 8004 NONAME
	_ZNK11QTreeWidget14isItemExpandedEPK15QTreeWidgetItem @ 8005 NONAME
	_ZNK11QTreeWidget14isItemSelectedEPK15QTreeWidgetItem @ 8006 NONAME
	_ZNK11QTreeWidget14visualItemRectEPK15QTreeWidgetItem @ 8007 NONAME
	_ZNK11QTreeWidget16isSortingEnabledEv @ 8008 NONAME
	_ZNK11QTreeWidget17invisibleRootItemEv @ 8009 NONAME
	_ZNK11QTreeWidget17topLevelItemCountEv @ 8010 NONAME
	_ZNK11QTreeWidget19indexOfTopLevelItemEP15QTreeWidgetItem @ 8011 NONAME
	_ZNK11QTreeWidget20supportedDropActionsEv @ 8012 NONAME
	_ZNK11QTreeWidget24isFirstItemColumnSpannedEPK15QTreeWidgetItem @ 8013 NONAME
	_ZNK11QTreeWidget5itemsEPK9QMimeData @ 8014 NONAME
	_ZNK11QTreeWidget6itemAtERK6QPoint @ 8015 NONAME
	_ZNK11QTreeWidget8mimeDataE5QListIP15QTreeWidgetItemE @ 8016 NONAME
	_ZNK11QTreeWidget9findItemsERK7QString6QFlagsIN2Qt9MatchFlagEEi @ 8017 NONAME
	_ZNK11QTreeWidget9itemAboveEPK15QTreeWidgetItem @ 8018 NONAME
	_ZNK11QTreeWidget9itemBelowEPK15QTreeWidgetItem @ 8019 NONAME
	_ZNK11QTreeWidget9mimeTypesEv @ 8020 NONAME
	_ZNK11QVBoxLayout10metaObjectEv @ 8021 NONAME
	_ZNK11QVectorPath16controlPointRectEv @ 8022 NONAME
	_ZNK11QWidgetItem11maximumSizeEv @ 8023 NONAME
	_ZNK11QWidgetItem11minimumSizeEv @ 8024 NONAME
	_ZNK11QWidgetItem14heightForWidthEi @ 8025 NONAME
	_ZNK11QWidgetItem17hasHeightForWidthEv @ 8026 NONAME
	_ZNK11QWidgetItem19expandingDirectionsEv @ 8027 NONAME
	_ZNK11QWidgetItem7isEmptyEv @ 8028 NONAME
	_ZNK11QWidgetItem8geometryEv @ 8029 NONAME
	_ZNK11QWidgetItem8sizeHintEv @ 8030 NONAME
	_ZNK11QWizardPage10buttonTextEN7QWizard12WizardButtonE @ 8031 NONAME
	_ZNK11QWizardPage10isCompleteEv @ 8032 NONAME
	_ZNK11QWizardPage10metaObjectEv @ 8033 NONAME
	_ZNK11QWizardPage11isFinalPageEv @ 8034 NONAME
	_ZNK11QWizardPage12isCommitPageEv @ 8035 NONAME
	_ZNK11QWizardPage5fieldERK7QString @ 8036 NONAME
	_ZNK11QWizardPage5titleEv @ 8037 NONAME
	_ZNK11QWizardPage6nextIdEv @ 8038 NONAME
	_ZNK11QWizardPage6pixmapEN7QWizard12WizardPixmapE @ 8039 NONAME
	_ZNK11QWizardPage6wizardEv @ 8040 NONAME
	_ZNK11QWizardPage8subTitleEv @ 8041 NONAME
	_ZNK12QActionGroup10metaObjectEv @ 8042 NONAME
	_ZNK12QActionGroup11isExclusiveEv @ 8043 NONAME
	_ZNK12QActionGroup13checkedActionEv @ 8044 NONAME
	_ZNK12QActionGroup7actionsEv @ 8045 NONAME
	_ZNK12QActionGroup9isEnabledEv @ 8046 NONAME
	_ZNK12QActionGroup9isVisibleEv @ 8047 NONAME
	_ZNK12QApplication10metaObjectEv @ 8048 NONAME
	_ZNK12QApplication10sessionKeyEv @ 8049 NONAME
	_ZNK12QApplication10styleSheetEv @ 8050 NONAME
	_ZNK12QApplication12inputContextEv @ 8051 NONAME
	_ZNK12QApplication14autoSipEnabledEv @ 8052 NONAME
	_ZNK12QApplication17isSessionRestoredEv @ 8053 NONAME
	_ZNK12QApplication9sessionIdEv @ 8054 NONAME
	_ZNK12QButtonGroup10metaObjectEv @ 8055 NONAME
	_ZNK12QButtonGroup13checkedButtonEv @ 8056 NONAME
	_ZNK12QButtonGroup2idEP15QAbstractButton @ 8057 NONAME
	_ZNK12QButtonGroup6buttonEi @ 8058 NONAME
	_ZNK12QButtonGroup7buttonsEv @ 8059 NONAME
	_ZNK12QButtonGroup9checkedIdEv @ 8060 NONAME
	_ZNK12QButtonGroup9exclusiveEv @ 8061 NONAME
	_ZNK12QColorDialog10metaObjectEv @ 8062 NONAME
	_ZNK12QColorDialog10testOptionENS_17ColorDialogOptionE @ 8063 NONAME
	_ZNK12QColorDialog12currentColorEv @ 8064 NONAME
	_ZNK12QColorDialog13selectedColorEv @ 8065 NONAME
	_ZNK12QColorDialog7optionsEv @ 8066 NONAME
	_ZNK12QCommonStyle10metaObjectEv @ 8067 NONAME
	_ZNK12QCommonStyle11drawControlEN6QStyle14ControlElementEPK12QStyleOptionP8QPainterPK7QWidget @ 8068 NONAME
	_ZNK12QCommonStyle11pixelMetricEN6QStyle11PixelMetricEPK12QStyleOptionPK7QWidget @ 8069 NONAME
	_ZNK12QCommonStyle13drawPrimitiveEN6QStyle16PrimitiveElementEPK12QStyleOptionP8QPainterPK7QWidget @ 8070 NONAME
	_ZNK12QCommonStyle14standardPixmapEN6QStyle14StandardPixmapEPK12QStyleOptionPK7QWidget @ 8071 NONAME
	_ZNK12QCommonStyle14subControlRectEN6QStyle14ComplexControlEPK19QStyleOptionComplexNS0_10SubControlEPK7QWidget @ 8072 NONAME
	_ZNK12QCommonStyle14subElementRectEN6QStyle10SubElementEPK12QStyleOptionPK7QWidget @ 8073 NONAME
	_ZNK12QCommonStyle16sizeFromContentsEN6QStyle12ContentsTypeEPK12QStyleOptionRK5QSizePK7QWidget @ 8074 NONAME
	_ZNK12QCommonStyle18drawComplexControlEN6QStyle14ComplexControlEPK19QStyleOptionComplexP8QPainterPK7QWidget @ 8075 NONAME
	_ZNK12QCommonStyle19generatedIconPixmapEN5QIcon4ModeERK7QPixmapPK12QStyleOption @ 8076 NONAME
	_ZNK12QCommonStyle21hitTestComplexControlEN6QStyle14ComplexControlEPK19QStyleOptionComplexRK6QPointPK7QWidget @ 8077 NONAME
	_ZNK12QCommonStyle26standardIconImplementationEN6QStyle14StandardPixmapEPK12QStyleOptionPK7QWidget @ 8078 NONAME
	_ZNK12QCommonStyle9styleHintEN6QStyle9StyleHintEPK12QStyleOptionPK7QWidgetP16QStyleHintReturn @ 8079 NONAME
	_ZNK12QFontMetrics10elidedTextERK7QStringN2Qt13TextElideModeEii @ 8080 NONAME
	_ZNK12QFontMetrics11leftBearingE5QChar @ 8081 NONAME
	_ZNK12QFontMetrics11lineSpacingEv @ 8082 NONAME
	_ZNK12QFontMetrics11overlinePosEv @ 8083 NONAME
	_ZNK12QFontMetrics12boundingRectE5QChar @ 8084 NONAME
	_ZNK12QFontMetrics12boundingRectERK5QRectiRK7QStringiPi @ 8085 NONAME
	_ZNK12QFontMetrics12boundingRectERK7QString @ 8086 NONAME
	_ZNK12QFontMetrics12rightBearingE5QChar @ 8087 NONAME
	_ZNK12QFontMetrics12strikeOutPosEv @ 8088 NONAME
	_ZNK12QFontMetrics12underlinePosEv @ 8089 NONAME
	_ZNK12QFontMetrics14minLeftBearingEv @ 8090 NONAME
	_ZNK12QFontMetrics15minRightBearingEv @ 8091 NONAME
	_ZNK12QFontMetrics16averageCharWidthEv @ 8092 NONAME
	_ZNK12QFontMetrics17tightBoundingRectERK7QString @ 8093 NONAME
	_ZNK12QFontMetrics4sizeEiRK7QStringiPi @ 8094 NONAME
	_ZNK12QFontMetrics5widthE5QChar @ 8095 NONAME
	_ZNK12QFontMetrics5widthERK7QStringi @ 8096 NONAME
	_ZNK12QFontMetrics6ascentEv @ 8097 NONAME
	_ZNK12QFontMetrics6heightEv @ 8098 NONAME
	_ZNK12QFontMetrics6inFontE5QChar @ 8099 NONAME
	_ZNK12QFontMetrics7descentEv @ 8100 NONAME
	_ZNK12QFontMetrics7leadingEv @ 8101 NONAME
	_ZNK12QFontMetrics7xHeightEv @ 8102 NONAME
	_ZNK12QFontMetrics8maxWidthEv @ 8103 NONAME
	_ZNK12QFontMetrics9charWidthERK7QStringi @ 8104 NONAME
	_ZNK12QFontMetrics9lineWidthEv @ 8105 NONAME
	_ZNK12QFontMetricseqERKS_ @ 8106 NONAME
	_ZNK12QFontPrivate15engineForScriptEi @ 8107 NONAME
	_ZNK12QFontPrivate20smallCapsFontPrivateEv @ 8108 NONAME
	_ZNK12QFontPrivate26alterCharForCapitalizationER5QChar @ 8109 NONAME
	_ZNK12QImageReader10imageCountEv @ 8110 NONAME
	_ZNK12QImageReader10scaledSizeEv @ 8111 NONAME
	_ZNK12QImageReader11errorStringEv @ 8112 NONAME
	_ZNK12QImageReader11imageFormatEv @ 8113 NONAME
	_ZNK12QImageReader14nextImageDelayEv @ 8114 NONAME
	_ZNK12QImageReader14scaledClipRectEv @ 8115 NONAME
	_ZNK12QImageReader14supportsOptionEN15QImageIOHandler11ImageOptionE @ 8116 NONAME
	_ZNK12QImageReader15backgroundColorEv @ 8117 NONAME
	_ZNK12QImageReader16currentImageRectEv @ 8118 NONAME
	_ZNK12QImageReader17supportsAnimationEv @ 8119 NONAME
	_ZNK12QImageReader18currentImageNumberEv @ 8120 NONAME
	_ZNK12QImageReader21autoDetectImageFormatEv @ 8121 NONAME
	_ZNK12QImageReader23decideFormatFromContentEv @ 8122 NONAME
	_ZNK12QImageReader4sizeEv @ 8123 NONAME
	_ZNK12QImageReader4textERK7QString @ 8124 NONAME
	_ZNK12QImageReader5errorEv @ 8125 NONAME
	_ZNK12QImageReader6deviceEv @ 8126 NONAME
	_ZNK12QImageReader6formatEv @ 8127 NONAME
	_ZNK12QImageReader7canReadEv @ 8128 NONAME
	_ZNK12QImageReader7qualityEv @ 8129 NONAME
	_ZNK12QImageReader8clipRectEv @ 8130 NONAME
	_ZNK12QImageReader8fileNameEv @ 8131 NONAME
	_ZNK12QImageReader8textKeysEv @ 8132 NONAME
	_ZNK12QImageReader9loopCountEv @ 8133 NONAME
	_ZNK12QImageWriter11compressionEv @ 8134 NONAME
	_ZNK12QImageWriter11descriptionEv @ 8135 NONAME
	_ZNK12QImageWriter11errorStringEv @ 8136 NONAME
	_ZNK12QImageWriter14supportsOptionEN15QImageIOHandler11ImageOptionE @ 8137 NONAME
	_ZNK12QImageWriter5errorEv @ 8138 NONAME
	_ZNK12QImageWriter5gammaEv @ 8139 NONAME
	_ZNK12QImageWriter6deviceEv @ 8140 NONAME
	_ZNK12QImageWriter6formatEv @ 8141 NONAME
	_ZNK12QImageWriter7qualityEv @ 8142 NONAME
	_ZNK12QImageWriter8canWriteEv @ 8143 NONAME
	_ZNK12QImageWriter8fileNameEv @ 8144 NONAME
	_ZNK12QInputDialog10intMaximumEv @ 8145 NONAME
	_ZNK12QInputDialog10intMinimumEv @ 8146 NONAME
	_ZNK12QInputDialog10metaObjectEv @ 8147 NONAME
	_ZNK12QInputDialog10testOptionENS_17InputDialogOptionE @ 8148 NONAME
	_ZNK12QInputDialog11doubleValueEv @ 8149 NONAME
	_ZNK12QInputDialog12okButtonTextEv @ 8150 NONAME
	_ZNK12QInputDialog12textEchoModeEv @ 8151 NONAME
	_ZNK12QInputDialog13comboBoxItemsEv @ 8152 NONAME
	_ZNK12QInputDialog13doubleMaximumEv @ 8153 NONAME
	_ZNK12QInputDialog13doubleMinimumEv @ 8154 NONAME
	_ZNK12QInputDialog14doubleDecimalsEv @ 8155 NONAME
	_ZNK12QInputDialog15minimumSizeHintEv @ 8156 NONAME
	_ZNK12QInputDialog16cancelButtonTextEv @ 8157 NONAME
	_ZNK12QInputDialog18isComboBoxEditableEv @ 8158 NONAME
	_ZNK12QInputDialog7intStepEv @ 8159 NONAME
	_ZNK12QInputDialog7optionsEv @ 8160 NONAME
	_ZNK12QInputDialog8intValueEv @ 8161 NONAME
	_ZNK12QInputDialog8sizeHintEv @ 8162 NONAME
	_ZNK12QInputDialog9inputModeEv @ 8163 NONAME
	_ZNK12QInputDialog9labelTextEv @ 8164 NONAME
	_ZNK12QInputDialog9textValueEv @ 8165 NONAME
	_ZNK12QKeySequence10isDetachedEv @ 8166 NONAME
	_ZNK12QKeySequence5countEv @ 8167 NONAME
	_ZNK12QKeySequence7isEmptyEv @ 8168 NONAME
	_ZNK12QKeySequence7matchesERKS_ @ 8169 NONAME
	_ZNK12QKeySequence8toStringENS_14SequenceFormatE @ 8170 NONAME
	_ZNK12QKeySequencecv7QStringEv @ 8171 NONAME
	_ZNK12QKeySequencecv8QVariantEv @ 8172 NONAME
	_ZNK12QKeySequencecviEv @ 8173 NONAME
	_ZNK12QKeySequenceeqERKS_ @ 8174 NONAME
	_ZNK12QKeySequenceixEj @ 8175 NONAME
	_ZNK12QKeySequenceltERKS_ @ 8176 NONAME
	_ZNK12QLineControl10cursorRectEv @ 8177 NONAME
	_ZNK12QLineControl10findInMaskEibb5QChar @ 8178 NONAME
	_ZNK12QLineControl10maskStringEjRK7QStringb @ 8179 NONAME
	_ZNK12QLineControl10metaObjectEv @ 8180 NONAME
	_ZNK12QLineControl11clearStringEjj @ 8181 NONAME
	_ZNK12QLineControl11stripStringERK7QString @ 8182 NONAME
	_ZNK12QLineControl12isValidInputE5QCharS0_ @ 8183 NONAME
	_ZNK12QLineControl18hasAcceptableInputERK7QString @ 8184 NONAME
	_ZNK12QLineControl4copyEN10QClipboard4ModeE @ 8185 NONAME
	_ZNK12QLineControl6xToPosEiN9QTextLine14CursorPositionE @ 8186 NONAME
	_ZNK12QPaintBuffer11paintEngineEv @ 8187 NONAME
	_ZNK12QPaintBuffer12boundingRectEv @ 8188 NONAME
	_ZNK12QPaintBuffer4drawEP8QPainteri @ 8189 NONAME
	_ZNK12QPaintBuffer6metricEN12QPaintDevice17PaintDeviceMetricE @ 8190 NONAME
	_ZNK12QPaintBuffer7devTypeEv @ 8191 NONAME
	_ZNK12QPaintBuffer7isEmptyEv @ 8192 NONAME
	_ZNK12QPaintBuffer9numFramesEv @ 8193 NONAME
	_ZNK12QPaintDevice6metricENS_17PaintDeviceMetricE @ 8194 NONAME
	_ZNK12QPaintEngine10systemClipEv @ 8195 NONAME
	_ZNK12QPaintEngine10systemRectEv @ 8196 NONAME
	_ZNK12QPaintEngine11paintDeviceEv @ 8197 NONAME
	_ZNK12QPaintEngine16coordinateOffsetEv @ 8198 NONAME
	_ZNK12QPaintEngine7painterEv @ 8199 NONAME
	_ZNK12QPainterPath10intersectsERK6QRectF @ 8200 NONAME
	_ZNK12QPainterPath10intersectsERKS_ @ 8201 NONAME
	_ZNK12QPainterPath10simplifiedEv @ 8202 NONAME
	_ZNK12QPainterPath10subtractedERKS_ @ 8203 NONAME
	_ZNK12QPainterPath10toReversedEv @ 8204 NONAME
	_ZNK12QPainterPath10translatedEff @ 8205 NONAME
	_ZNK12QPainterPath11intersectedERKS_ @ 8206 NONAME
	_ZNK12QPainterPath12boundingRectEv @ 8207 NONAME
	_ZNK12QPainterPath13toFillPolygonERK10QTransform @ 8208 NONAME
	_ZNK12QPainterPath13toFillPolygonERK7QMatrix @ 8209 NONAME
	_ZNK12QPainterPath14angleAtPercentEf @ 8210 NONAME
	_ZNK12QPainterPath14pointAtPercentEf @ 8211 NONAME
	_ZNK12QPainterPath14slopeAtPercentEf @ 8212 NONAME
	_ZNK12QPainterPath14toFillPolygonsERK10QTransform @ 8213 NONAME
	_ZNK12QPainterPath14toFillPolygonsERK7QMatrix @ 8214 NONAME
	_ZNK12QPainterPath15currentPositionEv @ 8215 NONAME
	_ZNK12QPainterPath15percentAtLengthEf @ 8216 NONAME
	_ZNK12QPainterPath16controlPointRectEv @ 8217 NONAME
	_ZNK12QPainterPath17toSubpathPolygonsERK10QTransform @ 8218 NONAME
	_ZNK12QPainterPath17toSubpathPolygonsERK7QMatrix @ 8219 NONAME
	_ZNK12QPainterPath18subtractedInvertedERKS_ @ 8220 NONAME
	_ZNK12QPainterPath19computeBoundingRectEv @ 8221 NONAME
	_ZNK12QPainterPath23computeControlPointRectEv @ 8222 NONAME
	_ZNK12QPainterPath6lengthEv @ 8223 NONAME
	_ZNK12QPainterPath6unitedERKS_ @ 8224 NONAME
	_ZNK12QPainterPath8containsERK6QRectF @ 8225 NONAME
	_ZNK12QPainterPath8containsERK7QPointF @ 8226 NONAME
	_ZNK12QPainterPath8containsERKS_ @ 8227 NONAME
	_ZNK12QPainterPath8fillRuleEv @ 8228 NONAME
	_ZNK12QPainterPathanERKS_ @ 8229 NONAME
	_ZNK12QPainterPatheqERKS_ @ 8230 NONAME
	_ZNK12QPainterPathmiERKS_ @ 8231 NONAME
	_ZNK12QPainterPathneERKS_ @ 8232 NONAME
	_ZNK12QPainterPathorERKS_ @ 8233 NONAME
	_ZNK12QPainterPathplERKS_ @ 8234 NONAME
	_ZNK12QPixmapCache3KeyeqERKS0_ @ 8235 NONAME
	_ZNK12QProgressBar10metaObjectEv @ 8236 NONAME
	_ZNK12QProgressBar11orientationEv @ 8237 NONAME
	_ZNK12QProgressBar13isTextVisibleEv @ 8238 NONAME
	_ZNK12QProgressBar15initStyleOptionEP23QStyleOptionProgressBar @ 8239 NONAME
	_ZNK12QProgressBar15minimumSizeHintEv @ 8240 NONAME
	_ZNK12QProgressBar4textEv @ 8241 NONAME
	_ZNK12QProgressBar5valueEv @ 8242 NONAME
	_ZNK12QProgressBar6formatEv @ 8243 NONAME
	_ZNK12QProgressBar7maximumEv @ 8244 NONAME
	_ZNK12QProgressBar7minimumEv @ 8245 NONAME
	_ZNK12QProgressBar8sizeHintEv @ 8246 NONAME
	_ZNK12QProgressBar9alignmentEv @ 8247 NONAME
	_ZNK12QRadioButton10metaObjectEv @ 8248 NONAME
	_ZNK12QRadioButton15initStyleOptionEP18QStyleOptionButton @ 8249 NONAME
	_ZNK12QRadioButton8sizeHintEv @ 8250 NONAME
	_ZNK12QRadioButton9hitButtonERK6QPoint @ 8251 NONAME
	_ZNK12QStylePlugin10metaObjectEv @ 8252 NONAME
	_ZNK12QTableWidget10cellWidgetEii @ 8253 NONAME
	_ZNK12QTableWidget10currentRowEv @ 8254 NONAME
	_ZNK12QTableWidget10metaObjectEv @ 8255 NONAME
	_ZNK12QTableWidget11columnCountEv @ 8256 NONAME
	_ZNK12QTableWidget11currentItemEv @ 8257 NONAME
	_ZNK12QTableWidget12visualColumnEi @ 8258 NONAME
	_ZNK12QTableWidget13currentColumnEv @ 8259 NONAME
	_ZNK12QTableWidget13indexFromItemEP16QTableWidgetItem @ 8260 NONAME
	_ZNK12QTableWidget13itemFromIndexERK11QModelIndex @ 8261 NONAME
	_ZNK12QTableWidget13itemPrototypeEv @ 8262 NONAME
	_ZNK12QTableWidget14isItemSelectedEPK16QTableWidgetItem @ 8263 NONAME
	_ZNK12QTableWidget14selectedRangesEv @ 8264 NONAME
	_ZNK12QTableWidget14visualItemRectEPK16QTableWidgetItem @ 8265 NONAME
	_ZNK12QTableWidget16isSortingEnabledEv @ 8266 NONAME
	_ZNK12QTableWidget18verticalHeaderItemEi @ 8267 NONAME
	_ZNK12QTableWidget20horizontalHeaderItemEi @ 8268 NONAME
	_ZNK12QTableWidget20supportedDropActionsEv @ 8269 NONAME
	_ZNK12QTableWidget3rowEPK16QTableWidgetItem @ 8270 NONAME
	_ZNK12QTableWidget4itemEii @ 8271 NONAME
	_ZNK12QTableWidget5itemsEPK9QMimeData @ 8272 NONAME
	_ZNK12QTableWidget6columnEPK16QTableWidgetItem @ 8273 NONAME
	_ZNK12QTableWidget6itemAtERK6QPoint @ 8274 NONAME
	_ZNK12QTableWidget8mimeDataE5QListIP16QTableWidgetItemE @ 8275 NONAME
	_ZNK12QTableWidget8rowCountEv @ 8276 NONAME
	_ZNK12QTableWidget9findItemsERK7QString6QFlagsIN2Qt9MatchFlagEE @ 8277 NONAME
	_ZNK12QTableWidget9mimeTypesEv @ 8278 NONAME
	_ZNK12QTableWidget9visualRowEi @ 8279 NONAME
	_ZNK12QTextBrowser10historyUrlEi @ 8280 NONAME
	_ZNK12QTextBrowser10metaObjectEv @ 8281 NONAME
	_ZNK12QTextBrowser11searchPathsEv @ 8282 NONAME
	_ZNK12QTextBrowser12historyTitleEi @ 8283 NONAME
	_ZNK12QTextBrowser17openExternalLinksEv @ 8284 NONAME
	_ZNK12QTextBrowser18isForwardAvailableEv @ 8285 NONAME
	_ZNK12QTextBrowser19forwardHistoryCountEv @ 8286 NONAME
	_ZNK12QTextBrowser19isBackwardAvailableEv @ 8287 NONAME
	_ZNK12QTextBrowser20backwardHistoryCountEv @ 8288 NONAME
	_ZNK12QTextBrowser6sourceEv @ 8289 NONAME
	_ZNK12QTextBrowser9openLinksEv @ 8290 NONAME
	_ZNK12QTextControl10cursorRectERK11QTextCursor @ 8291 NONAME
	_ZNK12QTextControl10cursorRectEv @ 8292 NONAME
	_ZNK12QTextControl10metaObjectEv @ 8293 NONAME
	_ZNK12QTextControl10textCursorEv @ 8294 NONAME
	_ZNK12QTextControl11cursorWidthEv @ 8295 NONAME
	_ZNK12QTextControl13overwriteModeEv @ 8296 NONAME
	_ZNK12QTextControl13selectionRectERK11QTextCursor @ 8297 NONAME
	_ZNK12QTextControl13selectionRectEv @ 8298 NONAME
	_ZNK12QTextControl14acceptRichTextEv @ 8299 NONAME
	_ZNK12QTextControl14anchorAtCursorEv @ 8300 NONAME
	_ZNK12QTextControl14anchorPositionERK7QString @ 8301 NONAME
	_ZNK12QTextControl15extraSelectionsEv @ 8302 NONAME
	_ZNK12QTextControl15getPaintContextEP7QWidget @ 8303 NONAME
	_ZNK12QTextControl16inputMethodQueryEN2Qt16InputMethodQueryE @ 8304 NONAME
	_ZNK12QTextControl17blockBoundingRectERK10QTextBlock @ 8305 NONAME
	_ZNK12QTextControl17currentCharFormatEv @ 8306 NONAME
	_ZNK12QTextControl17cursorForPositionERK7QPointF @ 8307 NONAME
	_ZNK12QTextControl17openExternalLinksEv @ 8308 NONAME
	_ZNK12QTextControl20textInteractionFlagsEv @ 8309 NONAME
	_ZNK12QTextControl21canInsertFromMimeDataEPK9QMimeData @ 8310 NONAME
	_ZNK12QTextControl22cursorIsFocusIndicatorEv @ 8311 NONAME
	_ZNK12QTextControl27createMimeDataFromSelectionEv @ 8312 NONAME
	_ZNK12QTextControl4sizeEv @ 8313 NONAME
	_ZNK12QTextControl7hitTestERK7QPointFN2Qt15HitTestAccuracyE @ 8314 NONAME
	_ZNK12QTextControl7paletteEv @ 8315 NONAME
	_ZNK12QTextControl8anchorAtERK7QPointF @ 8316 NONAME
	_ZNK12QTextControl8canPasteEv @ 8317 NONAME
	_ZNK12QTextControl8documentEv @ 8318 NONAME
	_ZNK12QTextControl9textWidthEv @ 8319 NONAME
	_ZNK12QUndoCommand10childCountEv @ 8320 NONAME
	_ZNK12QUndoCommand2idEv @ 8321 NONAME
	_ZNK12QUndoCommand4textEv @ 8322 NONAME
	_ZNK12QUndoCommand5childEi @ 8323 NONAME
	_ZNK13QDateTimeEdit10metaObjectEv @ 8324 NONAME
	_ZNK13QDateTimeEdit11maximumDateEv @ 8325 NONAME
	_ZNK13QDateTimeEdit11maximumTimeEv @ 8326 NONAME
	_ZNK13QDateTimeEdit11minimumDateEv @ 8327 NONAME
	_ZNK13QDateTimeEdit11minimumTimeEv @ 8328 NONAME
	_ZNK13QDateTimeEdit11sectionTextENS_7SectionE @ 8329 NONAME
	_ZNK13QDateTimeEdit11stepEnabledEv @ 8330 NONAME
	_ZNK13QDateTimeEdit12sectionCountEv @ 8331 NONAME
	_ZNK13QDateTimeEdit13calendarPopupEv @ 8332 NONAME
	_ZNK13QDateTimeEdit13displayFormatEv @ 8333 NONAME
	_ZNK13QDateTimeEdit14calendarWidgetEv @ 8334 NONAME
	_ZNK13QDateTimeEdit14currentSectionEv @ 8335 NONAME
	_ZNK13QDateTimeEdit15initStyleOptionEP19QStyleOptionSpinBox @ 8336 NONAME
	_ZNK13QDateTimeEdit15maximumDateTimeEv @ 8337 NONAME
	_ZNK13QDateTimeEdit15minimumDateTimeEv @ 8338 NONAME
	_ZNK13QDateTimeEdit16dateTimeFromTextERK7QString @ 8339 NONAME
	_ZNK13QDateTimeEdit16textFromDateTimeERK9QDateTime @ 8340 NONAME
	_ZNK13QDateTimeEdit17displayedSectionsEv @ 8341 NONAME
	_ZNK13QDateTimeEdit19currentSectionIndexEv @ 8342 NONAME
	_ZNK13QDateTimeEdit4dateEv @ 8343 NONAME
	_ZNK13QDateTimeEdit4timeEv @ 8344 NONAME
	_ZNK13QDateTimeEdit5fixupER7QString @ 8345 NONAME
	_ZNK13QDateTimeEdit8dateTimeEv @ 8346 NONAME
	_ZNK13QDateTimeEdit8sizeHintEv @ 8347 NONAME
	_ZNK13QDateTimeEdit8timeSpecEv @ 8348 NONAME
	_ZNK13QDateTimeEdit8validateER7QStringRi @ 8349 NONAME
	_ZNK13QDateTimeEdit9sectionAtEi @ 8350 NONAME
	_ZNK13QErrorMessage10metaObjectEv @ 8351 NONAME
	_ZNK13QFontComboBox10metaObjectEv @ 8352 NONAME
	_ZNK13QFontComboBox11currentFontEv @ 8353 NONAME
	_ZNK13QFontComboBox11fontFiltersEv @ 8354 NONAME
	_ZNK13QFontComboBox13writingSystemEv @ 8355 NONAME
	_ZNK13QFontComboBox8sizeHintEv @ 8356 NONAME
	_ZNK13QFontDatabase10isScalableERK7QStringS2_ @ 8357 NONAME
	_ZNK13QFontDatabase12isFixedPitchERK7QStringS2_ @ 8358 NONAME
	_ZNK13QFontDatabase14writingSystemsERK7QString @ 8359 NONAME
	_ZNK13QFontDatabase14writingSystemsEv @ 8360 NONAME
	_ZNK13QFontDatabase16isBitmapScalableERK7QStringS2_ @ 8361 NONAME
	_ZNK13QFontDatabase18isSmoothlyScalableERK7QStringS2_ @ 8362 NONAME
	_ZNK13QFontDatabase4boldERK7QStringS2_ @ 8363 NONAME
	_ZNK13QFontDatabase4fontERK7QStringS2_i @ 8364 NONAME
	_ZNK13QFontDatabase6italicERK7QStringS2_ @ 8365 NONAME
	_ZNK13QFontDatabase6stylesERK7QString @ 8366 NONAME
	_ZNK13QFontDatabase6weightERK7QStringS2_ @ 8367 NONAME
	_ZNK13QFontDatabase8familiesENS_13WritingSystemE @ 8368 NONAME
	_ZNK13QFontMetricsF10elidedTextERK7QStringN2Qt13TextElideModeEfi @ 8369 NONAME
	_ZNK13QFontMetricsF11leftBearingE5QChar @ 8370 NONAME
	_ZNK13QFontMetricsF11lineSpacingEv @ 8371 NONAME
	_ZNK13QFontMetricsF11overlinePosEv @ 8372 NONAME
	_ZNK13QFontMetricsF12boundingRectE5QChar @ 8373 NONAME
	_ZNK13QFontMetricsF12boundingRectERK6QRectFiRK7QStringiPi @ 8374 NONAME
	_ZNK13QFontMetricsF12boundingRectERK7QString @ 8375 NONAME
	_ZNK13QFontMetricsF12rightBearingE5QChar @ 8376 NONAME
	_ZNK13QFontMetricsF12strikeOutPosEv @ 8377 NONAME
	_ZNK13QFontMetricsF12underlinePosEv @ 8378 NONAME
	_ZNK13QFontMetricsF14minLeftBearingEv @ 8379 NONAME
	_ZNK13QFontMetricsF15minRightBearingEv @ 8380 NONAME
	_ZNK13QFontMetricsF16averageCharWidthEv @ 8381 NONAME
	_ZNK13QFontMetricsF17tightBoundingRectERK7QString @ 8382 NONAME
	_ZNK13QFontMetricsF4sizeEiRK7QStringiPi @ 8383 NONAME
	_ZNK13QFontMetricsF5widthE5QChar @ 8384 NONAME
	_ZNK13QFontMetricsF5widthERK7QString @ 8385 NONAME
	_ZNK13QFontMetricsF6ascentEv @ 8386 NONAME
	_ZNK13QFontMetricsF6heightEv @ 8387 NONAME
	_ZNK13QFontMetricsF6inFontE5QChar @ 8388 NONAME
	_ZNK13QFontMetricsF7descentEv @ 8389 NONAME
	_ZNK13QFontMetricsF7leadingEv @ 8390 NONAME
	_ZNK13QFontMetricsF7xHeightEv @ 8391 NONAME
	_ZNK13QFontMetricsF8maxWidthEv @ 8392 NONAME
	_ZNK13QFontMetricsF9lineWidthEv @ 8393 NONAME
	_ZNK13QFontMetricsFeqERKS_ @ 8394 NONAME
	_ZNK13QGestureEvent10isAcceptedEP8QGesture @ 8395 NONAME
	_ZNK13QGestureEvent11allGesturesEv @ 8396 NONAME ABSENT
	_ZNK13QGestureEvent14activeGesturesEv @ 8397 NONAME
	_ZNK13QGestureEvent16canceledGesturesEv @ 8398 NONAME
	_ZNK13QGraphicsItem10childItemsEv @ 8399 NONAME
	_ZNK13QGraphicsItem10focusProxyEv @ 8400 NONAME
	_ZNK13QGraphicsItem10isObscuredERK6QRectF @ 8401 NONAME
	_ZNK13QGraphicsItem10isObscuredEv @ 8402 NONAME
	_ZNK13QGraphicsItem10isSelectedEv @ 8403 NONAME
	_ZNK13QGraphicsItem10mapToSceneERK12QPainterPath @ 8404 NONAME
	_ZNK13QGraphicsItem10mapToSceneERK6QRectF @ 8405 NONAME
	_ZNK13QGraphicsItem10mapToSceneERK7QPointF @ 8406 NONAME
	_ZNK13QGraphicsItem10mapToSceneERK9QPolygonF @ 8407 NONAME
	_ZNK13QGraphicsItem10opaqueAreaEv @ 8408 NONAME
	_ZNK13QGraphicsItem10parentItemEv @ 8409 NONAME
	_ZNK13QGraphicsItem11acceptDropsEv @ 8410 NONAME
	_ZNK13QGraphicsItem11isVisibleToEPKS_ @ 8411 NONAME
	_ZNK13QGraphicsItem11mapFromItemEPKS_RK12QPainterPath @ 8412 NONAME
	_ZNK13QGraphicsItem11mapFromItemEPKS_RK6QRectF @ 8413 NONAME
	_ZNK13QGraphicsItem11mapFromItemEPKS_RK7QPointF @ 8414 NONAME
	_ZNK13QGraphicsItem11mapFromItemEPKS_RK9QPolygonF @ 8415 NONAME
	_ZNK13QGraphicsItem11mapToParentERK12QPainterPath @ 8416 NONAME
	_ZNK13QGraphicsItem11mapToParentERK6QRectF @ 8417 NONAME
	_ZNK13QGraphicsItem11mapToParentERK7QPointF @ 8418 NONAME
	_ZNK13QGraphicsItem11mapToParentERK9QPolygonF @ 8419 NONAME
	_ZNK13QGraphicsItem11sceneMatrixEv @ 8420 NONAME
	_ZNK13QGraphicsItem12isAncestorOfEPKS_ @ 8421 NONAME
	_ZNK13QGraphicsItem12isObscuredByEPKS_ @ 8422 NONAME
	_ZNK13QGraphicsItem12isUnderMouseEv @ 8423 NONAME
	_ZNK13QGraphicsItem12mapFromSceneERK12QPainterPath @ 8424 NONAME
	_ZNK13QGraphicsItem12mapFromSceneERK6QRectF @ 8425 NONAME
	_ZNK13QGraphicsItem12mapFromSceneERK7QPointF @ 8426 NONAME
	_ZNK13QGraphicsItem12mapFromSceneERK9QPolygonF @ 8427 NONAME
	_ZNK13QGraphicsItem12parentObjectEv @ 8428 NONAME
	_ZNK13QGraphicsItem12parentWidgetEv @ 8429 NONAME
	_ZNK13QGraphicsItem12topLevelItemEv @ 8430 NONAME
	_ZNK13QGraphicsItem13itemTransformEPKS_Pb @ 8431 NONAME
	_ZNK13QGraphicsItem13mapFromParentERK12QPainterPath @ 8432 NONAME
	_ZNK13QGraphicsItem13mapFromParentERK6QRectF @ 8433 NONAME
	_ZNK13QGraphicsItem13mapFromParentERK7QPointF @ 8434 NONAME
	_ZNK13QGraphicsItem13mapFromParentERK9QPolygonF @ 8435 NONAME
	_ZNK13QGraphicsItem13mapRectToItemEPKS_RK6QRectF @ 8436 NONAME
	_ZNK13QGraphicsItem13panelModalityEv @ 8437 NONAME
	_ZNK13QGraphicsItem14boundingRegionERK10QTransform @ 8438 NONAME
	_ZNK13QGraphicsItem14collidingItemsEN2Qt17ItemSelectionModeE @ 8439 NONAME
	_ZNK13QGraphicsItem14focusScopeItemEv @ 8440 NONAME
	_ZNK13QGraphicsItem14graphicsEffectEv @ 8441 NONAME
	_ZNK13QGraphicsItem14mapRectToSceneERK6QRectF @ 8442 NONAME
	_ZNK13QGraphicsItem14sceneTransformEv @ 8443 NONAME
	_ZNK13QGraphicsItem14topLevelWidgetEv @ 8444 NONAME
	_ZNK13QGraphicsItem15deviceTransformERK10QTransform @ 8445 NONAME
	_ZNK13QGraphicsItem15mapRectFromItemEPKS_RK6QRectF @ 8446 NONAME
	_ZNK13QGraphicsItem15mapRectToParentERK6QRectF @ 8447 NONAME
	_ZNK13QGraphicsItem15transformationsEv @ 8448 NONAME
	_ZNK13QGraphicsItem16collidesWithItemEPKS_N2Qt17ItemSelectionModeE @ 8449 NONAME
	_ZNK13QGraphicsItem16collidesWithPathERK12QPainterPathN2Qt17ItemSelectionModeE @ 8450 NONAME
	_ZNK13QGraphicsItem16effectiveOpacityEv @ 8451 NONAME
	_ZNK13QGraphicsItem16inputMethodHintsEv @ 8452 NONAME
	_ZNK13QGraphicsItem16inputMethodQueryEN2Qt16InputMethodQueryE @ 8453 NONAME
	_ZNK13QGraphicsItem16mapRectFromSceneERK6QRectF @ 8454 NONAME
	_ZNK13QGraphicsItem16toGraphicsObjectEv @ 8455 NONAME
	_ZNK13QGraphicsItem17acceptHoverEventsEv @ 8456 NONAME
	_ZNK13QGraphicsItem17acceptTouchEventsEv @ 8457 NONAME
	_ZNK13QGraphicsItem17mapRectFromParentERK6QRectF @ 8458 NONAME
	_ZNK13QGraphicsItem17sceneBoundingRectEv @ 8459 NONAME
	_ZNK13QGraphicsItem17supportsExtensionENS_9ExtensionE @ 8460 NONAME
	_ZNK13QGraphicsItem18acceptsHoverEventsEv @ 8461 NONAME
	_ZNK13QGraphicsItem18commonAncestorItemEPKS_ @ 8462 NONAME
	_ZNK13QGraphicsItem18filtersChildEventsEv @ 8463 NONAME
	_ZNK13QGraphicsItem18handlesChildEventsEv @ 8464 NONAME
	_ZNK13QGraphicsItem20acceptedMouseButtonsEv @ 8465 NONAME
	_ZNK13QGraphicsItem20childrenBoundingRectEv @ 8466 NONAME
	_ZNK13QGraphicsItem20transformOriginPointEv @ 8467 NONAME
	_ZNK13QGraphicsItem21isBlockedByModalPanelEPPS_ @ 8468 NONAME
	_ZNK13QGraphicsItem25boundingRegionGranularityEv @ 8469 NONAME
	_ZNK13QGraphicsItem3posEv @ 8470 NONAME
	_ZNK13QGraphicsItem4dataEi @ 8471 NONAME
	_ZNK13QGraphicsItem4typeEv @ 8472 NONAME
	_ZNK13QGraphicsItem5flagsEv @ 8473 NONAME
	_ZNK13QGraphicsItem5groupEv @ 8474 NONAME
	_ZNK13QGraphicsItem5panelEv @ 8475 NONAME
	_ZNK13QGraphicsItem5scaleEv @ 8476 NONAME
	_ZNK13QGraphicsItem5sceneEv @ 8477 NONAME
	_ZNK13QGraphicsItem5shapeEv @ 8478 NONAME
	_ZNK13QGraphicsItem6cursorEv @ 8479 NONAME
	_ZNK13QGraphicsItem6matrixEv @ 8480 NONAME
	_ZNK13QGraphicsItem6windowEv @ 8481 NONAME
	_ZNK13QGraphicsItem6zValueEv @ 8482 NONAME
	_ZNK13QGraphicsItem7isPanelEv @ 8483 NONAME
	_ZNK13QGraphicsItem7opacityEv @ 8484 NONAME
	_ZNK13QGraphicsItem7toolTipEv @ 8485 NONAME
	_ZNK13QGraphicsItem8childrenEv @ 8486 NONAME
	_ZNK13QGraphicsItem8clipPathEv @ 8487 NONAME
	_ZNK13QGraphicsItem8containsERK7QPointF @ 8488 NONAME
	_ZNK13QGraphicsItem8hasFocusEv @ 8489 NONAME
	_ZNK13QGraphicsItem8isActiveEv @ 8490 NONAME
	_ZNK13QGraphicsItem8isWidgetEv @ 8491 NONAME
	_ZNK13QGraphicsItem8isWindowEv @ 8492 NONAME
	_ZNK13QGraphicsItem8rotationEv @ 8493 NONAME
	_ZNK13QGraphicsItem8scenePosEv @ 8494 NONAME
	_ZNK13QGraphicsItem9cacheModeEv @ 8495 NONAME
	_ZNK13QGraphicsItem9extensionERK8QVariant @ 8496 NONAME
	_ZNK13QGraphicsItem9focusItemEv @ 8497 NONAME
	_ZNK13QGraphicsItem9hasCursorEv @ 8498 NONAME
	_ZNK13QGraphicsItem9isClippedEv @ 8499 NONAME
	_ZNK13QGraphicsItem9isEnabledEv @ 8500 NONAME
	_ZNK13QGraphicsItem9isVisibleEv @ 8501 NONAME
	_ZNK13QGraphicsItem9mapToItemEPKS_RK12QPainterPath @ 8502 NONAME
	_ZNK13QGraphicsItem9mapToItemEPKS_RK6QRectF @ 8503 NONAME
	_ZNK13QGraphicsItem9mapToItemEPKS_RK7QPointF @ 8504 NONAME
	_ZNK13QGraphicsItem9mapToItemEPKS_RK9QPolygonF @ 8505 NONAME
	_ZNK13QGraphicsItem9transformEv @ 8506 NONAME
	_ZNK13QGraphicsView10mapToSceneERK12QPainterPath @ 8507 NONAME
	_ZNK13QGraphicsView10mapToSceneERK5QRect @ 8508 NONAME
	_ZNK13QGraphicsView10mapToSceneERK6QPoint @ 8509 NONAME
	_ZNK13QGraphicsView10mapToSceneERK8QPolygon @ 8510 NONAME
	_ZNK13QGraphicsView10metaObjectEv @ 8511 NONAME
	_ZNK13QGraphicsView11renderHintsEv @ 8512 NONAME
	_ZNK13QGraphicsView12mapFromSceneERK12QPainterPath @ 8513 NONAME
	_ZNK13QGraphicsView12mapFromSceneERK6QRectF @ 8514 NONAME
	_ZNK13QGraphicsView12mapFromSceneERK7QPointF @ 8515 NONAME
	_ZNK13QGraphicsView12mapFromSceneERK9QPolygonF @ 8516 NONAME
	_ZNK13QGraphicsView12resizeAnchorEv @ 8517 NONAME
	_ZNK13QGraphicsView13isInteractiveEv @ 8518 NONAME
	_ZNK13QGraphicsView13isTransformedEv @ 8519 NONAME
	_ZNK13QGraphicsView15backgroundBrushEv @ 8520 NONAME
	_ZNK13QGraphicsView15foregroundBrushEv @ 8521 NONAME
	_ZNK13QGraphicsView16inputMethodQueryEN2Qt16InputMethodQueryE @ 8522 NONAME
	_ZNK13QGraphicsView17optimizationFlagsEv @ 8523 NONAME
	_ZNK13QGraphicsView17viewportTransformEv @ 8524 NONAME
	_ZNK13QGraphicsView18viewportUpdateModeEv @ 8525 NONAME
	_ZNK13QGraphicsView20transformationAnchorEv @ 8526 NONAME
	_ZNK13QGraphicsView23rubberBandSelectionModeEv @ 8527 NONAME
	_ZNK13QGraphicsView5itemsERK12QPainterPathN2Qt17ItemSelectionModeE @ 8528 NONAME
	_ZNK13QGraphicsView5itemsERK5QRectN2Qt17ItemSelectionModeE @ 8529 NONAME
	_ZNK13QGraphicsView5itemsERK6QPoint @ 8530 NONAME
	_ZNK13QGraphicsView5itemsERK8QPolygonN2Qt17ItemSelectionModeE @ 8531 NONAME
	_ZNK13QGraphicsView5itemsEv @ 8532 NONAME
	_ZNK13QGraphicsView5sceneEv @ 8533 NONAME
	_ZNK13QGraphicsView6itemAtERK6QPoint @ 8534 NONAME
	_ZNK13QGraphicsView6matrixEv @ 8535 NONAME
	_ZNK13QGraphicsView8dragModeEv @ 8536 NONAME
	_ZNK13QGraphicsView8sizeHintEv @ 8537 NONAME
	_ZNK13QGraphicsView9alignmentEv @ 8538 NONAME
	_ZNK13QGraphicsView9cacheModeEv @ 8539 NONAME
	_ZNK13QGraphicsView9sceneRectEv @ 8540 NONAME
	_ZNK13QGraphicsView9transformEv @ 8541 NONAME
	_ZNK13QIconEngineV23keyEv @ 8542 NONAME
	_ZNK13QIconEngineV25cloneEv @ 8543 NONAME
	_ZNK13QIconEngineV25writeER11QDataStream @ 8544 NONAME
	_ZNK13QInputContext10metaObjectEv @ 8545 NONAME
	_ZNK13QInputContext11focusWidgetEv @ 8546 NONAME
	_ZNK13QInputContext14standardFormatENS_14StandardFormatE @ 8547 NONAME
	_ZNK13QInputContext4fontEv @ 8548 NONAME
	_ZNK13QIntValidator10metaObjectEv @ 8549 NONAME
	_ZNK13QIntValidator8validateER7QStringRi @ 8550 NONAME
	_ZNK13QItemDelegate10decorationERK20QStyleOptionViewItemRK8QVariant @ 8551 NONAME
	_ZNK13QItemDelegate10metaObjectEv @ 8552 NONAME
	_ZNK13QItemDelegate10setOptionsERK11QModelIndexRK20QStyleOptionViewItem @ 8553 NONAME
	_ZNK13QItemDelegate11drawDisplayEP8QPainterRK20QStyleOptionViewItemRK5QRectRK7QString @ 8554 NONAME
	_ZNK13QItemDelegate11hasClippingEv @ 8555 NONAME
	_ZNK13QItemDelegate12createEditorEP7QWidgetRK20QStyleOptionViewItemRK11QModelIndex @ 8556 NONAME
	_ZNK13QItemDelegate12setModelDataEP7QWidgetP18QAbstractItemModelRK11QModelIndex @ 8557 NONAME
	_ZNK13QItemDelegate13setEditorDataEP7QWidgetRK11QModelIndex @ 8558 NONAME
	_ZNK13QItemDelegate13textRectangleEP8QPainterRK5QRectRK5QFontRK7QString @ 8559 NONAME
	_ZNK13QItemDelegate14drawBackgroundEP8QPainterRK20QStyleOptionViewItemRK11QModelIndex @ 8560 NONAME
	_ZNK13QItemDelegate14drawDecorationEP8QPainterRK20QStyleOptionViewItemRK5QRectRK7QPixmap @ 8561 NONAME
	_ZNK13QItemDelegate17itemEditorFactoryEv @ 8562 NONAME
	_ZNK13QItemDelegate20updateEditorGeometryEP7QWidgetRK20QStyleOptionViewItemRK11QModelIndex @ 8563 NONAME
	_ZNK13QItemDelegate4rectERK20QStyleOptionViewItemRK11QModelIndexi @ 8564 NONAME
	_ZNK13QItemDelegate5checkERK20QStyleOptionViewItemRK5QRectRK8QVariant @ 8565 NONAME
	_ZNK13QItemDelegate5paintEP8QPainterRK20QStyleOptionViewItemRK11QModelIndex @ 8566 NONAME
	_ZNK13QItemDelegate8doLayoutERK20QStyleOptionViewItemP5QRectS4_S4_b @ 8567 NONAME
	_ZNK13QItemDelegate8selectedERK7QPixmapRK8QPaletteb @ 8568 NONAME
	_ZNK13QItemDelegate8sizeHintERK20QStyleOptionViewItemRK11QModelIndex @ 8569 NONAME
	_ZNK13QItemDelegate9drawCheckEP8QPainterRK20QStyleOptionViewItemRK5QRectN2Qt10CheckStateE @ 8570 NONAME
	_ZNK13QItemDelegate9drawFocusEP8QPainterRK20QStyleOptionViewItemRK5QRect @ 8571 NONAME
	_ZNK13QMdiSubWindow10metaObjectEv @ 8572 NONAME
	_ZNK13QMdiSubWindow10systemMenuEv @ 8573 NONAME
	_ZNK13QMdiSubWindow10testOptionENS_15SubWindowOptionE @ 8574 NONAME
	_ZNK13QMdiSubWindow15minimumSizeHintEv @ 8575 NONAME
	_ZNK13QMdiSubWindow16keyboardPageStepEv @ 8576 NONAME
	_ZNK13QMdiSubWindow18keyboardSingleStepEv @ 8577 NONAME
	_ZNK13QMdiSubWindow22maximizedButtonsWidgetEv @ 8578 NONAME
	_ZNK13QMdiSubWindow29maximizedSystemMenuIconWidgetEv @ 8579 NONAME
	_ZNK13QMdiSubWindow6widgetEv @ 8580 NONAME
	_ZNK13QMdiSubWindow7mdiAreaEv @ 8581 NONAME
	_ZNK13QMdiSubWindow8isShadedEv @ 8582 NONAME
	_ZNK13QMdiSubWindow8sizeHintEv @ 8583 NONAME
	_ZNK13QPinchGesture10metaObjectEv @ 8584 NONAME
	_ZNK13QPinchGesture11centerPointEv @ 8585 NONAME
	_ZNK13QPinchGesture11scaleFactorEv @ 8586 NONAME
	_ZNK13QPinchGesture11whatChangedEv @ 8587 NONAME ABSENT
	_ZNK13QPinchGesture13rotationAngleEv @ 8588 NONAME
	_ZNK13QPinchGesture15lastCenterPointEv @ 8589 NONAME
	_ZNK13QPinchGesture15lastScaleFactorEv @ 8590 NONAME
	_ZNK13QPinchGesture16startCenterPointEv @ 8591 NONAME
	_ZNK13QPinchGesture16totalScaleFactorEv @ 8592 NONAME
	_ZNK13QPinchGesture17lastRotationAngleEv @ 8593 NONAME
	_ZNK13QPinchGesture18totalRotationAngleEv @ 8594 NONAME
	_ZNK13QPixmapFilter10metaObjectEv @ 8595 NONAME
	_ZNK13QPixmapFilter15boundingRectForERK6QRectF @ 8596 NONAME
	_ZNK13QPixmapFilter4typeEv @ 8597 NONAME
	_ZNK13QSplashScreen10metaObjectEv @ 8598 NONAME
	_ZNK13QSplashScreen6pixmapEv @ 8599 NONAME
	_ZNK13QStandardItem11columnCountEv @ 8600 NONAME
	_ZNK13QStandardItem11hasChildrenEv @ 8601 NONAME
	_ZNK13QStandardItem3rowEv @ 8602 NONAME
	_ZNK13QStandardItem4dataEi @ 8603 NONAME
	_ZNK13QStandardItem4typeEv @ 8604 NONAME
	_ZNK13QStandardItem5childEii @ 8605 NONAME
	_ZNK13QStandardItem5cloneEv @ 8606 NONAME
	_ZNK13QStandardItem5flagsEv @ 8607 NONAME
	_ZNK13QStandardItem5indexEv @ 8608 NONAME
	_ZNK13QStandardItem5modelEv @ 8609 NONAME
	_ZNK13QStandardItem5writeER11QDataStream @ 8610 NONAME
	_ZNK13QStandardItem6columnEv @ 8611 NONAME
	_ZNK13QStandardItem6parentEv @ 8612 NONAME
	_ZNK13QStandardItem8rowCountEv @ 8613 NONAME
	_ZNK13QStandardItemltERKS_ @ 8614 NONAME
	_ZNK13QSwipeGesture10metaObjectEv @ 8615 NONAME
	_ZNK13QSwipeGesture10swipeAngleEv @ 8616 NONAME
	_ZNK13QSwipeGesture17verticalDirectionEv @ 8617 NONAME
	_ZNK13QSwipeGesture19horizontalDirectionEv @ 8618 NONAME
	_ZNK13QTextDocument10allFormatsEv @ 8619 NONAME
	_ZNK13QTextDocument10blockCountEv @ 8620 NONAME
	_ZNK13QTextDocument10firstBlockEv @ 8621 NONAME
	_ZNK13QTextDocument10idealWidthEv @ 8622 NONAME
	_ZNK13QTextDocument10isModifiedEv @ 8623 NONAME
	_ZNK13QTextDocument10metaObjectEv @ 8624 NONAME
	_ZNK13QTextDocument11characterAtEi @ 8625 NONAME
	_ZNK13QTextDocument11defaultFontEv @ 8626 NONAME
	_ZNK13QTextDocument11indentWidthEv @ 8627 NONAME
	_ZNK13QTextDocument11toPlainTextEv @ 8628 NONAME
	_ZNK13QTextDocument14characterCountEv @ 8629 NONAME
	_ZNK13QTextDocument14documentLayoutEv @ 8630 NONAME
	_ZNK13QTextDocument14documentMarginEv @ 8631 NONAME
	_ZNK13QTextDocument15isRedoAvailableEv @ 8632 NONAME
	_ZNK13QTextDocument15isUndoAvailableEv @ 8633 NONAME
	_ZNK13QTextDocument15metaInformationENS_15MetaInformationE @ 8634 NONAME
	_ZNK13QTextDocument15objectForFormatERK11QTextFormat @ 8635 NONAME
	_ZNK13QTextDocument16useDesignMetricsEv @ 8636 NONAME
	_ZNK13QTextDocument17defaultStyleSheetEv @ 8637 NONAME
	_ZNK13QTextDocument17defaultTextOptionEv @ 8638 NONAME
	_ZNK13QTextDocument17findBlockByNumberEi @ 8639 NONAME
	_ZNK13QTextDocument17isUndoRedoEnabledEv @ 8640 NONAME
	_ZNK13QTextDocument17maximumBlockCountEv @ 8641 NONAME
	_ZNK13QTextDocument21findBlockByLineNumberEi @ 8642 NONAME
	_ZNK13QTextDocument3endEv @ 8643 NONAME
	_ZNK13QTextDocument4findERK7QRegExpRK11QTextCursor6QFlagsINS_8FindFlagEE @ 8644 NONAME
	_ZNK13QTextDocument4findERK7QRegExpi6QFlagsINS_8FindFlagEE @ 8645 NONAME
	_ZNK13QTextDocument4findERK7QStringRK11QTextCursor6QFlagsINS_8FindFlagEE @ 8646 NONAME
	_ZNK13QTextDocument4findERK7QStringi6QFlagsINS_8FindFlagEE @ 8647 NONAME
	_ZNK13QTextDocument4sizeEv @ 8648 NONAME
	_ZNK13QTextDocument5beginEv @ 8649 NONAME
	_ZNK13QTextDocument5cloneEP7QObject @ 8650 NONAME
	_ZNK13QTextDocument6objectEi @ 8651 NONAME
	_ZNK13QTextDocument6toHtmlERK10QByteArray @ 8652 NONAME
	_ZNK13QTextDocument7frameAtEi @ 8653 NONAME
	_ZNK13QTextDocument7isEmptyEv @ 8654 NONAME
	_ZNK13QTextDocument8pageSizeEv @ 8655 NONAME
	_ZNK13QTextDocument8resourceEiRK4QUrl @ 8656 NONAME
	_ZNK13QTextDocument8revisionEv @ 8657 NONAME
	_ZNK13QTextDocument9docHandleEv @ 8658 NONAME
	_ZNK13QTextDocument9findBlockEi @ 8659 NONAME
	_ZNK13QTextDocument9lastBlockEv @ 8660 NONAME
	_ZNK13QTextDocument9lineCountEv @ 8661 NONAME
	_ZNK13QTextDocument9pageCountEv @ 8662 NONAME
	_ZNK13QTextDocument9rootFrameEv @ 8663 NONAME
	_ZNK13QTextDocument9textWidthEv @ 8664 NONAME
	_ZNK13QTextFragment10charFormatEv @ 8665 NONAME
	_ZNK13QTextFragment15charFormatIndexEv @ 8666 NONAME
	_ZNK13QTextFragment4textEv @ 8667 NONAME
	_ZNK13QTextFragment6lengthEv @ 8668 NONAME
	_ZNK13QTextFragment8containsEi @ 8669 NONAME
	_ZNK13QTextFragment8positionEv @ 8670 NONAME
	_ZNK13QWidgetAction10metaObjectEv @ 8671 NONAME
	_ZNK13QWidgetAction13defaultWidgetEv @ 8672 NONAME
	_ZNK13QWidgetAction14createdWidgetsEv @ 8673 NONAME
	_ZNK13QWidgetItemV211maximumSizeEv @ 8674 NONAME
	_ZNK13QWidgetItemV211minimumSizeEv @ 8675 NONAME
	_ZNK13QWidgetItemV214heightForWidthEi @ 8676 NONAME
	_ZNK13QWidgetItemV222updateCacheIfNecessaryEv @ 8677 NONAME
	_ZNK13QWidgetItemV28sizeHintEv @ 8678 NONAME
	_ZNK13QWindowsStyle10metaObjectEv @ 8679 NONAME
	_ZNK13QWindowsStyle11drawControlEN6QStyle14ControlElementEPK12QStyleOptionP8QPainterPK7QWidget @ 8680 NONAME
	_ZNK13QWindowsStyle11pixelMetricEN6QStyle11PixelMetricEPK12QStyleOptionPK7QWidget @ 8681 NONAME
	_ZNK13QWindowsStyle13drawPrimitiveEN6QStyle16PrimitiveElementEPK12QStyleOptionP8QPainterPK7QWidget @ 8682 NONAME
	_ZNK13QWindowsStyle14standardPixmapEN6QStyle14StandardPixmapEPK12QStyleOptionPK7QWidget @ 8683 NONAME
	_ZNK13QWindowsStyle14subElementRectEN6QStyle10SubElementEPK12QStyleOptionPK7QWidget @ 8684 NONAME
	_ZNK13QWindowsStyle16sizeFromContentsEN6QStyle12ContentsTypeEPK12QStyleOptionRK5QSizePK7QWidget @ 8685 NONAME
	_ZNK13QWindowsStyle18drawComplexControlEN6QStyle14ComplexControlEPK19QStyleOptionComplexP8QPainterPK7QWidget @ 8686 NONAME
	_ZNK13QWindowsStyle26standardIconImplementationEN6QStyle14StandardPixmapEPK12QStyleOptionPK7QWidget @ 8687 NONAME
	_ZNK13QWindowsStyle9styleHintEN6QStyle9StyleHintEPK12QStyleOptionPK7QWidgetP16QStyleHintReturn @ 8688 NONAME
	_ZNK14QDesktopWidget10metaObjectEv @ 8689 NONAME
	_ZNK14QDesktopWidget10numScreensEv @ 8690 NONAME
	_ZNK14QDesktopWidget12screenNumberEPK7QWidget @ 8691 NONAME
	_ZNK14QDesktopWidget12screenNumberERK6QPoint @ 8692 NONAME
	_ZNK14QDesktopWidget13primaryScreenEv @ 8693 NONAME
	_ZNK14QDesktopWidget14screenGeometryEi @ 8694 NONAME
	_ZNK14QDesktopWidget16isVirtualDesktopEv @ 8695 NONAME
	_ZNK14QDesktopWidget17availableGeometryEi @ 8696 NONAME
	_ZNK14QDoubleSpinBox10metaObjectEv @ 8697 NONAME
	_ZNK14QDoubleSpinBox10singleStepEv @ 8698 NONAME
	_ZNK14QDoubleSpinBox13textFromValueEd @ 8699 NONAME
	_ZNK14QDoubleSpinBox13valueFromTextERK7QString @ 8700 NONAME
	_ZNK14QDoubleSpinBox5fixupER7QString @ 8701 NONAME
	_ZNK14QDoubleSpinBox5valueEv @ 8702 NONAME
	_ZNK14QDoubleSpinBox6prefixEv @ 8703 NONAME
	_ZNK14QDoubleSpinBox6suffixEv @ 8704 NONAME
	_ZNK14QDoubleSpinBox7maximumEv @ 8705 NONAME
	_ZNK14QDoubleSpinBox7minimumEv @ 8706 NONAME
	_ZNK14QDoubleSpinBox8decimalsEv @ 8707 NONAME
	_ZNK14QDoubleSpinBox8validateER7QStringRi @ 8708 NONAME
	_ZNK14QDoubleSpinBox9cleanTextEv @ 8709 NONAME
	_ZNK14QGraphicsScale10metaObjectEv @ 8710 NONAME
	_ZNK14QGraphicsScale6originEv @ 8711 NONAME
	_ZNK14QGraphicsScale6xScaleEv @ 8712 NONAME
	_ZNK14QGraphicsScale6yScaleEv @ 8713 NONAME
	_ZNK14QGraphicsScale6zScaleEv @ 8714 NONAME
	_ZNK14QGraphicsScale7applyToEP10QMatrix4x4 @ 8715 NONAME
	_ZNK14QGraphicsScene10metaObjectEv @ 8716 NONAME
	_ZNK14QGraphicsScene11activePanelEv @ 8717 NONAME
	_ZNK14QGraphicsScene11stickyFocusEv @ 8718 NONAME
	_ZNK14QGraphicsScene12activeWindowEv @ 8719 NONAME
	_ZNK14QGraphicsScene12bspTreeDepthEv @ 8720 NONAME
	_ZNK14QGraphicsScene13selectedItemsEv @ 8721 NONAME
	_ZNK14QGraphicsScene13selectionAreaEv @ 8722 NONAME
	_ZNK14QGraphicsScene14collidingItemsEPK13QGraphicsItemN2Qt17ItemSelectionModeE @ 8723 NONAME
	_ZNK14QGraphicsScene15backgroundBrushEv @ 8724 NONAME
	_ZNK14QGraphicsScene15foregroundBrushEv @ 8725 NONAME
	_ZNK14QGraphicsScene15itemIndexMethodEv @ 8726 NONAME
	_ZNK14QGraphicsScene16inputMethodQueryEN2Qt16InputMethodQueryE @ 8727 NONAME
	_ZNK14QGraphicsScene16mouseGrabberItemEv @ 8728 NONAME
	_ZNK14QGraphicsScene17itemsBoundingRectEv @ 8729 NONAME
	_ZNK14QGraphicsScene18isSortCacheEnabledEv @ 8730 NONAME
	_ZNK14QGraphicsScene4fontEv @ 8731 NONAME
	_ZNK14QGraphicsScene5itemsEN2Qt9SortOrderE @ 8732 NONAME
	_ZNK14QGraphicsScene5itemsERK12QPainterPathN2Qt17ItemSelectionModeE @ 8733 NONAME
	_ZNK14QGraphicsScene5itemsERK12QPainterPathN2Qt17ItemSelectionModeENS3_9SortOrderERK10QTransform @ 8734 NONAME
	_ZNK14QGraphicsScene5itemsERK6QRectFN2Qt17ItemSelectionModeE @ 8735 NONAME
	_ZNK14QGraphicsScene5itemsERK6QRectFN2Qt17ItemSelectionModeENS3_9SortOrderERK10QTransform @ 8736 NONAME
	_ZNK14QGraphicsScene5itemsERK7QPointF @ 8737 NONAME
	_ZNK14QGraphicsScene5itemsERK7QPointFN2Qt17ItemSelectionModeENS3_9SortOrderERK10QTransform @ 8738 NONAME
	_ZNK14QGraphicsScene5itemsERK9QPolygonFN2Qt17ItemSelectionModeE @ 8739 NONAME
	_ZNK14QGraphicsScene5itemsERK9QPolygonFN2Qt17ItemSelectionModeENS3_9SortOrderERK10QTransform @ 8740 NONAME
	_ZNK14QGraphicsScene5itemsEv @ 8741 NONAME
	_ZNK14QGraphicsScene5styleEv @ 8742 NONAME
	_ZNK14QGraphicsScene5viewsEv @ 8743 NONAME
	_ZNK14QGraphicsScene6itemAtERK7QPointF @ 8744 NONAME
	_ZNK14QGraphicsScene6itemAtERK7QPointFRK10QTransform @ 8745 NONAME
	_ZNK14QGraphicsScene7paletteEv @ 8746 NONAME
	_ZNK14QGraphicsScene8hasFocusEv @ 8747 NONAME
	_ZNK14QGraphicsScene8isActiveEv @ 8748 NONAME
	_ZNK14QGraphicsScene9focusItemEv @ 8749 NONAME
	_ZNK14QGraphicsScene9sceneRectEv @ 8750 NONAME
	_ZNK14QImageIOPlugin10metaObjectEv @ 8751 NONAME
	_ZNK14QItemSelection7indexesEv @ 8752 NONAME
	_ZNK14QItemSelection8containsERK11QModelIndex @ 8753 NONAME
	_ZNK14QLayoutPrivate9getMarginEPiiN6QStyle11PixelMetricE @ 8754 NONAME
	_ZNK14QPaintEngineEx11createStateEP13QPainterState @ 8755 NONAME
	_ZNK14QPlainTextEdit10blockCountEv @ 8756 NONAME
	_ZNK14QPlainTextEdit10cursorRectERK11QTextCursor @ 8757 NONAME
	_ZNK14QPlainTextEdit10cursorRectEv @ 8758 NONAME
	_ZNK14QPlainTextEdit10isReadOnlyEv @ 8759 NONAME
	_ZNK14QPlainTextEdit10metaObjectEv @ 8760 NONAME
	_ZNK14QPlainTextEdit10textCursorEv @ 8761 NONAME
	_ZNK14QPlainTextEdit11cursorWidthEv @ 8762 NONAME
	_ZNK14QPlainTextEdit12lineWrapModeEv @ 8763 NONAME
	_ZNK14QPlainTextEdit12tabStopWidthEv @ 8764 NONAME
	_ZNK14QPlainTextEdit12wordWrapModeEv @ 8765 NONAME
	_ZNK14QPlainTextEdit13contentOffsetEv @ 8766 NONAME
	_ZNK14QPlainTextEdit13overwriteModeEv @ 8767 NONAME
	_ZNK14QPlainTextEdit14centerOnScrollEv @ 8768 NONAME
	_ZNK14QPlainTextEdit15extraSelectionsEv @ 8769 NONAME
	_ZNK14QPlainTextEdit15getPaintContextEv @ 8770 NONAME
	_ZNK14QPlainTextEdit15tabChangesFocusEv @ 8771 NONAME
	_ZNK14QPlainTextEdit16inputMethodQueryEN2Qt16InputMethodQueryE @ 8772 NONAME
	_ZNK14QPlainTextEdit17backgroundVisibleEv @ 8773 NONAME
	_ZNK14QPlainTextEdit17blockBoundingRectERK10QTextBlock @ 8774 NONAME
	_ZNK14QPlainTextEdit17currentCharFormatEv @ 8775 NONAME
	_ZNK14QPlainTextEdit17cursorForPositionERK6QPoint @ 8776 NONAME
	_ZNK14QPlainTextEdit17firstVisibleBlockEv @ 8777 NONAME
	_ZNK14QPlainTextEdit20textInteractionFlagsEv @ 8778 NONAME
	_ZNK14QPlainTextEdit21blockBoundingGeometryERK10QTextBlock @ 8779 NONAME
	_ZNK14QPlainTextEdit21canInsertFromMimeDataEPK9QMimeData @ 8780 NONAME
	_ZNK14QPlainTextEdit27createMimeDataFromSelectionEv @ 8781 NONAME
	_ZNK14QPlainTextEdit8canPasteEv @ 8782 NONAME
	_ZNK14QPlainTextEdit8documentEv @ 8783 NONAME
	_ZNK14QStackedLayout10metaObjectEv @ 8784 NONAME
	_ZNK14QStackedLayout11minimumSizeEv @ 8785 NONAME
	_ZNK14QStackedLayout12currentIndexEv @ 8786 NONAME
	_ZNK14QStackedLayout12stackingModeEv @ 8787 NONAME
	_ZNK14QStackedLayout13currentWidgetEv @ 8788 NONAME
	_ZNK14QStackedLayout5countEv @ 8789 NONAME
	_ZNK14QStackedLayout6itemAtEi @ 8790 NONAME
	_ZNK14QStackedLayout6widgetEi @ 8791 NONAME
	_ZNK14QStackedLayout8sizeHintEv @ 8792 NONAME
	_ZNK14QStackedWidget10metaObjectEv @ 8793 NONAME
	_ZNK14QStackedWidget12currentIndexEv @ 8794 NONAME
	_ZNK14QStackedWidget13currentWidgetEv @ 8795 NONAME
	_ZNK14QStackedWidget5countEv @ 8796 NONAME
	_ZNK14QStackedWidget6widgetEi @ 8797 NONAME
	_ZNK14QStackedWidget7indexOfEP7QWidget @ 8798 NONAME
	_ZNK14QTextTableCell10columnSpanEv @ 8799 NONAME
	_ZNK14QTextTableCell12lastPositionEv @ 8800 NONAME
	_ZNK14QTextTableCell13firstPositionEv @ 8801 NONAME
	_ZNK14QTextTableCell18lastCursorPositionEv @ 8802 NONAME
	_ZNK14QTextTableCell19firstCursorPositionEv @ 8803 NONAME
	_ZNK14QTextTableCell20tableCellFormatIndexEv @ 8804 NONAME
	_ZNK14QTextTableCell3endEv @ 8805 NONAME
	_ZNK14QTextTableCell3rowEv @ 8806 NONAME
	_ZNK14QTextTableCell5beginEv @ 8807 NONAME
	_ZNK14QTextTableCell6columnEv @ 8808 NONAME
	_ZNK14QTextTableCell6formatEv @ 8809 NONAME
	_ZNK14QTextTableCell7rowSpanEv @ 8810 NONAME
	_ZNK14QWidgetPrivate10clipRegionEv @ 8811 NONAME
	_ZNK14QWidgetPrivate10frameStrutEv @ 8812 NONAME
	_ZNK14QWidgetPrivate12adjustedSizeEv @ 8813 NONAME
	_ZNK14QWidgetPrivate12inputContextEv @ 8814 NONAME
	_ZNK14QWidgetPrivate12isOverlappedERK5QRect @ 8815 NONAME
	_ZNK14QWidgetPrivate13isAboutToShowEv @ 8816 NONAME
	_ZNK14QWidgetPrivate13paintOnScreenEv @ 8817 NONAME
	_ZNK14QWidgetPrivate14childAt_helperERK6QPointb @ 8818 NONAME
	_ZNK14QWidgetPrivate15getOpaqueRegionEv @ 8819 NONAME ABSENT
	_ZNK14QWidgetPrivate15paintBackgroundEP8QPainterRK7QRegioni @ 8820 NONAME
	_ZNK14QWidgetPrivate17getOpaqueChildrenEv @ 8821 NONAME
	_ZNK14QWidgetPrivate17naturalWidgetFontEj @ 8822 NONAME
	_ZNK14QWidgetPrivate19clipToEffectiveMaskER7QRegion @ 8823 NONAME
	_ZNK14QWidgetPrivate20getLayoutItemMarginsEPiS0_S0_S0_ @ 8824 NONAME
	_ZNK14QWidgetPrivate20naturalWidgetPaletteEj @ 8825 NONAME
	_ZNK14QWidgetPrivate22subtractOpaqueChildrenER7QRegionRK5QRect @ 8826 NONAME
	_ZNK14QWidgetPrivate22subtractOpaqueSiblingsER7QRegionPbb @ 8827 NONAME
	_ZNK14QWidgetPrivate8clipRectEv @ 8828 NONAME
	_ZNK14QWindowSurface10grabWidgetEPK7QWidgetRK5QRect @ 8829 NONAME
	_ZNK14QWindowSurface14staticContentsEv @ 8830 NONAME
	_ZNK14QWindowSurface17hasStaticContentsEv @ 8831 NONAME
	_ZNK14QWindowSurface24hasStaticContentsSupportEv @ 8832 NONAME ABSENT
	_ZNK14QWindowSurface6offsetEPK7QWidget @ 8833 NONAME
	_ZNK14QWindowSurface6windowEv @ 8834 NONAME
	_ZNK14QWindowSurface8geometryEv @ 8835 NONAME
	_ZNK15QAbstractButton10autoRepeatEv @ 8836 NONAME
	_ZNK15QAbstractButton10metaObjectEv @ 8837 NONAME
	_ZNK15QAbstractButton11isCheckableEv @ 8838 NONAME
	_ZNK15QAbstractButton13autoExclusiveEv @ 8839 NONAME
	_ZNK15QAbstractButton15autoRepeatDelayEv @ 8840 NONAME
	_ZNK15QAbstractButton18autoRepeatIntervalEv @ 8841 NONAME
	_ZNK15QAbstractButton4iconEv @ 8842 NONAME
	_ZNK15QAbstractButton4textEv @ 8843 NONAME
	_ZNK15QAbstractButton5groupEv @ 8844 NONAME
	_ZNK15QAbstractButton6isDownEv @ 8845 NONAME
	_ZNK15QAbstractButton8iconSizeEv @ 8846 NONAME
	_ZNK15QAbstractButton8shortcutEv @ 8847 NONAME
	_ZNK15QAbstractButton9hitButtonERK6QPoint @ 8848 NONAME
	_ZNK15QAbstractButton9isCheckedEv @ 8849 NONAME
	_ZNK15QAbstractSlider10metaObjectEv @ 8850 NONAME
	_ZNK15QAbstractSlider10singleStepEv @ 8851 NONAME
	_ZNK15QAbstractSlider11hasTrackingEv @ 8852 NONAME
	_ZNK15QAbstractSlider11orientationEv @ 8853 NONAME
	_ZNK15QAbstractSlider12isSliderDownEv @ 8854 NONAME
	_ZNK15QAbstractSlider12repeatActionEv @ 8855 NONAME
	_ZNK15QAbstractSlider14sliderPositionEv @ 8856 NONAME
	_ZNK15QAbstractSlider16invertedControlsEv @ 8857 NONAME
	_ZNK15QAbstractSlider18invertedAppearanceEv @ 8858 NONAME
	_ZNK15QAbstractSlider5valueEv @ 8859 NONAME
	_ZNK15QAbstractSlider7maximumEv @ 8860 NONAME
	_ZNK15QAbstractSlider7minimumEv @ 8861 NONAME
	_ZNK15QAbstractSlider8pageStepEv @ 8862 NONAME
	_ZNK15QCalendarWidget10metaObjectEv @ 8863 NONAME
	_ZNK15QCalendarWidget10monthShownEv @ 8864 NONAME
	_ZNK15QCalendarWidget11maximumDateEv @ 8865 NONAME
	_ZNK15QCalendarWidget11minimumDateEv @ 8866 NONAME
	_ZNK15QCalendarWidget12selectedDateEv @ 8867 NONAME
	_ZNK15QCalendarWidget13isGridVisibleEv @ 8868 NONAME
	_ZNK15QCalendarWidget13selectionModeEv @ 8869 NONAME
	_ZNK15QCalendarWidget14dateTextFormatERK5QDate @ 8870 NONAME
	_ZNK15QCalendarWidget14dateTextFormatEv @ 8871 NONAME
	_ZNK15QCalendarWidget14firstDayOfWeekEv @ 8872 NONAME
	_ZNK15QCalendarWidget15isHeaderVisibleEv @ 8873 NONAME
	_ZNK15QCalendarWidget15minimumSizeHintEv @ 8874 NONAME
	_ZNK15QCalendarWidget16headerTextFormatEv @ 8875 NONAME
	_ZNK15QCalendarWidget17isDateEditEnabledEv @ 8876 NONAME
	_ZNK15QCalendarWidget17weekdayTextFormatEN2Qt9DayOfWeekE @ 8877 NONAME
	_ZNK15QCalendarWidget19dateEditAcceptDelayEv @ 8878 NONAME
	_ZNK15QCalendarWidget20verticalHeaderFormatEv @ 8879 NONAME
	_ZNK15QCalendarWidget22horizontalHeaderFormatEv @ 8880 NONAME
	_ZNK15QCalendarWidget8sizeHintEv @ 8881 NONAME
	_ZNK15QCalendarWidget9paintCellEP8QPainterRK5QRectRK5QDate @ 8882 NONAME
	_ZNK15QCalendarWidget9yearShownEv @ 8883 NONAME
	_ZNK15QGraphicsAnchor10metaObjectEv @ 8884 NONAME
	_ZNK15QGraphicsAnchor7spacingEv @ 8885 NONAME
	_ZNK15QGraphicsEffect10metaObjectEv @ 8886 NONAME
	_ZNK15QGraphicsEffect12boundingRectEv @ 8887 NONAME
	_ZNK15QGraphicsEffect15boundingRectForERK6QRectF @ 8888 NONAME
	_ZNK15QGraphicsEffect6sourceEv @ 8889 NONAME
	_ZNK15QGraphicsEffect9isEnabledEv @ 8890 NONAME
	_ZNK15QGraphicsLayout11isActivatedEv @ 8891 NONAME
	_ZNK15QGraphicsLayout18getContentsMarginsEPfS0_S0_S0_ @ 8892 NONAME
	_ZNK15QGraphicsObject10metaObjectEv @ 8893 NONAME
	_ZNK15QGraphicsWidget10metaObjectEv @ 8894 NONAME
	_ZNK15QGraphicsWidget10windowTypeEv @ 8895 NONAME
	_ZNK15QGraphicsWidget11focusPolicyEv @ 8896 NONAME
	_ZNK15QGraphicsWidget11focusWidgetEv @ 8897 NONAME
	_ZNK15QGraphicsWidget11windowFlagsEv @ 8898 NONAME
	_ZNK15QGraphicsWidget11windowTitleEv @ 8899 NONAME
	_ZNK15QGraphicsWidget12boundingRectEv @ 8900 NONAME
	_ZNK15QGraphicsWidget13testAttributeEN2Qt15WidgetAttributeE @ 8901 NONAME
	_ZNK15QGraphicsWidget14isActiveWindowEv @ 8902 NONAME
	_ZNK15QGraphicsWidget15initStyleOptionEP12QStyleOption @ 8903 NONAME
	_ZNK15QGraphicsWidget15layoutDirectionEv @ 8904 NONAME
	_ZNK15QGraphicsWidget15windowFrameRectEv @ 8905 NONAME
	_ZNK15QGraphicsWidget18getContentsMarginsEPfS0_S0_S0_ @ 8906 NONAME
	_ZNK15QGraphicsWidget19windowFrameGeometryEv @ 8907 NONAME
	_ZNK15QGraphicsWidget20windowFrameSectionAtERK7QPointF @ 8908 NONAME
	_ZNK15QGraphicsWidget21getWindowFrameMarginsEPfS0_S0_S0_ @ 8909 NONAME
	_ZNK15QGraphicsWidget4fontEv @ 8910 NONAME
	_ZNK15QGraphicsWidget4sizeEv @ 8911 NONAME
	_ZNK15QGraphicsWidget4typeEv @ 8912 NONAME
	_ZNK15QGraphicsWidget5shapeEv @ 8913 NONAME
	_ZNK15QGraphicsWidget5styleEv @ 8914 NONAME
	_ZNK15QGraphicsWidget6layoutEv @ 8915 NONAME
	_ZNK15QGraphicsWidget7actionsEv @ 8916 NONAME
	_ZNK15QGraphicsWidget7paletteEv @ 8917 NONAME
	_ZNK15QGraphicsWidget8sizeHintEN2Qt8SizeHintERK6QSizeF @ 8918 NONAME
	_ZNK15QImageIOHandler10imageCountEv @ 8919 NONAME
	_ZNK15QImageIOHandler14nextImageDelayEv @ 8920 NONAME
	_ZNK15QImageIOHandler14supportsOptionENS_11ImageOptionE @ 8921 NONAME
	_ZNK15QImageIOHandler16currentImageRectEv @ 8922 NONAME
	_ZNK15QImageIOHandler18currentImageNumberEv @ 8923 NONAME
	_ZNK15QImageIOHandler4nameEv @ 8924 NONAME
	_ZNK15QImageIOHandler6deviceEv @ 8925 NONAME
	_ZNK15QImageIOHandler6formatEv @ 8926 NONAME
	_ZNK15QImageIOHandler6optionENS_11ImageOptionE @ 8927 NONAME
	_ZNK15QImageIOHandler9loopCountEv @ 8928 NONAME
	_ZNK15QImageIOHandler9setFormatERK10QByteArray @ 8929 NONAME
	_ZNK15QLinearGradient5startEv @ 8930 NONAME
	_ZNK15QLinearGradient9finalStopEv @ 8931 NONAME
	_ZNK15QListWidgetItem4dataEi @ 8932 NONAME
	_ZNK15QListWidgetItem5cloneEv @ 8933 NONAME
	_ZNK15QListWidgetItem5writeER11QDataStream @ 8934 NONAME
	_ZNK15QListWidgetItemltERKS_ @ 8935 NONAME
	_ZNK15QProgressDialog10metaObjectEv @ 8936 NONAME
	_ZNK15QProgressDialog11wasCanceledEv @ 8937 NONAME
	_ZNK15QProgressDialog15minimumDurationEv @ 8938 NONAME
	_ZNK15QProgressDialog5valueEv @ 8939 NONAME
	_ZNK15QProgressDialog7maximumEv @ 8940 NONAME
	_ZNK15QProgressDialog7minimumEv @ 8941 NONAME
	_ZNK15QProgressDialog8sizeHintEv @ 8942 NONAME
	_ZNK15QProgressDialog9autoCloseEv @ 8943 NONAME
	_ZNK15QProgressDialog9autoResetEv @ 8944 NONAME
	_ZNK15QProgressDialog9labelTextEv @ 8945 NONAME
	_ZNK15QRadialGradient10focalPointEv @ 8946 NONAME
	_ZNK15QRadialGradient6centerEv @ 8947 NONAME
	_ZNK15QRadialGradient6radiusEv @ 8948 NONAME
	_ZNK15QSessionManager10metaObjectEv @ 8949 NONAME
	_ZNK15QSplitterHandle10metaObjectEv @ 8950 NONAME
	_ZNK15QSplitterHandle11orientationEv @ 8951 NONAME
	_ZNK15QSplitterHandle12opaqueResizeEv @ 8952 NONAME
	_ZNK15QSplitterHandle8sizeHintEv @ 8953 NONAME
	_ZNK15QSplitterHandle8splitterEv @ 8954 NONAME
	_ZNK15QTextBlockGroup10metaObjectEv @ 8955 NONAME
	_ZNK15QTextBlockGroup9blockListEv @ 8956 NONAME
	_ZNK15QTextCharFormat10anchorNameEv @ 8957 NONAME
	_ZNK15QTextCharFormat11anchorNamesEv @ 8958 NONAME
	_ZNK15QTextCharFormat13fontUnderlineEv @ 8959 NONAME
	_ZNK15QTextCharFormat4fontEv @ 8960 NONAME
	_ZNK15QTreeWidgetItem18childrenCheckStateEi @ 8961 NONAME
	_ZNK15QTreeWidgetItem18executePendingSortEv @ 8962 NONAME
	_ZNK15QTreeWidgetItem20childIndicatorPolicyEv @ 8963 NONAME
	_ZNK15QTreeWidgetItem4dataEii @ 8964 NONAME
	_ZNK15QTreeWidgetItem5cloneEv @ 8965 NONAME
	_ZNK15QTreeWidgetItem5flagsEv @ 8966 NONAME
	_ZNK15QTreeWidgetItem5writeER11QDataStream @ 8967 NONAME
	_ZNK15QTreeWidgetItemltERKS_ @ 8968 NONAME
	_ZNK16QAbstractSpinBox10isReadOnlyEv @ 8969 NONAME
	_ZNK16QAbstractSpinBox10metaObjectEv @ 8970 NONAME
	_ZNK16QAbstractSpinBox11stepEnabledEv @ 8971 NONAME
	_ZNK16QAbstractSpinBox13buttonSymbolsEv @ 8972 NONAME
	_ZNK16QAbstractSpinBox13isAcceleratedEv @ 8973 NONAME
	_ZNK16QAbstractSpinBox14correctionModeEv @ 8974 NONAME
	_ZNK16QAbstractSpinBox15initStyleOptionEP19QStyleOptionSpinBox @ 8975 NONAME
	_ZNK16QAbstractSpinBox15minimumSizeHintEv @ 8976 NONAME
	_ZNK16QAbstractSpinBox16inputMethodQueryEN2Qt16InputMethodQueryE @ 8977 NONAME
	_ZNK16QAbstractSpinBox16keyboardTrackingEv @ 8978 NONAME
	_ZNK16QAbstractSpinBox16specialValueTextEv @ 8979 NONAME
	_ZNK16QAbstractSpinBox18hasAcceptableInputEv @ 8980 NONAME
	_ZNK16QAbstractSpinBox4textEv @ 8981 NONAME
	_ZNK16QAbstractSpinBox5fixupER7QString @ 8982 NONAME
	_ZNK16QAbstractSpinBox8hasFrameEv @ 8983 NONAME
	_ZNK16QAbstractSpinBox8lineEditEv @ 8984 NONAME
	_ZNK16QAbstractSpinBox8sizeHintEv @ 8985 NONAME
	_ZNK16QAbstractSpinBox8validateER7QStringRi @ 8986 NONAME
	_ZNK16QAbstractSpinBox8wrappingEv @ 8987 NONAME
	_ZNK16QAbstractSpinBox9alignmentEv @ 8988 NONAME
	_ZNK16QConicalGradient5angleEv @ 8989 NONAME
	_ZNK16QConicalGradient6centerEv @ 8990 NONAME
	_ZNK16QDialogButtonBox10buttonRoleEP15QAbstractButton @ 8991 NONAME
	_ZNK16QDialogButtonBox10metaObjectEv @ 8992 NONAME
	_ZNK16QDialogButtonBox11orientationEv @ 8993 NONAME
	_ZNK16QDialogButtonBox13centerButtonsEv @ 8994 NONAME
	_ZNK16QDialogButtonBox14standardButtonEP15QAbstractButton @ 8995 NONAME
	_ZNK16QDialogButtonBox15standardButtonsEv @ 8996 NONAME
	_ZNK16QDialogButtonBox6buttonENS_14StandardButtonE @ 8997 NONAME
	_ZNK16QDialogButtonBox7buttonsEv @ 8998 NONAME
	_ZNK16QDoubleValidator10metaObjectEv @ 8999 NONAME
	_ZNK16QDoubleValidator8notationEv @ 9000 NONAME
	_ZNK16QDoubleValidator8validateER7QStringRi @ 9001 NONAME
	_ZNK16QFileSystemModel10headerDataEiN2Qt11OrientationEi @ 9002 NONAME
	_ZNK16QFileSystemModel10isReadOnlyEv @ 9003 NONAME
	_ZNK16QFileSystemModel10metaObjectEv @ 9004 NONAME
	_ZNK16QFileSystemModel10myComputerEi @ 9005 NONAME
	_ZNK16QFileSystemModel11columnCountERK11QModelIndex @ 9006 NONAME
	_ZNK16QFileSystemModel11hasChildrenERK11QModelIndex @ 9007 NONAME
