EXPORTS
	_ZN11QAudioInput11qt_metacallEN11QMetaObject4CallEiPPv @ 1 NONAME
	_ZN11QAudioInput11qt_metacastEPKc @ 2 NONAME
	_ZN11QAudioInput12stateChangedEN6QAudio5StateE @ 3 NONAME
	_ZN11QAudioInput13setBufferSizeEi @ 4 NONAME
	_ZN11QAudioInput16staticMetaObjectE @ 5 NONAME DATA 16
	_ZN11QAudioInput17setNotifyIntervalEi @ 6 NONAME
	_ZN11QAudioInput19getStaticMetaObjectEv @ 7 NONAME
	_ZN11QAudioInput4stopEv @ 8 NONAME
	_ZN11QAudioInput5resetEv @ 9 NONAME
	_ZN11QAudioInput5startEP9QIODevice @ 10 NONAME
	_ZN11QAudioInput6notifyEv @ 11 NONAME
	_ZN11QAudioInput6resumeEv @ 12 NONAME
	_ZN11QAudioInput7suspendEv @ 13 NONAME
	_ZN11QAudioInputC1ERK12QAudioFormatP7QObject @ 14 NONAME
	_ZN11QAudioInputC1ERK16QAudioDeviceInfoRK12QAudioFormatP7QObject @ 15 NONAME
	_ZN11QAudioInputC2ERK12QAudioFormatP7QObject @ 16 NONAME
	_ZN11QAudioInputC2ERK16QAudioDeviceInfoRK12QAudioFormatP7QObject @ 17 NONAME
	_ZN11QAudioInputD0Ev @ 18 NONAME
	_ZN11QAudioInputD1Ev @ 19 NONAME
	_ZN11QAudioInputD2Ev @ 20 NONAME
	_ZN11QVideoFrame10setEndTimeEx @ 21 NONAME
	_ZN11QVideoFrame12setFieldTypeENS_9FieldTypeE @ 22 NONAME
	_ZN11QVideoFrame12setStartTimeEx @ 23 NONAME
	_ZN11QVideoFrame21equivalentImageFormatENS_11PixelFormatE @ 24 NONAME ABSENT
	_ZN11QVideoFrame21equivalentPixelFormatEN6QImage6FormatE @ 25 NONAME ABSENT
	_ZN11QVideoFrame3mapEN20QAbstractVideoBuffer7MapModeE @ 26 NONAME
	_ZN11QVideoFrame4bitsEv @ 27 NONAME
	_ZN11QVideoFrame5unmapEv @ 28 NONAME
	_ZN11QVideoFrameC1EP20QAbstractVideoBufferRK5QSizeNS_11PixelFormatE @ 29 NONAME
	_ZN11QVideoFrameC1ERK6QImage @ 30 NONAME
	_ZN11QVideoFrameC1ERKS_ @ 31 NONAME
	_ZN11QVideoFrameC1EiRK5QSizeiNS_11PixelFormatE @ 32 NONAME
	_ZN11QVideoFrameC1Ev @ 33 NONAME
	_ZN11QVideoFrameC2EP20QAbstractVideoBufferRK5QSizeNS_11PixelFormatE @ 34 NONAME
	_ZN11QVideoFrameC2ERK6QImage @ 35 NONAME
	_ZN11QVideoFrameC2ERKS_ @ 36 NONAME
	_ZN11QVideoFrameC2EiRK5QSizeiNS_11PixelFormatE @ 37 NONAME
	_ZN11QVideoFrameC2Ev @ 38 NONAME
	_ZN11QVideoFrameD1Ev @ 39 NONAME
	_ZN11QVideoFrameD2Ev @ 40 NONAME
	_ZN11QVideoFrameaSERKS_ @ 41 NONAME
	_ZN12QAudioFormat11setChannelsEi @ 42 NONAME
	_ZN12QAudioFormat12setByteOrderENS_6EndianE @ 43 NONAME
	_ZN12QAudioFormat12setFrequencyEi @ 44 NONAME
	_ZN12QAudioFormat13setSampleSizeEi @ 45 NONAME
	_ZN12QAudioFormat13setSampleTypeENS_10SampleTypeE @ 46 NONAME
	_ZN12QAudioFormat8setCodecERK7QString @ 47 NONAME
	_ZN12QAudioFormatC1ERKS_ @ 48 NONAME
	_ZN12QAudioFormatC1Ev @ 49 NONAME
	_ZN12QAudioFormatC2ERKS_ @ 50 NONAME
	_ZN12QAudioFormatC2Ev @ 51 NONAME
	_ZN12QAudioFormatD1Ev @ 52 NONAME
	_ZN12QAudioFormatD2Ev @ 53 NONAME
	_ZN12QAudioFormataSERKS_ @ 54 NONAME
	_ZN12QAudioOutput11qt_metacallEN11QMetaObject4CallEiPPv @ 55 NONAME
	_ZN12QAudioOutput11qt_metacastEPKc @ 56 NONAME
	_ZN12QAudioOutput12stateChangedEN6QAudio5StateE @ 57 NONAME
	_ZN12QAudioOutput13setBufferSizeEi @ 58 NONAME
	_ZN12QAudioOutput16staticMetaObjectE @ 59 NONAME DATA 16
	_ZN12QAudioOutput17setNotifyIntervalEi @ 60 NONAME
	_ZN12QAudioOutput19getStaticMetaObjectEv @ 61 NONAME
	_ZN12QAudioOutput4stopEv @ 62 NONAME
	_ZN12QAudioOutput5resetEv @ 63 NONAME
	_ZN12QAudioOutput5startEP9QIODevice @ 64 NONAME
	_ZN12QAudioOutput6notifyEv @ 65 NONAME
	_ZN12QAudioOutput6resumeEv @ 66 NONAME
	_ZN12QAudioOutput7suspendEv @ 67 NONAME
	_ZN12QAudioOutputC1ERK12QAudioFormatP7QObject @ 68 NONAME
	_ZN12QAudioOutputC1ERK16QAudioDeviceInfoRK12QAudioFormatP7QObject @ 69 NONAME
	_ZN12QAudioOutputC2ERK12QAudioFormatP7QObject @ 70 NONAME
	_ZN12QAudioOutputC2ERK16QAudioDeviceInfoRK12QAudioFormatP7QObject @ 71 NONAME
	_ZN12QAudioOutputD0Ev @ 72 NONAME
	_ZN12QAudioOutputD1Ev @ 73 NONAME
	_ZN12QAudioOutputD2Ev @ 74 NONAME
	_ZN16QAudioDeviceInfo10deviceListEN6QAudio4ModeE @ 75 NONAME ABSENT
	_ZN16QAudioDeviceInfo18defaultInputDeviceEv @ 76 NONAME
	_ZN16QAudioDeviceInfo19defaultOutputDeviceEv @ 77 NONAME
	_ZN16QAudioDeviceInfoC1ERK7QStringRK10QByteArrayN6QAudio4ModeE @ 78 NONAME
	_ZN16QAudioDeviceInfoC1ERKS_ @ 79 NONAME
	_ZN16QAudioDeviceInfoC1Ev @ 80 NONAME
	_ZN16QAudioDeviceInfoC2ERK7QStringRK10QByteArrayN6QAudio4ModeE @ 81 NONAME
	_ZN16QAudioDeviceInfoC2ERKS_ @ 82 NONAME
	_ZN16QAudioDeviceInfoC2Ev @ 83 NONAME
	_ZN16QAudioDeviceInfoD1Ev @ 84 NONAME
	_ZN16QAudioDeviceInfoD2Ev @ 85 NONAME
	_ZN16QAudioDeviceInfoaSERKS_ @ 86 NONAME
	_ZN17QImageVideoBuffer3mapEN20QAbstractVideoBuffer7MapModeEPiS2_ @ 87 NONAME
	_ZN17QImageVideoBuffer5unmapEv @ 88 NONAME
	_ZN17QImageVideoBufferC1ERK6QImage @ 89 NONAME
	_ZN17QImageVideoBufferC2ERK6QImage @ 90 NONAME
	_ZN17QImageVideoBufferD0Ev @ 91 NONAME
	_ZN17QImageVideoBufferD1Ev @ 92 NONAME
	_ZN17QImageVideoBufferD2Ev @ 93 NONAME
	_ZN18QAudioEnginePlugin11qt_metacallEN11QMetaObject4CallEiPPv @ 94 NONAME
	_ZN18QAudioEnginePlugin11qt_metacastEPKc @ 95 NONAME
	_ZN18QAudioEnginePlugin16staticMetaObjectE @ 96 NONAME DATA 16
	_ZN18QAudioEnginePlugin19getStaticMetaObjectEv @ 97 NONAME
	_ZN18QAudioEnginePluginC2EP7QObject @ 98 NONAME
	_ZN18QAudioEnginePluginD0Ev @ 99 NONAME
	_ZN18QAudioEnginePluginD1Ev @ 100 NONAME
	_ZN18QAudioEnginePluginD2Ev @ 101 NONAME
	_ZN18QMemoryVideoBuffer3mapEN20QAbstractVideoBuffer7MapModeEPiS2_ @ 102 NONAME
	_ZN18QMemoryVideoBuffer5unmapEv @ 103 NONAME
	_ZN18QMemoryVideoBufferC1ERK10QByteArrayi @ 104 NONAME
	_ZN18QMemoryVideoBufferC2ERK10QByteArrayi @ 105 NONAME
	_ZN18QMemoryVideoBufferD0Ev @ 106 NONAME
	_ZN18QMemoryVideoBufferD1Ev @ 107 NONAME
	_ZN18QMemoryVideoBufferD2Ev @ 108 NONAME
	_ZN19QAbstractAudioInput11qt_metacallEN11QMetaObject4CallEiPPv @ 109 NONAME
	_ZN19QAbstractAudioInput11qt_metacastEPKc @ 110 NONAME
	_ZN19QAbstractAudioInput12stateChangedEN6QAudio5StateE @ 111 NONAME
	_ZN19QAbstractAudioInput16staticMetaObjectE @ 112 NONAME DATA 16
	_ZN19QAbstractAudioInput19getStaticMetaObjectEv @ 113 NONAME
	_ZN19QAbstractAudioInput6notifyEv @ 114 NONAME
	_ZN19QVideoSurfaceFormat11setPropertyEPKcRK8QVariant @ 115 NONAME
	_ZN19QVideoSurfaceFormat11setViewportERK5QRect @ 116 NONAME
	_ZN19QVideoSurfaceFormat12setFrameRateERK5QPairIiiE @ 117 NONAME ABSENT
	_ZN19QVideoSurfaceFormat12setFrameRateEii @ 118 NONAME ABSENT
	_ZN19QVideoSurfaceFormat12setFrameSizeERK5QSizeNS_12ViewportModeE @ 119 NONAME ABSENT
	_ZN19QVideoSurfaceFormat12setFrameSizeEiiNS_12ViewportModeE @ 120 NONAME ABSENT
	_ZN19QVideoSurfaceFormat16setYuvColorSpaceENS_13YuvColorSpaceE @ 121 NONAME ABSENT
	_ZN19QVideoSurfaceFormat19setPixelAspectRatioERK5QSize @ 122 NONAME
	_ZN19QVideoSurfaceFormat19setPixelAspectRatioEii @ 123 NONAME
	_ZN19QVideoSurfaceFormat20setScanLineDirectionENS_9DirectionE @ 124 NONAME
	_ZN19QVideoSurfaceFormatC1ERK5QSizeN11QVideoFrame11PixelFormatEN20QAbstractVideoBuffer10HandleTypeE @ 125 NONAME
	_ZN19QVideoSurfaceFormatC1ERKS_ @ 126 NONAME
	_ZN19QVideoSurfaceFormatC1Ev @ 127 NONAME
	_ZN19QVideoSurfaceFormatC2ERK5QSizeN11QVideoFrame11PixelFormatEN20QAbstractVideoBuffer10HandleTypeE @ 128 NONAME
	_ZN19QVideoSurfaceFormatC2ERKS_ @ 129 NONAME
	_ZN19QVideoSurfaceFormatC2Ev @ 130 NONAME
	_ZN19QVideoSurfaceFormatD1Ev @ 131 NONAME
	_ZN19QVideoSurfaceFormatD2Ev @ 132 NONAME
	_ZN19QVideoSurfaceFormataSERKS_ @ 133 NONAME
	_ZN20QAbstractAudioOutput11qt_metacallEN11QMetaObject4CallEiPPv @ 134 NONAME
	_ZN20QAbstractAudioOutput11qt_metacastEPKc @ 135 NONAME
	_ZN20QAbstractAudioOutput12stateChangedEN6QAudio5StateE @ 136 NONAME
	_ZN20QAbstractAudioOutput16staticMetaObjectE @ 137 NONAME DATA 16
	_ZN20QAbstractAudioOutput19getStaticMetaObjectEv @ 138 NONAME
	_ZN20QAbstractAudioOutput6notifyEv @ 139 NONAME
	_ZN20QAbstractVideoBufferC2ENS_10HandleTypeE @ 140 NONAME
	_ZN20QAbstractVideoBufferC2ER27QAbstractVideoBufferPrivateNS_10HandleTypeE @ 141 NONAME
	_ZN20QAbstractVideoBufferD0Ev @ 142 NONAME
	_ZN20QAbstractVideoBufferD1Ev @ 143 NONAME
	_ZN20QAbstractVideoBufferD2Ev @ 144 NONAME
	_ZN21QAbstractVideoSurface11qt_metacallEN11QMetaObject4CallEiPPv @ 145 NONAME
	_ZN21QAbstractVideoSurface11qt_metacastEPKc @ 146 NONAME
	_ZN21QAbstractVideoSurface14startedChangedEb @ 147 NONAME ABSENT
	_ZN21QAbstractVideoSurface16staticMetaObjectE @ 148 NONAME DATA 16
	_ZN21QAbstractVideoSurface19getStaticMetaObjectEv @ 149 NONAME
	_ZN21QAbstractVideoSurface20surfaceFormatChangedERK19QVideoSurfaceFormat @ 150 NONAME
	_ZN21QAbstractVideoSurface23supportedFormatsChangedEv @ 151 NONAME
	_ZN21QAbstractVideoSurface4stopEv @ 152 NONAME
	_ZN21QAbstractVideoSurface5startERK19QVideoSurfaceFormat @ 153 NONAME
	_ZN21QAbstractVideoSurface8setErrorENS_5ErrorE @ 154 NONAME
	_ZN21QAbstractVideoSurfaceC2EP7QObject @ 155 NONAME
	_ZN21QAbstractVideoSurfaceC2ER28QAbstractVideoSurfacePrivateP7QObject @ 156 NONAME
	_ZN21QAbstractVideoSurfaceD0Ev @ 157 NONAME
	_ZN21QAbstractVideoSurfaceD1Ev @ 158 NONAME
	_ZN21QAbstractVideoSurfaceD2Ev @ 159 NONAME
	_ZN24QAbstractAudioDeviceInfo11qt_metacallEN11QMetaObject4CallEiPPv @ 160 NONAME
	_ZN24QAbstractAudioDeviceInfo11qt_metacastEPKc @ 161 NONAME
	_ZN24QAbstractAudioDeviceInfo16staticMetaObjectE @ 162 NONAME DATA 16
	_ZN24QAbstractAudioDeviceInfo19getStaticMetaObjectEv @ 163 NONAME
	_ZNK11QAudioInput10bufferSizeEv @ 164 NONAME
	_ZNK11QAudioInput10bytesReadyEv @ 165 NONAME
	_ZNK11QAudioInput10metaObjectEv @ 166 NONAME
	_ZNK11QAudioInput10periodSizeEv @ 167 NONAME
	_ZNK11QAudioInput14notifyIntervalEv @ 168 NONAME
	_ZNK11QAudioInput5clockEv @ 169 NONAME ABSENT
	_ZNK11QAudioInput5errorEv @ 170 NONAME
	_ZNK11QAudioInput5stateEv @ 171 NONAME
	_ZNK11QAudioInput6formatEv @ 172 NONAME
	_ZNK11QAudioInput9totalTimeEv @ 173 NONAME ABSENT
	_ZNK11QVideoFrame10handleTypeEv @ 174 NONAME
	_ZNK11QVideoFrame10isReadableEv @ 175 NONAME
	_ZNK11QVideoFrame10isWritableEv @ 176 NONAME
	_ZNK11QVideoFrame11pixelFormatEv @ 177 NONAME
	_ZNK11QVideoFrame12bytesPerLineEv @ 178 NONAME
	_ZNK11QVideoFrame4bitsEv @ 179 NONAME
	_ZNK11QVideoFrame4sizeEv @ 180 NONAME
	_ZNK11QVideoFrame5widthEv @ 181 NONAME
	_ZNK11QVideoFrame6handleEv @ 182 NONAME
	_ZNK11QVideoFrame6heightEv @ 183 NONAME
	_ZNK11QVideoFrame7endTimeEv @ 184 NONAME
	_ZNK11QVideoFrame7isValidEv @ 185 NONAME
	_ZNK11QVideoFrame7mapModeEv @ 186 NONAME
	_ZNK11QVideoFrame8isMappedEv @ 187 NONAME
	_ZNK11QVideoFrame8numBytesEv @ 188 NONAME ABSENT
	_ZNK11QVideoFrame9fieldTypeEv @ 189 NONAME
	_ZNK11QVideoFrame9startTimeEv @ 190 NONAME
	_ZNK12QAudioFormat10sampleSizeEv @ 191 NONAME
	_ZNK12QAudioFormat10sampleTypeEv @ 192 NONAME
	_ZNK12QAudioFormat5codecEv @ 193 NONAME
	_ZNK12QAudioFormat6isNullEv @ 194 NONAME ABSENT
	_ZNK12QAudioFormat8channelsEv @ 195 NONAME
	_ZNK12QAudioFormat9byteOrderEv @ 196 NONAME
	_ZNK12QAudioFormat9frequencyEv @ 197 NONAME
	_ZNK12QAudioFormateqERKS_ @ 198 NONAME
	_ZNK12QAudioFormatneERKS_ @ 199 NONAME
	_ZNK12QAudioOutput10bufferSizeEv @ 200 NONAME
	_ZNK12QAudioOutput10metaObjectEv @ 201 NONAME
	_ZNK12QAudioOutput10periodSizeEv @ 202 NONAME
	_ZNK12QAudioOutput14notifyIntervalEv @ 203 NONAME
	_ZNK12QAudioOutput5clockEv @ 204 NONAME ABSENT
	_ZNK12QAudioOutput5errorEv @ 205 NONAME
	_ZNK12QAudioOutput5stateEv @ 206 NONAME
	_ZNK12QAudioOutput6formatEv @ 207 NONAME
	_ZNK12QAudioOutput9bytesFreeEv @ 208 NONAME
	_ZNK12QAudioOutput9totalTimeEv @ 209 NONAME ABSENT
	_ZNK16QAudioDeviceInfo10deviceNameEv @ 210 NONAME
	_ZNK16QAudioDeviceInfo13nearestFormatERK12QAudioFormat @ 211 NONAME
	_ZNK16QAudioDeviceInfo15preferredFormatEv @ 212 NONAME
	_ZNK16QAudioDeviceInfo15supportedCodecsEv @ 213 NONAME
	_ZNK16QAudioDeviceInfo17isFormatSupportedERK12QAudioFormat @ 214 NONAME
	_ZNK16QAudioDeviceInfo17supportedChannelsEv @ 215 NONAME
	_ZNK16QAudioDeviceInfo19supportedByteOrdersEv @ 216 NONAME
	_ZNK16QAudioDeviceInfo20supportedFrequenciesEv @ 217 NONAME
	_ZNK16QAudioDeviceInfo20supportedSampleSizesEv @ 218 NONAME
	_ZNK16QAudioDeviceInfo20supportedSampleTypesEv @ 219 NONAME
	_ZNK16QAudioDeviceInfo4modeEv @ 220 NONAME
	_ZNK16QAudioDeviceInfo5realmEv @ 221 NONAME
	_ZNK16QAudioDeviceInfo6handleEv @ 222 NONAME
	_ZNK16QAudioDeviceInfo6isNullEv @ 223 NONAME
	_ZNK17QImageVideoBuffer7mapModeEv @ 224 NONAME
	_ZNK18QAudioEnginePlugin10metaObjectEv @ 225 NONAME
	_ZNK18QMemoryVideoBuffer7mapModeEv @ 226 NONAME
	_ZNK19QAbstractAudioInput10metaObjectEv @ 227 NONAME
	_ZNK19QVideoSurfaceFormat10frameWidthEv @ 228 NONAME
	_ZNK19QVideoSurfaceFormat10handleTypeEv @ 229 NONAME
	_ZNK19QVideoSurfaceFormat11frameHeightEv @ 230 NONAME
	_ZNK19QVideoSurfaceFormat11pixelFormatEv @ 231 NONAME
	_ZNK19QVideoSurfaceFormat13propertyNamesEv @ 232 NONAME
	_ZNK19QVideoSurfaceFormat13yuvColorSpaceEv @ 233 NONAME ABSENT
	_ZNK19QVideoSurfaceFormat16pixelAspectRatioEv @ 234 NONAME
	_ZNK19QVideoSurfaceFormat17scanLineDirectionEv @ 235 NONAME
	_ZNK19QVideoSurfaceFormat7isValidEv @ 236 NONAME
	_ZNK19QVideoSurfaceFormat8propertyEPKc @ 237 NONAME
	_ZNK19QVideoSurfaceFormat8sizeHintEv @ 238 NONAME
	_ZNK19QVideoSurfaceFormat8viewportEv @ 239 NONAME
	_ZNK19QVideoSurfaceFormat9frameRateEv @ 240 NONAME
	_ZNK19QVideoSurfaceFormat9frameSizeEv @ 241 NONAME
	_ZNK19QVideoSurfaceFormateqERKS_ @ 242 NONAME
	_ZNK19QVideoSurfaceFormatneERKS_ @ 243 NONAME
	_ZNK20QAbstractAudioOutput10metaObjectEv @ 244 NONAME
	_ZNK20QAbstractVideoBuffer10handleTypeEv @ 245 NONAME
	_ZNK20QAbstractVideoBuffer6handleEv @ 246 NONAME
	_ZNK21QAbstractVideoSurface10metaObjectEv @ 247 NONAME
	_ZNK21QAbstractVideoSurface13surfaceFormatEv @ 248 NONAME
	_ZNK21QAbstractVideoSurface17isFormatSupportedERK19QVideoSurfaceFormatPS0_ @ 249 NONAME ABSENT
	_ZNK21QAbstractVideoSurface5errorEv @ 250 NONAME
	_ZNK21QAbstractVideoSurface9isStartedEv @ 251 NONAME ABSENT
	_ZNK24QAbstractAudioDeviceInfo10metaObjectEv @ 252 NONAME
	_ZTI11QAudioInput @ 253 NONAME
	_ZTI12QAudioOutput @ 254 NONAME
	_ZTI17QImageVideoBuffer @ 255 NONAME
	_ZTI18QAudioEnginePlugin @ 256 NONAME
	_ZTI18QMemoryVideoBuffer @ 257 NONAME
	_ZTI19QAbstractAudioInput @ 258 NONAME
	_ZTI20QAbstractAudioOutput @ 259 NONAME
	_ZTI20QAbstractVideoBuffer @ 260 NONAME
	_ZTI21QAbstractVideoSurface @ 261 NONAME
	_ZTI24QAbstractAudioDeviceInfo @ 262 NONAME
	_ZTI28QAudioEngineFactoryInterface @ 263 NONAME
	_ZTV11QAudioInput @ 264 NONAME
	_ZTV12QAudioOutput @ 265 NONAME
	_ZTV17QImageVideoBuffer @ 266 NONAME
	_ZTV18QAudioEnginePlugin @ 267 NONAME
	_ZTV18QMemoryVideoBuffer @ 268 NONAME
	_ZTV19QAbstractAudioInput @ 269 NONAME
	_ZTV20QAbstractAudioOutput @ 270 NONAME
	_ZTV20QAbstractVideoBuffer @ 271 NONAME
	_ZTV21QAbstractVideoSurface @ 272 NONAME
	_ZTV24QAbstractAudioDeviceInfo @ 273 NONAME
	_ZThn8_N18QAudioEnginePluginD0Ev @ 274 NONAME
	_ZThn8_N18QAudioEnginePluginD1Ev @ 275 NONAME
	_Zls6QDebugRK19QVideoSurfaceFormat @ 276 NONAME
	_ZN11QAudioInput5startEv @ 277 NONAME
	_ZN11QVideoFrame26imageFormatFromPixelFormatENS_11PixelFormatE @ 278 NONAME
	_ZN11QVideoFrame26pixelFormatFromImageFormatEN6QImage6FormatE @ 279 NONAME
	_ZN12QAudioOutput5startEv @ 280 NONAME
	_ZN16QAudioDeviceInfo16availableDevicesEN6QAudio4ModeE @ 281 NONAME
	_ZN19QVideoSurfaceFormat12setFrameRateEf @ 282 NONAME
	_ZN19QVideoSurfaceFormat12setFrameSizeERK5QSize @ 283 NONAME
	_ZN19QVideoSurfaceFormat12setFrameSizeEii @ 284 NONAME
	_ZN19QVideoSurfaceFormat18setYCbCrColorSpaceENS_15YCbCrColorSpaceE @ 285 NONAME
	_ZN21QAbstractVideoSurface13activeChangedEb @ 286 NONAME
	_ZNK11QAudioInput12elapsedUSecsEv @ 287 NONAME
	_ZNK11QAudioInput14processedUSecsEv @ 288 NONAME
	_ZNK11QVideoFrame11mappedBytesEv @ 289 NONAME
	_ZNK12QAudioFormat7isValidEv @ 290 NONAME
	_ZNK12QAudioOutput12elapsedUSecsEv @ 291 NONAME
	_ZNK12QAudioOutput14processedUSecsEv @ 292 NONAME
	_ZNK19QVideoSurfaceFormat15yCbCrColorSpaceEv @ 293 NONAME
	_ZNK21QAbstractVideoSurface13nearestFormatERK19QVideoSurfaceFormat @ 294 NONAME
	_ZNK21QAbstractVideoSurface17isFormatSupportedERK19QVideoSurfaceFormat @ 295 NONAME
	_ZNK21QAbstractVideoSurface8isActiveEv @ 296 NONAME
	_ZN12QAudioFormat13setSampleRateEi @ 297 NONAME
	_ZN12QAudioFormat15setChannelCountEi @ 298 NONAME
	_ZNK12QAudioFormat10sampleRateEv @ 299 NONAME
	_ZNK12QAudioFormat12channelCountEv @ 300 NONAME
	_ZNK16QAudioDeviceInfo20supportedSampleRatesEv @ 301 NONAME
	_ZNK16QAudioDeviceInfo22supportedChannelCountsEv @ 302 NONAME
	_ZN11QAudioInput18qt_static_metacallEP7QObjectN11QMetaObject4CallEiPPv @ 303 NONAME
	_ZN11QAudioInput25staticMetaObjectExtraDataE @ 304 NONAME DATA 8
	_ZN12QAudioOutput18qt_static_metacallEP7QObjectN11QMetaObject4CallEiPPv @ 305 NONAME
	_ZN12QAudioOutput25staticMetaObjectExtraDataE @ 306 NONAME DATA 8
	_ZN18QAudioEnginePlugin18qt_static_metacallEP7QObjectN11QMetaObject4CallEiPPv @ 307 NONAME
	_ZN18QAudioEnginePlugin25staticMetaObjectExtraDataE @ 308 NONAME DATA 8
	_ZN19QAbstractAudioInput18qt_static_metacallEP7QObjectN11QMetaObject4CallEiPPv @ 309 NONAME
	_ZN19QAbstractAudioInput25staticMetaObjectExtraDataE @ 310 NONAME DATA 8
	_ZN20QAbstractAudioOutput18qt_static_metacallEP7QObjectN11QMetaObject4CallEiPPv @ 311 NONAME
	_ZN20QAbstractAudioOutput25staticMetaObjectExtraDataE @ 312 NONAME DATA 8
	_ZN21QAbstractVideoSurface18qt_static_metacallEP7QObjectN11QMetaObject4CallEiPPv @ 313 NONAME
	_ZN21QAbstractVideoSurface25staticMetaObjectExtraDataE @ 314 NONAME DATA 8
	_ZN24QAbstractAudioDeviceInfo18qt_static_metacallEP7QObjectN11QMetaObject4CallEiPPv @ 315 NONAME
	_ZN24QAbstractAudioDeviceInfo25staticMetaObjectExtraDataE @ 316 NONAME DATA 8

