EXPORTS
	_Z5qHashRK12QHostAddress @ 1 NONAME
	_ZN10QSslCipherC1ERK7QStringN4QSsl11SslProtocolE @ 2 NONAME
	_ZN10QSslCipherC1ERKS_ @ 3 NONAME
	_ZN10QSslCipherC1Ev @ 4 NONAME
	_ZN10QSslCipherC2ERK7QStringN4QSsl11SslProtocolE @ 5 NONAME
	_ZN10QSslCipherC2ERKS_ @ 6 NONAME
	_ZN10QSslCipherC2Ev @ 7 NONAME
	_ZN10QSslCipherD1Ev @ 8 NONAME
	_ZN10QSslCipherD2Ev @ 9 NONAME
	_ZN10QSslCipheraSERKS_ @ 10 NONAME
	_ZN10QSslSocket10setCiphersERK5QListI10QSslCipherE @ 11 NONAME
	_ZN10QSslSocket10setCiphersERK7QString @ 12 NONAME
	_ZN10QSslSocket11modeChangedENS_7SslModeE @ 13 NONAME
	_ZN10QSslSocket11qt_metacallEN11QMetaObject4CallEiPPv @ 14 NONAME
	_ZN10QSslSocket11qt_metacastEPKc @ 15 NONAME
	_ZN10QSslSocket11setProtocolEN4QSsl11SslProtocolE @ 16 NONAME
	_ZN10QSslSocket11supportsSslEv @ 17 NONAME
	_ZN10QSslSocket13setPrivateKeyERK7QSslKey @ 18 NONAME
	_ZN10QSslSocket13setPrivateKeyERK7QStringN4QSsl12KeyAlgorithmENS3_14EncodingFormatERK10QByteArray @ 19 NONAME
	_ZN10QSslSocket14defaultCiphersEv @ 20 NONAME
	_ZN10QSslSocket15ignoreSslErrorsERK5QListI9QSslErrorE @ 21 NONAME
	_ZN10QSslSocket15ignoreSslErrorsEv @ 22 NONAME
	_ZN10QSslSocket15peerVerifyErrorERK9QSslError @ 23 NONAME
	_ZN10QSslSocket16addCaCertificateERK15QSslCertificate @ 24 NONAME
	_ZN10QSslSocket16staticMetaObjectE @ 25 NONAME DATA 16
	_ZN10QSslSocket16supportedCiphersEv @ 26 NONAME
	_ZN10QSslSocket16waitForConnectedEi @ 27 NONAME
	_ZN10QSslSocket16waitForEncryptedEi @ 28 NONAME
	_ZN10QSslSocket16waitForReadyReadEi @ 29 NONAME
	_ZN10QSslSocket17addCaCertificatesERK5QListI15QSslCertificateE @ 30 NONAME
	_ZN10QSslSocket17addCaCertificatesERK7QStringN4QSsl14EncodingFormatEN7QRegExp13PatternSyntaxE @ 31 NONAME
	_ZN10QSslSocket17setCaCertificatesERK5QListI15QSslCertificateE @ 32 NONAME
	_ZN10QSslSocket17setDefaultCiphersERK5QListI10QSslCipherE @ 33 NONAME
	_ZN10QSslSocket17setPeerVerifyModeENS_14PeerVerifyModeE @ 34 NONAME
	_ZN10QSslSocket17setReadBufferSizeEx @ 35 NONAME
	_ZN10QSslSocket18setPeerVerifyDepthEi @ 36 NONAME
	_ZN10QSslSocket19getStaticMetaObjectEv @ 37 NONAME
	_ZN10QSslSocket19setLocalCertificateERK15QSslCertificate @ 38 NONAME
	_ZN10QSslSocket19setLocalCertificateERK7QStringN4QSsl14EncodingFormatE @ 39 NONAME
	_ZN10QSslSocket19setSocketDescriptorEiN15QAbstractSocket11SocketStateE6QFlagsIN9QIODevice12OpenModeFlagEE @ 40 NONAME
	_ZN10QSslSocket19setSslConfigurationERK17QSslConfiguration @ 41 NONAME
	_ZN10QSslSocket19waitForBytesWrittenEi @ 42 NONAME
	_ZN10QSslSocket19waitForDisconnectedEi @ 43 NONAME
	_ZN10QSslSocket20systemCaCertificatesEv @ 44 NONAME
	_ZN10QSslSocket21defaultCaCertificatesEv @ 45 NONAME
	_ZN10QSslSocket21encryptedBytesWrittenEx @ 46 NONAME
	_ZN10QSslSocket21startClientEncryptionEv @ 47 NONAME
	_ZN10QSslSocket21startServerEncryptionEv @ 48 NONAME
	_ZN10QSslSocket22connectToHostEncryptedERK7QStringt6QFlagsIN9QIODevice12OpenModeFlagEE @ 49 NONAME
	_ZN10QSslSocket22connectToHostEncryptedERK7QStringtS2_6QFlagsIN9QIODevice12OpenModeFlagEE @ 50 NONAME
	_ZN10QSslSocket23addDefaultCaCertificateERK15QSslCertificate @ 51 NONAME
	_ZN10QSslSocket24addDefaultCaCertificatesERK5QListI15QSslCertificateE @ 52 NONAME
	_ZN10QSslSocket24addDefaultCaCertificatesERK7QStringN4QSsl14EncodingFormatEN7QRegExp13PatternSyntaxE @ 53 NONAME
	_ZN10QSslSocket24setDefaultCaCertificatesERK5QListI15QSslCertificateE @ 54 NONAME
	_ZN10QSslSocket27connectToHostImplementationERK7QStringt6QFlagsIN9QIODevice12OpenModeFlagEE @ 55 NONAME
	_ZN10QSslSocket32disconnectFromHostImplementationEv @ 56 NONAME
	_ZN10QSslSocket5abortEv @ 57 NONAME
	_ZN10QSslSocket5closeEv @ 58 NONAME
	_ZN10QSslSocket5flushEv @ 59 NONAME
	_ZN10QSslSocket8readDataEPcx @ 60 NONAME
	_ZN10QSslSocket9encryptedEv @ 61 NONAME
	_ZN10QSslSocket9sslErrorsERK5QListI9QSslErrorE @ 62 NONAME
	_ZN10QSslSocket9writeDataEPKcx @ 63 NONAME
	_ZN10QSslSocketC1EP7QObject @ 64 NONAME
	_ZN10QSslSocketC2EP7QObject @ 65 NONAME
	_ZN10QSslSocketD0Ev @ 66 NONAME
	_ZN10QSslSocketD1Ev @ 67 NONAME
	_ZN10QSslSocketD2Ev @ 68 NONAME
	_ZN10QTcpServer11qt_metacallEN11QMetaObject4CallEiPPv @ 69 NONAME
	_ZN10QTcpServer11qt_metacastEPKc @ 70 NONAME
	_ZN10QTcpServer13newConnectionEv @ 71 NONAME
	_ZN10QTcpServer16staticMetaObjectE @ 72 NONAME DATA 16
	_ZN10QTcpServer18incomingConnectionEi @ 73 NONAME
	_ZN10QTcpServer19getStaticMetaObjectEv @ 74 NONAME
	_ZN10QTcpServer19setSocketDescriptorEi @ 75 NONAME
	_ZN10QTcpServer20waitForNewConnectionEiPb @ 76 NONAME
	_ZN10QTcpServer21nextPendingConnectionEv @ 77 NONAME
	_ZN10QTcpServer24setMaxPendingConnectionsEi @ 78 NONAME
	_ZN10QTcpServer5closeEv @ 79 NONAME
	_ZN10QTcpServer6listenERK12QHostAddresst @ 80 NONAME
	_ZN10QTcpServer8setProxyERK13QNetworkProxy @ 81 NONAME
	_ZN10QTcpServerC1EP7QObject @ 82 NONAME
	_ZN10QTcpServerC2EP7QObject @ 83 NONAME
	_ZN10QTcpServerD0Ev @ 84 NONAME
	_ZN10QTcpServerD1Ev @ 85 NONAME
	_ZN10QTcpServerD2Ev @ 86 NONAME
	_ZN10QTcpSocket11qt_metacallEN11QMetaObject4CallEiPPv @ 87 NONAME
	_ZN10QTcpSocket11qt_metacastEPKc @ 88 NONAME
	_ZN10QTcpSocket16staticMetaObjectE @ 89 NONAME DATA 16
	_ZN10QTcpSocket19getStaticMetaObjectEv @ 90 NONAME
	_ZN10QTcpSocketC1EP7QObject @ 91 NONAME
	_ZN10QTcpSocketC1ER17QTcpSocketPrivateP7QObject @ 92 NONAME
	_ZN10QTcpSocketC2EP7QObject @ 93 NONAME
	_ZN10QTcpSocketC2ER17QTcpSocketPrivateP7QObject @ 94 NONAME
	_ZN10QTcpSocketD0Ev @ 95 NONAME
	_ZN10QTcpSocketD1Ev @ 96 NONAME
	_ZN10QTcpSocketD2Ev @ 97 NONAME
	_ZN10QUdpSocket11qt_metacallEN11QMetaObject4CallEiPPv @ 98 NONAME
	_ZN10QUdpSocket11qt_metacastEPKc @ 99 NONAME
	_ZN10QUdpSocket12readDatagramEPcxP12QHostAddressPt @ 100 NONAME
	_ZN10QUdpSocket13writeDatagramEPKcxRK12QHostAddresst @ 101 NONAME
	_ZN10QUdpSocket16staticMetaObjectE @ 102 NONAME DATA 16
	_ZN10QUdpSocket19getStaticMetaObjectEv @ 103 NONAME
	_ZN10QUdpSocket4bindERK12QHostAddresst @ 104 NONAME
	_ZN10QUdpSocket4bindERK12QHostAddresst6QFlagsINS_8BindFlagEE @ 105 NONAME
	_ZN10QUdpSocket4bindEt @ 106 NONAME
	_ZN10QUdpSocket4bindEt6QFlagsINS_8BindFlagEE @ 107 NONAME
	_ZN10QUdpSocketC1EP7QObject @ 108 NONAME
	_ZN10QUdpSocketC2EP7QObject @ 109 NONAME
	_ZN10QUdpSocketD0Ev @ 110 NONAME
	_ZN10QUdpSocketD1Ev @ 111 NONAME
	_ZN10QUdpSocketD2Ev @ 112 NONAME
	_ZN11QHttpHeader11removeValueERK7QString @ 113 NONAME
	_ZN11QHttpHeader14setContentTypeERK7QString @ 114 NONAME
	_ZN11QHttpHeader15removeAllValuesERK7QString @ 115 NONAME
	_ZN11QHttpHeader16setContentLengthEi @ 116 NONAME
	_ZN11QHttpHeader5parseERK7QString @ 117 NONAME
	_ZN11QHttpHeader8addValueERK7QStringS2_ @ 118 NONAME
	_ZN11QHttpHeader8setValidEb @ 119 NONAME
	_ZN11QHttpHeader8setValueERK7QStringS2_ @ 120 NONAME
	_ZN11QHttpHeader9parseLineERK7QStringi @ 121 NONAME
	_ZN11QHttpHeader9setValuesERK5QListI5QPairI7QStringS2_EE @ 122 NONAME
	_ZN11QHttpHeaderC2ER18QHttpHeaderPrivateRK7QString @ 123 NONAME
	_ZN11QHttpHeaderC2ER18QHttpHeaderPrivateRKS_ @ 124 NONAME
	_ZN11QHttpHeaderC2ERK7QString @ 125 NONAME
	_ZN11QHttpHeaderC2ERKS_ @ 126 NONAME
	_ZN11QHttpHeaderC2Ev @ 127 NONAME
	_ZN11QHttpHeaderD0Ev @ 128 NONAME
	_ZN11QHttpHeaderD1Ev @ 129 NONAME
	_ZN11QHttpHeaderD2Ev @ 130 NONAME
	_ZN11QHttpHeaderaSERKS_ @ 131 NONAME
	_ZN12QHostAddress10setAddressEPK8sockaddr @ 132 NONAME
	_ZN12QHostAddress10setAddressEPh @ 133 NONAME
	_ZN12QHostAddress10setAddressERK12QIPv6Address @ 134 NONAME
	_ZN12QHostAddress10setAddressERK7QString @ 135 NONAME
	_ZN12QHostAddress10setAddressEj @ 136 NONAME
	_ZN12QHostAddress10setScopeIdERK7QString @ 137 NONAME
	_ZN12QHostAddress11parseSubnetERK7QString @ 138 NONAME
	_ZN12QHostAddress5clearEv @ 139 NONAME
	_ZN12QHostAddressC1ENS_14SpecialAddressE @ 140 NONAME
	_ZN12QHostAddressC1EPK8sockaddr @ 141 NONAME
	_ZN12QHostAddressC1EPh @ 142 NONAME
	_ZN12QHostAddressC1ERK12QIPv6Address @ 143 NONAME
	_ZN12QHostAddressC1ERK7QString @ 144 NONAME
	_ZN12QHostAddressC1ERKS_ @ 145 NONAME
	_ZN12QHostAddressC1Ej @ 146 NONAME
	_ZN12QHostAddressC1Ev @ 147 NONAME
	_ZN12QHostAddressC2ENS_14SpecialAddressE @ 148 NONAME
	_ZN12QHostAddressC2EPK8sockaddr @ 149 NONAME
	_ZN12QHostAddressC2EPh @ 150 NONAME
	_ZN12QHostAddressC2ERK12QIPv6Address @ 151 NONAME
	_ZN12QHostAddressC2ERK7QString @ 152 NONAME
	_ZN12QHostAddressC2ERKS_ @ 153 NONAME
	_ZN12QHostAddressC2Ej @ 154 NONAME
	_ZN12QHostAddressC2Ev @ 155 NONAME
	_ZN12QHostAddressD1Ev @ 156 NONAME
	_ZN12QHostAddressD2Ev @ 157 NONAME
	_ZN12QHostAddressaSERK7QString @ 158 NONAME
	_ZN12QHostAddressaSERKS_ @ 159 NONAME
	_ZN12QLocalServer11qt_metacallEN11QMetaObject4CallEiPPv @ 160 NONAME
	_ZN12QLocalServer11qt_metacastEPKc @ 161 NONAME
	_ZN12QLocalServer12removeServerERK7QString @ 162 NONAME
	_ZN12QLocalServer13newConnectionEv @ 163 NONAME
	_ZN12QLocalServer16staticMetaObjectE @ 164 NONAME DATA 16
	_ZN12QLocalServer18incomingConnectionEj @ 165 NONAME
	_ZN12QLocalServer19getStaticMetaObjectEv @ 166 NONAME
	_ZN12QLocalServer20waitForNewConnectionEiPb @ 167 NONAME
	_ZN12QLocalServer21nextPendingConnectionEv @ 168 NONAME
	_ZN12QLocalServer24setMaxPendingConnectionsEi @ 169 NONAME
	_ZN12QLocalServer5closeEv @ 170 NONAME
	_ZN12QLocalServer6listenERK7QString @ 171 NONAME
	_ZN12QLocalServerC1EP7QObject @ 172 NONAME
	_ZN12QLocalServerC2EP7QObject @ 173 NONAME
	_ZN12QLocalServerD0Ev @ 174 NONAME
	_ZN12QLocalServerD1Ev @ 175 NONAME
	_ZN12QLocalServerD2Ev @ 176 NONAME
	_ZN12QLocalSocket11qt_metacallEN11QMetaObject4CallEiPPv @ 177 NONAME
	_ZN12QLocalSocket11qt_metacastEPKc @ 178 NONAME
	_ZN12QLocalSocket12disconnectedEv @ 179 NONAME
	_ZN12QLocalSocket12stateChangedENS_16LocalSocketStateE @ 180 NONAME
	_ZN12QLocalSocket15connectToServerERK7QString6QFlagsIN9QIODevice12OpenModeFlagEE @ 181 NONAME
	_ZN12QLocalSocket16staticMetaObjectE @ 182 NONAME DATA 16
	_ZN12QLocalSocket16waitForConnectedEi @ 183 NONAME
	_ZN12QLocalSocket16waitForReadyReadEi @ 184 NONAME
	_ZN12QLocalSocket17setReadBufferSizeEx @ 185 NONAME
	_ZN12QLocalSocket19getStaticMetaObjectEv @ 186 NONAME
	_ZN12QLocalSocket19setSocketDescriptorEjNS_16LocalSocketStateE6QFlagsIN9QIODevice12OpenModeFlagEE @ 187 NONAME
	_ZN12QLocalSocket19waitForBytesWrittenEi @ 188 NONAME
	_ZN12QLocalSocket19waitForDisconnectedEi @ 189 NONAME
	_ZN12QLocalSocket20disconnectFromServerEv @ 190 NONAME
	_ZN12QLocalSocket5abortEv @ 191 NONAME
	_ZN12QLocalSocket5closeEv @ 192 NONAME
	_ZN12QLocalSocket5errorENS_16LocalSocketErrorE @ 193 NONAME
	_ZN12QLocalSocket5flushEv @ 194 NONAME
	_ZN12QLocalSocket8readDataEPcx @ 195 NONAME
	_ZN12QLocalSocket9connectedEv @ 196 NONAME
	_ZN12QLocalSocket9writeDataEPKcx @ 197 NONAME
	_ZN12QLocalSocketC1EP7QObject @ 198 NONAME
	_ZN12QLocalSocketC2EP7QObject @ 199 NONAME
	_ZN12QLocalSocketD0Ev @ 200 NONAME
	_ZN12QLocalSocketD1Ev @ 201 NONAME
	_ZN12QLocalSocketD2Ev @ 202 NONAME
	_ZN13QNetworkProxy11setHostNameERK7QString @ 203 NONAME
	_ZN13QNetworkProxy11setPasswordERK7QString @ 204 NONAME
	_ZN13QNetworkProxy15setCapabilitiesE6QFlagsINS_10CapabilityEE @ 205 NONAME
	_ZN13QNetworkProxy16applicationProxyEv @ 206 NONAME
	_ZN13QNetworkProxy19setApplicationProxyERKS_ @ 207 NONAME
	_ZN13QNetworkProxy7setPortEt @ 208 NONAME
	_ZN13QNetworkProxy7setTypeENS_9ProxyTypeE @ 209 NONAME
	_ZN13QNetworkProxy7setUserERK7QString @ 210 NONAME
	_ZN13QNetworkProxyC1ENS_9ProxyTypeERK7QStringtS3_S3_ @ 211 NONAME
	_ZN13QNetworkProxyC1ERKS_ @ 212 NONAME
	_ZN13QNetworkProxyC1Ev @ 213 NONAME
	_ZN13QNetworkProxyC2ENS_9ProxyTypeERK7QStringtS3_S3_ @ 214 NONAME
	_ZN13QNetworkProxyC2ERKS_ @ 215 NONAME
	_ZN13QNetworkProxyC2Ev @ 216 NONAME
	_ZN13QNetworkProxyD1Ev @ 217 NONAME
	_ZN13QNetworkProxyD2Ev @ 218 NONAME
	_ZN13QNetworkProxyaSERKS_ @ 219 NONAME
	_ZN13QNetworkReply10setRequestERK15QNetworkRequest @ 220 NONAME
	_ZN13QNetworkReply11qt_metacallEN11QMetaObject4CallEiPPv @ 221 NONAME
	_ZN13QNetworkReply11qt_metacastEPKc @ 222 NONAME
	_ZN13QNetworkReply12setAttributeEN15QNetworkRequest9AttributeERK8QVariant @ 223 NONAME
	_ZN13QNetworkReply12setOperationEN21QNetworkAccessManager9OperationE @ 224 NONAME
	_ZN13QNetworkReply12setRawHeaderERK10QByteArrayS2_ @ 225 NONAME
	_ZN13QNetworkReply14uploadProgressExx @ 226 NONAME
	_ZN13QNetworkReply15ignoreSslErrorsERK5QListI9QSslErrorE @ 227 NONAME
	_ZN13QNetworkReply15ignoreSslErrorsEv @ 228 NONAME
	_ZN13QNetworkReply15metaDataChangedEv @ 229 NONAME
	_ZN13QNetworkReply16downloadProgressExx @ 230 NONAME
	_ZN13QNetworkReply16staticMetaObjectE @ 231 NONAME DATA 16
	_ZN13QNetworkReply17setReadBufferSizeEx @ 232 NONAME
	_ZN13QNetworkReply19getStaticMetaObjectEv @ 233 NONAME
	_ZN13QNetworkReply19setSslConfigurationERK17QSslConfiguration @ 234 NONAME
	_ZN13QNetworkReply5closeEv @ 235 NONAME
	_ZN13QNetworkReply5errorENS_12NetworkErrorE @ 236 NONAME
	_ZN13QNetworkReply6setUrlERK4QUrl @ 237 NONAME
	_ZN13QNetworkReply8finishedEv @ 238 NONAME
	_ZN13QNetworkReply8setErrorENS_12NetworkErrorERK7QString @ 239 NONAME
	_ZN13QNetworkReply9setHeaderEN15QNetworkRequest12KnownHeadersERK8QVariant @ 240 NONAME
	_ZN13QNetworkReply9sslErrorsERK5QListI9QSslErrorE @ 241 NONAME
	_ZN13QNetworkReply9writeDataEPKcx @ 242 NONAME
	_ZN13QNetworkReplyC2EP7QObject @ 243 NONAME
	_ZN13QNetworkReplyC2ER20QNetworkReplyPrivateP7QObject @ 244 NONAME
	_ZN13QNetworkReplyD0Ev @ 245 NONAME
	_ZN13QNetworkReplyD1Ev @ 246 NONAME
	_ZN13QNetworkReplyD2Ev @ 247 NONAME
	_ZN14QAuthenticator11setPasswordERK7QString @ 248 NONAME
	_ZN14QAuthenticator6detachEv @ 249 NONAME
	_ZN14QAuthenticator7setUserERK7QString @ 250 NONAME
	_ZN14QAuthenticatorC1ERKS_ @ 251 NONAME
	_ZN14QAuthenticatorC1Ev @ 252 NONAME
	_ZN14QAuthenticatorC2ERKS_ @ 253 NONAME
	_ZN14QAuthenticatorC2Ev @ 254 NONAME
	_ZN14QAuthenticatorD1Ev @ 255 NONAME
	_ZN14QAuthenticatorD2Ev @ 256 NONAME
	_ZN14QAuthenticatoraSERKS_ @ 257 NONAME
	_ZN14QNetworkCookie11setHttpOnlyEb @ 258 NONAME
	_ZN14QNetworkCookie12parseCookiesERK10QByteArray @ 259 NONAME
	_ZN14QNetworkCookie17setExpirationDateERK9QDateTime @ 260 NONAME
	_ZN14QNetworkCookie7setNameERK10QByteArray @ 261 NONAME
	_ZN14QNetworkCookie7setPathERK7QString @ 262 NONAME
	_ZN14QNetworkCookie8setValueERK10QByteArray @ 263 NONAME
	_ZN14QNetworkCookie9setDomainERK7QString @ 264 NONAME
	_ZN14QNetworkCookie9setSecureEb @ 265 NONAME
	_ZN14QNetworkCookieC1ERK10QByteArrayS2_ @ 266 NONAME
	_ZN14QNetworkCookieC1ERKS_ @ 267 NONAME
	_ZN14QNetworkCookieC2ERK10QByteArrayS2_ @ 268 NONAME
	_ZN14QNetworkCookieC2ERKS_ @ 269 NONAME
	_ZN14QNetworkCookieD1Ev @ 270 NONAME
	_ZN14QNetworkCookieD2Ev @ 271 NONAME
	_ZN14QNetworkCookieaSERKS_ @ 272 NONAME
	_ZN15QAbstractSocket11qt_metacallEN11QMetaObject4CallEiPPv @ 273 NONAME
	_ZN15QAbstractSocket11qt_metacastEPKc @ 274 NONAME
	_ZN15QAbstractSocket11setPeerNameERK7QString @ 275 NONAME
	_ZN15QAbstractSocket11setPeerPortEt @ 276 NONAME
	_ZN15QAbstractSocket12disconnectedEv @ 277 NONAME
	_ZN15QAbstractSocket12readLineDataEPcx @ 278 NONAME
	_ZN15QAbstractSocket12setLocalPortEt @ 279 NONAME
	_ZN15QAbstractSocket12socketOptionENS_12SocketOptionE @ 280 NONAME
	_ZN15QAbstractSocket12stateChangedENS_11SocketStateE @ 281 NONAME
	_ZN15QAbstractSocket13connectToHostERK12QHostAddresst6QFlagsIN9QIODevice12OpenModeFlagEE @ 282 NONAME
	_ZN15QAbstractSocket13connectToHostERK7QStringt6QFlagsIN9QIODevice12OpenModeFlagEE @ 283 NONAME
	_ZN15QAbstractSocket14setPeerAddressERK12QHostAddress @ 284 NONAME
	_ZN15QAbstractSocket14setSocketErrorENS_11SocketErrorE @ 285 NONAME
	_ZN15QAbstractSocket14setSocketStateENS_11SocketStateE @ 286 NONAME
	_ZN15QAbstractSocket15setLocalAddressERK12QHostAddress @ 287 NONAME
	_ZN15QAbstractSocket15setSocketOptionENS_12SocketOptionERK8QVariant @ 288 NONAME
	_ZN15QAbstractSocket16staticMetaObjectE @ 289 NONAME DATA 16
	_ZN15QAbstractSocket16waitForConnectedEi @ 290 NONAME
	_ZN15QAbstractSocket16waitForReadyReadEi @ 291 NONAME
	_ZN15QAbstractSocket17setReadBufferSizeEx @ 292 NONAME
	_ZN15QAbstractSocket18disconnectFromHostEv @ 293 NONAME
	_ZN15QAbstractSocket19getStaticMetaObjectEv @ 294 NONAME
	_ZN15QAbstractSocket19setSocketDescriptorEiNS_11SocketStateE6QFlagsIN9QIODevice12OpenModeFlagEE @ 295 NONAME
	_ZN15QAbstractSocket19waitForBytesWrittenEi @ 296 NONAME
	_ZN15QAbstractSocket19waitForDisconnectedEi @ 297 NONAME
	_ZN15QAbstractSocket27connectToHostImplementationERK7QStringt6QFlagsIN9QIODevice12OpenModeFlagEE @ 298 NONAME
	_ZN15QAbstractSocket27proxyAuthenticationRequiredERK13QNetworkProxyP14QAuthenticator @ 299 NONAME
	_ZN15QAbstractSocket32disconnectFromHostImplementationEv @ 300 NONAME
	_ZN15QAbstractSocket5abortEv @ 301 NONAME
	_ZN15QAbstractSocket5closeEv @ 302 NONAME
	_ZN15QAbstractSocket5errorENS_11SocketErrorE @ 303 NONAME
	_ZN15QAbstractSocket5flushEv @ 304 NONAME
	_ZN15QAbstractSocket8readDataEPcx @ 305 NONAME
	_ZN15QAbstractSocket8setProxyERK13QNetworkProxy @ 306 NONAME
	_ZN15QAbstractSocket9connectedEv @ 307 NONAME
	_ZN15QAbstractSocket9hostFoundEv @ 308 NONAME
	_ZN15QAbstractSocket9writeDataEPKcx @ 309 NONAME
	_ZN15QAbstractSocketC1ENS_10SocketTypeEP7QObject @ 310 NONAME
	_ZN15QAbstractSocketC1ENS_10SocketTypeER22QAbstractSocketPrivateP7QObject @ 311 NONAME
	_ZN15QAbstractSocketC2ENS_10SocketTypeEP7QObject @ 312 NONAME
	_ZN15QAbstractSocketC2ENS_10SocketTypeER22QAbstractSocketPrivateP7QObject @ 313 NONAME
	_ZN15QAbstractSocketD0Ev @ 314 NONAME
	_ZN15QAbstractSocketD1Ev @ 315 NONAME
	_ZN15QAbstractSocketD2Ev @ 316 NONAME
	_ZN15QNetworkRequest12setAttributeENS_9AttributeERK8QVariant @ 317 NONAME
	_ZN15QNetworkRequest12setRawHeaderERK10QByteArrayS2_ @ 318 NONAME
	_ZN15QNetworkRequest19setSslConfigurationERK17QSslConfiguration @ 319 NONAME
	_ZN15QNetworkRequest6setUrlERK4QUrl @ 320 NONAME
	_ZN15QNetworkRequest9setHeaderENS_12KnownHeadersERK8QVariant @ 321 NONAME
	_ZN15QNetworkRequestC1ERK4QUrl @ 322 NONAME
	_ZN15QNetworkRequestC1ERKS_ @ 323 NONAME
	_ZN15QNetworkRequestC2ERK4QUrl @ 324 NONAME
	_ZN15QNetworkRequestC2ERKS_ @ 325 NONAME
	_ZN15QNetworkRequestD1Ev @ 326 NONAME
	_ZN15QNetworkRequestD2Ev @ 327 NONAME
	_ZN15QNetworkRequestaSERKS_ @ 328 NONAME
	_ZN15QSslCertificate10fromDeviceEP9QIODeviceN4QSsl14EncodingFormatE @ 329 NONAME
	_ZN15QSslCertificate5clearEv @ 330 NONAME
	_ZN15QSslCertificate8fromDataERK10QByteArrayN4QSsl14EncodingFormatE @ 331 NONAME
	_ZN15QSslCertificate8fromPathERK7QStringN4QSsl14EncodingFormatEN7QRegExp13PatternSyntaxE @ 332 NONAME
	_ZN15QSslCertificateC1EP9QIODeviceN4QSsl14EncodingFormatE @ 333 NONAME
	_ZN15QSslCertificateC1ERK10QByteArrayN4QSsl14EncodingFormatE @ 334 NONAME
	_ZN15QSslCertificateC1ERKS_ @ 335 NONAME
	_ZN15QSslCertificateC2EP9QIODeviceN4QSsl14EncodingFormatE @ 336 NONAME
	_ZN15QSslCertificateC2ERK10QByteArrayN4QSsl14EncodingFormatE @ 337 NONAME
	_ZN15QSslCertificateC2ERKS_ @ 338 NONAME
	_ZN15QSslCertificateD1Ev @ 339 NONAME
	_ZN15QSslCertificateD2Ev @ 340 NONAME
	_ZN15QSslCertificateaSERKS_ @ 341 NONAME
	_ZN17QNetworkCookieJar11qt_metacallEN11QMetaObject4CallEiPPv @ 342 NONAME
	_ZN17QNetworkCookieJar11qt_metacastEPKc @ 343 NONAME
	_ZN17QNetworkCookieJar13setAllCookiesERK5QListI14QNetworkCookieE @ 344 NONAME
	_ZN17QNetworkCookieJar16staticMetaObjectE @ 345 NONAME DATA 16
	_ZN17QNetworkCookieJar17setCookiesFromUrlERK5QListI14QNetworkCookieERK4QUrl @ 346 NONAME
	_ZN17QNetworkCookieJar19getStaticMetaObjectEv @ 347 NONAME
	_ZN17QNetworkCookieJarC1EP7QObject @ 348 NONAME
	_ZN17QNetworkCookieJarC2EP7QObject @ 349 NONAME
	_ZN17QNetworkCookieJarD0Ev @ 350 NONAME
	_ZN17QNetworkCookieJarD1Ev @ 351 NONAME
	_ZN17QNetworkCookieJarD2Ev @ 352 NONAME
	_ZN17QNetworkDiskCache11qt_metacallEN11QMetaObject4CallEiPPv @ 353 NONAME
	_ZN17QNetworkDiskCache11qt_metacastEPKc @ 354 NONAME
	_ZN17QNetworkDiskCache14updateMetaDataERK21QNetworkCacheMetaData @ 355 NONAME
	_ZN17QNetworkDiskCache16staticMetaObjectE @ 356 NONAME DATA 16
	_ZN17QNetworkDiskCache17setCacheDirectoryERK7QString @ 357 NONAME
	_ZN17QNetworkDiskCache19getStaticMetaObjectEv @ 358 NONAME
	_ZN17QNetworkDiskCache19setMaximumCacheSizeEx @ 359 NONAME
	_ZN17QNetworkDiskCache4dataERK4QUrl @ 360 NONAME
	_ZN17QNetworkDiskCache5clearEv @ 361 NONAME
	_ZN17QNetworkDiskCache6expireEv @ 362 NONAME
	_ZN17QNetworkDiskCache6insertEP9QIODevice @ 363 NONAME
	_ZN17QNetworkDiskCache6removeERK4QUrl @ 364 NONAME
	_ZN17QNetworkDiskCache7prepareERK21QNetworkCacheMetaData @ 365 NONAME
	_ZN17QNetworkDiskCache8metaDataERK4QUrl @ 366 NONAME
	_ZN17QNetworkDiskCacheC1EP7QObject @ 367 NONAME
	_ZN17QNetworkDiskCacheC2EP7QObject @ 368 NONAME
	_ZN17QNetworkDiskCacheD0Ev @ 369 NONAME
	_ZN17QNetworkDiskCacheD1Ev @ 370 NONAME
	_ZN17QNetworkDiskCacheD2Ev @ 371 NONAME
	_ZN17QNetworkInterface12allAddressesEv @ 372 NONAME
	_ZN17QNetworkInterface13allInterfacesEv @ 373 NONAME
	_ZN17QNetworkInterface17interfaceFromNameERK7QString @ 374 NONAME
	_ZN17QNetworkInterface18interfaceFromIndexEi @ 375 NONAME
	_ZN17QNetworkInterfaceC1ERKS_ @ 376 NONAME
	_ZN17QNetworkInterfaceC1Ev @ 377 NONAME
	_ZN17QNetworkInterfaceC2ERKS_ @ 378 NONAME
	_ZN17QNetworkInterfaceC2Ev @ 379 NONAME
	_ZN17QNetworkInterfaceD1Ev @ 380 NONAME
	_ZN17QNetworkInterfaceD2Ev @ 381 NONAME
	_ZN17QNetworkInterfaceaSERKS_ @ 382 NONAME
	_ZN17QSslConfiguration10setCiphersERK5QListI10QSslCipherE @ 383 NONAME
	_ZN17QSslConfiguration11setProtocolEN4QSsl11SslProtocolE @ 384 NONAME
	_ZN17QSslConfiguration13setPrivateKeyERK7QSslKey @ 385 NONAME
	_ZN17QSslConfiguration17setCaCertificatesERK5QListI15QSslCertificateE @ 386 NONAME
	_ZN17QSslConfiguration17setPeerVerifyModeEN10QSslSocket14PeerVerifyModeE @ 387 NONAME
	_ZN17QSslConfiguration18setPeerVerifyDepthEi @ 388 NONAME
	_ZN17QSslConfiguration19setLocalCertificateERK15QSslCertificate @ 389 NONAME
	_ZN17QSslConfiguration20defaultConfigurationEv @ 390 NONAME
	_ZN17QSslConfiguration23setDefaultConfigurationERKS_ @ 391 NONAME
	_ZN17QSslConfigurationC1ERKS_ @ 392 NONAME
	_ZN17QSslConfigurationC1Ev @ 393 NONAME
	_ZN17QSslConfigurationC2ERKS_ @ 394 NONAME
	_ZN17QSslConfigurationC2Ev @ 395 NONAME
	_ZN17QSslConfigurationD1Ev @ 396 NONAME
	_ZN17QSslConfigurationD2Ev @ 397 NONAME
	_ZN17QSslConfigurationaSERKS_ @ 398 NONAME
	_ZN18QHttpRequestHeader10setRequestERK7QStringS2_ii @ 399 NONAME
	_ZN18QHttpRequestHeader9parseLineERK7QStringi @ 400 NONAME
	_ZN18QHttpRequestHeaderC1ERK7QString @ 401 NONAME
	_ZN18QHttpRequestHeaderC1ERK7QStringS2_ii @ 402 NONAME
	_ZN18QHttpRequestHeaderC1ERKS_ @ 403 NONAME
	_ZN18QHttpRequestHeaderC1Ev @ 404 NONAME
	_ZN18QHttpRequestHeaderC2ERK7QString @ 405 NONAME
	_ZN18QHttpRequestHeaderC2ERK7QStringS2_ii @ 406 NONAME
	_ZN18QHttpRequestHeaderC2ERKS_ @ 407 NONAME
	_ZN18QHttpRequestHeaderC2Ev @ 408 NONAME
	_ZN18QHttpRequestHeaderaSERKS_ @ 409 NONAME
	_ZN18QNetworkProxyQuery11setPeerPortEi @ 410 NONAME
	_ZN18QNetworkProxyQuery12setLocalPortEi @ 411 NONAME
	_ZN18QNetworkProxyQuery12setQueryTypeENS_9QueryTypeE @ 412 NONAME
	_ZN18QNetworkProxyQuery14setProtocolTagERK7QString @ 413 NONAME
	_ZN18QNetworkProxyQuery15setPeerHostNameERK7QString @ 414 NONAME
	_ZN18QNetworkProxyQuery6setUrlERK4QUrl @ 415 NONAME
	_ZN18QNetworkProxyQueryC1ERK4QUrlNS_9QueryTypeE @ 416 NONAME
	_ZN18QNetworkProxyQueryC1ERK7QStringiS2_NS_9QueryTypeE @ 417 NONAME
	_ZN18QNetworkProxyQueryC1ERKS_ @ 418 NONAME
	_ZN18QNetworkProxyQueryC1EtRK7QStringNS_9QueryTypeE @ 419 NONAME
	_ZN18QNetworkProxyQueryC1Ev @ 420 NONAME
	_ZN18QNetworkProxyQueryC2ERK4QUrlNS_9QueryTypeE @ 421 NONAME
	_ZN18QNetworkProxyQueryC2ERK7QStringiS2_NS_9QueryTypeE @ 422 NONAME
	_ZN18QNetworkProxyQueryC2ERKS_ @ 423 NONAME
	_ZN18QNetworkProxyQueryC2EtRK7QStringNS_9QueryTypeE @ 424 NONAME
	_ZN18QNetworkProxyQueryC2Ev @ 425 NONAME
	_ZN18QNetworkProxyQueryD1Ev @ 426 NONAME
	_ZN18QNetworkProxyQueryD2Ev @ 427 NONAME
	_ZN18QNetworkProxyQueryaSERKS_ @ 428 NONAME
	_ZN19QHttpResponseHeader13setStatusLineEiRK7QStringii @ 429 NONAME
	_ZN19QHttpResponseHeader9parseLineERK7QStringi @ 430 NONAME
	_ZN19QHttpResponseHeaderC1ERK7QString @ 431 NONAME
	_ZN19QHttpResponseHeaderC1ERKS_ @ 432 NONAME
	_ZN19QHttpResponseHeaderC1EiRK7QStringii @ 433 NONAME
	_ZN19QHttpResponseHeaderC1Ev @ 434 NONAME
	_ZN19QHttpResponseHeaderC2ERK7QString @ 435 NONAME
	_ZN19QHttpResponseHeaderC2ERKS_ @ 436 NONAME
	_ZN19QHttpResponseHeaderC2EiRK7QStringii @ 437 NONAME
	_ZN19QHttpResponseHeaderC2Ev @ 438 NONAME
	_ZN19QHttpResponseHeaderaSERKS_ @ 439 NONAME
	_ZN20QNetworkAddressEntry10setNetmaskERK12QHostAddress @ 440 NONAME
	_ZN20QNetworkAddressEntry12setBroadcastERK12QHostAddress @ 441 NONAME
	_ZN20QNetworkAddressEntry15setPrefixLengthEi @ 442 NONAME
	_ZN20QNetworkAddressEntry5setIpERK12QHostAddress @ 443 NONAME
	_ZN20QNetworkAddressEntryC1ERKS_ @ 444 NONAME
	_ZN20QNetworkAddressEntryC1Ev @ 445 NONAME
	_ZN20QNetworkAddressEntryC2ERKS_ @ 446 NONAME
	_ZN20QNetworkAddressEntryC2Ev @ 447 NONAME
	_ZN20QNetworkAddressEntryD1Ev @ 448 NONAME
	_ZN20QNetworkAddressEntryD2Ev @ 449 NONAME
	_ZN20QNetworkAddressEntryaSERKS_ @ 450 NONAME
	_ZN20QNetworkProxyFactory13proxyForQueryERK18QNetworkProxyQuery @ 451 NONAME
	_ZN20QNetworkProxyFactory19systemProxyForQueryERK18QNetworkProxyQuery @ 452 NONAME
	_ZN20QNetworkProxyFactory25setUseSystemConfigurationEb @ 453 NONAME
	_ZN20QNetworkProxyFactory26setApplicationProxyFactoryEPS_ @ 454 NONAME
	_ZN20QNetworkProxyFactoryC2Ev @ 455 NONAME
	_ZN20QNetworkProxyFactoryD0Ev @ 456 NONAME
	_ZN20QNetworkProxyFactoryD1Ev @ 457 NONAME
	_ZN20QNetworkProxyFactoryD2Ev @ 458 NONAME
	_ZN21QAbstractNetworkCache11qt_metacallEN11QMetaObject4CallEiPPv @ 459 NONAME
	_ZN21QAbstractNetworkCache11qt_metacastEPKc @ 460 NONAME
	_ZN21QAbstractNetworkCache16staticMetaObjectE @ 461 NONAME DATA 16
	_ZN21QAbstractNetworkCache19getStaticMetaObjectEv @ 462 NONAME
	_ZN21QAbstractNetworkCacheC2EP7QObject @ 463 NONAME
	_ZN21QAbstractNetworkCacheC2ER28QAbstractNetworkCachePrivateP7QObject @ 464 NONAME
	_ZN21QAbstractNetworkCacheD0Ev @ 465 NONAME
	_ZN21QAbstractNetworkCacheD1Ev @ 466 NONAME
	_ZN21QAbstractNetworkCacheD2Ev @ 467 NONAME
	_ZN21QNetworkAccessManager11qt_metacallEN11QMetaObject4CallEiPPv @ 468 NONAME
	_ZN21QNetworkAccessManager11qt_metacastEPKc @ 469 NONAME
	_ZN21QNetworkAccessManager12setCookieJarEP17QNetworkCookieJar @ 470 NONAME
	_ZN21QNetworkAccessManager13createRequestENS_9OperationERK15QNetworkRequestP9QIODevice @ 471 NONAME
	_ZN21QNetworkAccessManager14deleteResourceERK15QNetworkRequest @ 472 NONAME
	_ZN21QNetworkAccessManager15setProxyFactoryEP20QNetworkProxyFactory @ 473 NONAME
	_ZN21QNetworkAccessManager16staticMetaObjectE @ 474 NONAME DATA 16
	_ZN21QNetworkAccessManager19getStaticMetaObjectEv @ 475 NONAME
	_ZN21QNetworkAccessManager22authenticationRequiredEP13QNetworkReplyP14QAuthenticator @ 476 NONAME
	_ZN21QNetworkAccessManager27proxyAuthenticationRequiredERK13QNetworkProxyP14QAuthenticator @ 477 NONAME
	_ZN21QNetworkAccessManager3getERK15QNetworkRequest @ 478 NONAME
	_ZN21QNetworkAccessManager3putERK15QNetworkRequestP9QIODevice @ 479 NONAME
	_ZN21QNetworkAccessManager3putERK15QNetworkRequestRK10QByteArray @ 480 NONAME
	_ZN21QNetworkAccessManager4headERK15QNetworkRequest @ 481 NONAME
	_ZN21QNetworkAccessManager4postERK15QNetworkRequestP9QIODevice @ 482 NONAME
	_ZN21QNetworkAccessManager4postERK15QNetworkRequestRK10QByteArray @ 483 NONAME
	_ZN21QNetworkAccessManager8finishedEP13QNetworkReply @ 484 NONAME
	_ZN21QNetworkAccessManager8setCacheEP21QAbstractNetworkCache @ 485 NONAME
	_ZN21QNetworkAccessManager8setProxyERK13QNetworkProxy @ 486 NONAME
	_ZN21QNetworkAccessManager9sslErrorsEP13QNetworkReplyRK5QListI9QSslErrorE @ 487 NONAME
	_ZN21QNetworkAccessManagerC1EP7QObject @ 488 NONAME
	_ZN21QNetworkAccessManagerC2EP7QObject @ 489 NONAME
	_ZN21QNetworkAccessManagerD0Ev @ 490 NONAME
	_ZN21QNetworkAccessManagerD1Ev @ 491 NONAME
	_ZN21QNetworkAccessManagerD2Ev @ 492 NONAME
	_ZN21QNetworkCacheMetaData13setAttributesERK5QHashIN15QNetworkRequest9AttributeE8QVariantE @ 493 NONAME
	_ZN21QNetworkCacheMetaData13setRawHeadersERK5QListI5QPairI10QByteArrayS2_EE @ 494 NONAME
	_ZN21QNetworkCacheMetaData13setSaveToDiskEb @ 495 NONAME
	_ZN21QNetworkCacheMetaData15setLastModifiedERK9QDateTime @ 496 NONAME
	_ZN21QNetworkCacheMetaData17setExpirationDateERK9QDateTime @ 497 NONAME
	_ZN21QNetworkCacheMetaData6setUrlERK4QUrl @ 498 NONAME
	_ZN21QNetworkCacheMetaDataC1ERKS_ @ 499 NONAME
	_ZN21QNetworkCacheMetaDataC1Ev @ 500 NONAME
	_ZN21QNetworkCacheMetaDataC2ERKS_ @ 501 NONAME
	_ZN21QNetworkCacheMetaDataC2Ev @ 502 NONAME
	_ZN21QNetworkCacheMetaDataD1Ev @ 503 NONAME
	_ZN21QNetworkCacheMetaDataD2Ev @ 504 NONAME
	_ZN21QNetworkCacheMetaDataaSERKS_ @ 505 NONAME
	_ZN4QFtp10rawCommandERK7QString @ 506 NONAME
	_ZN4QFtp11qt_metacallEN11QMetaObject4CallEiPPv @ 507 NONAME
	_ZN4QFtp11qt_metacastEPKc @ 508 NONAME
	_ZN4QFtp12stateChangedEi @ 509 NONAME
	_ZN4QFtp13connectToHostERK7QStringt @ 510 NONAME
	_ZN4QFtp14commandStartedEi @ 511 NONAME
	_ZN4QFtp15commandFinishedEib @ 512 NONAME
	_ZN4QFtp15rawCommandReplyEiRK7QString @ 513 NONAME
	_ZN4QFtp15setTransferModeENS_12TransferModeE @ 514 NONAME
	_ZN4QFtp16staticMetaObjectE @ 515 NONAME DATA 16
	_ZN4QFtp19getStaticMetaObjectEv @ 516 NONAME
	_ZN4QFtp20clearPendingCommandsEv @ 517 NONAME
	_ZN4QFtp20dataTransferProgressExx @ 518 NONAME
	_ZN4QFtp2cdERK7QString @ 519 NONAME
	_ZN4QFtp3getERK7QStringP9QIODeviceNS_12TransferTypeE @ 520 NONAME
	_ZN4QFtp3putEP9QIODeviceRK7QStringNS_12TransferTypeE @ 521 NONAME
	_ZN4QFtp3putERK10QByteArrayRK7QStringNS_12TransferTypeE @ 522 NONAME
	_ZN4QFtp4doneEb @ 523 NONAME
	_ZN4QFtp4listERK7QString @ 524 NONAME
	_ZN4QFtp4readEPcx @ 525 NONAME
	_ZN4QFtp5abortEv @ 526 NONAME
	_ZN4QFtp5closeEv @ 527 NONAME
	_ZN4QFtp5loginERK7QStringS2_ @ 528 NONAME
	_ZN4QFtp5mkdirERK7QString @ 529 NONAME
	_ZN4QFtp5rmdirERK7QString @ 530 NONAME
	_ZN4QFtp6removeERK7QString @ 531 NONAME
	_ZN4QFtp6renameERK7QStringS2_ @ 532 NONAME
	_ZN4QFtp7readAllEv @ 533 NONAME
	_ZN4QFtp8listInfoERK8QUrlInfo @ 534 NONAME
	_ZN4QFtp8setProxyERK7QStringt @ 535 NONAME
	_ZN4QFtp9readyReadEv @ 536 NONAME
	_ZN4QFtpC1EP7QObject @ 537 NONAME
	_ZN4QFtpC2EP7QObject @ 538 NONAME
	_ZN4QFtpD0Ev @ 539 NONAME
	_ZN4QFtpD1Ev @ 540 NONAME
	_ZN4QFtpD2Ev @ 541 NONAME
	_ZN5QHttp11qt_metacallEN11QMetaObject4CallEiPPv @ 542 NONAME
	_ZN5QHttp11qt_metacastEPKc @ 543 NONAME
	_ZN5QHttp12stateChangedEi @ 544 NONAME
	_ZN5QHttp14requestStartedEi @ 545 NONAME
	_ZN5QHttp15closeConnectionEv @ 546 NONAME
	_ZN5QHttp15ignoreSslErrorsEv @ 547 NONAME
	_ZN5QHttp15requestFinishedEib @ 548 NONAME
	_ZN5QHttp16dataReadProgressEii @ 549 NONAME
	_ZN5QHttp16dataSendProgressEii @ 550 NONAME
	_ZN5QHttp16staticMetaObjectE @ 551 NONAME DATA 16
	_ZN5QHttp19getStaticMetaObjectEv @ 552 NONAME
	_ZN5QHttp20clearPendingRequestsEv @ 553 NONAME
	_ZN5QHttp22authenticationRequiredERK7QStringtP14QAuthenticator @ 554 NONAME
	_ZN5QHttp22responseHeaderReceivedERK19QHttpResponseHeader @ 555 NONAME
	_ZN5QHttp27proxyAuthenticationRequiredERK13QNetworkProxyP14QAuthenticator @ 556 NONAME
	_ZN5QHttp3getERK7QStringP9QIODevice @ 557 NONAME
	_ZN5QHttp4doneEb @ 558 NONAME
	_ZN5QHttp4headERK7QString @ 559 NONAME
	_ZN5QHttp4postERK7QStringP9QIODeviceS4_ @ 560 NONAME
	_ZN5QHttp4postERK7QStringRK10QByteArrayP9QIODevice @ 561 NONAME
	_ZN5QHttp4readEPcx @ 562 NONAME
	_ZN5QHttp5abortEv @ 563 NONAME
	_ZN5QHttp5closeEv @ 564 NONAME
	_ZN5QHttp7readAllEv @ 565 NONAME
	_ZN5QHttp7requestERK18QHttpRequestHeaderP9QIODeviceS4_ @ 566 NONAME
	_ZN5QHttp7requestERK18QHttpRequestHeaderRK10QByteArrayP9QIODevice @ 567 NONAME
	_ZN5QHttp7setHostERK7QStringNS_14ConnectionModeEt @ 568 NONAME
	_ZN5QHttp7setHostERK7QStringt @ 569 NONAME
	_ZN5QHttp7setUserERK7QStringS2_ @ 570 NONAME
	_ZN5QHttp8setProxyERK13QNetworkProxy @ 571 NONAME
	_ZN5QHttp8setProxyERK7QStringiS2_S2_ @ 572 NONAME
	_ZN5QHttp9readyReadERK19QHttpResponseHeader @ 573 NONAME
	_ZN5QHttp9setSocketEP10QTcpSocket @ 574 NONAME
	_ZN5QHttp9sslErrorsERK5QListI9QSslErrorE @ 575 NONAME
	_ZN5QHttpC1EP7QObject @ 576 NONAME
	_ZN5QHttpC1ERK7QStringNS_14ConnectionModeEtP7QObject @ 577 NONAME
	_ZN5QHttpC1ERK7QStringtP7QObject @ 578 NONAME
	_ZN5QHttpC2EP7QObject @ 579 NONAME
	_ZN5QHttpC2ERK7QStringNS_14ConnectionModeEtP7QObject @ 580 NONAME
	_ZN5QHttpC2ERK7QStringtP7QObject @ 581 NONAME
	_ZN5QHttpD0Ev @ 582 NONAME
	_ZN5QHttpD1Ev @ 583 NONAME
	_ZN5QHttpD2Ev @ 584 NONAME
	_ZN7QSslKey5clearEv @ 585 NONAME
	_ZN7QSslKeyC1EP9QIODeviceN4QSsl12KeyAlgorithmENS2_14EncodingFormatENS2_7KeyTypeERK10QByteArray @ 586 NONAME
	_ZN7QSslKeyC1ERK10QByteArrayN4QSsl12KeyAlgorithmENS3_14EncodingFormatENS3_7KeyTypeES2_ @ 587 NONAME
	_ZN7QSslKeyC1ERKS_ @ 588 NONAME
	_ZN7QSslKeyC1Ev @ 589 NONAME
	_ZN7QSslKeyC2EP9QIODeviceN4QSsl12KeyAlgorithmENS2_14EncodingFormatENS2_7KeyTypeERK10QByteArray @ 590 NONAME
	_ZN7QSslKeyC2ERK10QByteArrayN4QSsl12KeyAlgorithmENS3_14EncodingFormatENS3_7KeyTypeES2_ @ 591 NONAME
	_ZN7QSslKeyC2ERKS_ @ 592 NONAME
	_ZN7QSslKeyC2Ev @ 593 NONAME
	_ZN7QSslKeyD1Ev @ 594 NONAME
	_ZN7QSslKeyD2Ev @ 595 NONAME
	_ZN7QSslKeyaSERKS_ @ 596 NONAME
	_ZN8QUrlInfo10setSymLinkEb @ 597 NONAME
	_ZN8QUrlInfo11greaterThanERKS_S1_i @ 598 NONAME
	_ZN8QUrlInfo11setLastReadERK9QDateTime @ 599 NONAME
	_ZN8QUrlInfo11setReadableEb @ 600 NONAME
	_ZN8QUrlInfo11setWritableEb @ 601 NONAME
	_ZN8QUrlInfo14setPermissionsEi @ 602 NONAME
	_ZN8QUrlInfo15setLastModifiedERK9QDateTime @ 603 NONAME
	_ZN8QUrlInfo5equalERKS_S1_i @ 604 NONAME
	_ZN8QUrlInfo6setDirEb @ 605 NONAME
	_ZN8QUrlInfo7setFileEb @ 606 NONAME
	_ZN8QUrlInfo7setNameERK7QString @ 607 NONAME
	_ZN8QUrlInfo7setSizeEx @ 608 NONAME
	_ZN8QUrlInfo8lessThanERKS_S1_i @ 609 NONAME
	_ZN8QUrlInfo8setGroupERK7QString @ 610 NONAME
	_ZN8QUrlInfo8setOwnerERK7QString @ 611 NONAME
	_ZN8QUrlInfoC1ERK4QUrliRK7QStringS5_xRK9QDateTimeS8_bbbbbb @ 612 NONAME
	_ZN8QUrlInfoC1ERK7QStringiS2_S2_xRK9QDateTimeS5_bbbbbb @ 613 NONAME
	_ZN8QUrlInfoC1ERKS_ @ 614 NONAME
	_ZN8QUrlInfoC1Ev @ 615 NONAME
	_ZN8QUrlInfoC2ERK4QUrliRK7QStringS5_xRK9QDateTimeS8_bbbbbb @ 616 NONAME
	_ZN8QUrlInfoC2ERK7QStringiS2_S2_xRK9QDateTimeS5_bbbbbb @ 617 NONAME
	_ZN8QUrlInfoC2ERKS_ @ 618 NONAME
	_ZN8QUrlInfoC2Ev @ 619 NONAME
	_ZN8QUrlInfoD0Ev @ 620 NONAME
	_ZN8QUrlInfoD1Ev @ 621 NONAME
	_ZN8QUrlInfoD2Ev @ 622 NONAME
	_ZN8QUrlInfoaSERKS_ @ 623 NONAME
	_ZN9QHostInfo10lookupHostERK7QStringP7QObjectPKc @ 624 NONAME
	_ZN9QHostInfo11setHostNameERK7QString @ 625 NONAME
	_ZN9QHostInfo11setLookupIdEi @ 626 NONAME
	_ZN9QHostInfo12setAddressesERK5QListI12QHostAddressE @ 627 NONAME
	_ZN9QHostInfo13localHostNameEv @ 628 NONAME
	_ZN9QHostInfo14setErrorStringERK7QString @ 629 NONAME
	_ZN9QHostInfo15abortHostLookupEi @ 630 NONAME
	_ZN9QHostInfo15localDomainNameEv @ 631 NONAME
	_ZN9QHostInfo8fromNameERK7QString @ 632 NONAME
	_ZN9QHostInfo8setErrorENS_13HostInfoErrorE @ 633 NONAME
	_ZN9QHostInfoC1ERKS_ @ 634 NONAME
	_ZN9QHostInfoC1Ei @ 635 NONAME
	_ZN9QHostInfoC2ERKS_ @ 636 NONAME
	_ZN9QHostInfoC2Ei @ 637 NONAME
	_ZN9QHostInfoD1Ev @ 638 NONAME
	_ZN9QHostInfoD2Ev @ 639 NONAME
	_ZN9QHostInfoaSERKS_ @ 640 NONAME
	_ZN9QSslErrorC1ENS_8SslErrorE @ 641 NONAME
	_ZN9QSslErrorC1ENS_8SslErrorERK15QSslCertificate @ 642 NONAME
	_ZN9QSslErrorC1ERKS_ @ 643 NONAME
	_ZN9QSslErrorC1Ev @ 644 NONAME
	_ZN9QSslErrorC2ENS_8SslErrorE @ 645 NONAME
	_ZN9QSslErrorC2ENS_8SslErrorERK15QSslCertificate @ 646 NONAME
	_ZN9QSslErrorC2ERKS_ @ 647 NONAME
	_ZN9QSslErrorC2Ev @ 648 NONAME
	_ZN9QSslErrorD1Ev @ 649 NONAME
	_ZN9QSslErrorD2Ev @ 650 NONAME
	_ZN9QSslErroraSERKS_ @ 651 NONAME
	_ZNK10QSslCipher13supportedBitsEv @ 652 NONAME
	_ZNK10QSslCipher14protocolStringEv @ 653 NONAME
	_ZNK10QSslCipher16encryptionMethodEv @ 654 NONAME
	_ZNK10QSslCipher17keyExchangeMethodEv @ 655 NONAME
	_ZNK10QSslCipher20authenticationMethodEv @ 656 NONAME
	_ZNK10QSslCipher4nameEv @ 657 NONAME
	_ZNK10QSslCipher6isNullEv @ 658 NONAME
	_ZNK10QSslCipher8protocolEv @ 659 NONAME
	_ZNK10QSslCipher8usedBitsEv @ 660 NONAME
	_ZNK10QSslCiphereqERKS_ @ 661 NONAME
	_ZNK10QSslSocket10metaObjectEv @ 662 NONAME
	_ZNK10QSslSocket10privateKeyEv @ 663 NONAME
	_ZNK10QSslSocket11canReadLineEv @ 664 NONAME
	_ZNK10QSslSocket11isEncryptedEv @ 665 NONAME
	_ZNK10QSslSocket12bytesToWriteEv @ 666 NONAME
	_ZNK10QSslSocket13sessionCipherEv @ 667 NONAME
	_ZNK10QSslSocket14bytesAvailableEv @ 668 NONAME
	_ZNK10QSslSocket14caCertificatesEv @ 669 NONAME
	_ZNK10QSslSocket14peerVerifyModeEv @ 670 NONAME
	_ZNK10QSslSocket15peerCertificateEv @ 671 NONAME
	_ZNK10QSslSocket15peerVerifyDepthEv @ 672 NONAME
	_ZNK10QSslSocket16localCertificateEv @ 673 NONAME
	_ZNK10QSslSocket16sslConfigurationEv @ 674 NONAME
	_ZNK10QSslSocket20peerCertificateChainEv @ 675 NONAME
	_ZNK10QSslSocket21encryptedBytesToWriteEv @ 676 NONAME
	_ZNK10QSslSocket23encryptedBytesAvailableEv @ 677 NONAME
	_ZNK10QSslSocket4modeEv @ 678 NONAME
	_ZNK10QSslSocket5atEndEv @ 679 NONAME
	_ZNK10QSslSocket7ciphersEv @ 680 NONAME
	_ZNK10QSslSocket8protocolEv @ 681 NONAME
	_ZNK10QSslSocket9sslErrorsEv @ 682 NONAME
	_ZNK10QTcpServer10metaObjectEv @ 683 NONAME
	_ZNK10QTcpServer10serverPortEv @ 684 NONAME
	_ZNK10QTcpServer11errorStringEv @ 685 NONAME
	_ZNK10QTcpServer11isListeningEv @ 686 NONAME
	_ZNK10QTcpServer11serverErrorEv @ 687 NONAME
	_ZNK10QTcpServer13serverAddressEv @ 688 NONAME
	_ZNK10QTcpServer16socketDescriptorEv @ 689 NONAME
	_ZNK10QTcpServer21hasPendingConnectionsEv @ 690 NONAME
	_ZNK10QTcpServer21maxPendingConnectionsEv @ 691 NONAME
	_ZNK10QTcpServer5proxyEv @ 692 NONAME
	_ZNK10QTcpSocket10metaObjectEv @ 693 NONAME
	_ZNK10QUdpSocket10metaObjectEv @ 694 NONAME
	_ZNK10QUdpSocket19hasPendingDatagramsEv @ 695 NONAME
	_ZNK10QUdpSocket19pendingDatagramSizeEv @ 696 NONAME
	_ZNK11QHttpHeader11contentTypeEv @ 697 NONAME
	_ZNK11QHttpHeader13contentLengthEv @ 698 NONAME
	_ZNK11QHttpHeader14hasContentTypeEv @ 699 NONAME
	_ZNK11QHttpHeader16hasContentLengthEv @ 700 NONAME
	_ZNK11QHttpHeader4keysEv @ 701 NONAME
	_ZNK11QHttpHeader5valueERK7QString @ 702 NONAME
	_ZNK11QHttpHeader6hasKeyERK7QString @ 703 NONAME
	_ZNK11QHttpHeader6valuesEv @ 704 NONAME
	_ZNK11QHttpHeader7isValidEv @ 705 NONAME
	_ZNK11QHttpHeader8toStringEv @ 706 NONAME
	_ZNK11QHttpHeader9allValuesERK7QString @ 707 NONAME
	_ZNK12QHostAddress10isInSubnetERK5QPairIS_iE @ 708 NONAME
	_ZNK12QHostAddress10isInSubnetERKS_i @ 709 NONAME
	_ZNK12QHostAddress13toIPv4AddressEv @ 710 NONAME
	_ZNK12QHostAddress13toIPv6AddressEv @ 711 NONAME
	_ZNK12QHostAddress6isNullEv @ 712 NONAME
	_ZNK12QHostAddress7scopeIdEv @ 713 NONAME
	_ZNK12QHostAddress8protocolEv @ 714 NONAME
	_ZNK12QHostAddress8toStringEv @ 715 NONAME
	_ZNK12QHostAddresseqENS_14SpecialAddressE @ 716 NONAME
	_ZNK12QHostAddresseqERKS_ @ 717 NONAME
	_ZNK12QLocalServer10metaObjectEv @ 718 NONAME
	_ZNK12QLocalServer10serverNameEv @ 719 NONAME
	_ZNK12QLocalServer11errorStringEv @ 720 NONAME
	_ZNK12QLocalServer11isListeningEv @ 721 NONAME
	_ZNK12QLocalServer11serverErrorEv @ 722 NONAME
	_ZNK12QLocalServer14fullServerNameEv @ 723 NONAME
	_ZNK12QLocalServer21hasPendingConnectionsEv @ 724 NONAME
	_ZNK12QLocalServer21maxPendingConnectionsEv @ 725 NONAME
	_ZNK12QLocalSocket10metaObjectEv @ 726 NONAME
	_ZNK12QLocalSocket10serverNameEv @ 727 NONAME
	_ZNK12QLocalSocket11canReadLineEv @ 728 NONAME
	_ZNK12QLocalSocket12bytesToWriteEv @ 729 NONAME
	_ZNK12QLocalSocket12isSequentialEv @ 730 NONAME
	_ZNK12QLocalSocket14bytesAvailableEv @ 731 NONAME
	_ZNK12QLocalSocket14fullServerNameEv @ 732 NONAME
	_ZNK12QLocalSocket14readBufferSizeEv @ 733 NONAME
	_ZNK12QLocalSocket16socketDescriptorEv @ 734 NONAME
	_ZNK12QLocalSocket5errorEv @ 735 NONAME
	_ZNK12QLocalSocket5stateEv @ 736 NONAME
	_ZNK12QLocalSocket7isValidEv @ 737 NONAME
	_ZNK13QNetworkProxy12capabilitiesEv @ 738 NONAME
	_ZNK13QNetworkProxy14isCachingProxyEv @ 739 NONAME
	_ZNK13QNetworkProxy18isTransparentProxyEv @ 740 NONAME
	_ZNK13QNetworkProxy4portEv @ 741 NONAME
	_ZNK13QNetworkProxy4typeEv @ 742 NONAME
	_ZNK13QNetworkProxy4userEv @ 743 NONAME
	_ZNK13QNetworkProxy8hostNameEv @ 744 NONAME
	_ZNK13QNetworkProxy8passwordEv @ 745 NONAME
	_ZNK13QNetworkProxyeqERKS_ @ 746 NONAME
	_ZNK13QNetworkReply10isFinishedEv @ 747 NONAME
	_ZNK13QNetworkReply10metaObjectEv @ 748 NONAME
	_ZNK13QNetworkReply12hasRawHeaderERK10QByteArray @ 749 NONAME
	_ZNK13QNetworkReply12isSequentialEv @ 750 NONAME
	_ZNK13QNetworkReply13rawHeaderListEv @ 751 NONAME
	_ZNK13QNetworkReply14readBufferSizeEv @ 752 NONAME
	_ZNK13QNetworkReply16sslConfigurationEv @ 753 NONAME
	_ZNK13QNetworkReply3urlEv @ 754 NONAME
	_ZNK13QNetworkReply5errorEv @ 755 NONAME
	_ZNK13QNetworkReply6headerEN15QNetworkRequest12KnownHeadersE @ 756 NONAME
	_ZNK13QNetworkReply7managerEv @ 757 NONAME
	_ZNK13QNetworkReply7requestEv @ 758 NONAME
	_ZNK13QNetworkReply9attributeEN15QNetworkRequest9AttributeE @ 759 NONAME
	_ZNK13QNetworkReply9isRunningEv @ 760 NONAME
	_ZNK13QNetworkReply9operationEv @ 761 NONAME
	_ZNK13QNetworkReply9rawHeaderERK10QByteArray @ 762 NONAME
	_ZNK14QAuthenticator4userEv @ 763 NONAME
	_ZNK14QAuthenticator5realmEv @ 764 NONAME
	_ZNK14QAuthenticator6isNullEv @ 765 NONAME
	_ZNK14QAuthenticator8passwordEv @ 766 NONAME
	_ZNK14QAuthenticatoreqERKS_ @ 767 NONAME
	_ZNK14QNetworkCookie10isHttpOnlyEv @ 768 NONAME
	_ZNK14QNetworkCookie14expirationDateEv @ 769 NONAME
	_ZNK14QNetworkCookie15isSessionCookieEv @ 770 NONAME
	_ZNK14QNetworkCookie4nameEv @ 771 NONAME
	_ZNK14QNetworkCookie4pathEv @ 772 NONAME
	_ZNK14QNetworkCookie5valueEv @ 773 NONAME
	_ZNK14QNetworkCookie6domainEv @ 774 NONAME
	_ZNK14QNetworkCookie8isSecureEv @ 775 NONAME
	_ZNK14QNetworkCookie9toRawFormENS_7RawFormE @ 776 NONAME
	_ZNK14QNetworkCookieeqERKS_ @ 777 NONAME
	_ZNK15QAbstractSocket10metaObjectEv @ 778 NONAME
	_ZNK15QAbstractSocket10socketTypeEv @ 779 NONAME
	_ZNK15QAbstractSocket11canReadLineEv @ 780 NONAME
	_ZNK15QAbstractSocket11peerAddressEv @ 781 NONAME
	_ZNK15QAbstractSocket12bytesToWriteEv @ 782 NONAME
	_ZNK15QAbstractSocket12isSequentialEv @ 783 NONAME
	_ZNK15QAbstractSocket12localAddressEv @ 784 NONAME
	_ZNK15QAbstractSocket14bytesAvailableEv @ 785 NONAME
	_ZNK15QAbstractSocket14readBufferSizeEv @ 786 NONAME
	_ZNK15QAbstractSocket16socketDescriptorEv @ 787 NONAME
	_ZNK15QAbstractSocket5atEndEv @ 788 NONAME
	_ZNK15QAbstractSocket5errorEv @ 789 NONAME
	_ZNK15QAbstractSocket5proxyEv @ 790 NONAME
	_ZNK15QAbstractSocket5stateEv @ 791 NONAME
	_ZNK15QAbstractSocket7isValidEv @ 792 NONAME
	_ZNK15QAbstractSocket8peerNameEv @ 793 NONAME
	_ZNK15QAbstractSocket8peerPortEv @ 794 NONAME
	_ZNK15QAbstractSocket9localPortEv @ 795 NONAME
	_ZNK15QNetworkRequest12hasRawHeaderERK10QByteArray @ 796 NONAME
	_ZNK15QNetworkRequest13rawHeaderListEv @ 797 NONAME
	_ZNK15QNetworkRequest16sslConfigurationEv @ 798 NONAME
	_ZNK15QNetworkRequest3urlEv @ 799 NONAME
	_ZNK15QNetworkRequest6headerENS_12KnownHeadersE @ 800 NONAME
	_ZNK15QNetworkRequest9attributeENS_9AttributeERK8QVariant @ 801 NONAME
	_ZNK15QNetworkRequest9rawHeaderERK10QByteArray @ 802 NONAME
	_ZNK15QNetworkRequesteqERKS_ @ 803 NONAME
	_ZNK15QSslCertificate10expiryDateEv @ 804 NONAME
	_ZNK15QSslCertificate10issuerInfoENS_11SubjectInfoE @ 805 NONAME
	_ZNK15QSslCertificate10issuerInfoERK10QByteArray @ 806 NONAME
	_ZNK15QSslCertificate11subjectInfoENS_11SubjectInfoE @ 807 NONAME
	_ZNK15QSslCertificate11subjectInfoERK10QByteArray @ 808 NONAME
	_ZNK15QSslCertificate12serialNumberEv @ 809 NONAME
	_ZNK15QSslCertificate13effectiveDateEv @ 810 NONAME
	_ZNK15QSslCertificate21alternateSubjectNamesEv @ 811 NONAME
	_ZNK15QSslCertificate5toDerEv @ 812 NONAME
	_ZNK15QSslCertificate5toPemEv @ 813 NONAME
	_ZNK15QSslCertificate6digestEN18QCryptographicHash9AlgorithmE @ 814 NONAME
	_ZNK15QSslCertificate6handleEv @ 815 NONAME
	_ZNK15QSslCertificate6isNullEv @ 816 NONAME
	_ZNK15QSslCertificate7isValidEv @ 817 NONAME
	_ZNK15QSslCertificate7versionEv @ 818 NONAME
	_ZNK15QSslCertificate9publicKeyEv @ 819 NONAME
	_ZNK15QSslCertificateeqERKS_ @ 820 NONAME
	_ZNK17QNetworkCookieJar10allCookiesEv @ 821 NONAME
	_ZNK17QNetworkCookieJar10metaObjectEv @ 822 NONAME
	_ZNK17QNetworkCookieJar13cookiesForUrlERK4QUrl @ 823 NONAME
	_ZNK17QNetworkDiskCache10metaObjectEv @ 824 NONAME
	_ZNK17QNetworkDiskCache12fileMetaDataERK7QString @ 825 NONAME
	_ZNK17QNetworkDiskCache14cacheDirectoryEv @ 826 NONAME
	_ZNK17QNetworkDiskCache16maximumCacheSizeEv @ 827 NONAME
	_ZNK17QNetworkDiskCache9cacheSizeEv @ 828 NONAME
	_ZNK17QNetworkInterface14addressEntriesEv @ 829 NONAME
	_ZNK17QNetworkInterface15hardwareAddressEv @ 830 NONAME
	_ZNK17QNetworkInterface17humanReadableNameEv @ 831 NONAME
	_ZNK17QNetworkInterface4nameEv @ 832 NONAME
	_ZNK17QNetworkInterface5flagsEv @ 833 NONAME
	_ZNK17QNetworkInterface5indexEv @ 834 NONAME
	_ZNK17QNetworkInterface7isValidEv @ 835 NONAME
	_ZNK17QSslConfiguration10privateKeyEv @ 836 NONAME
	_ZNK17QSslConfiguration13sessionCipherEv @ 837 NONAME
	_ZNK17QSslConfiguration14caCertificatesEv @ 838 NONAME
	_ZNK17QSslConfiguration14peerVerifyModeEv @ 839 NONAME
	_ZNK17QSslConfiguration15peerCertificateEv @ 840 NONAME
	_ZNK17QSslConfiguration15peerVerifyDepthEv @ 841 NONAME
	_ZNK17QSslConfiguration16localCertificateEv @ 842 NONAME
	_ZNK17QSslConfiguration20peerCertificateChainEv @ 843 NONAME
	_ZNK17QSslConfiguration6isNullEv @ 844 NONAME
	_ZNK17QSslConfiguration7ciphersEv @ 845 NONAME
	_ZNK17QSslConfiguration8protocolEv @ 846 NONAME
	_ZNK17QSslConfigurationeqERKS_ @ 847 NONAME
	_ZNK18QHttpRequestHeader12majorVersionEv @ 848 NONAME
	_ZNK18QHttpRequestHeader12minorVersionEv @ 849 NONAME
	_ZNK18QHttpRequestHeader4pathEv @ 850 NONAME
	_ZNK18QHttpRequestHeader6methodEv @ 851 NONAME
	_ZNK18QHttpRequestHeader8toStringEv @ 852 NONAME
	_ZNK18QNetworkProxyQuery11protocolTagEv @ 853 NONAME
	_ZNK18QNetworkProxyQuery12peerHostNameEv @ 854 NONAME
	_ZNK18QNetworkProxyQuery3urlEv @ 855 NONAME
	_ZNK18QNetworkProxyQuery8peerPortEv @ 856 NONAME
	_ZNK18QNetworkProxyQuery9localPortEv @ 857 NONAME
	_ZNK18QNetworkProxyQuery9queryTypeEv @ 858 NONAME
	_ZNK18QNetworkProxyQueryeqERKS_ @ 859 NONAME
	_ZNK19QHttpResponseHeader10statusCodeEv @ 860 NONAME
	_ZNK19QHttpResponseHeader12majorVersionEv @ 861 NONAME
	_ZNK19QHttpResponseHeader12minorVersionEv @ 862 NONAME
	_ZNK19QHttpResponseHeader12reasonPhraseEv @ 863 NONAME
	_ZNK19QHttpResponseHeader8toStringEv @ 864 NONAME
	_ZNK20QNetworkAddressEntry12prefixLengthEv @ 865 NONAME
	_ZNK20QNetworkAddressEntry2ipEv @ 866 NONAME
	_ZNK20QNetworkAddressEntry7netmaskEv @ 867 NONAME
	_ZNK20QNetworkAddressEntry9broadcastEv @ 868 NONAME
	_ZNK20QNetworkAddressEntryeqERKS_ @ 869 NONAME
	_ZNK21QAbstractNetworkCache10metaObjectEv @ 870 NONAME
	_ZNK21QNetworkAccessManager10metaObjectEv @ 871 NONAME
	_ZNK21QNetworkAccessManager12proxyFactoryEv @ 872 NONAME
	_ZNK21QNetworkAccessManager5cacheEv @ 873 NONAME
	_ZNK21QNetworkAccessManager5proxyEv @ 874 NONAME
	_ZNK21QNetworkAccessManager9cookieJarEv @ 875 NONAME
	_ZNK21QNetworkCacheMetaData10attributesEv @ 876 NONAME
	_ZNK21QNetworkCacheMetaData10rawHeadersEv @ 877 NONAME
	_ZNK21QNetworkCacheMetaData10saveToDiskEv @ 878 NONAME
	_ZNK21QNetworkCacheMetaData12lastModifiedEv @ 879 NONAME
	_ZNK21QNetworkCacheMetaData14expirationDateEv @ 880 NONAME
	_ZNK21QNetworkCacheMetaData3urlEv @ 881 NONAME
	_ZNK21QNetworkCacheMetaData7isValidEv @ 882 NONAME
	_ZNK21QNetworkCacheMetaDataeqERKS_ @ 883 NONAME
	_ZNK4QFtp10metaObjectEv @ 884 NONAME
	_ZNK4QFtp11errorStringEv @ 885 NONAME
	_ZNK4QFtp13currentDeviceEv @ 886 NONAME
	_ZNK4QFtp14bytesAvailableEv @ 887 NONAME
	_ZNK4QFtp14currentCommandEv @ 888 NONAME
	_ZNK4QFtp18hasPendingCommandsEv @ 889 NONAME
	_ZNK4QFtp5errorEv @ 890 NONAME
	_ZNK4QFtp5stateEv @ 891 NONAME
	_ZNK4QFtp9currentIdEv @ 892 NONAME
	_ZNK5QHttp10metaObjectEv @ 893 NONAME
	_ZNK5QHttp11errorStringEv @ 894 NONAME
	_ZNK5QHttp12lastResponseEv @ 895 NONAME
	_ZNK5QHttp14bytesAvailableEv @ 896 NONAME
	_ZNK5QHttp14currentRequestEv @ 897 NONAME
	_ZNK5QHttp18hasPendingRequestsEv @ 898 NONAME
	_ZNK5QHttp19currentSourceDeviceEv @ 899 NONAME
	_ZNK5QHttp24currentDestinationDeviceEv @ 900 NONAME
	_ZNK5QHttp5errorEv @ 901 NONAME
	_ZNK5QHttp5stateEv @ 902 NONAME
	_ZNK5QHttp9currentIdEv @ 903 NONAME
	_ZNK7QSslKey4typeEv @ 904 NONAME
	_ZNK7QSslKey5toDerERK10QByteArray @ 905 NONAME
	_ZNK7QSslKey5toPemERK10QByteArray @ 906 NONAME
	_ZNK7QSslKey6handleEv @ 907 NONAME
	_ZNK7QSslKey6isNullEv @ 908 NONAME
	_ZNK7QSslKey6lengthEv @ 909 NONAME
	_ZNK7QSslKey9algorithmEv @ 910 NONAME
	_ZNK7QSslKeyeqERKS_ @ 911 NONAME
	_ZNK8QUrlInfo10isReadableEv @ 912 NONAME
	_ZNK8QUrlInfo10isWritableEv @ 913 NONAME
	_ZNK8QUrlInfo11permissionsEv @ 914 NONAME
	_ZNK8QUrlInfo12isExecutableEv @ 915 NONAME
	_ZNK8QUrlInfo12lastModifiedEv @ 916 NONAME
	_ZNK8QUrlInfo4nameEv @ 917 NONAME
	_ZNK8QUrlInfo4sizeEv @ 918 NONAME
	_ZNK8QUrlInfo5groupEv @ 919 NONAME
	_ZNK8QUrlInfo5isDirEv @ 920 NONAME
	_ZNK8QUrlInfo5ownerEv @ 921 NONAME
	_ZNK8QUrlInfo6isFileEv @ 922 NONAME
	_ZNK8QUrlInfo7isValidEv @ 923 NONAME
	_ZNK8QUrlInfo8lastReadEv @ 924 NONAME
	_ZNK8QUrlInfo9isSymLinkEv @ 925 NONAME
	_ZNK8QUrlInfoeqERKS_ @ 926 NONAME
	_ZNK9QHostInfo11errorStringEv @ 927 NONAME
	_ZNK9QHostInfo5errorEv @ 928 NONAME
	_ZNK9QHostInfo8hostNameEv @ 929 NONAME
	_ZNK9QHostInfo8lookupIdEv @ 930 NONAME
	_ZNK9QHostInfo9addressesEv @ 931 NONAME
	_ZNK9QSslError11certificateEv @ 932 NONAME
	_ZNK9QSslError11errorStringEv @ 933 NONAME
	_ZNK9QSslError5errorEv @ 934 NONAME
	_ZNK9QSslErroreqERKS_ @ 935 NONAME
	_ZTI10QSslSocket @ 936 NONAME
	_ZTI10QTcpServer @ 937 NONAME
	_ZTI10QTcpSocket @ 938 NONAME
	_ZTI10QUdpSocket @ 939 NONAME
	_ZTI11QHttpHeader @ 940 NONAME
	_ZTI12QLocalServer @ 941 NONAME
	_ZTI12QLocalSocket @ 942 NONAME
	_ZTI13QNetworkReply @ 943 NONAME
	_ZTI15QAbstractSocket @ 944 NONAME
	_ZTI17QNetworkCookieJar @ 945 NONAME
	_ZTI17QNetworkDiskCache @ 946 NONAME
	_ZTI18QHttpRequestHeader @ 947 NONAME
	_ZTI19QHttpResponseHeader @ 948 NONAME
	_ZTI20QNetworkProxyFactory @ 949 NONAME
	_ZTI21QAbstractNetworkCache @ 950 NONAME
	_ZTI21QNetworkAccessManager @ 951 NONAME
	_ZTI4QFtp @ 952 NONAME
	_ZTI5QHttp @ 953 NONAME
	_ZTI8QUrlInfo @ 954 NONAME
	_ZTV10QSslSocket @ 955 NONAME
	_ZTV10QTcpServer @ 956 NONAME
	_ZTV10QTcpSocket @ 957 NONAME
	_ZTV10QUdpSocket @ 958 NONAME
	_ZTV11QHttpHeader @ 959 NONAME
	_ZTV12QLocalServer @ 960 NONAME
	_ZTV12QLocalSocket @ 961 NONAME
	_ZTV13QNetworkReply @ 962 NONAME
	_ZTV15QAbstractSocket @ 963 NONAME
	_ZTV17QNetworkCookieJar @ 964 NONAME
	_ZTV17QNetworkDiskCache @ 965 NONAME
	_ZTV18QHttpRequestHeader @ 966 NONAME
	_ZTV19QHttpResponseHeader @ 967 NONAME
	_ZTV20QNetworkProxyFactory @ 968 NONAME
	_ZTV21QAbstractNetworkCache @ 969 NONAME
	_ZTV21QNetworkAccessManager @ 970 NONAME
	_ZTV4QFtp @ 971 NONAME
	_ZTV5QHttp @ 972 NONAME
	_ZTV8QUrlInfo @ 973 NONAME
	_Zls6QDebugN12QLocalSocket16LocalSocketErrorE @ 974 NONAME
	_Zls6QDebugN12QLocalSocket16LocalSocketStateE @ 975 NONAME
	_Zls6QDebugN15QAbstractSocket11SocketErrorE @ 976 NONAME
	_Zls6QDebugN15QAbstractSocket11SocketStateE @ 977 NONAME
	_Zls6QDebugN15QSslCertificate11SubjectInfoE @ 978 NONAME
	_Zls6QDebugRK10QSslCipher @ 979 NONAME
	_Zls6QDebugRK12QHostAddress @ 980 NONAME
	_Zls6QDebugRK14QNetworkCookie @ 981 NONAME
	_Zls6QDebugRK15QSslCertificate @ 982 NONAME
	_Zls6QDebugRK17QNetworkInterface @ 983 NONAME
	_Zls6QDebugRK7QSslKey @ 984 NONAME
	_Zls6QDebugRK9QSslError @ 985 NONAME
	_Zls6QDebugRKN9QSslError8SslErrorE @ 986 NONAME
	_ZlsR11QDataStreamRK12QHostAddress @ 987 NONAME
	_ZlsR11QDataStreamRK21QNetworkCacheMetaData @ 988 NONAME
	_ZrsR11QDataStreamR12QHostAddress @ 989 NONAME
	_ZrsR11QDataStreamR21QNetworkCacheMetaData @ 990 NONAME
	_ZN10QSslSocket12socketOptionEN15QAbstractSocket12SocketOptionE @ 991 NONAME
	_ZN10QSslSocket15setSocketOptionEN15QAbstractSocket12SocketOptionERK8QVariant @ 992 NONAME
	_ZN15QNetworkRequest20setOriginatingObjectEP7QObject @ 993 NONAME
	_ZNK15QNetworkRequest17originatingObjectEv @ 994 NONAME
	_Z19qt_qhostinfo_lookupRK7QStringP7QObjectPKcPbPi @ 995 NONAME
	_Z24qt_qhostinfo_clear_cachev @ 996 NONAME ABSENT
	_Z35qNetworkConfigurationManagerPrivatev @ 997 NONAME
	_ZN10QTcpServer20addPendingConnectionEP10QTcpSocket @ 998 NONAME
	_ZN13QBearerEngine11qt_metacallEN11QMetaObject4CallEiPPv @ 999 NONAME
	_ZN13QBearerEngine11qt_metacastEPKc @ 1000 NONAME
	_ZN13QBearerEngine15updateCompletedEv @ 1001 NONAME
	_ZN13QBearerEngine16staticMetaObjectE @ 1002 NONAME DATA 16
	_ZN13QBearerEngine18configurationAddedE28QExplicitlySharedDataPointerI28QNetworkConfigurationPrivateE @ 1003 NONAME
	_ZN13QBearerEngine19getStaticMetaObjectEv @ 1004 NONAME
	_ZN13QBearerEngine20configurationChangedE28QExplicitlySharedDataPointerI28QNetworkConfigurationPrivateE @ 1005 NONAME
	_ZN13QBearerEngine20configurationRemovedE28QExplicitlySharedDataPointerI28QNetworkConfigurationPrivateE @ 1006 NONAME
	_ZN13QBearerEngineC2EP7QObject @ 1007 NONAME
	_ZN13QBearerEngineD0Ev @ 1008 NONAME
	_ZN13QBearerEngineD1Ev @ 1009 NONAME
	_ZN13QBearerEngineD2Ev @ 1010 NONAME
	_ZN14QAuthenticator9setOptionERK7QStringRK8QVariant @ 1011 NONAME
	_ZN15QNetworkRequest11setPriorityENS_8PriorityE @ 1012 NONAME
	_ZN15QNetworkSession11qt_metacallEN11QMetaObject4CallEiPPv @ 1013 NONAME
	_ZN15QNetworkSession11qt_metacastEPKc @ 1014 NONAME
	_ZN15QNetworkSession12stateChangedENS_5StateE @ 1015 NONAME
	_ZN15QNetworkSession13connectNotifyEPKc @ 1016 NONAME
	_ZN15QNetworkSession13waitForOpenedEi @ 1017 NONAME
	_ZN15QNetworkSession16disconnectNotifyEPKc @ 1018 NONAME
	_ZN15QNetworkSession16staticMetaObjectE @ 1019 NONAME DATA 16
	_ZN15QNetworkSession18setSessionPropertyERK7QStringRK8QVariant @ 1020 NONAME
	_ZN15QNetworkSession19getStaticMetaObjectEv @ 1021 NONAME
	_ZN15QNetworkSession25newConfigurationActivatedEv @ 1022 NONAME
	_ZN15QNetworkSession29preferredConfigurationChangedERK21QNetworkConfigurationb @ 1023 NONAME
	_ZN15QNetworkSession4openEv @ 1024 NONAME
	_ZN15QNetworkSession4stopEv @ 1025 NONAME
	_ZN15QNetworkSession5closeEv @ 1026 NONAME
	_ZN15QNetworkSession5errorENS_12SessionErrorE @ 1027 NONAME
	_ZN15QNetworkSession6acceptEv @ 1028 NONAME
	_ZN15QNetworkSession6closedEv @ 1029 NONAME
	_ZN15QNetworkSession6ignoreEv @ 1030 NONAME
	_ZN15QNetworkSession6openedEv @ 1031 NONAME
	_ZN15QNetworkSession6rejectEv @ 1032 NONAME
	_ZN15QNetworkSession7migrateEv @ 1033 NONAME
	_ZN15QNetworkSessionC1ERK21QNetworkConfigurationP7QObject @ 1034 NONAME
	_ZN15QNetworkSessionC2ERK21QNetworkConfigurationP7QObject @ 1035 NONAME
	_ZN15QNetworkSessionD0Ev @ 1036 NONAME
	_ZN15QNetworkSessionD1Ev @ 1037 NONAME
	_ZN15QNetworkSessionD2Ev @ 1038 NONAME
	_ZN19QBearerEnginePlugin11qt_metacallEN11QMetaObject4CallEiPPv @ 1039 NONAME
	_ZN19QBearerEnginePlugin11qt_metacastEPKc @ 1040 NONAME
	_ZN19QBearerEnginePlugin16staticMetaObjectE @ 1041 NONAME DATA 16
	_ZN19QBearerEnginePlugin19getStaticMetaObjectEv @ 1042 NONAME
	_ZN19QBearerEnginePluginC2EP7QObject @ 1043 NONAME
	_ZN19QBearerEnginePluginD0Ev @ 1044 NONAME
	_ZN19QBearerEnginePluginD1Ev @ 1045 NONAME
	_ZN19QBearerEnginePluginD2Ev @ 1046 NONAME
	_ZN21QNetworkAccessManager16setConfigurationERK21QNetworkConfiguration @ 1047 NONAME
	_ZN21QNetworkAccessManager17sendCustomRequestERK15QNetworkRequestRK10QByteArrayP9QIODevice @ 1048 NONAME
	_ZN21QNetworkAccessManager20setNetworkAccessibleENS_20NetworkAccessibilityE @ 1049 NONAME
	_ZN21QNetworkAccessManager23networkSessionConnectedEv @ 1050 NONAME
	_ZN21QNetworkAccessManager24networkAccessibleChangedENS_20NetworkAccessibilityE @ 1051 NONAME
	_ZN21QNetworkConfigurationC1ERKS_ @ 1052 NONAME
	_ZN21QNetworkConfigurationC1Ev @ 1053 NONAME
	_ZN21QNetworkConfigurationC2ERKS_ @ 1054 NONAME
	_ZN21QNetworkConfigurationC2Ev @ 1055 NONAME
	_ZN21QNetworkConfigurationD1Ev @ 1056 NONAME
	_ZN21QNetworkConfigurationD2Ev @ 1057 NONAME
	_ZN21QNetworkConfigurationaSERKS_ @ 1058 NONAME
	_ZN22QNetworkSessionPrivate11qt_metacallEN11QMetaObject4CallEiPPv @ 1059 NONAME
	_ZN22QNetworkSessionPrivate11qt_metacastEPKc @ 1060 NONAME
	_ZN22QNetworkSessionPrivate12stateChangedEN15QNetworkSession5StateE @ 1061 NONAME
	_ZN22QNetworkSessionPrivate16staticMetaObjectE @ 1062 NONAME DATA 16
	_ZN22QNetworkSessionPrivate19getStaticMetaObjectEv @ 1063 NONAME
	_ZN22QNetworkSessionPrivate25newConfigurationActivatedEv @ 1064 NONAME
	_ZN22QNetworkSessionPrivate25quitPendingWaitsForOpenedEv @ 1065 NONAME
	_ZN22QNetworkSessionPrivate29preferredConfigurationChangedERK21QNetworkConfigurationb @ 1066 NONAME
	_ZN22QNetworkSessionPrivate5errorEN15QNetworkSession12SessionErrorE @ 1067 NONAME
	_ZN22QNetworkSessionPrivate6closedEv @ 1068 NONAME
	_ZN28QNetworkConfigurationManager11qt_metacallEN11QMetaObject4CallEiPPv @ 1069 NONAME
	_ZN28QNetworkConfigurationManager11qt_metacastEPKc @ 1070 NONAME
	_ZN28QNetworkConfigurationManager15updateCompletedEv @ 1071 NONAME
	_ZN28QNetworkConfigurationManager16staticMetaObjectE @ 1072 NONAME DATA 16
	_ZN28QNetworkConfigurationManager18configurationAddedERK21QNetworkConfiguration @ 1073 NONAME
	_ZN28QNetworkConfigurationManager18onlineStateChangedEb @ 1074 NONAME
	_ZN28QNetworkConfigurationManager19getStaticMetaObjectEv @ 1075 NONAME
	_ZN28QNetworkConfigurationManager20configurationChangedERK21QNetworkConfiguration @ 1076 NONAME
	_ZN28QNetworkConfigurationManager20configurationRemovedERK21QNetworkConfiguration @ 1077 NONAME
	_ZN28QNetworkConfigurationManager20updateConfigurationsEv @ 1078 NONAME
	_ZN28QNetworkConfigurationManagerC1EP7QObject @ 1079 NONAME
	_ZN28QNetworkConfigurationManagerC2EP7QObject @ 1080 NONAME
	_ZN28QNetworkConfigurationManagerD0Ev @ 1081 NONAME
	_ZN28QNetworkConfigurationManagerD1Ev @ 1082 NONAME
	_ZN28QNetworkConfigurationManagerD2Ev @ 1083 NONAME
	_ZN35QNetworkConfigurationManagerPrivate11pollEnginesEv @ 1084 NONAME
	_ZN35QNetworkConfigurationManagerPrivate11qt_metacallEN11QMetaObject4CallEiPPv @ 1085 NONAME
	_ZN35QNetworkConfigurationManagerPrivate11qt_metacastEPKc @ 1086 NONAME
	_ZN35QNetworkConfigurationManagerPrivate12capabilitiesEv @ 1087 NONAME ABSENT
	_ZN35QNetworkConfigurationManagerPrivate12startPollingEv @ 1088 NONAME
	_ZN35QNetworkConfigurationManagerPrivate13enablePollingEv @ 1089 NONAME
	_ZN35QNetworkConfigurationManagerPrivate14disablePollingEv @ 1090 NONAME
	_ZN35QNetworkConfigurationManagerPrivate16staticMetaObjectE @ 1091 NONAME DATA 16
	_ZN35QNetworkConfigurationManagerPrivate17allConfigurationsE6QFlagsIN21QNetworkConfiguration9StateFlagEE @ 1092 NONAME ABSENT
	_ZN35QNetworkConfigurationManagerPrivate18configurationAddedE28QExplicitlySharedDataPointerI28QNetworkConfigurationPrivateE @ 1093 NONAME
	_ZN35QNetworkConfigurationManagerPrivate18configurationAddedERK21QNetworkConfiguration @ 1094 NONAME
	_ZN35QNetworkConfigurationManagerPrivate18onlineStateChangedEb @ 1095 NONAME
	_ZN35QNetworkConfigurationManagerPrivate19getStaticMetaObjectEv @ 1096 NONAME
	_ZN35QNetworkConfigurationManagerPrivate20configurationChangedE28QExplicitlySharedDataPointerI28QNetworkConfigurationPrivateE @ 1097 NONAME
	_ZN35QNetworkConfigurationManagerPrivate20configurationChangedERK21QNetworkConfiguration @ 1098 NONAME
	_ZN35QNetworkConfigurationManagerPrivate20configurationRemovedE28QExplicitlySharedDataPointerI28QNetworkConfigurationPrivateE @ 1099 NONAME
	_ZN35QNetworkConfigurationManagerPrivate20configurationRemovedERK21QNetworkConfiguration @ 1100 NONAME
	_ZN35QNetworkConfigurationManagerPrivate20defaultConfigurationEv @ 1101 NONAME ABSENT
	_ZN35QNetworkConfigurationManagerPrivate20updateConfigurationsEv @ 1102 NONAME
	_ZN35QNetworkConfigurationManagerPrivate27configurationFromIdentifierERK7QString @ 1103 NONAME ABSENT
	_ZN35QNetworkConfigurationManagerPrivate27configurationUpdateCompleteEv @ 1104 NONAME
	_ZN35QNetworkConfigurationManagerPrivate31performAsyncConfigurationUpdateEv @ 1105 NONAME
	_ZN35QNetworkConfigurationManagerPrivate5abortEv @ 1106 NONAME ABSENT
	_ZN35QNetworkConfigurationManagerPrivate7enginesEv @ 1107 NONAME ABSENT
	_ZN35QNetworkConfigurationManagerPrivate8isOnlineEv @ 1108 NONAME ABSENT
	_ZN35QNetworkConfigurationManagerPrivateC1Ev @ 1109 NONAME
	_ZN35QNetworkConfigurationManagerPrivateC2Ev @ 1110 NONAME
	_ZN35QNetworkConfigurationManagerPrivateD0Ev @ 1111 NONAME
	_ZN35QNetworkConfigurationManagerPrivateD1Ev @ 1112 NONAME
	_ZN35QNetworkConfigurationManagerPrivateD2Ev @ 1113 NONAME
	_ZNK13QBearerEngine10metaObjectEv @ 1114 NONAME
	_ZNK13QBearerEngine15requiresPollingEv @ 1115 NONAME
	_ZNK13QBearerEngine19configurationsInUseEv @ 1116 NONAME
	_ZNK13QNetworkReply14rawHeaderPairsEv @ 1117 NONAME
	_ZNK14QAuthenticator6optionERK7QString @ 1118 NONAME
	_ZNK14QAuthenticator7optionsEv @ 1119 NONAME
	_ZNK15QNetworkRequest8priorityEv @ 1120 NONAME
	_ZNK15QNetworkSession10activeTimeEv @ 1121 NONAME
	_ZNK15QNetworkSession10metaObjectEv @ 1122 NONAME
	_ZNK15QNetworkSession11errorStringEv @ 1123 NONAME
	_ZNK15QNetworkSession12bytesWrittenEv @ 1124 NONAME
	_ZNK15QNetworkSession13bytesReceivedEv @ 1125 NONAME
	_ZNK15QNetworkSession13configurationEv @ 1126 NONAME
	_ZNK15QNetworkSession15sessionPropertyERK7QString @ 1127 NONAME
	_ZNK15QNetworkSession5errorEv @ 1128 NONAME
	_ZNK15QNetworkSession5stateEv @ 1129 NONAME
	_ZNK15QNetworkSession6isOpenEv @ 1130 NONAME
	_ZNK15QNetworkSession9interfaceEv @ 1131 NONAME
	_ZNK19QBearerEnginePlugin10metaObjectEv @ 1132 NONAME
	_ZNK21QNetworkAccessManager13configurationEv @ 1133 NONAME
	_ZNK21QNetworkAccessManager17networkAccessibleEv @ 1134 NONAME
	_ZNK21QNetworkAccessManager19activeConfigurationEv @ 1135 NONAME
	_ZNK21QNetworkConfiguration10bearerTypeEv @ 1136 NONAME
	_ZNK21QNetworkConfiguration10identifierEv @ 1137 NONAME
	_ZNK21QNetworkConfiguration14bearerTypeNameEv @ 1138 NONAME
	_ZNK21QNetworkConfiguration18isRoamingAvailableEv @ 1139 NONAME
	_ZNK21QNetworkConfiguration4nameEv @ 1140 NONAME
	_ZNK21QNetworkConfiguration4typeEv @ 1141 NONAME
	_ZNK21QNetworkConfiguration5stateEv @ 1142 NONAME
	_ZNK21QNetworkConfiguration7isValidEv @ 1143 NONAME
	_ZNK21QNetworkConfiguration7purposeEv @ 1144 NONAME
	_ZNK21QNetworkConfiguration8childrenEv @ 1145 NONAME
	_ZNK21QNetworkConfigurationeqERKS_ @ 1146 NONAME
	_ZNK22QNetworkSessionPrivate10metaObjectEv @ 1147 NONAME
	_ZNK28QNetworkConfigurationManager10metaObjectEv @ 1148 NONAME
	_ZNK28QNetworkConfigurationManager12capabilitiesEv @ 1149 NONAME
	_ZNK28QNetworkConfigurationManager17allConfigurationsE6QFlagsIN21QNetworkConfiguration9StateFlagEE @ 1150 NONAME
	_ZNK28QNetworkConfigurationManager20defaultConfigurationEv @ 1151 NONAME
	_ZNK28QNetworkConfigurationManager27configurationFromIdentifierERK7QString @ 1152 NONAME
	_ZNK28QNetworkConfigurationManager8isOnlineEv @ 1153 NONAME
	_ZNK35QNetworkConfigurationManagerPrivate10metaObjectEv @ 1154 NONAME
	_ZTI13QBearerEngine @ 1155 NONAME
	_ZTI15QNetworkSession @ 1156 NONAME
	_ZTI19QBearerEnginePlugin @ 1157 NONAME
	_ZTI22QNetworkSessionPrivate @ 1158 NONAME
	_ZTI28QNetworkConfigurationManager @ 1159 NONAME
	_ZTI29QBearerEngineFactoryInterface @ 1160 NONAME
	_ZTI35QNetworkConfigurationManagerPrivate @ 1161 NONAME
	_ZTV13QBearerEngine @ 1162 NONAME
	_ZTV15QNetworkSession @ 1163 NONAME
	_ZTV19QBearerEnginePlugin @ 1164 NONAME
	_ZTV22QNetworkSessionPrivate @ 1165 NONAME
	_ZTV28QNetworkConfigurationManager @ 1166 NONAME
	_ZTV35QNetworkConfigurationManagerPrivate @ 1167 NONAME
	_ZThn8_N19QBearerEnginePluginD0Ev @ 1168 NONAME
	_ZThn8_N19QBearerEnginePluginD1Ev @ 1169 NONAME
	_ZN10QUdpSocket18joinMulticastGroupERK12QHostAddress @ 1170 NONAME
	_ZN10QUdpSocket18joinMulticastGroupERK12QHostAddressRK17QNetworkInterface @ 1171 NONAME
	_ZN10QUdpSocket19leaveMulticastGroupERK12QHostAddress @ 1172 NONAME
	_ZN10QUdpSocket19leaveMulticastGroupERK12QHostAddressRK17QNetworkInterface @ 1173 NONAME
	_ZN10QUdpSocket21setMulticastInterfaceERK17QNetworkInterface @ 1174 NONAME
	_ZN13QNetworkReply11setFinishedEb @ 1175 NONAME
	_ZNK10QUdpSocket18multicastInterfaceEv @ 1176 NONAME
	_ZNK35QNetworkConfigurationManagerPrivate12capabilitiesEv @ 1177 NONAME
	_ZNK35QNetworkConfigurationManagerPrivate17allConfigurationsE6QFlagsIN21QNetworkConfiguration9StateFlagEE @ 1178 NONAME
	_ZNK35QNetworkConfigurationManagerPrivate20defaultConfigurationEv @ 1179 NONAME
	_ZNK35QNetworkConfigurationManagerPrivate27configurationFromIdentifierERK7QString @ 1180 NONAME
	_ZNK35QNetworkConfigurationManagerPrivate7enginesEv @ 1181 NONAME
	_ZNK35QNetworkConfigurationManagerPrivate8isOnlineEv @ 1182 NONAME
	_ZN10QSslSocket17setPeerVerifyNameERK7QString @ 1183 NONAME
	_ZN22QNetworkSessionPrivate13nativeSessionER15QNetworkSession @ 1184 NONAME
	_ZN22QNetworkSessionPrivate16nativeOpenSocketER15QNetworkSessionR7RSocketjjj @ 1185 NONAME
	_ZN22QNetworkSessionPrivate22nativeOpenHostResolverER15QNetworkSessionR13RHostResolverjj @ 1186 NONAME
	_ZNK10QSslSocket14peerVerifyNameEv @ 1187 NONAME
	_ZN14QHttpMultiPart11qt_metacallEN11QMetaObject4CallEiPPv @ 1188 NONAME
	_ZN14QHttpMultiPart11qt_metacastEPKc @ 1189 NONAME
	_ZN14QHttpMultiPart11setBoundaryERK10QByteArray @ 1190 NONAME
	_ZN14QHttpMultiPart14setContentTypeENS_11ContentTypeE @ 1191 NONAME
	_ZN14QHttpMultiPart16staticMetaObjectE @ 1192 NONAME DATA 16
	_ZN14QHttpMultiPart19getStaticMetaObjectEv @ 1193 NONAME
	_ZN14QHttpMultiPart6appendERK9QHttpPart @ 1194 NONAME
	_ZN14QHttpMultiPartC1ENS_11ContentTypeEP7QObject @ 1195 NONAME
	_ZN14QHttpMultiPartC1EP7QObject @ 1196 NONAME
	_ZN14QHttpMultiPartC2ENS_11ContentTypeEP7QObject @ 1197 NONAME
	_ZN14QHttpMultiPartC2EP7QObject @ 1198 NONAME
	_ZN14QHttpMultiPartD0Ev @ 1199 NONAME
	_ZN14QHttpMultiPartD1Ev @ 1200 NONAME
	_ZN14QHttpMultiPartD2Ev @ 1201 NONAME
	_ZN21QNetworkAccessManager3putERK15QNetworkRequestP14QHttpMultiPart @ 1202 NONAME
	_ZN21QNetworkAccessManager4postERK15QNetworkRequestP14QHttpMultiPart @ 1203 NONAME
	_ZN9QHttpPart12setRawHeaderERK10QByteArrayS2_ @ 1204 NONAME
	_ZN9QHttpPart13setBodyDeviceEP9QIODevice @ 1205 NONAME
	_ZN9QHttpPart7setBodyERK10QByteArray @ 1206 NONAME
	_ZN9QHttpPart9setHeaderEN15QNetworkRequest12KnownHeadersERK8QVariant @ 1207 NONAME
	_ZN9QHttpPartC1ERKS_ @ 1208 NONAME
	_ZN9QHttpPartC1Ev @ 1209 NONAME
	_ZN9QHttpPartC2ERKS_ @ 1210 NONAME
	_ZN9QHttpPartC2Ev @ 1211 NONAME
	_ZN9QHttpPartD1Ev @ 1212 NONAME
	_ZN9QHttpPartD2Ev @ 1213 NONAME
	_ZN9QHttpPartaSERKS_ @ 1214 NONAME
	_ZNK14QHttpMultiPart10metaObjectEv @ 1215 NONAME
	_ZNK14QHttpMultiPart8boundaryEv @ 1216 NONAME
	_ZNK9QHttpParteqERKS_ @ 1217 NONAME
	_ZTI14QHttpMultiPart @ 1218 NONAME
	_ZTV14QHttpMultiPart @ 1219 NONAME
	_ZN10QSslSocket18qt_static_metacallEP7QObjectN11QMetaObject4CallEiPPv @ 1220 NONAME
	_ZN10QSslSocket25staticMetaObjectExtraDataE @ 1221 NONAME DATA 8
	_ZN10QTcpServer18qt_static_metacallEP7QObjectN11QMetaObject4CallEiPPv @ 1222 NONAME
	_ZN10QTcpServer25staticMetaObjectExtraDataE @ 1223 NONAME DATA 8
	_ZN10QTcpSocket18qt_static_metacallEP7QObjectN11QMetaObject4CallEiPPv @ 1224 NONAME
	_ZN10QTcpSocket25staticMetaObjectExtraDataE @ 1225 NONAME DATA 8
	_ZN10QUdpSocket18qt_static_metacallEP7QObjectN11QMetaObject4CallEiPPv @ 1226 NONAME
	_ZN10QUdpSocket25staticMetaObjectExtraDataE @ 1227 NONAME DATA 8
	_ZN12QLocalServer18qt_static_metacallEP7QObjectN11QMetaObject4CallEiPPv @ 1228 NONAME
	_ZN12QLocalServer25staticMetaObjectExtraDataE @ 1229 NONAME DATA 8
	_ZN12QLocalSocket18qt_static_metacallEP7QObjectN11QMetaObject4CallEiPPv @ 1230 NONAME
	_ZN12QLocalSocket25staticMetaObjectExtraDataE @ 1231 NONAME DATA 8
	_ZN13QBearerEngine18qt_static_metacallEP7QObjectN11QMetaObject4CallEiPPv @ 1232 NONAME
	_ZN13QBearerEngine25staticMetaObjectExtraDataE @ 1233 NONAME DATA 8
	_ZN13QNetworkReply18qt_static_metacallEP7QObjectN11QMetaObject4CallEiPPv @ 1234 NONAME
	_ZN13QNetworkReply25staticMetaObjectExtraDataE @ 1235 NONAME DATA 8
	_ZN14QHttpMultiPart18qt_static_metacallEP7QObjectN11QMetaObject4CallEiPPv @ 1236 NONAME
	_ZN14QHttpMultiPart25staticMetaObjectExtraDataE @ 1237 NONAME DATA 8
	_ZN15QAbstractSocket18qt_static_metacallEP7QObjectN11QMetaObject4CallEiPPv @ 1238 NONAME
	_ZN15QAbstractSocket25staticMetaObjectExtraDataE @ 1239 NONAME DATA 8
	_ZN15QNetworkSession18qt_static_metacallEP7QObjectN11QMetaObject4CallEiPPv @ 1240 NONAME
	_ZN15QNetworkSession25staticMetaObjectExtraDataE @ 1241 NONAME DATA 8
	_ZN17QNetworkCookieJar18qt_static_metacallEP7QObjectN11QMetaObject4CallEiPPv @ 1242 NONAME
	_ZN17QNetworkCookieJar25staticMetaObjectExtraDataE @ 1243 NONAME DATA 8
	_ZN17QNetworkDiskCache18qt_static_metacallEP7QObjectN11QMetaObject4CallEiPPv @ 1244 NONAME
	_ZN17QNetworkDiskCache25staticMetaObjectExtraDataE @ 1245 NONAME DATA 8
	_ZN19QBearerEnginePlugin18qt_static_metacallEP7QObjectN11QMetaObject4CallEiPPv @ 1246 NONAME
	_ZN19QBearerEnginePlugin25staticMetaObjectExtraDataE @ 1247 NONAME DATA 8
	_ZN21QAbstractNetworkCache18qt_static_metacallEP7QObjectN11QMetaObject4CallEiPPv @ 1248 NONAME
	_ZN21QAbstractNetworkCache25staticMetaObjectExtraDataE @ 1249 NONAME DATA 8
	_ZN21QNetworkAccessManager18qt_static_metacallEP7QObjectN11QMetaObject4CallEiPPv @ 1250 NONAME
	_ZN21QNetworkAccessManager25staticMetaObjectExtraDataE @ 1251 NONAME DATA 8
	_ZN22QNetworkSessionPrivate18qt_static_metacallEP7QObjectN11QMetaObject4CallEiPPv @ 1252 NONAME
	_ZN22QNetworkSessionPrivate25staticMetaObjectExtraDataE @ 1253 NONAME DATA 8
	_ZN28QNetworkConfigurationManager18qt_static_metacallEP7QObjectN11QMetaObject4CallEiPPv @ 1254 NONAME
	_ZN28QNetworkConfigurationManager25staticMetaObjectExtraDataE @ 1255 NONAME DATA 8
	_ZN35QNetworkConfigurationManagerPrivate18qt_static_metacallEP7QObjectN11QMetaObject4CallEiPPv @ 1256 NONAME
	_ZN35QNetworkConfigurationManagerPrivate25staticMetaObjectExtraDataE @ 1257 NONAME DATA 8
	_ZN4QFtp18qt_static_metacallEP7QObjectN11QMetaObject4CallEiPPv @ 1258 NONAME
	_ZN4QFtp25staticMetaObjectExtraDataE @ 1259 NONAME DATA 8
	_ZN5QHttp18qt_static_metacallEP7QObjectN11QMetaObject4CallEiPPv @ 1260 NONAME
	_ZN5QHttp25staticMetaObjectExtraDataE @ 1261 NONAME DATA 8

