EXPORTS
	_Z16qPixmapToVGImageRK7QPixmap @ 1 NONAME
	_Z20qt_vg_create_contextP12QPaintDevice @ 2 NONAME ABSENT
	_Z20qt_vg_shared_surfacev @ 3 NONAME
	_Z21qt_vg_destroy_contextP11QEglContext @ 4 NONAME ABSENT
	_Z24qt_vg_image_to_vg_formatN6QImage6FormatE @ 5 NONAME
	_Z25qt_vg_config_to_vg_formatP11QEglContext @ 6 NONAME
	_Z25qt_vg_create_paint_enginev @ 7 NONAME
	_Z26qt_vg_destroy_paint_engineP14QVGPaintEngine @ 8 NONAME
	_Z28qt_vg_config_to_image_formatP11QEglContext @ 9 NONAME
	_ZN13QVGPixmapData12forceToImageEv @ 10 NONAME ABSENT
	_ZN13QVGPixmapData12toNativeTypeEN11QPixmapData10NativeTypeE @ 11 NONAME
	_ZN13QVGPixmapData14fromNativeTypeEPvN11QPixmapData10NativeTypeE @ 12 NONAME
	_ZN13QVGPixmapData15setAlphaChannelERK7QPixmap @ 13 NONAME
	_ZN13QVGPixmapData4fillERK6QColor @ 14 NONAME
	_ZN13QVGPixmapData6bufferEv @ 15 NONAME
	_ZN13QVGPixmapData6resizeEii @ 16 NONAME
	_ZN13QVGPixmapData7cleanupEv @ 17 NONAME
	_ZN13QVGPixmapData9fromImageERK6QImage6QFlagsIN2Qt19ImageConversionFlagEE @ 18 NONAME
	_ZN13QVGPixmapData9toVGImageEf @ 19 NONAME
	_ZN13QVGPixmapData9toVGImageEv @ 20 NONAME
	_ZN13QVGPixmapDataC1EN11QPixmapData9PixelTypeE @ 21 NONAME
	_ZN13QVGPixmapDataC2EN11QPixmapData9PixelTypeE @ 22 NONAME
	_ZN13QVGPixmapDataD0Ev @ 23 NONAME
	_ZN13QVGPixmapDataD1Ev @ 24 NONAME
	_ZN13QVGPixmapDataD2Ev @ 25 NONAME
	_ZN14QVGPaintEngine10drawPixmapERK6QRectFRK7QPixmapS2_ @ 26 NONAME
	_ZN14QVGPaintEngine10drawPixmapERK7QPointFRK7QPixmap @ 27 NONAME
	_ZN14QVGPaintEngine10drawPointsEPK6QPointi @ 28 NONAME
	_ZN14QVGPaintEngine10drawPointsEPK7QPointFi @ 29 NONAME
	_ZN14QVGPaintEngine10penChangedEv @ 30 NONAME
	_ZN14QVGPaintEngine11drawEllipseERK5QRect @ 31 NONAME
	_ZN14QVGPaintEngine11drawEllipseERK6QRectF @ 32 NONAME
	_ZN14QVGPaintEngine11drawPixmapsEPKN12QDrawPixmaps4DataEiRK7QPixmap6QFlagsINS0_11DrawingHintEE @ 33 NONAME ABSENT
	_ZN14QVGPaintEngine11drawPolygonEPK6QPointiN12QPaintEngine15PolygonDrawModeE @ 34 NONAME
	_ZN14QVGPaintEngine11drawPolygonEPK7QPointFiN12QPaintEngine15PolygonDrawModeE @ 35 NONAME
	_ZN14QVGPaintEngine12brushChangedEv @ 36 NONAME
	_ZN14QVGPaintEngine12drawTextItemERK7QPointFRK9QTextItem @ 37 NONAME
	_ZN14QVGPaintEngine12pixmapFilterEiPK13QPixmapFilter @ 38 NONAME
	_ZN14QVGPaintEngine12restoreStateE6QFlagsIN12QPaintEngine9DirtyFlagEE @ 39 NONAME
	_ZN14QVGPaintEngine13updateScissorEv @ 40 NONAME
	_ZN14QVGPaintEngine14opacityChangedEv @ 41 NONAME
	_ZN14QVGPaintEngine15drawRoundedRectERK6QRectFffN2Qt8SizeModeE @ 42 NONAME
	_ZN14QVGPaintEngine15drawTiledPixmapERK6QRectFRK7QPixmapRK7QPointF @ 43 NONAME
	_ZN14QVGPaintEngine16transformChangedEv @ 44 NONAME
	_ZN14QVGPaintEngine17defaultClipRegionEv @ 45 NONAME
	_ZN14QVGPaintEngine17endNativePaintingEv @ 46 NONAME
	_ZN14QVGPaintEngine17isDefaultClipRectERK5QRect @ 47 NONAME
	_ZN14QVGPaintEngine18brushOriginChangedEv @ 48 NONAME
	_ZN14QVGPaintEngine18clipEnabledChangedEv @ 49 NONAME
	_ZN14QVGPaintEngine18renderHintsChangedEv @ 50 NONAME
	_ZN14QVGPaintEngine19beginNativePaintingEv @ 51 NONAME
	_ZN14QVGPaintEngine19isDefaultClipRegionERK7QRegion @ 52 NONAME
	_ZN14QVGPaintEngine22compositionModeChangedEv @ 53 NONAME
	_ZN14QVGPaintEngine3endEv @ 54 NONAME
	_ZN14QVGPaintEngine4clipERK11QVectorPathN2Qt13ClipOperationE @ 55 NONAME
	_ZN14QVGPaintEngine4clipERK12QPainterPathN2Qt13ClipOperationE @ 56 NONAME
	_ZN14QVGPaintEngine4clipERK5QRectN2Qt13ClipOperationE @ 57 NONAME
	_ZN14QVGPaintEngine4clipERK7QRegionN2Qt13ClipOperationE @ 58 NONAME
	_ZN14QVGPaintEngine4drawERK11QVectorPath @ 59 NONAME
	_ZN14QVGPaintEngine4fillERK11QVectorPathRK6QBrush @ 60 NONAME
	_ZN14QVGPaintEngine5beginEP12QPaintDevice @ 61 NONAME
	_ZN14QVGPaintEngine6strokeERK11QVectorPathRK4QPen @ 62 NONAME
	_ZN14QVGPaintEngine8drawPathERK12QPainterPath @ 63 NONAME
	_ZN14QVGPaintEngine8fillRectERK6QRectFRK6QBrush @ 64 NONAME
	_ZN14QVGPaintEngine8fillRectERK6QRectFRK6QColor @ 65 NONAME
	_ZN14QVGPaintEngine8setStateEP13QPainterState @ 66 NONAME
	_ZN14QVGPaintEngine9clearRectERK6QRectFRK6QColor @ 67 NONAME
	_ZN14QVGPaintEngine9drawImageERK6QRectFRK6QImageS2_6QFlagsIN2Qt19ImageConversionFlagEE @ 68 NONAME
	_ZN14QVGPaintEngine9drawImageERK7QPointFRK6QImage @ 69 NONAME
	_ZN14QVGPaintEngine9drawLinesEPK5QLinei @ 70 NONAME
	_ZN14QVGPaintEngine9drawLinesEPK6QLineFi @ 71 NONAME
	_ZN14QVGPaintEngine9drawRectsEPK5QRecti @ 72 NONAME
	_ZN14QVGPaintEngine9drawRectsEPK6QRectFi @ 73 NONAME
	_ZN14QVGPaintEngineC1ER21QVGPaintEnginePrivate @ 74 NONAME
	_ZN14QVGPaintEngineC1Ev @ 75 NONAME
	_ZN14QVGPaintEngineC2ER21QVGPaintEnginePrivate @ 76 NONAME
	_ZN14QVGPaintEngineC2Ev @ 77 NONAME
	_ZN14QVGPaintEngineD0Ev @ 78 NONAME
	_ZN14QVGPaintEngineD1Ev @ 79 NONAME
	_ZN14QVGPaintEngineD2Ev @ 80 NONAME
	_ZN15QVGPainterStateC1ERS_ @ 81 NONAME
	_ZN15QVGPainterStateC1Ev @ 82 NONAME
	_ZN15QVGPainterStateC2ERS_ @ 83 NONAME
	_ZN15QVGPainterStateC2Ev @ 84 NONAME
	_ZN15QVGPainterStateD0Ev @ 85 NONAME
	_ZN15QVGPainterStateD1Ev @ 86 NONAME
	_ZN15QVGPainterStateD2Ev @ 87 NONAME
	_ZN16QVGWindowSurface10beginPaintERK7QRegion @ 88 NONAME
	_ZN16QVGWindowSurface11paintDeviceEv @ 89 NONAME
	_ZN16QVGWindowSurface11setGeometryERK5QRect @ 90 NONAME
	_ZN16QVGWindowSurface5flushEP7QWidgetRK7QRegionRK6QPoint @ 91 NONAME
	_ZN16QVGWindowSurface6scrollERK7QRegionii @ 92 NONAME
	_ZN16QVGWindowSurface8endPaintERK7QRegion @ 93 NONAME
	_ZN16QVGWindowSurfaceC1EP7QWidget @ 94 NONAME
	_ZN16QVGWindowSurfaceC1EP7QWidgetP26QVGEGLWindowSurfacePrivate @ 95 NONAME
	_ZN16QVGWindowSurfaceC2EP7QWidget @ 96 NONAME
	_ZN16QVGWindowSurfaceC2EP7QWidgetP26QVGEGLWindowSurfacePrivate @ 97 NONAME
	_ZN16QVGWindowSurfaceD0Ev @ 98 NONAME
	_ZN16QVGWindowSurfaceD1Ev @ 99 NONAME
	_ZN16QVGWindowSurfaceD2Ev @ 100 NONAME
	_ZN20QVGCompositionHelper10blitWindowEP26QVGEGLWindowSurfacePrivateRK5QRectRK6QPointi @ 101 NONAME ABSENT
	_ZN20QVGCompositionHelper10setScissorERK7QRegion @ 102 NONAME
	_ZN20QVGCompositionHelper12clearScissorEv @ 103 NONAME
	_ZN20QVGCompositionHelper14endCompositingEv @ 104 NONAME
	_ZN20QVGCompositionHelper14fillBackgroundERK7QRegionRK6QBrush @ 105 NONAME
	_ZN20QVGCompositionHelper16drawCursorPixmapERK7QPixmapRK6QPoint @ 106 NONAME
	_ZN20QVGCompositionHelper16startCompositingERK5QSize @ 107 NONAME
	_ZN20QVGCompositionHelperC1Ev @ 108 NONAME
	_ZN20QVGCompositionHelperC2Ev @ 109 NONAME
	_ZN20QVGCompositionHelperD0Ev @ 110 NONAME
	_ZN20QVGCompositionHelperD1Ev @ 111 NONAME
	_ZN20QVGCompositionHelperD2Ev @ 112 NONAME
	_ZN25QVGEGLWindowSurfaceDirect10beginPaintEP7QWidget @ 113 NONAME
	_ZN25QVGEGLWindowSurfaceDirect13ensureContextEP7QWidget @ 114 NONAME
	_ZN25QVGEGLWindowSurfaceDirect8endPaintEP7QWidgetRK7QRegionP6QImage @ 115 NONAME
	_ZN25QVGEGLWindowSurfaceDirectC1EP14QWindowSurface @ 116 NONAME
	_ZN25QVGEGLWindowSurfaceDirectC2EP14QWindowSurface @ 117 NONAME
	_ZN25QVGEGLWindowSurfaceDirectD0Ev @ 118 NONAME
	_ZN25QVGEGLWindowSurfaceDirectD1Ev @ 119 NONAME
	_ZN25QVGEGLWindowSurfaceDirectD2Ev @ 120 NONAME
	_ZN26QVGEGLWindowSurfacePrivate11paintEngineEv @ 121 NONAME
	_ZN26QVGEGLWindowSurfacePrivate18destroyPaintEngineEv @ 122 NONAME
	_ZN26QVGEGLWindowSurfacePrivateC2EP14QWindowSurface @ 123 NONAME
	_ZN26QVGEGLWindowSurfacePrivateD0Ev @ 124 NONAME
	_ZN26QVGEGLWindowSurfacePrivateD1Ev @ 125 NONAME
	_ZN26QVGEGLWindowSurfacePrivateD2Ev @ 126 NONAME
	_ZN26QVGEGLWindowSurfaceVGImage10beginPaintEP7QWidget @ 127 NONAME
	_ZN26QVGEGLWindowSurfaceVGImage13ensureContextEP7QWidget @ 128 NONAME
	_ZN26QVGEGLWindowSurfaceVGImage8endPaintEP7QWidgetRK7QRegionP6QImage @ 129 NONAME
	_ZN26QVGEGLWindowSurfaceVGImageC1EP14QWindowSurface @ 130 NONAME
	_ZN26QVGEGLWindowSurfaceVGImageC2EP14QWindowSurface @ 131 NONAME
	_ZN26QVGEGLWindowSurfaceVGImageD0Ev @ 132 NONAME
	_ZN26QVGEGLWindowSurfaceVGImageD1Ev @ 133 NONAME
	_ZN26QVGEGLWindowSurfaceVGImageD2Ev @ 134 NONAME
	_ZNK13QVGPixmapData11paintEngineEv @ 135 NONAME
	_ZNK13QVGPixmapData12sourceFormatEv @ 136 NONAME
	_ZNK13QVGPixmapData15hasAlphaChannelEv @ 137 NONAME
	_ZNK13QVGPixmapData26createCompatiblePixmapDataEv @ 138 NONAME
	_ZNK13QVGPixmapData6metricEN12QPaintDevice17PaintDeviceMetricE @ 139 NONAME
	_ZNK13QVGPixmapData7isValidEv @ 140 NONAME
	_ZNK13QVGPixmapData7toImageEv @ 141 NONAME
	_ZNK14QVGPaintEngine11createStateEP13QPainterState @ 142 NONAME
	_ZNK16QVGWindowSurface11paintEngineEv @ 143 NONAME
	_ZNK16QVGWindowSurface6metricEN12QPaintDevice17PaintDeviceMetricE @ 144 NONAME
	_ZNK26QVGEGLWindowSurfacePrivate12surfaceImageEv @ 145 NONAME
	_ZNK26QVGEGLWindowSurfacePrivate17windowSurfaceSizeEP7QWidget @ 146 NONAME
	_ZNK26QVGEGLWindowSurfaceVGImage11mainSurfaceEv @ 147 NONAME
	_ZNK26QVGEGLWindowSurfaceVGImage12surfaceImageEv @ 148 NONAME
	_ZTI13QVGPixmapData @ 149 NONAME
	_ZTI14QVGPaintEngine @ 150 NONAME
	_ZTI15QVGPainterState @ 151 NONAME
	_ZTI16QVGWindowSurface @ 152 NONAME
	_ZTI20QVGCompositionHelper @ 153 NONAME
	_ZTI25QVGEGLWindowSurfaceDirect @ 154 NONAME
	_ZTI26QVGEGLWindowSurfacePrivate @ 155 NONAME
	_ZTI26QVGEGLWindowSurfaceVGImage @ 156 NONAME
	_ZTV13QVGPixmapData @ 157 NONAME
	_ZTV14QVGPaintEngine @ 158 NONAME
	_ZTV15QVGPainterState @ 159 NONAME
	_ZTV16QVGWindowSurface @ 160 NONAME
	_ZTV20QVGCompositionHelper @ 161 NONAME
	_ZTV25QVGEGLWindowSurfaceDirect @ 162 NONAME
	_ZTV26QVGEGLWindowSurfacePrivate @ 163 NONAME
	_ZTV26QVGEGLWindowSurfaceVGImage @ 164 NONAME
	_ZThn8_N16QVGWindowSurfaceD0Ev @ 165 NONAME
	_ZThn8_N16QVGWindowSurfaceD1Ev @ 166 NONAME
	_ZThn8_NK16QVGWindowSurface11paintEngineEv @ 167 NONAME
	_ZThn8_NK16QVGWindowSurface6metricEN12QPaintDevice17PaintDeviceMetricE @ 168 NONAME
	_ZN14QVGPaintEngine10fillRegionERK7QRegionRK6QColorRK5QSize @ 169 NONAME
	_ZN20QVGCompositionHelper10blitWindowEmRK5QSizeRK5QRectRK6QPointi @ 170 NONAME
	_Z20qt_vg_create_contextP12QPaintDevicei @ 171 NONAME
	_Z21qt_vg_destroy_contextP11QEglContexti @ 172 NONAME
	_ZN13QVGPixmapData22destroyImageAndContextEv @ 173 NONAME
	_ZN13QVGPixmapData9hibernateEv @ 174 NONAME
	_ZN12QVGImagePool11detachImageEP13QVGPixmapData @ 175 NONAME
	_ZN12QVGImagePool12reclaimSpaceE13VGImageFormatllP13QVGPixmapData @ 176 NONAME
	_ZN12QVGImagePool12releaseImageEP13QVGPixmapDatam @ 177 NONAME
	_ZN12QVGImagePool12setImagePoolEPS_ @ 178 NONAME
	_ZN12QVGImagePool13removeFromLRUEP13QVGPixmapData @ 179 NONAME
	_ZN12QVGImagePool15moveToHeadOfLRUEP13QVGPixmapData @ 180 NONAME
	_ZN12QVGImagePool20createImageForPixmapE13VGImageFormatllmP13QVGPixmapData @ 181 NONAME
	_ZN12QVGImagePool20createPermanentImageE13VGImageFormatllm @ 182 NONAME
	_ZN12QVGImagePool20createTemporaryImageE13VGImageFormatllmP13QVGPixmapData @ 183 NONAME
	_ZN12QVGImagePool8instanceEv @ 184 NONAME
	_ZN12QVGImagePool8useImageEP13QVGPixmapData @ 185 NONAME
	_ZN12QVGImagePool9hibernateEv @ 186 NONAME
	_ZN12QVGImagePool9pixmapLRUEv @ 187 NONAME
	_ZN12QVGImagePoolC1Ev @ 188 NONAME
	_ZN12QVGImagePoolC2Ev @ 189 NONAME
	_ZN12QVGImagePoolD0Ev @ 190 NONAME
	_ZN12QVGImagePoolD1Ev @ 191 NONAME
	_ZN12QVGImagePoolD2Ev @ 192 NONAME
	_ZN13QVGPixmapData13destroyImagesEv @ 193 NONAME
	_ZN13QVGPixmapData13reclaimImagesEv @ 194 NONAME
	_ZN13QVGPixmapData19detachImageFromPoolEv @ 195 NONAME
	_ZTI12QVGImagePool @ 196 NONAME
	_ZTV12QVGImagePool @ 197 NONAME
	_ZN25QVGEGLWindowSurfaceDirect6scrollEP7QWidgetRK7QRegionii @ 198 NONAME
	_ZNK25QVGEGLWindowSurfaceDirect22supportsStaticContentsEv @ 199 NONAME
	_ZN14QVGPaintEngine16drawCachedGlyphsEiPKjRK5QFontP11QFontEngineRK7QPointFPK11QFixedPoint @ 200 NONAME
	_ZN14QVGPaintEngine18drawStaticTextItemEP15QStaticTextItem @ 201 NONAME
	_ZN14QVGPaintEngine19drawPixmapFragmentsEPKN8QPainter14PixmapFragmentEiRK7QPixmap6QFlagsINS0_18PixmapFragmentHintEE @ 202 NONAME
	_ZN13QVGPixmapData15fromImageReaderEP12QImageReader6QFlagsIN2Qt19ImageConversionFlagEE @ 203 NONAME
	_ZN13QVGPixmapData20createPixmapForImageER6QImage6QFlagsIN2Qt19ImageConversionFlagEEb @ 204 NONAME
	_ZN13QVGPixmapData8fromDataEPKhjPKc6QFlagsIN2Qt19ImageConversionFlagEE @ 205 NONAME
	_ZN13QVGPixmapData8fromFileERK7QStringPKc6QFlagsIN2Qt19ImageConversionFlagEE @ 206 NONAME
	_ZNK14QVGPaintEngine16canVgWritePixelsERK6QImage @ 207 NONAME
	_ZN13QVGPixmapData12updateSerialEv @ 208 NONAME
	_ZN13QVGPixmapData4copyEPK11QPixmapDataRK5QRect @ 209 NONAME
	_ZNK13QVGPixmapData11idealFormatEP6QImage6QFlagsIN2Qt19ImageConversionFlagEE @ 210 NONAME
	_ZNK13QVGPixmapData14ensureReadbackEb @ 211 NONAME
	_ZN13QVGPixmapData24releaseNativeImageHandleEv @ 212 NONAME
	_ZN13QVGPixmapData25initFromNativeImageHandleEPvRK7QString @ 213 NONAME
	_ZN13QVGPixmapData35createFromNativeImageHandleProviderEv @ 214 NONAME
	_ZN13QVGPixmapData12forceToImageEb @ 215 NONAME
	_ZNK16QVGWindowSurface8featuresEv @ 216 NONAME

