EXPORTS
	_Z18qt_gl_share_widgetv @ 1 NONAME
	_Z19qt_qgl_paint_enginev @ 2 NONAME
	_Z22qt_gl_transfer_contextPK10QGLContext @ 3 NONAME
	_Z26qt_destroy_gl_share_widgetv @ 4 NONAME
	_Z33qt_resolve_eglimage_gl_extensionsP10QGLContext @ 5 NONAME
	_ZN10QGLContext10areSharingEPKS_S1_ @ 6 NONAME
	_ZN10QGLContext10currentCtxE @ 7 NONAME DATA 4
	_ZN10QGLContext11bindTextureERK6QImageji @ 8 NONAME
	_ZN10QGLContext11bindTextureERK6QImageji6QFlagsINS_10BindOptionEE @ 9 NONAME
	_ZN10QGLContext11bindTextureERK7QPixmapji @ 10 NONAME
	_ZN10QGLContext11bindTextureERK7QPixmapji6QFlagsINS_10BindOptionEE @ 11 NONAME
	_ZN10QGLContext11bindTextureERK7QString @ 12 NONAME
	_ZN10QGLContext11doneCurrentEv @ 13 NONAME
	_ZN10QGLContext11drawTextureERK6QRectFjj @ 14 NONAME
	_ZN10QGLContext11drawTextureERK7QPointFjj @ 15 NONAME
	_ZN10QGLContext11makeCurrentEv @ 16 NONAME
	_ZN10QGLContext13chooseContextEPKS_ @ 17 NONAME
	_ZN10QGLContext13deleteTextureEj @ 18 NONAME
	_ZN10QGLContext14currentContextEv @ 19 NONAME
	_ZN10QGLContext14setInitializedEb @ 20 NONAME
	_ZN10QGLContext16setWindowCreatedEb @ 21 NONAME
	_ZN10QGLContext17textureCacheLimitEv @ 22 NONAME
	_ZN10QGLContext20setTextureCacheLimitEi @ 23 NONAME
	_ZN10QGLContext24generateFontDisplayListsERK5QFonti @ 24 NONAME
	_ZN10QGLContext5resetEv @ 25 NONAME
	_ZN10QGLContext6createEPKS_ @ 26 NONAME
	_ZN10QGLContext8setValidEb @ 27 NONAME
	_ZN10QGLContext9setDeviceEP12QPaintDevice @ 28 NONAME
	_ZN10QGLContext9setFormatERK9QGLFormat @ 29 NONAME
	_ZN10QGLContextC1ERK9QGLFormat @ 30 NONAME
	_ZN10QGLContextC1ERK9QGLFormatP12QPaintDevice @ 31 NONAME
	_ZN10QGLContextC2ERK9QGLFormat @ 32 NONAME
	_ZN10QGLContextC2ERK9QGLFormatP12QPaintDevice @ 33 NONAME
	_ZN10QGLContextD0Ev @ 34 NONAME
	_ZN10QGLContextD1Ev @ 35 NONAME
	_ZN10QGLContextD2Ev @ 36 NONAME
	_ZN11QGLColormap10setEntriesEiPKji @ 37 NONAME
	_ZN11QGLColormap11shared_nullE @ 38 NONAME DATA 12
	_ZN11QGLColormap13detach_helperEv @ 39 NONAME
	_ZN11QGLColormap7cleanupEPNS_15QGLColormapDataE @ 40 NONAME
	_ZN11QGLColormap8setEntryEiRK6QColor @ 41 NONAME
	_ZN11QGLColormap8setEntryEij @ 42 NONAME
	_ZN11QGLColormapC1ERKS_ @ 43 NONAME
	_ZN11QGLColormapC1Ev @ 44 NONAME
	_ZN11QGLColormapC2ERKS_ @ 45 NONAME
	_ZN11QGLColormapC2Ev @ 46 NONAME
	_ZN11QGLColormapD1Ev @ 47 NONAME
	_ZN11QGLColormapD2Ev @ 48 NONAME
	_ZN11QGLColormapaSERKS_ @ 49 NONAME
	_ZN13QGLPixmapData4copyEPK11QPixmapDataRK5QRect @ 50 NONAME
	_ZN13QGLPixmapData4fillERK6QColor @ 51 NONAME
	_ZN13QGLPixmapData6resizeEii @ 52 NONAME
	_ZN13QGLPixmapData6scrollEiiRK5QRect @ 53 NONAME
	_ZN13QGLPixmapData8fromDataEPKhjPKc6QFlagsIN2Qt19ImageConversionFlagEE @ 54 NONAME
	_ZN13QGLPixmapData8fromFileERK7QStringPKc6QFlagsIN2Qt19ImageConversionFlagEE @ 55 NONAME
	_ZN13QGLPixmapData9fromImageERK6QImage6QFlagsIN2Qt19ImageConversionFlagEE @ 56 NONAME
	_ZN13QGLPixmapDataC1EN11QPixmapData9PixelTypeE @ 57 NONAME
	_ZN13QGLPixmapDataC2EN11QPixmapData9PixelTypeE @ 58 NONAME
	_ZN13QGLPixmapDataD0Ev @ 59 NONAME
	_ZN13QGLPixmapDataD1Ev @ 60 NONAME
	_ZN13QGLPixmapDataD2Ev @ 61 NONAME
	_ZN14QGLPaintDevice10beginPaintEv @ 62 NONAME
	_ZN14QGLPaintDevice18ensureActiveTargetEv @ 63 NONAME
	_ZN14QGLPaintDevice8endPaintEv @ 64 NONAME
	_ZN14QGLPaintDevice9getDeviceEP12QPaintDevice @ 65 NONAME
	_ZN14QGLPaintDeviceC2Ev @ 66 NONAME
	_ZN14QGLPaintDeviceD0Ev @ 67 NONAME
	_ZN14QGLPaintDeviceD1Ev @ 68 NONAME
	_ZN14QGLPaintDeviceD2Ev @ 69 NONAME
	_ZN14QGLPixelBuffer11bindTextureERK6QImagej @ 70 NONAME
	_ZN14QGLPixelBuffer11bindTextureERK7QPixmapj @ 71 NONAME
	_ZN14QGLPixelBuffer11bindTextureERK7QString @ 72 NONAME
	_ZN14QGLPixelBuffer11doneCurrentEv @ 73 NONAME
	_ZN14QGLPixelBuffer11drawTextureERK6QRectFjj @ 74 NONAME
	_ZN14QGLPixelBuffer11drawTextureERK7QPointFjj @ 75 NONAME
	_ZN14QGLPixelBuffer11makeCurrentEv @ 76 NONAME
	_ZN14QGLPixelBuffer13deleteTextureEj @ 77 NONAME
	_ZN14QGLPixelBuffer17hasOpenGLPbuffersEv @ 78 NONAME
	_ZN14QGLPixelBuffer20bindToDynamicTextureEj @ 79 NONAME
	_ZN14QGLPixelBuffer25releaseFromDynamicTextureEv @ 80 NONAME
	_ZN14QGLPixelBufferC1ERK5QSizeRK9QGLFormatP9QGLWidget @ 81 NONAME
	_ZN14QGLPixelBufferC1EiiRK9QGLFormatP9QGLWidget @ 82 NONAME
	_ZN14QGLPixelBufferC2ERK5QSizeRK9QGLFormatP9QGLWidget @ 83 NONAME
	_ZN14QGLPixelBufferC2EiiRK9QGLFormatP9QGLWidget @ 84 NONAME
	_ZN14QGLPixelBufferD0Ev @ 85 NONAME
	_ZN14QGLPixelBufferD1Ev @ 86 NONAME
	_ZN14QGLPixelBufferD2Ev @ 87 NONAME
	_ZN14QGLSignalProxy11qt_metacallEN11QMetaObject4CallEiPPv @ 88 NONAME
	_ZN14QGLSignalProxy11qt_metacastEPKc @ 89 NONAME
	_ZN14QGLSignalProxy16staticMetaObjectE @ 90 NONAME DATA 16
	_ZN14QGLSignalProxy19getStaticMetaObjectEv @ 91 NONAME
	_ZN14QGLSignalProxy21aboutToDestroyContextEPK10QGLContext @ 92 NONAME
	_ZN14QGLSignalProxy8instanceEv @ 93 NONAME
	_ZN16QGLShaderProgram11qt_metacallEN11QMetaObject4CallEiPPv @ 94 NONAME
	_ZN16QGLShaderProgram11qt_metacastEPKc @ 95 NONAME
	_ZN16QGLShaderProgram12removeShaderEP9QGLShader @ 96 NONAME
	_ZN16QGLShaderProgram15setUniformValueEPKcPA2_Kf @ 97 NONAME
	_ZN16QGLShaderProgram15setUniformValueEPKcPA3_Kf @ 98 NONAME
	_ZN16QGLShaderProgram15setUniformValueEPKcPA4_Kf @ 99 NONAME
	_ZN16QGLShaderProgram15setUniformValueEPKcRK10QMatrix4x4 @ 100 NONAME
	_ZN16QGLShaderProgram15setUniformValueEPKcRK10QTransform @ 101 NONAME
	_ZN16QGLShaderProgram15setUniformValueEPKcRK14QGenericMatrixILi2ELi2EfE @ 102 NONAME
	_ZN16QGLShaderProgram15setUniformValueEPKcRK14QGenericMatrixILi2ELi3EfE @ 103 NONAME
	_ZN16QGLShaderProgram15setUniformValueEPKcRK14QGenericMatrixILi2ELi4EfE @ 104 NONAME
	_ZN16QGLShaderProgram15setUniformValueEPKcRK14QGenericMatrixILi3ELi2EfE @ 105 NONAME
	_ZN16QGLShaderProgram15setUniformValueEPKcRK14QGenericMatrixILi3ELi3EfE @ 106 NONAME
	_ZN16QGLShaderProgram15setUniformValueEPKcRK14QGenericMatrixILi3ELi4EfE @ 107 NONAME
	_ZN16QGLShaderProgram15setUniformValueEPKcRK14QGenericMatrixILi4ELi2EfE @ 108 NONAME
	_ZN16QGLShaderProgram15setUniformValueEPKcRK14QGenericMatrixILi4ELi3EfE @ 109 NONAME
	_ZN16QGLShaderProgram15setUniformValueEPKcRK5QSize @ 110 NONAME
	_ZN16QGLShaderProgram15setUniformValueEPKcRK6QColor @ 111 NONAME
	_ZN16QGLShaderProgram15setUniformValueEPKcRK6QPoint @ 112 NONAME
	_ZN16QGLShaderProgram15setUniformValueEPKcRK6QSizeF @ 113 NONAME
	_ZN16QGLShaderProgram15setUniformValueEPKcRK7QPointF @ 114 NONAME
	_ZN16QGLShaderProgram15setUniformValueEPKcRK9QVector2D @ 115 NONAME
	_ZN16QGLShaderProgram15setUniformValueEPKcRK9QVector3D @ 116 NONAME
	_ZN16QGLShaderProgram15setUniformValueEPKcRK9QVector4D @ 117 NONAME
	_ZN16QGLShaderProgram15setUniformValueEPKcf @ 118 NONAME
	_ZN16QGLShaderProgram15setUniformValueEPKcff @ 119 NONAME
	_ZN16QGLShaderProgram15setUniformValueEPKcfff @ 120 NONAME
	_ZN16QGLShaderProgram15setUniformValueEPKcffff @ 121 NONAME
	_ZN16QGLShaderProgram15setUniformValueEPKci @ 122 NONAME
	_ZN16QGLShaderProgram15setUniformValueEPKcj @ 123 NONAME
	_ZN16QGLShaderProgram15setUniformValueEiPA2_Kf @ 124 NONAME
	_ZN16QGLShaderProgram15setUniformValueEiPA3_Kf @ 125 NONAME
	_ZN16QGLShaderProgram15setUniformValueEiPA4_Kf @ 126 NONAME
	_ZN16QGLShaderProgram15setUniformValueEiRK10QMatrix4x4 @ 127 NONAME
	_ZN16QGLShaderProgram15setUniformValueEiRK10QTransform @ 128 NONAME
	_ZN16QGLShaderProgram15setUniformValueEiRK14QGenericMatrixILi2ELi2EfE @ 129 NONAME
	_ZN16QGLShaderProgram15setUniformValueEiRK14QGenericMatrixILi2ELi3EfE @ 130 NONAME
	_ZN16QGLShaderProgram15setUniformValueEiRK14QGenericMatrixILi2ELi4EfE @ 131 NONAME
	_ZN16QGLShaderProgram15setUniformValueEiRK14QGenericMatrixILi3ELi2EfE @ 132 NONAME
	_ZN16QGLShaderProgram15setUniformValueEiRK14QGenericMatrixILi3ELi3EfE @ 133 NONAME
	_ZN16QGLShaderProgram15setUniformValueEiRK14QGenericMatrixILi3ELi4EfE @ 134 NONAME
	_ZN16QGLShaderProgram15setUniformValueEiRK14QGenericMatrixILi4ELi2EfE @ 135 NONAME
	_ZN16QGLShaderProgram15setUniformValueEiRK14QGenericMatrixILi4ELi3EfE @ 136 NONAME
	_ZN16QGLShaderProgram15setUniformValueEiRK5QSize @ 137 NONAME
	_ZN16QGLShaderProgram15setUniformValueEiRK6QColor @ 138 NONAME
	_ZN16QGLShaderProgram15setUniformValueEiRK6QPoint @ 139 NONAME
	_ZN16QGLShaderProgram15setUniformValueEiRK6QSizeF @ 140 NONAME
	_ZN16QGLShaderProgram15setUniformValueEiRK7QPointF @ 141 NONAME
	_ZN16QGLShaderProgram15setUniformValueEiRK9QVector2D @ 142 NONAME
	_ZN16QGLShaderProgram15setUniformValueEiRK9QVector3D @ 143 NONAME
	_ZN16QGLShaderProgram15setUniformValueEiRK9QVector4D @ 144 NONAME
	_ZN16QGLShaderProgram15setUniformValueEif @ 145 NONAME
	_ZN16QGLShaderProgram15setUniformValueEiff @ 146 NONAME
	_ZN16QGLShaderProgram15setUniformValueEifff @ 147 NONAME
	_ZN16QGLShaderProgram15setUniformValueEiffff @ 148 NONAME
	_ZN16QGLShaderProgram15setUniformValueEii @ 149 NONAME
	_ZN16QGLShaderProgram15setUniformValueEij @ 150 NONAME
	_ZN16QGLShaderProgram15shaderDestroyedEv @ 151 NONAME
	_ZN16QGLShaderProgram16removeAllShadersEv @ 152 NONAME
	_ZN16QGLShaderProgram16staticMetaObjectE @ 153 NONAME DATA 16
	_ZN16QGLShaderProgram17setAttributeArrayEPKcPK9QVector2Di @ 154 NONAME
	_ZN16QGLShaderProgram17setAttributeArrayEPKcPK9QVector3Di @ 155 NONAME
	_ZN16QGLShaderProgram17setAttributeArrayEPKcPK9QVector4Di @ 156 NONAME
	_ZN16QGLShaderProgram17setAttributeArrayEPKcPKfii @ 157 NONAME
	_ZN16QGLShaderProgram17setAttributeArrayEPKcjPKvii @ 158 NONAME
	_ZN16QGLShaderProgram17setAttributeArrayEiPK9QVector2Di @ 159 NONAME
	_ZN16QGLShaderProgram17setAttributeArrayEiPK9QVector3Di @ 160 NONAME
	_ZN16QGLShaderProgram17setAttributeArrayEiPK9QVector4Di @ 161 NONAME
	_ZN16QGLShaderProgram17setAttributeArrayEiPKfii @ 162 NONAME
	_ZN16QGLShaderProgram17setAttributeArrayEijPKvii @ 163 NONAME
	_ZN16QGLShaderProgram17setAttributeValueEPKcPKfii @ 164 NONAME
	_ZN16QGLShaderProgram17setAttributeValueEPKcRK6QColor @ 165 NONAME
	_ZN16QGLShaderProgram17setAttributeValueEPKcRK9QVector2D @ 166 NONAME
	_ZN16QGLShaderProgram17setAttributeValueEPKcRK9QVector3D @ 167 NONAME
	_ZN16QGLShaderProgram17setAttributeValueEPKcRK9QVector4D @ 168 NONAME
	_ZN16QGLShaderProgram17setAttributeValueEPKcf @ 169 NONAME
	_ZN16QGLShaderProgram17setAttributeValueEPKcff @ 170 NONAME
	_ZN16QGLShaderProgram17setAttributeValueEPKcfff @ 171 NONAME
	_ZN16QGLShaderProgram17setAttributeValueEPKcffff @ 172 NONAME
	_ZN16QGLShaderProgram17setAttributeValueEiPKfii @ 173 NONAME
	_ZN16QGLShaderProgram17setAttributeValueEiRK6QColor @ 174 NONAME
	_ZN16QGLShaderProgram17setAttributeValueEiRK9QVector2D @ 175 NONAME
	_ZN16QGLShaderProgram17setAttributeValueEiRK9QVector3D @ 176 NONAME
	_ZN16QGLShaderProgram17setAttributeValueEiRK9QVector4D @ 177 NONAME
	_ZN16QGLShaderProgram17setAttributeValueEif @ 178 NONAME
	_ZN16QGLShaderProgram17setAttributeValueEiff @ 179 NONAME
	_ZN16QGLShaderProgram17setAttributeValueEifff @ 180 NONAME
	_ZN16QGLShaderProgram17setAttributeValueEiffff @ 181 NONAME
	_ZN16QGLShaderProgram18setAttributeBufferEPKcjiii @ 182 NONAME
	_ZN16QGLShaderProgram18setAttributeBufferEijiii @ 183 NONAME
	_ZN16QGLShaderProgram19getStaticMetaObjectEv @ 184 NONAME
	_ZN16QGLShaderProgram20enableAttributeArrayEPKc @ 185 NONAME
	_ZN16QGLShaderProgram20enableAttributeArrayEi @ 186 NONAME
	_ZN16QGLShaderProgram20setGeometryInputTypeEj @ 187 NONAME
	_ZN16QGLShaderProgram20setUniformValueArrayEPKcPK10QMatrix4x4i @ 188 NONAME
	_ZN16QGLShaderProgram20setUniformValueArrayEPKcPK14QGenericMatrixILi2ELi2EfEi @ 189 NONAME
	_ZN16QGLShaderProgram20setUniformValueArrayEPKcPK14QGenericMatrixILi2ELi3EfEi @ 190 NONAME
	_ZN16QGLShaderProgram20setUniformValueArrayEPKcPK14QGenericMatrixILi2ELi4EfEi @ 191 NONAME
	_ZN16QGLShaderProgram20setUniformValueArrayEPKcPK14QGenericMatrixILi3ELi2EfEi @ 192 NONAME
	_ZN16QGLShaderProgram20setUniformValueArrayEPKcPK14QGenericMatrixILi3ELi3EfEi @ 193 NONAME
	_ZN16QGLShaderProgram20setUniformValueArrayEPKcPK14QGenericMatrixILi3ELi4EfEi @ 194 NONAME
	_ZN16QGLShaderProgram20setUniformValueArrayEPKcPK14QGenericMatrixILi4ELi2EfEi @ 195 NONAME
	_ZN16QGLShaderProgram20setUniformValueArrayEPKcPK14QGenericMatrixILi4ELi3EfEi @ 196 NONAME
	_ZN16QGLShaderProgram20setUniformValueArrayEPKcPK9QVector2Di @ 197 NONAME
	_ZN16QGLShaderProgram20setUniformValueArrayEPKcPK9QVector3Di @ 198 NONAME
	_ZN16QGLShaderProgram20setUniformValueArrayEPKcPK9QVector4Di @ 199 NONAME
	_ZN16QGLShaderProgram20setUniformValueArrayEPKcPKfii @ 200 NONAME
	_ZN16QGLShaderProgram20setUniformValueArrayEPKcPKii @ 201 NONAME
	_ZN16QGLShaderProgram20setUniformValueArrayEPKcPKji @ 202 NONAME
	_ZN16QGLShaderProgram20setUniformValueArrayEiPK10QMatrix4x4i @ 203 NONAME
	_ZN16QGLShaderProgram20setUniformValueArrayEiPK14QGenericMatrixILi2ELi2EfEi @ 204 NONAME
	_ZN16QGLShaderProgram20setUniformValueArrayEiPK14QGenericMatrixILi2ELi3EfEi @ 205 NONAME
	_ZN16QGLShaderProgram20setUniformValueArrayEiPK14QGenericMatrixILi2ELi4EfEi @ 206 NONAME
	_ZN16QGLShaderProgram20setUniformValueArrayEiPK14QGenericMatrixILi3ELi2EfEi @ 207 NONAME
	_ZN16QGLShaderProgram20setUniformValueArrayEiPK14QGenericMatrixILi3ELi3EfEi @ 208 NONAME
	_ZN16QGLShaderProgram20setUniformValueArrayEiPK14QGenericMatrixILi3ELi4EfEi @ 209 NONAME
	_ZN16QGLShaderProgram20setUniformValueArrayEiPK14QGenericMatrixILi4ELi2EfEi @ 210 NONAME
	_ZN16QGLShaderProgram20setUniformValueArrayEiPK14QGenericMatrixILi4ELi3EfEi @ 211 NONAME
	_ZN16QGLShaderProgram20setUniformValueArrayEiPK9QVector2Di @ 212 NONAME
	_ZN16QGLShaderProgram20setUniformValueArrayEiPK9QVector3Di @ 213 NONAME
	_ZN16QGLShaderProgram20setUniformValueArrayEiPK9QVector4Di @ 214 NONAME
	_ZN16QGLShaderProgram20setUniformValueArrayEiPKfii @ 215 NONAME
	_ZN16QGLShaderProgram20setUniformValueArrayEiPKii @ 216 NONAME
	_ZN16QGLShaderProgram20setUniformValueArrayEiPKji @ 217 NONAME
	_ZN16QGLShaderProgram21bindAttributeLocationEPKci @ 218 NONAME
	_ZN16QGLShaderProgram21bindAttributeLocationERK10QByteArrayi @ 219 NONAME
	_ZN16QGLShaderProgram21bindAttributeLocationERK7QStringi @ 220 NONAME
	_ZN16QGLShaderProgram21disableAttributeArrayEPKc @ 221 NONAME
	_ZN16QGLShaderProgram21disableAttributeArrayEi @ 222 NONAME
	_ZN16QGLShaderProgram21setGeometryOutputTypeEj @ 223 NONAME
	_ZN16QGLShaderProgram23addShaderFromSourceCodeE6QFlagsIN9QGLShader13ShaderTypeBitEEPKc @ 224 NONAME
	_ZN16QGLShaderProgram23addShaderFromSourceCodeE6QFlagsIN9QGLShader13ShaderTypeBitEERK10QByteArray @ 225 NONAME
	_ZN16QGLShaderProgram23addShaderFromSourceCodeE6QFlagsIN9QGLShader13ShaderTypeBitEERK7QString @ 226 NONAME
	_ZN16QGLShaderProgram23addShaderFromSourceFileE6QFlagsIN9QGLShader13ShaderTypeBitEERK7QString @ 227 NONAME
	_ZN16QGLShaderProgram23hasOpenGLShaderProgramsEPK10QGLContext @ 228 NONAME
	_ZN16QGLShaderProgram28setGeometryOutputVertexCountEi @ 229 NONAME
	_ZN16QGLShaderProgram4bindEv @ 230 NONAME
	_ZN16QGLShaderProgram4initEv @ 231 NONAME
	_ZN16QGLShaderProgram4linkEv @ 232 NONAME
	_ZN16QGLShaderProgram7releaseEv @ 233 NONAME
	_ZN16QGLShaderProgram9addShaderEP9QGLShader @ 234 NONAME
	_ZN16QGLShaderProgramC1EP7QObject @ 235 NONAME
	_ZN16QGLShaderProgramC1EPK10QGLContextP7QObject @ 236 NONAME
	_ZN16QGLShaderProgramC2EP7QObject @ 237 NONAME
	_ZN16QGLShaderProgramC2EPK10QGLContextP7QObject @ 238 NONAME
	_ZN16QGLShaderProgramD0Ev @ 239 NONAME
	_ZN16QGLShaderProgramD1Ev @ 240 NONAME
	_ZN16QGLShaderProgramD2Ev @ 241 NONAME
	_ZN16QGLWindowSurface10beginPaintERK7QRegion @ 242 NONAME
	_ZN16QGLWindowSurface11paintDeviceEv @ 243 NONAME
	_ZN16QGLWindowSurface11qt_metacallEN11QMetaObject4CallEiPPv @ 244 NONAME
	_ZN16QGLWindowSurface11qt_metacastEPKc @ 245 NONAME
	_ZN16QGLWindowSurface11setGeometryERK5QRect @ 246 NONAME
	_ZN16QGLWindowSurface12hijackWindowEP7QWidget @ 247 NONAME
	_ZN16QGLWindowSurface13surfaceFormatE @ 248 NONAME DATA 4
	_ZN16QGLWindowSurface14updateGeometryEv @ 249 NONAME
	_ZN16QGLWindowSurface16staticMetaObjectE @ 250 NONAME DATA 16
	_ZN16QGLWindowSurface19getStaticMetaObjectEv @ 251 NONAME
	_ZN16QGLWindowSurface5flushEP7QWidgetRK7QRegionRK6QPoint @ 252 NONAME
	_ZN16QGLWindowSurface6bufferEPK7QWidget @ 253 NONAME
	_ZN16QGLWindowSurface6scrollERK7QRegionii @ 254 NONAME
	_ZN16QGLWindowSurface7deletedEP7QObject @ 255 NONAME
	_ZN16QGLWindowSurface8endPaintERK7QRegion @ 256 NONAME
	_ZN16QGLWindowSurfaceC1EP7QWidget @ 257 NONAME
	_ZN16QGLWindowSurfaceC2EP7QWidget @ 258 NONAME
	_ZN16QGLWindowSurfaceD0Ev @ 259 NONAME
	_ZN16QGLWindowSurfaceD1Ev @ 260 NONAME
	_ZN16QGLWindowSurfaceD2Ev @ 261 NONAME
	_ZN17QGL2PaintEngineEx10drawPixmapERK6QRectFRK7QPixmapS2_ @ 262 NONAME
	_ZN17QGL2PaintEngineEx10penChangedEv @ 263 NONAME
	_ZN17QGL2PaintEngineEx11drawTextureERK6QRectFjRK5QSizeS2_ @ 264 NONAME
	_ZN17QGL2PaintEngineEx12brushChangedEv @ 265 NONAME
	_ZN17QGL2PaintEngineEx12drawTextItemERK7QPointFRK9QTextItem @ 266 NONAME
	_ZN17QGL2PaintEngineEx12ensureActiveEv @ 267 NONAME
	_ZN17QGL2PaintEngineEx12pixmapFilterEiPK13QPixmapFilter @ 268 NONAME
	_ZN17QGL2PaintEngineEx14opacityChangedEv @ 269 NONAME
	_ZN17QGL2PaintEngineEx15invalidateStateEv @ 270 NONAME
	_ZN17QGL2PaintEngineEx16transformChangedEv @ 271 NONAME
	_ZN17QGL2PaintEngineEx17endNativePaintingEv @ 272 NONAME
	_ZN17QGL2PaintEngineEx18brushOriginChangedEv @ 273 NONAME
	_ZN17QGL2PaintEngineEx18clipEnabledChangedEv @ 274 NONAME
	_ZN17QGL2PaintEngineEx18drawStaticTextItemEP15QStaticTextItem @ 275 NONAME
	_ZN17QGL2PaintEngineEx18renderHintsChangedEv @ 276 NONAME
	_ZN17QGL2PaintEngineEx19beginNativePaintingEv @ 277 NONAME
	_ZN17QGL2PaintEngineEx19drawPixmapFragmentsEPKN8QPainter14PixmapFragmentEiRK7QPixmap6QFlagsINS0_18PixmapFragmentHintEE @ 278 NONAME
	_ZN17QGL2PaintEngineEx22compositionModeChangedEv @ 279 NONAME
	_ZN17QGL2PaintEngineEx3endEv @ 280 NONAME
	_ZN17QGL2PaintEngineEx4clipERK11QVectorPathN2Qt13ClipOperationE @ 281 NONAME
	_ZN17QGL2PaintEngineEx4fillERK11QVectorPathRK6QBrush @ 282 NONAME
	_ZN17QGL2PaintEngineEx5beginEP12QPaintDevice @ 283 NONAME
	_ZN17QGL2PaintEngineEx6strokeERK11QVectorPathRK4QPen @ 284 NONAME
	_ZN17QGL2PaintEngineEx8setStateEP13QPainterState @ 285 NONAME
	_ZN17QGL2PaintEngineEx9drawImageERK6QRectFRK6QImageS2_6QFlagsIN2Qt19ImageConversionFlagEE @ 286 NONAME
	_ZN17QGL2PaintEngineExC1Ev @ 287 NONAME
	_ZN17QGL2PaintEngineExC2Ev @ 288 NONAME
	_ZN17QGL2PaintEngineExD0Ev @ 289 NONAME
	_ZN17QGL2PaintEngineExD1Ev @ 290 NONAME
	_ZN17QGL2PaintEngineExD2Ev @ 291 NONAME
	_ZN17QGLContextPrivate14extensionFuncsEPK10QGLContext @ 292 NONAME
	_ZN17QGLGraphicsSystemC1Eb @ 293 NONAME
	_ZN17QGLGraphicsSystemC2Eb @ 294 NONAME
	_ZN18QGLContextResource5valueEPK10QGLContext @ 295 NONAME ABSENT
	_ZN18QGLContextResource6insertEPK10QGLContextPv @ 296 NONAME ABSENT
	_ZN18QGLContextResource7cleanupEPK10QGLContextPv @ 297 NONAME ABSENT
	_ZN18QGLContextResourceC1EPFvPvE @ 298 NONAME ABSENT
	_ZN18QGLContextResourceC2EPFvPvE @ 299 NONAME ABSENT
	_ZN18QGLContextResourceD1Ev @ 300 NONAME ABSENT
	_ZN18QGLContextResourceD2Ev @ 301 NONAME ABSENT
	_ZN20QGLCustomShaderStage11setInactiveEv @ 302 NONAME
	_ZN20QGLCustomShaderStage12setOnPainterEP8QPainter @ 303 NONAME
	_ZN20QGLCustomShaderStage16setUniformsDirtyEv @ 304 NONAME
	_ZN20QGLCustomShaderStage17removeFromPainterEP8QPainter @ 305 NONAME
	_ZN20QGLCustomShaderStage9setSourceERK10QByteArray @ 306 NONAME
	_ZN20QGLCustomShaderStageC1Ev @ 307 NONAME
	_ZN20QGLCustomShaderStageC2Ev @ 308 NONAME
	_ZN20QGLCustomShaderStageD0Ev @ 309 NONAME
	_ZN20QGLCustomShaderStageD1Ev @ 310 NONAME
	_ZN20QGLCustomShaderStageD2Ev @ 311 NONAME
	_ZN20QGLFramebufferObject11bindDefaultEv @ 312 NONAME
	_ZN20QGLFramebufferObject11drawTextureERK6QRectFjj @ 313 NONAME
	_ZN20QGLFramebufferObject11drawTextureERK7QPointFjj @ 314 NONAME
	_ZN20QGLFramebufferObject15blitFramebufferEPS_RK5QRectS0_S3_jj @ 315 NONAME
	_ZN20QGLFramebufferObject24hasOpenGLFramebufferBlitEv @ 316 NONAME
	_ZN20QGLFramebufferObject27hasOpenGLFramebufferObjectsEv @ 317 NONAME
	_ZN20QGLFramebufferObject4bindEv @ 318 NONAME
	_ZN20QGLFramebufferObject7releaseEv @ 319 NONAME
	_ZN20QGLFramebufferObjectC1ERK5QSizeNS_10AttachmentEjj @ 320 NONAME
	_ZN20QGLFramebufferObjectC1ERK5QSizeRK26QGLFramebufferObjectFormat @ 321 NONAME
	_ZN20QGLFramebufferObjectC1ERK5QSizej @ 322 NONAME
	_ZN20QGLFramebufferObjectC1EiiNS_10AttachmentEjj @ 323 NONAME
	_ZN20QGLFramebufferObjectC1EiiRK26QGLFramebufferObjectFormat @ 324 NONAME
	_ZN20QGLFramebufferObjectC1Eiij @ 325 NONAME
	_ZN20QGLFramebufferObjectC2ERK5QSizeNS_10AttachmentEjj @ 326 NONAME
	_ZN20QGLFramebufferObjectC2ERK5QSizeRK26QGLFramebufferObjectFormat @ 327 NONAME
	_ZN20QGLFramebufferObjectC2ERK5QSizej @ 328 NONAME
	_ZN20QGLFramebufferObjectC2EiiNS_10AttachmentEjj @ 329 NONAME
	_ZN20QGLFramebufferObjectC2EiiRK26QGLFramebufferObjectFormat @ 330 NONAME
	_ZN20QGLFramebufferObjectC2Eiij @ 331 NONAME
	_ZN20QGLFramebufferObjectD0Ev @ 332 NONAME
	_ZN20QGLFramebufferObjectD1Ev @ 333 NONAME
	_ZN20QGLFramebufferObjectD2Ev @ 334 NONAME
	_ZN20QGLTextureGlyphCache11fillTextureERKN18QTextureGlyphCache5CoordEj @ 335 NONAME ABSENT
	_ZN20QGLTextureGlyphCache11qt_metacallEN11QMetaObject4CallEiPPv @ 336 NONAME ABSENT
	_ZN20QGLTextureGlyphCache11qt_metacastEPKc @ 337 NONAME ABSENT
	_ZN20QGLTextureGlyphCache16staticMetaObjectE @ 338 NONAME DATA 16 ABSENT
	_ZN20QGLTextureGlyphCache17createTextureDataEii @ 339 NONAME
	_ZN20QGLTextureGlyphCache17resizeTextureDataEii @ 340 NONAME
	_ZN20QGLTextureGlyphCache19getStaticMetaObjectEv @ 341 NONAME ABSENT
	_ZN20QGLTextureGlyphCacheC1EP10QGLContextN21QFontEngineGlyphCache4TypeERK10QTransform @ 342 NONAME ABSENT
	_ZN20QGLTextureGlyphCacheC2EP10QGLContextN21QFontEngineGlyphCache4TypeERK10QTransform @ 343 NONAME ABSENT
	_ZN20QGLTextureGlyphCacheD0Ev @ 344 NONAME
	_ZN20QGLTextureGlyphCacheD1Ev @ 345 NONAME
	_ZN20QGLTextureGlyphCacheD2Ev @ 346 NONAME
	_ZN21QGraphicsShaderEffect11qt_metacallEN11QMetaObject4CallEiPPv @ 347 NONAME
	_ZN21QGraphicsShaderEffect11qt_metacastEPKc @ 348 NONAME
	_ZN21QGraphicsShaderEffect11setUniformsEP16QGLShaderProgram @ 349 NONAME
	_ZN21QGraphicsShaderEffect16setUniformsDirtyEv @ 350 NONAME
	_ZN21QGraphicsShaderEffect16staticMetaObjectE @ 351 NONAME DATA 16
	_ZN21QGraphicsShaderEffect19getStaticMetaObjectEv @ 352 NONAME
	_ZN21QGraphicsShaderEffect22setPixelShaderFragmentERK10QByteArray @ 353 NONAME
	_ZN21QGraphicsShaderEffect4drawEP8QPainter @ 354 NONAME
	_ZN21QGraphicsShaderEffectC1EP7QObject @ 355 NONAME
	_ZN21QGraphicsShaderEffectC2EP7QObject @ 356 NONAME
	_ZN21QGraphicsShaderEffectD0Ev @ 357 NONAME
	_ZN21QGraphicsShaderEffectD1Ev @ 358 NONAME
	_ZN21QGraphicsShaderEffectD2Ev @ 359 NONAME
	_ZN22QGLEngineShaderManager11blitProgramEv @ 360 NONAME
	_ZN22QGLEngineShaderManager11qt_metacallEN11QMetaObject4CallEiPPv @ 361 NONAME
	_ZN22QGLEngineShaderManager11qt_metacastEPKc @ 362 NONAME
	_ZN22QGLEngineShaderManager11setMaskTypeENS_8MaskTypeE @ 363 NONAME
	_ZN22QGLEngineShaderManager13simpleProgramEv @ 364 NONAME
	_ZN22QGLEngineShaderManager14currentProgramEv @ 365 NONAME
	_ZN22QGLEngineShaderManager14setCustomStageEP20QGLCustomShaderStage @ 366 NONAME
	_ZN22QGLEngineShaderManager14setOpacityModeENS_11OpacityModeE @ 367 NONAME
	_ZN22QGLEngineShaderManager14useBlitProgramEv @ 368 NONAME
	_ZN22QGLEngineShaderManager15setSrcPixelTypeEN2Qt10BrushStyleE @ 369 NONAME
	_ZN22QGLEngineShaderManager15setSrcPixelTypeENS_12PixelSrcTypeE @ 370 NONAME
	_ZN22QGLEngineShaderManager16staticMetaObjectE @ 371 NONAME DATA 16
	_ZN22QGLEngineShaderManager16useSimpleProgramEv @ 372 NONAME
	_ZN22QGLEngineShaderManager17removeCustomStageEv @ 373 NONAME
	_ZN22QGLEngineShaderManager18getUniformLocationENS_7UniformE @ 374 NONAME
	_ZN22QGLEngineShaderManager18setCompositionModeEN8QPainter15CompositionModeE @ 375 NONAME
	_ZN22QGLEngineShaderManager19getStaticMetaObjectEv @ 376 NONAME
	_ZN22QGLEngineShaderManager20useCorrectShaderProgEv @ 377 NONAME
	_ZN22QGLEngineShaderManager25optimiseForBrushTransformEN10QTransform18TransformationTypeE @ 378 NONAME
	_ZN22QGLEngineShaderManager8setDirtyEv @ 379 NONAME
	_ZN22QGLEngineShaderManagerC1EP10QGLContext @ 380 NONAME
	_ZN22QGLEngineShaderManagerC2EP10QGLContext @ 381 NONAME
	_ZN22QGLEngineShaderManagerD0Ev @ 382 NONAME
	_ZN22QGLEngineShaderManagerD1Ev @ 383 NONAME
	_ZN22QGLEngineShaderManagerD2Ev @ 384 NONAME
	_ZN22QGLSharedResourceGuard10setContextEPK10QGLContext @ 385 NONAME
	_ZN22QGLSharedResourceGuardD1Ev @ 386 NONAME
	_ZN22QGLSharedResourceGuardD2Ev @ 387 NONAME
	_ZN26QGLFramebufferObjectFormat10setSamplesEi @ 388 NONAME
	_ZN26QGLFramebufferObjectFormat13setAttachmentEN20QGLFramebufferObject10AttachmentE @ 389 NONAME
	_ZN26QGLFramebufferObjectFormat16setTextureTargetEj @ 390 NONAME
	_ZN26QGLFramebufferObjectFormat24setInternalTextureFormatEj @ 391 NONAME
	_ZN26QGLFramebufferObjectFormat6detachEv @ 392 NONAME
	_ZN26QGLFramebufferObjectFormatC1ERKS_ @ 393 NONAME
	_ZN26QGLFramebufferObjectFormatC1Ev @ 394 NONAME
	_ZN26QGLFramebufferObjectFormatC2ERKS_ @ 395 NONAME
	_ZN26QGLFramebufferObjectFormatC2Ev @ 396 NONAME
	_ZN26QGLFramebufferObjectFormatD1Ev @ 397 NONAME
	_ZN26QGLFramebufferObjectFormatD2Ev @ 398 NONAME
	_ZN26QGLFramebufferObjectFormataSERKS_ @ 399 NONAME
	_ZN3QGL23setPreferredPaintEngineEN12QPaintEngine4TypeE @ 400 NONAME
	_ZN9QGLBuffer15setUsagePatternENS_12UsagePatternE @ 401 NONAME
	_ZN9QGLBuffer3mapENS_6AccessE @ 402 NONAME
	_ZN9QGLBuffer4bindEv @ 403 NONAME
	_ZN9QGLBuffer4readEiPvi @ 404 NONAME
	_ZN9QGLBuffer5unmapEv @ 405 NONAME
	_ZN9QGLBuffer5writeEiPKvi @ 406 NONAME
	_ZN9QGLBuffer6createEv @ 407 NONAME
	_ZN9QGLBuffer7destroyEv @ 408 NONAME
	_ZN9QGLBuffer7releaseENS_4TypeE @ 409 NONAME
	_ZN9QGLBuffer7releaseEv @ 410 NONAME
	_ZN9QGLBuffer8allocateEPKvi @ 411 NONAME
	_ZN9QGLBufferC1ENS_4TypeE @ 412 NONAME
	_ZN9QGLBufferC1ERKS_ @ 413 NONAME
	_ZN9QGLBufferC1Ev @ 414 NONAME
	_ZN9QGLBufferC2ENS_4TypeE @ 415 NONAME
	_ZN9QGLBufferC2ERKS_ @ 416 NONAME
	_ZN9QGLBufferC2Ev @ 417 NONAME
	_ZN9QGLBufferD1Ev @ 418 NONAME
	_ZN9QGLBufferD2Ev @ 419 NONAME
	_ZN9QGLBufferaSERKS_ @ 420 NONAME
	_ZN9QGLFormat10setOverlayEb @ 421 NONAME
	_ZN9QGLFormat10setProfileENS_20OpenGLContextProfileE @ 422 NONAME
	_ZN9QGLFormat10setSamplesEi @ 423 NONAME
	_ZN9QGLFormat10setStencilEb @ 424 NONAME
	_ZN9QGLFormat10setVersionEii @ 425 NONAME
	_ZN9QGLFormat13defaultFormatEv @ 426 NONAME
	_ZN9QGLFormat15setDoubleBufferEb @ 427 NONAME
	_ZN9QGLFormat15setSwapIntervalEi @ 428 NONAME
	_ZN9QGLFormat16setDefaultFormatERKS_ @ 429 NONAME
	_ZN9QGLFormat16setRedBufferSizeEi @ 430 NONAME
	_ZN9QGLFormat16setSampleBuffersEb @ 431 NONAME
	_ZN9QGLFormat17hasOpenGLOverlaysEv @ 432 NONAME
	_ZN9QGLFormat17setBlueBufferSizeEi @ 433 NONAME
	_ZN9QGLFormat18openGLVersionFlagsEv @ 434 NONAME
	_ZN9QGLFormat18setAccumBufferSizeEi @ 435 NONAME
	_ZN9QGLFormat18setAlphaBufferSizeEi @ 436 NONAME
	_ZN9QGLFormat18setDepthBufferSizeEi @ 437 NONAME
	_ZN9QGLFormat18setDirectRenderingEb @ 438 NONAME
	_ZN9QGLFormat18setGreenBufferSizeEi @ 439 NONAME
	_ZN9QGLFormat20defaultOverlayFormatEv @ 440 NONAME
	_ZN9QGLFormat20setStencilBufferSizeEi @ 441 NONAME
	_ZN9QGLFormat23setDefaultOverlayFormatERKS_ @ 442 NONAME
	_ZN9QGLFormat6detachEv @ 443 NONAME
	_ZN9QGLFormat7setRgbaEb @ 444 NONAME
	_ZN9QGLFormat8setAccumEb @ 445 NONAME
	_ZN9QGLFormat8setAlphaEb @ 446 NONAME
	_ZN9QGLFormat8setDepthEb @ 447 NONAME
	_ZN9QGLFormat8setPlaneEi @ 448 NONAME
	_ZN9QGLFormat9hasOpenGLEv @ 449 NONAME
	_ZN9QGLFormat9setOptionE6QFlagsIN3QGL12FormatOptionEE @ 450 NONAME
	_ZN9QGLFormat9setStereoEb @ 451 NONAME
	_ZN9QGLFormatC1E6QFlagsIN3QGL12FormatOptionEEi @ 452 NONAME
	_ZN9QGLFormatC1ERKS_ @ 453 NONAME
	_ZN9QGLFormatC1Ev @ 454 NONAME
	_ZN9QGLFormatC2E6QFlagsIN3QGL12FormatOptionEEi @ 455 NONAME
	_ZN9QGLFormatC2ERKS_ @ 456 NONAME
	_ZN9QGLFormatC2Ev @ 457 NONAME
	_ZN9QGLFormatD1Ev @ 458 NONAME
	_ZN9QGLFormatD2Ev @ 459 NONAME
	_ZN9QGLFormataSERKS_ @ 460 NONAME
	_ZN9QGLShader11qt_metacallEN11QMetaObject4CallEiPPv @ 461 NONAME
	_ZN9QGLShader11qt_metacastEPKc @ 462 NONAME
	_ZN9QGLShader16hasOpenGLShadersE6QFlagsINS_13ShaderTypeBitEEPK10QGLContext @ 463 NONAME
	_ZN9QGLShader16staticMetaObjectE @ 464 NONAME DATA 16
	_ZN9QGLShader17compileSourceCodeEPKc @ 465 NONAME
	_ZN9QGLShader17compileSourceCodeERK10QByteArray @ 466 NONAME
	_ZN9QGLShader17compileSourceCodeERK7QString @ 467 NONAME
	_ZN9QGLShader17compileSourceFileERK7QString @ 468 NONAME
	_ZN9QGLShader19getStaticMetaObjectEv @ 469 NONAME
	_ZN9QGLShaderC1E6QFlagsINS_13ShaderTypeBitEEP7QObject @ 470 NONAME
	_ZN9QGLShaderC1E6QFlagsINS_13ShaderTypeBitEEPK10QGLContextP7QObject @ 471 NONAME
	_ZN9QGLShaderC2E6QFlagsINS_13ShaderTypeBitEEP7QObject @ 472 NONAME
	_ZN9QGLShaderC2E6QFlagsINS_13ShaderTypeBitEEPK10QGLContextP7QObject @ 473 NONAME
	_ZN9QGLShaderD0Ev @ 474 NONAME
	_ZN9QGLShaderD1Ev @ 475 NONAME
	_ZN9QGLShaderD2Ev @ 476 NONAME
	_ZN9QGLWidget10paintEventEP11QPaintEvent @ 477 NONAME
	_ZN9QGLWidget10renderTextEdddRK7QStringRK5QFonti @ 478 NONAME
	_ZN9QGLWidget10renderTextEiiRK7QStringRK5QFonti @ 479 NONAME
	_ZN9QGLWidget10setContextEP10QGLContextPKS0_b @ 480 NONAME
	_ZN9QGLWidget11bindTextureERK6QImageji @ 481 NONAME
	_ZN9QGLWidget11bindTextureERK6QImageji6QFlagsIN10QGLContext10BindOptionEE @ 482 NONAME
	_ZN9QGLWidget11bindTextureERK7QPixmapji @ 483 NONAME
	_ZN9QGLWidget11bindTextureERK7QPixmapji6QFlagsIN10QGLContext10BindOptionEE @ 484 NONAME
	_ZN9QGLWidget11bindTextureERK7QString @ 485 NONAME
	_ZN9QGLWidget11doneCurrentEv @ 486 NONAME
	_ZN9QGLWidget11drawTextureERK6QRectFjj @ 487 NONAME
	_ZN9QGLWidget11drawTextureERK7QPointFjj @ 488 NONAME
	_ZN9QGLWidget11makeCurrentEv @ 489 NONAME
	_ZN9QGLWidget11qt_metacallEN11QMetaObject4CallEiPPv @ 490 NONAME
	_ZN9QGLWidget11qt_metacastEPKc @ 491 NONAME
	_ZN9QGLWidget11resizeEventEP12QResizeEvent @ 492 NONAME
	_ZN9QGLWidget11setColormapERK11QGLColormap @ 493 NONAME
	_ZN9QGLWidget11swapBuffersEv @ 494 NONAME
	_ZN9QGLWidget12initializeGLEv @ 495 NONAME
	_ZN9QGLWidget12renderPixmapEiib @ 496 NONAME
	_ZN9QGLWidget13deleteTextureEj @ 497 NONAME
	_ZN9QGLWidget14paintOverlayGLEv @ 498 NONAME
	_ZN9QGLWidget15grabFrameBufferEb @ 499 NONAME
	_ZN9QGLWidget15resizeOverlayGLEii @ 500 NONAME
	_ZN9QGLWidget15updateOverlayGLEv @ 501 NONAME
	_ZN9QGLWidget16setMouseTrackingEb @ 502 NONAME
	_ZN9QGLWidget16staticMetaObjectE @ 503 NONAME DATA 16
	_ZN9QGLWidget17convertToGLFormatERK6QImage @ 504 NONAME
	_ZN9QGLWidget17setAutoBufferSwapEb @ 505 NONAME
	_ZN9QGLWidget18makeOverlayCurrentEv @ 506 NONAME
	_ZN9QGLWidget19fontDisplayListBaseERK5QFonti @ 507 NONAME
	_ZN9QGLWidget19getStaticMetaObjectEv @ 508 NONAME
	_ZN9QGLWidget19initializeOverlayGLEv @ 509 NONAME
	_ZN9QGLWidget5eventEP6QEvent @ 510 NONAME
	_ZN9QGLWidget6glDrawEv @ 511 NONAME
	_ZN9QGLWidget6glInitEv @ 512 NONAME
	_ZN9QGLWidget7paintGLEv @ 513 NONAME
	_ZN9QGLWidget8resizeGLEii @ 514 NONAME
	_ZN9QGLWidget8updateGLEv @ 515 NONAME
	_ZN9QGLWidget9setFormatERK9QGLFormat @ 516 NONAME
	_ZN9QGLWidgetC1EP10QGLContextP7QWidgetPKS_6QFlagsIN2Qt10WindowTypeEE @ 517 NONAME
	_ZN9QGLWidgetC1EP7QWidgetPKS_6QFlagsIN2Qt10WindowTypeEE @ 518 NONAME
	_ZN9QGLWidgetC1ERK9QGLFormatP7QWidgetPKS_6QFlagsIN2Qt10WindowTypeEE @ 519 NONAME
	_ZN9QGLWidgetC2EP10QGLContextP7QWidgetPKS_6QFlagsIN2Qt10WindowTypeEE @ 520 NONAME
	_ZN9QGLWidgetC2EP7QWidgetPKS_6QFlagsIN2Qt10WindowTypeEE @ 521 NONAME
	_ZN9QGLWidgetC2ERK9QGLFormatP7QWidgetPKS_6QFlagsIN2Qt10WindowTypeEE @ 522 NONAME
	_ZN9QGLWidgetD0Ev @ 523 NONAME
	_ZN9QGLWidgetD1Ev @ 524 NONAME
	_ZN9QGLWidgetD2Ev @ 525 NONAME
	_ZNK10QGLContext10colorIndexERK6QColor @ 526 NONAME
	_ZNK10QGLContext11initializedEv @ 527 NONAME
	_ZNK10QGLContext11swapBuffersEv @ 528 NONAME
	_ZNK10QGLContext13windowCreatedEv @ 529 NONAME
	_ZNK10QGLContext14deviceIsPixmapEv @ 530 NONAME
	_ZNK10QGLContext14getProcAddressERK7QString @ 531 NONAME
	_ZNK10QGLContext15requestedFormatEv @ 532 NONAME
	_ZNK10QGLContext23overlayTransparentColorEv @ 533 NONAME
	_ZNK10QGLContext6deviceEv @ 534 NONAME
	_ZNK10QGLContext6formatEv @ 535 NONAME
	_ZNK10QGLContext7isValidEv @ 536 NONAME
	_ZNK10QGLContext9isSharingEv @ 537 NONAME
	_ZNK11QGLColormap10entryColorEi @ 538 NONAME
	_ZNK11QGLColormap11findNearestEj @ 539 NONAME
	_ZNK11QGLColormap4findEj @ 540 NONAME
	_ZNK11QGLColormap4sizeEv @ 541 NONAME
	_ZNK11QGLColormap7isEmptyEv @ 542 NONAME
	_ZNK11QGLColormap8entryRgbEi @ 543 NONAME
	_ZNK13QGLPixmapData11paintEngineEv @ 544 NONAME
	_ZNK13QGLPixmapData13ensureCreatedEv @ 545 NONAME
	_ZNK13QGLPixmapData14isValidContextEPK10QGLContext @ 546 NONAME
	_ZNK13QGLPixmapData15hasAlphaChannelEv @ 547 NONAME
	_ZNK13QGLPixmapData21copyBackFromRenderFboEb @ 548 NONAME
	_ZNK13QGLPixmapData21useFramebufferObjectsEv @ 549 NONAME
	_ZNK13QGLPixmapData26createCompatiblePixmapDataEv @ 550 NONAME
	_ZNK13QGLPixmapData4bindEb @ 551 NONAME
	_ZNK13QGLPixmapData6metricEN12QPaintDevice17PaintDeviceMetricE @ 552 NONAME
	_ZNK13QGLPixmapData7isValidEv @ 553 NONAME
	_ZNK13QGLPixmapData7textureEv @ 554 NONAME
	_ZNK13QGLPixmapData7toImageEv @ 555 NONAME
	_ZNK13QGLPixmapData8glDeviceEv @ 556 NONAME
	_ZNK13QGLPixmapData9fillImageERK6QColor @ 557 NONAME
	_ZNK14QGLPaintDevice14alphaRequestedEv @ 558 NONAME
	_ZNK14QGLPaintDevice6formatEv @ 559 NONAME
	_ZNK14QGLPaintDevice6metricEN12QPaintDevice17PaintDeviceMetricE @ 560 NONAME
	_ZNK14QGLPixelBuffer11paintEngineEv @ 561 NONAME
	_ZNK14QGLPixelBuffer20updateDynamicTextureEj @ 562 NONAME
	_ZNK14QGLPixelBuffer22generateDynamicTextureEv @ 563 NONAME
	_ZNK14QGLPixelBuffer4sizeEv @ 564 NONAME
	_ZNK14QGLPixelBuffer6formatEv @ 565 NONAME
	_ZNK14QGLPixelBuffer6handleEv @ 566 NONAME
	_ZNK14QGLPixelBuffer6metricEN12QPaintDevice17PaintDeviceMetricE @ 567 NONAME
	_ZNK14QGLPixelBuffer7isValidEv @ 568 NONAME
	_ZNK14QGLPixelBuffer7toImageEv @ 569 NONAME
	_ZNK14QGLSignalProxy10metaObjectEv @ 570 NONAME
	_ZNK16QGLShaderProgram10metaObjectEv @ 571 NONAME
	_ZNK16QGLShaderProgram15uniformLocationEPKc @ 572 NONAME
	_ZNK16QGLShaderProgram15uniformLocationERK10QByteArray @ 573 NONAME
	_ZNK16QGLShaderProgram15uniformLocationERK7QString @ 574 NONAME
	_ZNK16QGLShaderProgram17attributeLocationEPKc @ 575 NONAME
	_ZNK16QGLShaderProgram17attributeLocationERK10QByteArray @ 576 NONAME
	_ZNK16QGLShaderProgram17attributeLocationERK7QString @ 577 NONAME
	_ZNK16QGLShaderProgram17geometryInputTypeEv @ 578 NONAME
	_ZNK16QGLShaderProgram18geometryOutputTypeEv @ 579 NONAME
	_ZNK16QGLShaderProgram25geometryOutputVertexCountEv @ 580 NONAME
	_ZNK16QGLShaderProgram25maxGeometryOutputVerticesEv @ 581 NONAME
	_ZNK16QGLShaderProgram3logEv @ 582 NONAME
	_ZNK16QGLShaderProgram7shadersEv @ 583 NONAME
	_ZNK16QGLShaderProgram8isLinkedEv @ 584 NONAME
	_ZNK16QGLShaderProgram9programIdEv @ 585 NONAME
	_ZNK16QGLWindowSurface10metaObjectEv @ 586 NONAME
	_ZNK16QGLWindowSurface7contextEv @ 587 NONAME
	_ZNK17QGL2PaintEngineEx11createStateEP13QPainterState @ 588 NONAME
	_ZNK17QGL2PaintEngineEx22isNativePaintingActiveEv @ 589 NONAME
	_ZNK17QGLGraphicsSystem16createPixmapDataEN11QPixmapData9PixelTypeE @ 590 NONAME
	_ZNK17QGLGraphicsSystem19createWindowSurfaceEP7QWidget @ 591 NONAME
	_ZNK20QGLCustomShaderStage6sourceEv @ 592 NONAME
	_ZNK20QGLFramebufferObject10attachmentEv @ 593 NONAME
	_ZNK20QGLFramebufferObject11paintEngineEv @ 594 NONAME
	_ZNK20QGLFramebufferObject4sizeEv @ 595 NONAME
	_ZNK20QGLFramebufferObject6formatEv @ 596 NONAME
	_ZNK20QGLFramebufferObject6handleEv @ 597 NONAME
	_ZNK20QGLFramebufferObject6metricEN12QPaintDevice17PaintDeviceMetricE @ 598 NONAME
	_ZNK20QGLFramebufferObject7isBoundEv @ 599 NONAME
	_ZNK20QGLFramebufferObject7isValidEv @ 600 NONAME
	_ZNK20QGLFramebufferObject7textureEv @ 601 NONAME
	_ZNK20QGLFramebufferObject7toImageEv @ 602 NONAME
	_ZNK20QGLTextureGlyphCache10metaObjectEv @ 603 NONAME ABSENT
	_ZNK20QGLTextureGlyphCache12glyphPaddingEv @ 604 NONAME
	_ZNK21QGraphicsShaderEffect10metaObjectEv @ 605 NONAME
	_ZNK21QGraphicsShaderEffect19pixelShaderFragmentEv @ 606 NONAME
	_ZNK22QGLEngineShaderManager10metaObjectEv @ 607 NONAME
	_ZNK26QGLFramebufferObjectFormat10attachmentEv @ 608 NONAME
	_ZNK26QGLFramebufferObjectFormat13textureTargetEv @ 609 NONAME
	_ZNK26QGLFramebufferObjectFormat21internalTextureFormatEv @ 610 NONAME
	_ZNK26QGLFramebufferObjectFormat7samplesEv @ 611 NONAME
	_ZNK26QGLFramebufferObjectFormateqERKS_ @ 612 NONAME
	_ZNK26QGLFramebufferObjectFormatneERKS_ @ 613 NONAME
	_ZNK9QGLBuffer12usagePatternEv @ 614 NONAME
	_ZNK9QGLBuffer4sizeEv @ 615 NONAME
	_ZNK9QGLBuffer4typeEv @ 616 NONAME
	_ZNK9QGLBuffer8bufferIdEv @ 617 NONAME
	_ZNK9QGLBuffer9isCreatedEv @ 618 NONAME
	_ZNK9QGLFormat10testOptionE6QFlagsIN3QGL12FormatOptionEE @ 619 NONAME
	_ZNK9QGLFormat12majorVersionEv @ 620 NONAME
	_ZNK9QGLFormat12minorVersionEv @ 621 NONAME
	_ZNK9QGLFormat12swapIntervalEv @ 622 NONAME
	_ZNK9QGLFormat13redBufferSizeEv @ 623 NONAME
	_ZNK9QGLFormat14blueBufferSizeEv @ 624 NONAME
	_ZNK9QGLFormat15accumBufferSizeEv @ 625 NONAME
	_ZNK9QGLFormat15alphaBufferSizeEv @ 626 NONAME
	_ZNK9QGLFormat15depthBufferSizeEv @ 627 NONAME
	_ZNK9QGLFormat15greenBufferSizeEv @ 628 NONAME
	_ZNK9QGLFormat17stencilBufferSizeEv @ 629 NONAME
	_ZNK9QGLFormat5planeEv @ 630 NONAME
	_ZNK9QGLFormat7profileEv @ 631 NONAME
	_ZNK9QGLFormat7samplesEv @ 632 NONAME
	_ZNK9QGLShader10isCompiledEv @ 633 NONAME
	_ZNK9QGLShader10metaObjectEv @ 634 NONAME
	_ZNK9QGLShader10shaderTypeEv @ 635 NONAME
	_ZNK9QGLShader10sourceCodeEv @ 636 NONAME
	_ZNK9QGLShader3logEv @ 637 NONAME
	_ZNK9QGLShader8shaderIdEv @ 638 NONAME
	_ZNK9QGLWidget10metaObjectEv @ 639 NONAME
	_ZNK9QGLWidget11paintEngineEv @ 640 NONAME
	_ZNK9QGLWidget12doubleBufferEv @ 641 NONAME
	_ZNK9QGLWidget13qglClearColorERK6QColor @ 642 NONAME
	_ZNK9QGLWidget14autoBufferSwapEv @ 643 NONAME
	_ZNK9QGLWidget14overlayContextEv @ 644 NONAME
	_ZNK9QGLWidget6formatEv @ 645 NONAME
	_ZNK9QGLWidget7contextEv @ 646 NONAME
	_ZNK9QGLWidget7isValidEv @ 647 NONAME
	_ZNK9QGLWidget8colormapEv @ 648 NONAME
	_ZNK9QGLWidget8qglColorERK6QColor @ 649 NONAME
	_ZNK9QGLWidget9isSharingEv @ 650 NONAME
	_ZTI10QGLContext @ 651 NONAME
	_ZTI13QGLPixmapData @ 652 NONAME
	_ZTI14QGLPaintDevice @ 653 NONAME
	_ZTI14QGLPixelBuffer @ 654 NONAME
	_ZTI14QGLSignalProxy @ 655 NONAME
	_ZTI16QGLShaderProgram @ 656 NONAME
	_ZTI16QGLWindowSurface @ 657 NONAME
	_ZTI17QGL2PaintEngineEx @ 658 NONAME
	_ZTI17QGLGraphicsSystem @ 659 NONAME
	_ZTI20QGLCustomShaderStage @ 660 NONAME
	_ZTI20QGLFramebufferObject @ 661 NONAME
	_ZTI20QGLTextureGlyphCache @ 662 NONAME
	_ZTI21QGraphicsShaderEffect @ 663 NONAME
	_ZTI22QGLEngineShaderManager @ 664 NONAME
	_ZTI9QGLShader @ 665 NONAME
	_ZTI9QGLWidget @ 666 NONAME
	_ZTV10QGLContext @ 667 NONAME
	_ZTV13QGLPixmapData @ 668 NONAME
	_ZTV14QGLPaintDevice @ 669 NONAME
	_ZTV14QGLPixelBuffer @ 670 NONAME
	_ZTV14QGLSignalProxy @ 671 NONAME
	_ZTV16QGLShaderProgram @ 672 NONAME
	_ZTV16QGLWindowSurface @ 673 NONAME
	_ZTV17QGL2PaintEngineEx @ 674 NONAME
	_ZTV17QGLGraphicsSystem @ 675 NONAME
	_ZTV20QGLCustomShaderStage @ 676 NONAME
	_ZTV20QGLFramebufferObject @ 677 NONAME
	_ZTV20QGLTextureGlyphCache @ 678 NONAME
	_ZTV21QGraphicsShaderEffect @ 679 NONAME
	_ZTV22QGLEngineShaderManager @ 680 NONAME
	_ZTV9QGLShader @ 681 NONAME
	_ZTV9QGLWidget @ 682 NONAME
	_ZThn8_N16QGLWindowSurface10beginPaintERK7QRegion @ 683 NONAME
	_ZThn8_N16QGLWindowSurface11paintDeviceEv @ 684 NONAME
	_ZThn8_N16QGLWindowSurface11setGeometryERK5QRect @ 685 NONAME
	_ZThn8_N16QGLWindowSurface5flushEP7QWidgetRK7QRegionRK6QPoint @ 686 NONAME
	_ZThn8_N16QGLWindowSurface6bufferEPK7QWidget @ 687 NONAME
	_ZThn8_N16QGLWindowSurface6scrollERK7QRegionii @ 688 NONAME
	_ZThn8_N16QGLWindowSurface8endPaintERK7QRegion @ 689 NONAME
	_ZThn8_N16QGLWindowSurfaceD0Ev @ 690 NONAME
	_ZThn8_N16QGLWindowSurfaceD1Ev @ 691 NONAME
	_ZThn8_N20QGLTextureGlyphCache11fillTextureERKN18QTextureGlyphCache5CoordEj @ 692 NONAME ABSENT
	_ZThn8_N20QGLTextureGlyphCache17createTextureDataEii @ 693 NONAME ABSENT
	_ZThn8_N20QGLTextureGlyphCache17resizeTextureDataEii @ 694 NONAME ABSENT
	_ZThn8_N20QGLTextureGlyphCacheD0Ev @ 695 NONAME ABSENT
	_ZThn8_N20QGLTextureGlyphCacheD1Ev @ 696 NONAME ABSENT
	_ZThn8_N9QGLWidgetD0Ev @ 697 NONAME
	_ZThn8_N9QGLWidgetD1Ev @ 698 NONAME
	_ZThn8_NK20QGLTextureGlyphCache12glyphPaddingEv @ 699 NONAME ABSENT
	_ZThn8_NK9QGLWidget11paintEngineEv @ 700 NONAME
	_ZeqRK9QGLFormatS1_ @ 701 NONAME
	_Zls6QDebugRK9QGLFormat @ 702 NONAME
	_ZneRK9QGLFormatS1_ @ 703 NONAME
	_ZN16QGLWindowSurface26initializeOffscreenTextureERK5QSize @ 704 NONAME
	_ZNK20QGLTextureGlyphCache15maxTextureWidthEv @ 705 NONAME
	_ZNK20QGLTextureGlyphCache16maxTextureHeightEv @ 706 NONAME
	_ZThn8_NK20QGLTextureGlyphCache15maxTextureWidthEv @ 707 NONAME ABSENT
	_ZThn8_NK20QGLTextureGlyphCache16maxTextureHeightEv @ 708 NONAME ABSENT
	_ZN13QGLPixmapData12toNativeTypeEN11QPixmapData10NativeTypeE @ 709 NONAME
	_ZN13QGLPixmapData14fromNativeTypeEPvN11QPixmapData10NativeTypeE @ 710 NONAME
	_ZN13QGLPixmapData15fromImageReaderEP12QImageReader6QFlagsIN2Qt19ImageConversionFlagEE @ 711 NONAME
	_ZN13QGLPixmapData20createPixmapForImageER6QImage6QFlagsIN2Qt19ImageConversionFlagEEb @ 712 NONAME
	_ZN16QGLWindowSurface12swapBehaviorE @ 713 NONAME DATA 4
	_ZN20QGLTextureGlyphCache10setContextEP10QGLContext @ 714 NONAME ABSENT
	_ZN20QGLTextureGlyphCache5clearEv @ 715 NONAME
	_ZN13QGLPixmapData12forceToImageEv @ 716 NONAME
	_ZN13QGLPixmapData14destroyTextureEv @ 717 NONAME
	_ZN13QGLPixmapData14reclaimTextureEv @ 718 NONAME
	_ZN13QGLPixmapData21detachTextureFromPoolEv @ 719 NONAME
	_ZN13QGLPixmapData9hibernateEv @ 720 NONAME
	_ZN17QGLGraphicsSystem22releaseCachedResourcesEv @ 721 NONAME
	_ZN13QGLPixmapData11idealFormatER6QImage6QFlagsIN2Qt19ImageConversionFlagEE @ 722 NONAME
	_ZN13QGLPixmapData24releaseNativeImageHandleEv @ 723 NONAME
	_ZN13QGLPixmapData25initFromNativeImageHandleEPvRK7QString @ 724 NONAME
	_ZN13QGLPixmapData35createFromNativeImageHandleProviderEv @ 725 NONAME
	_Z28qt_resolve_buffer_extensionsP10QGLContext @ 726 NONAME
	_ZN12QGLFunctions21initializeGLFunctionsEPK10QGLContext @ 727 NONAME
	_ZN12QGLFunctionsC1EPK10QGLContext @ 728 NONAME
	_ZN12QGLFunctionsC1Ev @ 729 NONAME
	_ZN12QGLFunctionsC2EPK10QGLContext @ 730 NONAME
	_ZN12QGLFunctionsC2Ev @ 731 NONAME
	_ZN17QGLContextPrivate17qt_extensionFuncsE @ 732 NONAME DATA 60
	_ZN20QGLTextureGlyphCache10setContextEPK10QGLContext @ 733 NONAME
	_ZN20QGLTextureGlyphCache11fillTextureERKN18QTextureGlyphCache5CoordEj6QFixed @ 734 NONAME
	_ZN20QGLTextureGlyphCacheC1EPK10QGLContextN21QFontEngineGlyphCache4TypeERK10QTransform @ 735 NONAME
	_ZN20QGLTextureGlyphCacheC2EPK10QGLContextN21QFontEngineGlyphCache4TypeERK10QTransform @ 736 NONAME
	_ZN22QGLEngineSharedShaders15qShaderSnippetsE @ 737 NONAME DATA 216
	_ZN22QGLEngineSharedShaders16staticMetaObjectE @ 738 NONAME DATA 16
	_ZN22QGLEngineSharedShaders17shadersForContextEPK10QGLContext @ 739 NONAME
	_ZN22QGLEngineSharedShaders18cleanupCustomStageEP20QGLCustomShaderStage @ 740 NONAME
	_ZN22QGLEngineSharedShaders18findProgramInCacheERK19QGLEngineShaderProg @ 741 NONAME
	_ZN22QGLEngineSharedShaders19getStaticMetaObjectEv @ 742 NONAME
	_ZN22QGLEngineSharedShadersC1EPK10QGLContext @ 743 NONAME
	_ZN22QGLEngineSharedShadersC2EPK10QGLContext @ 744 NONAME
	_ZN22QGLEngineSharedShadersD1Ev @ 745 NONAME
	_ZN22QGLEngineSharedShadersD2Ev @ 746 NONAME
	_ZN26QGLFramebufferObjectFormat9setMipmapEb @ 747 NONAME
	_ZN27QGLContextGroupResourceBase5valueEPK10QGLContext @ 748 NONAME
	_ZN27QGLContextGroupResourceBase6insertEPK10QGLContextPv @ 749 NONAME
	_ZN27QGLContextGroupResourceBase7cleanupEPK10QGLContext @ 750 NONAME
	_ZN27QGLContextGroupResourceBase7cleanupEPK10QGLContextPv @ 751 NONAME
	_ZN27QGLContextGroupResourceBaseC2Ev @ 752 NONAME
	_ZN27QGLContextGroupResourceBaseD0Ev @ 753 NONAME
	_ZN27QGLContextGroupResourceBaseD1Ev @ 754 NONAME
	_ZN27QGLContextGroupResourceBaseD2Ev @ 755 NONAME
	_ZNK12QGLFunctions14openGLFeaturesEv @ 756 NONAME
	_ZNK12QGLFunctions16hasOpenGLFeatureENS_13OpenGLFeatureE @ 757 NONAME
	_ZNK14QGLPaintDevice9isFlippedEv @ 758 NONAME
	_ZNK16QGLWindowSurface8featuresEv @ 759 NONAME
	_ZNK26QGLFramebufferObjectFormat6mipmapEv @ 760 NONAME
	_ZTI22QGLContextResourceBase @ 761 NONAME
	_ZTI27QGLContextGroupResourceBase @ 762 NONAME
	_ZTV22QGLContextResourceBase @ 763 NONAME
	_ZTV27QGLContextGroupResourceBase @ 764 NONAME
	_ZThn104_N20QGLTextureGlyphCacheD0Ev @ 765 NONAME
	_ZThn104_N20QGLTextureGlyphCacheD1Ev @ 766 NONAME
	_ZThn8_NK16QGLWindowSurface8featuresEv @ 767 NONAME

