EXPORTS
	_Z14qScriptConnectP7QObjectPKcRK12QScriptValueS5_ @ 1 NONAME
	_Z17qScriptDisconnectP7QObjectPKcRK12QScriptValueS5_ @ 2 NONAME
	_ZN11QScriptableC1Ev @ 3 NONAME
	_ZN11QScriptableC2Ev @ 4 NONAME
	_ZN11QScriptableD1Ev @ 5 NONAME
	_ZN11QScriptableD2Ev @ 6 NONAME
	_ZN12QScriptClass11newIteratorERK12QScriptValue @ 7 NONAME
	_ZN12QScriptClass11setPropertyER12QScriptValueRK13QScriptStringjRKS0_ @ 8 NONAME
	_ZN12QScriptClass13propertyFlagsERK12QScriptValueRK13QScriptStringj @ 9 NONAME
	_ZN12QScriptClass13queryPropertyERK12QScriptValueRK13QScriptString6QFlagsINS_9QueryFlagEEPj @ 10 NONAME
	_ZN12QScriptClass8propertyERK12QScriptValueRK13QScriptStringj @ 11 NONAME
	_ZN12QScriptClass9extensionENS_9ExtensionERK8QVariant @ 12 NONAME
	_ZN12QScriptClassC1EP13QScriptEngine @ 13 NONAME
	_ZN12QScriptClassC1EP13QScriptEngineR19QScriptClassPrivate @ 14 NONAME
	_ZN12QScriptClassC2EP13QScriptEngine @ 15 NONAME
	_ZN12QScriptClassC2EP13QScriptEngineR19QScriptClassPrivate @ 16 NONAME
	_ZN12QScriptClassD0Ev @ 17 NONAME
	_ZN12QScriptClassD1Ev @ 18 NONAME
	_ZN12QScriptClassD2Ev @ 19 NONAME
	_ZN12QScriptValue11setPropertyERK13QScriptStringRKS_RK6QFlagsINS_12PropertyFlagEE @ 20 NONAME
	_ZN12QScriptValue11setPropertyERK7QStringRKS_RK6QFlagsINS_12PropertyFlagEE @ 21 NONAME
	_ZN12QScriptValue11setPropertyEjRKS_RK6QFlagsINS_12PropertyFlagEE @ 22 NONAME
	_ZN12QScriptValue12setPrototypeERKS_ @ 23 NONAME
	_ZN12QScriptValue14setScriptClassEP12QScriptClass @ 24 NONAME
	_ZN12QScriptValue4callERKS_RK5QListIS_E @ 25 NONAME
	_ZN12QScriptValue4callERKS_S1_ @ 26 NONAME
	_ZN12QScriptValue7setDataERKS_ @ 27 NONAME
	_ZN12QScriptValue8setScopeERKS_ @ 28 NONAME
	_ZN12QScriptValue9constructERK5QListIS_E @ 29 NONAME
	_ZN12QScriptValue9constructERKS_ @ 30 NONAME
	_ZN12QScriptValueC1ENS_12SpecialValueE @ 31 NONAME
	_ZN12QScriptValueC1EP13QScriptEngineNS_12SpecialValueE @ 32 NONAME
	_ZN12QScriptValueC1EP13QScriptEnginePKc @ 33 NONAME
	_ZN12QScriptValueC1EP13QScriptEngineRK7QString @ 34 NONAME
	_ZN12QScriptValueC1EP13QScriptEngineb @ 35 NONAME
	_ZN12QScriptValueC1EP13QScriptEngined @ 36 NONAME
	_ZN12QScriptValueC1EP13QScriptEnginei @ 37 NONAME
	_ZN12QScriptValueC1EP13QScriptEnginej @ 38 NONAME
	_ZN12QScriptValueC1EP19QScriptValuePrivate @ 39 NONAME
	_ZN12QScriptValueC1EPKc @ 40 NONAME
	_ZN12QScriptValueC1ERK13QLatin1String @ 41 NONAME
	_ZN12QScriptValueC1ERK7QString @ 42 NONAME
	_ZN12QScriptValueC1ERKS_ @ 43 NONAME
	_ZN12QScriptValueC1Eb @ 44 NONAME
	_ZN12QScriptValueC1Ed @ 45 NONAME
	_ZN12QScriptValueC1Ei @ 46 NONAME
	_ZN12QScriptValueC1Ej @ 47 NONAME
	_ZN12QScriptValueC1Ev @ 48 NONAME
	_ZN12QScriptValueC2ENS_12SpecialValueE @ 49 NONAME
	_ZN12QScriptValueC2EP13QScriptEngineNS_12SpecialValueE @ 50 NONAME
	_ZN12QScriptValueC2EP13QScriptEnginePKc @ 51 NONAME
	_ZN12QScriptValueC2EP13QScriptEngineRK7QString @ 52 NONAME
	_ZN12QScriptValueC2EP13QScriptEngineb @ 53 NONAME
	_ZN12QScriptValueC2EP13QScriptEngined @ 54 NONAME
	_ZN12QScriptValueC2EP13QScriptEnginei @ 55 NONAME
	_ZN12QScriptValueC2EP13QScriptEnginej @ 56 NONAME
	_ZN12QScriptValueC2EP19QScriptValuePrivate @ 57 NONAME
	_ZN12QScriptValueC2EPKc @ 58 NONAME
	_ZN12QScriptValueC2ERK13QLatin1String @ 59 NONAME
	_ZN12QScriptValueC2ERK7QString @ 60 NONAME
	_ZN12QScriptValueC2ERKS_ @ 61 NONAME
	_ZN12QScriptValueC2Eb @ 62 NONAME
	_ZN12QScriptValueC2Ed @ 63 NONAME
	_ZN12QScriptValueC2Ei @ 64 NONAME
	_ZN12QScriptValueC2Ej @ 65 NONAME
	_ZN12QScriptValueC2Ev @ 66 NONAME
	_ZN12QScriptValueD1Ev @ 67 NONAME
	_ZN12QScriptValueD2Ev @ 68 NONAME
	_ZN12QScriptValueaSERKS_ @ 69 NONAME
	_ZN13QScriptEngine10newQObjectEP7QObjectNS_14ValueOwnershipERK6QFlagsINS_17QObjectWrapOptionEE @ 70 NONAME
	_ZN13QScriptEngine10newQObjectERK12QScriptValueP7QObjectNS_14ValueOwnershipERK6QFlagsINS_17QObjectWrapOptionEE @ 71 NONAME
	_ZN13QScriptEngine10newVariantERK12QScriptValueRK8QVariant @ 72 NONAME
	_ZN13QScriptEngine10newVariantERK8QVariant @ 73 NONAME
	_ZN13QScriptEngine10popContextEv @ 74 NONAME
	_ZN13QScriptEngine11checkSyntaxERK7QString @ 75 NONAME
	_ZN13QScriptEngine11newFunctionEPF12QScriptValueP14QScriptContextPS_ERKS0_i @ 76 NONAME
	_ZN13QScriptEngine11newFunctionEPF12QScriptValueP14QScriptContextPS_Ei @ 77 NONAME
	_ZN13QScriptEngine11newFunctionEPF12QScriptValueP14QScriptContextPS_PvES4_ @ 78 NONAME
	_ZN13QScriptEngine11pushContextEv @ 79 NONAME
	_ZN13QScriptEngine11qt_metacallEN11QMetaObject4CallEiPPv @ 80 NONAME
	_ZN13QScriptEngine11qt_metacastEPKc @ 81 NONAME
	_ZN13QScriptEngine14collectGarbageEv @ 82 NONAME
	_ZN13QScriptEngine14newQMetaObjectEPK11QMetaObjectRK12QScriptValue @ 83 NONAME
	_ZN13QScriptEngine14toStringHandleERK7QString @ 84 NONAME
	_ZN13QScriptEngine14undefinedValueEv @ 85 NONAME
	_ZN13QScriptEngine15abortEvaluationERK12QScriptValue @ 86 NONAME
	_ZN13QScriptEngine15clearExceptionsEv @ 87 NONAME
	_ZN13QScriptEngine15importExtensionERK7QString @ 88 NONAME
	_ZN13QScriptEngine15setGlobalObjectERK12QScriptValue @ 89 NONAME
	_ZN13QScriptEngine16staticMetaObjectE @ 90 NONAME DATA 16
	_ZN13QScriptEngine18registerCustomTypeEiPF12QScriptValuePS_PKvEPFvRKS0_PvES7_ @ 91 NONAME
	_ZN13QScriptEngine19getStaticMetaObjectEv @ 92 NONAME
	_ZN13QScriptEngine19newActivationObjectEv @ 93 NONAME
	_ZN13QScriptEngine19setDefaultPrototypeEiRK12QScriptValue @ 94 NONAME
	_ZN13QScriptEngine22signalHandlerExceptionERK12QScriptValue @ 95 NONAME
	_ZN13QScriptEngine24setProcessEventsIntervalEi @ 96 NONAME
	_ZN13QScriptEngine26installTranslatorFunctionsERK12QScriptValue @ 97 NONAME
	_ZN13QScriptEngine6createEiPKv @ 98 NONAME
	_ZN13QScriptEngine7convertERK12QScriptValueiPv @ 99 NONAME
	_ZN13QScriptEngine7newDateERK9QDateTime @ 100 NONAME
	_ZN13QScriptEngine7newDateEd @ 101 NONAME
	_ZN13QScriptEngine8evaluateERK7QStringS2_i @ 102 NONAME
	_ZN13QScriptEngine8newArrayEj @ 103 NONAME
	_ZN13QScriptEngine8setAgentEP18QScriptEngineAgent @ 104 NONAME
	_ZN13QScriptEngine8toObjectERK12QScriptValue @ 105 NONAME
	_ZN13QScriptEngine9convertV2ERK12QScriptValueiPv @ 106 NONAME
	_ZN13QScriptEngine9newObjectEP12QScriptClassRK12QScriptValue @ 107 NONAME
	_ZN13QScriptEngine9newObjectEv @ 108 NONAME
	_ZN13QScriptEngine9newRegExpERK7QRegExp @ 109 NONAME
	_ZN13QScriptEngine9newRegExpERK7QStringS2_ @ 110 NONAME
	_ZN13QScriptEngine9nullValueEv @ 111 NONAME
	_ZN13QScriptEngineC1EP7QObject @ 112 NONAME
	_ZN13QScriptEngineC1ER20QScriptEnginePrivateP7QObject @ 113 NONAME
	_ZN13QScriptEngineC1Ev @ 114 NONAME
	_ZN13QScriptEngineC2EP7QObject @ 115 NONAME
	_ZN13QScriptEngineC2ER20QScriptEnginePrivateP7QObject @ 116 NONAME
	_ZN13QScriptEngineC2Ev @ 117 NONAME
	_ZN13QScriptEngineD0Ev @ 118 NONAME
	_ZN13QScriptEngineD1Ev @ 119 NONAME
	_ZN13QScriptEngineD2Ev @ 120 NONAME
	_ZN13QScriptStringC1ERKS_ @ 121 NONAME
	_ZN13QScriptStringC1Ev @ 122 NONAME
	_ZN13QScriptStringC2ERKS_ @ 123 NONAME
	_ZN13QScriptStringC2Ev @ 124 NONAME
	_ZN13QScriptStringD1Ev @ 125 NONAME
	_ZN13QScriptStringD2Ev @ 126 NONAME
	_ZN13QScriptStringaSERKS_ @ 127 NONAME
	_ZN14QScriptContext10throwErrorENS_5ErrorERK7QString @ 128 NONAME
	_ZN14QScriptContext10throwErrorERK7QString @ 129 NONAME
	_ZN14QScriptContext10throwValueERK12QScriptValue @ 130 NONAME
	_ZN14QScriptContext13setThisObjectERK12QScriptValue @ 131 NONAME
	_ZN14QScriptContext14setReturnValueERK12QScriptValue @ 132 NONAME
	_ZN14QScriptContext19setActivationObjectERK12QScriptValue @ 133 NONAME
	_ZN14QScriptContext8popScopeEv @ 134 NONAME
	_ZN14QScriptContext9pushScopeERK12QScriptValue @ 135 NONAME
	_ZN14QScriptContextC1Ev @ 136 NONAME
	_ZN14QScriptContextC2Ev @ 137 NONAME
	_ZN14QScriptContextD1Ev @ 138 NONAME
	_ZN14QScriptContextD2Ev @ 139 NONAME
	_ZN18QScriptContextInfoC1EPK14QScriptContext @ 140 NONAME
	_ZN18QScriptContextInfoC1ERKS_ @ 141 NONAME
	_ZN18QScriptContextInfoC1Ev @ 142 NONAME
	_ZN18QScriptContextInfoC2EPK14QScriptContext @ 143 NONAME
	_ZN18QScriptContextInfoC2ERKS_ @ 144 NONAME
	_ZN18QScriptContextInfoC2Ev @ 145 NONAME
	_ZN18QScriptContextInfoD1Ev @ 146 NONAME
	_ZN18QScriptContextInfoD2Ev @ 147 NONAME
	_ZN18QScriptContextInfoaSERKS_ @ 148 NONAME
	_ZN18QScriptEngineAgent10contextPopEv @ 149 NONAME
	_ZN18QScriptEngineAgent10scriptLoadExRK7QStringS2_i @ 150 NONAME
	_ZN18QScriptEngineAgent11contextPushEv @ 151 NONAME
	_ZN18QScriptEngineAgent12functionExitExRK12QScriptValue @ 152 NONAME
	_ZN18QScriptEngineAgent12scriptUnloadEx @ 153 NONAME
	_ZN18QScriptEngineAgent13functionEntryEx @ 154 NONAME
	_ZN18QScriptEngineAgent14exceptionCatchExRK12QScriptValue @ 155 NONAME
	_ZN18QScriptEngineAgent14exceptionThrowExRK12QScriptValueb @ 156 NONAME
	_ZN18QScriptEngineAgent14positionChangeExii @ 157 NONAME
	_ZN18QScriptEngineAgent9extensionENS_9ExtensionERK8QVariant @ 158 NONAME
	_ZN18QScriptEngineAgentC1EP13QScriptEngine @ 159 NONAME
	_ZN18QScriptEngineAgentC1ER25QScriptEngineAgentPrivateP13QScriptEngine @ 160 NONAME
	_ZN18QScriptEngineAgentC2EP13QScriptEngine @ 161 NONAME
	_ZN18QScriptEngineAgentC2ER25QScriptEngineAgentPrivateP13QScriptEngine @ 162 NONAME
	_ZN18QScriptEngineAgentD0Ev @ 163 NONAME
	_ZN18QScriptEngineAgentD1Ev @ 164 NONAME
	_ZN18QScriptEngineAgentD2Ev @ 165 NONAME
	_ZN20QScriptValueIterator4nextEv @ 166 NONAME
	_ZN20QScriptValueIterator6removeEv @ 167 NONAME
	_ZN20QScriptValueIterator6toBackEv @ 168 NONAME
	_ZN20QScriptValueIterator7toFrontEv @ 169 NONAME
	_ZN20QScriptValueIterator8previousEv @ 170 NONAME
	_ZN20QScriptValueIterator8setValueERK12QScriptValue @ 171 NONAME
	_ZN20QScriptValueIteratorC1ERK12QScriptValue @ 172 NONAME
	_ZN20QScriptValueIteratorC2ERK12QScriptValue @ 173 NONAME
	_ZN20QScriptValueIteratorD1Ev @ 174 NONAME
	_ZN20QScriptValueIteratorD2Ev @ 175 NONAME
	_ZN20QScriptValueIteratoraSER12QScriptValue @ 176 NONAME
	_ZN22QScriptExtensionPlugin11qt_metacallEN11QMetaObject4CallEiPPv @ 177 NONAME
	_ZN22QScriptExtensionPlugin11qt_metacastEPKc @ 178 NONAME
	_ZN22QScriptExtensionPlugin16staticMetaObjectE @ 179 NONAME DATA 16
	_ZN22QScriptExtensionPlugin19getStaticMetaObjectEv @ 180 NONAME
	_ZN22QScriptExtensionPluginC2EP7QObject @ 181 NONAME
	_ZN22QScriptExtensionPluginD0Ev @ 182 NONAME
	_ZN22QScriptExtensionPluginD1Ev @ 183 NONAME
	_ZN22QScriptExtensionPluginD2Ev @ 184 NONAME
	_ZN24QScriptSyntaxCheckResultC1EP31QScriptSyntaxCheckResultPrivate @ 185 NONAME
	_ZN24QScriptSyntaxCheckResultC1ERKS_ @ 186 NONAME
	_ZN24QScriptSyntaxCheckResultC1Ev @ 187 NONAME
	_ZN24QScriptSyntaxCheckResultC2EP31QScriptSyntaxCheckResultPrivate @ 188 NONAME
	_ZN24QScriptSyntaxCheckResultC2ERKS_ @ 189 NONAME
	_ZN24QScriptSyntaxCheckResultC2Ev @ 190 NONAME
	_ZN24QScriptSyntaxCheckResultD1Ev @ 191 NONAME
	_ZN24QScriptSyntaxCheckResultD2Ev @ 192 NONAME
	_ZN24QScriptSyntaxCheckResultaSERKS_ @ 193 NONAME
	_ZN25QScriptEngineAgentPrivate11atStatementERKN5QTJSC17DebuggerCallFrameEiii @ 194 NONAME ABSENT
	_ZN25QScriptEngineAgentPrivate11returnEventERKN5QTJSC17DebuggerCallFrameEii @ 195 NONAME
	_ZN25QScriptEngineAgentPrivate12evaluateStopERKN5QTJSC7JSValueEi @ 196 NONAME
	_ZN25QScriptEngineAgentPrivate12functionExitERKN5QTJSC7JSValueEi @ 197 NONAME
	_ZN25QScriptEngineAgentPrivate14exceptionCatchERKN5QTJSC17DebuggerCallFrameEi @ 198 NONAME
	_ZN25QScriptEngineAgentPrivate14exceptionThrowERKN5QTJSC17DebuggerCallFrameEib @ 199 NONAME
	_ZN25QScriptEngineAgentPrivate18didReachBreakpointERKN5QTJSC17DebuggerCallFrameEiii @ 200 NONAME ABSENT
	_ZN25QScriptEngineAgentPrivate6attachEv @ 201 NONAME
	_ZN25QScriptEngineAgentPrivate6detachEv @ 202 NONAME
	_ZN28QScriptClassPropertyIteratorC2ERK12QScriptValue @ 203 NONAME
	_ZN28QScriptClassPropertyIteratorC2ERK12QScriptValueR35QScriptClassPropertyIteratorPrivate @ 204 NONAME
	_ZN28QScriptClassPropertyIteratorD0Ev @ 205 NONAME
	_ZN28QScriptClassPropertyIteratorD1Ev @ 206 NONAME
	_ZN28QScriptClassPropertyIteratorD2Ev @ 207 NONAME
	_ZNK11QScriptable10thisObjectEv @ 208 NONAME
	_ZNK11QScriptable13argumentCountEv @ 209 NONAME
	_ZNK11QScriptable6engineEv @ 210 NONAME
	_ZNK11QScriptable7contextEv @ 211 NONAME
	_ZNK11QScriptable8argumentEi @ 212 NONAME
	_ZNK12QScriptClass17supportsExtensionENS_9ExtensionE @ 213 NONAME
	_ZNK12QScriptClass4nameEv @ 214 NONAME
	_ZNK12QScriptClass6engineEv @ 215 NONAME
	_ZNK12QScriptClass9prototypeEv @ 216 NONAME
	_ZNK12QScriptValue10instanceOfERKS_ @ 217 NONAME
	_ZNK12QScriptValue10isFunctionEv @ 218 NONAME
	_ZNK12QScriptValue10toDateTimeEv @ 219 NONAME
	_ZNK12QScriptValue11isUndefinedEv @ 220 NONAME
	_ZNK12QScriptValue11scriptClassEv @ 221 NONAME
	_ZNK12QScriptValue13isQMetaObjectEv @ 222 NONAME
	_ZNK12QScriptValue13propertyFlagsERK13QScriptStringRK6QFlagsINS_11ResolveFlagEE @ 223 NONAME
	_ZNK12QScriptValue13propertyFlagsERK7QStringRK6QFlagsINS_11ResolveFlagEE @ 224 NONAME
	_ZNK12QScriptValue13toQMetaObjectEv @ 225 NONAME
	_ZNK12QScriptValue14strictlyEqualsERKS_ @ 226 NONAME
	_ZNK12QScriptValue4dataEv @ 227 NONAME
	_ZNK12QScriptValue5scopeEv @ 228 NONAME
	_ZNK12QScriptValue6engineEv @ 229 NONAME
	_ZNK12QScriptValue6equalsERKS_ @ 230 NONAME
	_ZNK12QScriptValue6isBoolEv @ 231 NONAME
	_ZNK12QScriptValue6isDateEv @ 232 NONAME
	_ZNK12QScriptValue6isNullEv @ 233 NONAME
	_ZNK12QScriptValue6toBoolEv @ 234 NONAME
	_ZNK12QScriptValue7isArrayEv @ 235 NONAME
	_ZNK12QScriptValue7isErrorEv @ 236 NONAME
	_ZNK12QScriptValue7isValidEv @ 237 NONAME
	_ZNK12QScriptValue7toInt32Ev @ 238 NONAME
	_ZNK12QScriptValue8isNumberEv @ 239 NONAME
	_ZNK12QScriptValue8isObjectEv @ 240 NONAME
	_ZNK12QScriptValue8isRegExpEv @ 241 NONAME
	_ZNK12QScriptValue8isStringEv @ 242 NONAME
	_ZNK12QScriptValue8lessThanERKS_ @ 243 NONAME
	_ZNK12QScriptValue8objectIdEv @ 244 NONAME
	_ZNK12QScriptValue8propertyERK13QScriptStringRK6QFlagsINS_11ResolveFlagEE @ 245 NONAME
	_ZNK12QScriptValue8propertyERK7QStringRK6QFlagsINS_11ResolveFlagEE @ 246 NONAME
	_ZNK12QScriptValue8propertyEjRK6QFlagsINS_11ResolveFlagEE @ 247 NONAME
	_ZNK12QScriptValue8toNumberEv @ 248 NONAME
	_ZNK12QScriptValue8toObjectEv @ 249 NONAME
	_ZNK12QScriptValue8toRegExpEv @ 250 NONAME
	_ZNK12QScriptValue8toStringEv @ 251 NONAME
	_ZNK12QScriptValue8toUInt16Ev @ 252 NONAME
	_ZNK12QScriptValue8toUInt32Ev @ 253 NONAME
	_ZNK12QScriptValue9isBooleanEv @ 254 NONAME
	_ZNK12QScriptValue9isQObjectEv @ 255 NONAME
	_ZNK12QScriptValue9isVariantEv @ 256 NONAME
	_ZNK12QScriptValue9prototypeEv @ 257 NONAME
	_ZNK12QScriptValue9toBooleanEv @ 258 NONAME
	_ZNK12QScriptValue9toIntegerEv @ 259 NONAME
	_ZNK12QScriptValue9toQObjectEv @ 260 NONAME
	_ZNK12QScriptValue9toVariantEv @ 261 NONAME
	_ZNK13QScriptEngine10metaObjectEv @ 262 NONAME
	_ZNK13QScriptEngine10objectByIdEx @ 263 NONAME
	_ZNK13QScriptEngine11canEvaluateERK7QString @ 264 NONAME
	_ZNK13QScriptEngine12globalObjectEv @ 265 NONAME
	_ZNK13QScriptEngine12isEvaluatingEv @ 266 NONAME
	_ZNK13QScriptEngine14currentContextEv @ 267 NONAME
	_ZNK13QScriptEngine16defaultPrototypeEi @ 268 NONAME
	_ZNK13QScriptEngine17uncaughtExceptionEv @ 269 NONAME
	_ZNK13QScriptEngine18importedExtensionsEv @ 270 NONAME
	_ZNK13QScriptEngine19availableExtensionsEv @ 271 NONAME
	_ZNK13QScriptEngine20hasUncaughtExceptionEv @ 272 NONAME
	_ZNK13QScriptEngine21processEventsIntervalEv @ 273 NONAME
	_ZNK13QScriptEngine26uncaughtExceptionBacktraceEv @ 274 NONAME
	_ZNK13QScriptEngine27uncaughtExceptionLineNumberEv @ 275 NONAME
	_ZNK13QScriptEngine5agentEv @ 276 NONAME
	_ZNK13QScriptString7isValidEv @ 277 NONAME
	_ZNK13QScriptString8toStringEv @ 278 NONAME
	_ZNK13QScriptStringcv7QStringEv @ 279 NONAME
	_ZNK13QScriptStringeqERKS_ @ 280 NONAME
	_ZNK13QScriptStringneERKS_ @ 281 NONAME
	_ZNK14QScriptContext10scopeChainEv @ 282 NONAME
	_ZNK14QScriptContext10thisObjectEv @ 283 NONAME
	_ZNK14QScriptContext11returnValueEv @ 284 NONAME
	_ZNK14QScriptContext13argumentCountEv @ 285 NONAME
	_ZNK14QScriptContext13parentContextEv @ 286 NONAME
	_ZNK14QScriptContext15argumentsObjectEv @ 287 NONAME
	_ZNK14QScriptContext16activationObjectEv @ 288 NONAME
	_ZNK14QScriptContext21isCalledAsConstructorEv @ 289 NONAME
	_ZNK14QScriptContext5stateEv @ 290 NONAME
	_ZNK14QScriptContext6calleeEv @ 291 NONAME
	_ZNK14QScriptContext6engineEv @ 292 NONAME
	_ZNK14QScriptContext8argumentEi @ 293 NONAME
	_ZNK14QScriptContext8toStringEv @ 294 NONAME
	_ZNK14QScriptContext9backtraceEv @ 295 NONAME
	_ZNK18QScriptContextInfo10lineNumberEv @ 296 NONAME
	_ZNK18QScriptContextInfo12columnNumberEv @ 297 NONAME
	_ZNK18QScriptContextInfo12functionNameEv @ 298 NONAME
	_ZNK18QScriptContextInfo12functionTypeEv @ 299 NONAME
	_ZNK18QScriptContextInfo17functionMetaIndexEv @ 300 NONAME
	_ZNK18QScriptContextInfo21functionEndLineNumberEv @ 301 NONAME
	_ZNK18QScriptContextInfo22functionParameterNamesEv @ 302 NONAME
	_ZNK18QScriptContextInfo23functionStartLineNumberEv @ 303 NONAME
	_ZNK18QScriptContextInfo6isNullEv @ 304 NONAME
	_ZNK18QScriptContextInfo8fileNameEv @ 305 NONAME
	_ZNK18QScriptContextInfo8scriptIdEv @ 306 NONAME
	_ZNK18QScriptContextInfoeqERKS_ @ 307 NONAME
	_ZNK18QScriptContextInfoneERKS_ @ 308 NONAME
	_ZNK18QScriptEngineAgent17supportsExtensionENS_9ExtensionE @ 309 NONAME
	_ZNK18QScriptEngineAgent6engineEv @ 310 NONAME
	_ZNK20QScriptValueIterator10scriptNameEv @ 311 NONAME
	_ZNK20QScriptValueIterator11hasPreviousEv @ 312 NONAME
	_ZNK20QScriptValueIterator4nameEv @ 313 NONAME
	_ZNK20QScriptValueIterator5flagsEv @ 314 NONAME
	_ZNK20QScriptValueIterator5valueEv @ 315 NONAME
	_ZNK20QScriptValueIterator7hasNextEv @ 316 NONAME
	_ZNK22QScriptExtensionPlugin10metaObjectEv @ 317 NONAME
	_ZNK22QScriptExtensionPlugin12setupPackageERK7QStringP13QScriptEngine @ 318 NONAME
	_ZNK24QScriptSyntaxCheckResult12errorMessageEv @ 319 NONAME
	_ZNK24QScriptSyntaxCheckResult15errorLineNumberEv @ 320 NONAME
	_ZNK24QScriptSyntaxCheckResult17errorColumnNumberEv @ 321 NONAME
	_ZNK24QScriptSyntaxCheckResult5stateEv @ 322 NONAME
	_ZNK28QScriptClassPropertyIterator2idEv @ 323 NONAME
	_ZNK28QScriptClassPropertyIterator5flagsEv @ 324 NONAME
	_ZNK28QScriptClassPropertyIterator6objectEv @ 325 NONAME
	_ZTI12QScriptClass @ 326 NONAME
	_ZTI13QScriptEngine @ 327 NONAME
	_ZTI18QScriptEngineAgent @ 328 NONAME
	_ZTI22QScriptExtensionPlugin @ 329 NONAME
	_ZTI25QScriptEngineAgentPrivate @ 330 NONAME
	_ZTI25QScriptExtensionInterface @ 331 NONAME
	_ZTI28QScriptClassPropertyIterator @ 332 NONAME
	_ZTV12QScriptClass @ 333 NONAME
	_ZTV13QScriptEngine @ 334 NONAME
	_ZTV18QScriptEngineAgent @ 335 NONAME
	_ZTV22QScriptExtensionPlugin @ 336 NONAME
	_ZTV25QScriptEngineAgentPrivate @ 337 NONAME
	_ZTV28QScriptClassPropertyIterator @ 338 NONAME
	_ZThn8_N22QScriptExtensionPluginD0Ev @ 339 NONAME
	_ZThn8_N22QScriptExtensionPluginD1Ev @ 340 NONAME
	_ZlsR11QDataStreamRK18QScriptContextInfo @ 341 NONAME
	_ZrsR11QDataStreamR18QScriptContextInfo @ 342 NONAME
	_Z5qHashRK13QScriptString @ 343 NONAME
	_ZN13QScriptEngine8evaluateERK14QScriptProgram @ 344 NONAME
	_ZN14QScriptProgramC1ERK7QStringS0_i @ 345 NONAME
	_ZN14QScriptProgramC1ERKS_ @ 346 NONAME
	_ZN14QScriptProgramC1Ev @ 347 NONAME
	_ZN14QScriptProgramC2ERK7QStringS0_i @ 348 NONAME
	_ZN14QScriptProgramC2ERKS_ @ 349 NONAME
	_ZN14QScriptProgramC2Ev @ 350 NONAME
	_ZN14QScriptProgramD1Ev @ 351 NONAME
	_ZN14QScriptProgramD2Ev @ 352 NONAME
	_ZN14QScriptProgramaSERKS_ @ 353 NONAME
	_ZN23QScriptDeclarativeClass11scriptClassERK12QScriptValue @ 354 NONAME
	_ZN23QScriptDeclarativeClass11setPropertyEPNS_6ObjectERKPvRK12QScriptValue @ 355 NONAME
	_ZN23QScriptDeclarativeClass12toArrayIndexERKPvPb @ 356 NONAME
	_ZN23QScriptDeclarativeClass13propertyFlagsEPNS_6ObjectERKPv @ 357 NONAME
	_ZN23QScriptDeclarativeClass13propertyNamesEPNS_6ObjectE @ 358 NONAME
	_ZN23QScriptDeclarativeClass13queryPropertyEPNS_6ObjectERKPv6QFlagsIN12QScriptClass9QueryFlagEE @ 359 NONAME
	_ZN23QScriptDeclarativeClass15scopeChainValueEP14QScriptContexti @ 360 NONAME
	_ZN23QScriptDeclarativeClass16pushCleanContextEP13QScriptEngine @ 361 NONAME
	_ZN23QScriptDeclarativeClass20PersistentIdentifierC1ERKS0_ @ 362 NONAME
	_ZN23QScriptDeclarativeClass20PersistentIdentifierC1Ev @ 363 NONAME
	_ZN23QScriptDeclarativeClass20PersistentIdentifierC2ERKS0_ @ 364 NONAME
	_ZN23QScriptDeclarativeClass20PersistentIdentifierC2Ev @ 365 NONAME
	_ZN23QScriptDeclarativeClass20PersistentIdentifierD1Ev @ 366 NONAME
	_ZN23QScriptDeclarativeClass20PersistentIdentifierD2Ev @ 367 NONAME
	_ZN23QScriptDeclarativeClass20PersistentIdentifieraSERKS0_ @ 368 NONAME
	_ZN23QScriptDeclarativeClass26createPersistentIdentifierERK7QString @ 369 NONAME
	_ZN23QScriptDeclarativeClass26createPersistentIdentifierERKPv @ 370 NONAME
	_ZN23QScriptDeclarativeClass6objectERK12QScriptValue @ 371 NONAME
	_ZN23QScriptDeclarativeClass8functionERK12QScriptValueRKPv @ 372 NONAME
	_ZN23QScriptDeclarativeClass8propertyEPNS_6ObjectERKPv @ 373 NONAME
	_ZN23QScriptDeclarativeClass8propertyERK12QScriptValueRKPv @ 374 NONAME
	_ZN23QScriptDeclarativeClass8toStringERKPv @ 375 NONAME
	_ZN23QScriptDeclarativeClass9newObjectEP13QScriptEnginePS_PNS_6ObjectE @ 376 NONAME
	_ZN23QScriptDeclarativeClass9toQObjectEPNS_6ObjectEPb @ 377 NONAME
	_ZN23QScriptDeclarativeClass9toVariantEPNS_6ObjectEPb @ 378 NONAME
	_ZN23QScriptDeclarativeClassC1EP13QScriptEngine @ 379 NONAME
	_ZN23QScriptDeclarativeClassC2EP13QScriptEngine @ 380 NONAME
	_ZN23QScriptDeclarativeClassD0Ev @ 381 NONAME
	_ZN23QScriptDeclarativeClassD1Ev @ 382 NONAME
	_ZN23QScriptDeclarativeClassD2Ev @ 383 NONAME
	_ZNK13QScriptString12toArrayIndexEPb @ 384 NONAME
	_ZNK14QScriptProgram10sourceCodeEv @ 385 NONAME
	_ZNK14QScriptProgram15firstLineNumberEv @ 386 NONAME
	_ZNK14QScriptProgram6isNullEv @ 387 NONAME
	_ZNK14QScriptProgram8fileNameEv @ 388 NONAME
	_ZNK14QScriptProgrameqERKS_ @ 389 NONAME
	_ZNK14QScriptProgramneERKS_ @ 390 NONAME
	_ZNK23QScriptDeclarativeClass6engineEv @ 391 NONAME
	_ZNK23QScriptDeclarativeClass7contextEv @ 392 NONAME
	_ZTI23QScriptDeclarativeClass @ 393 NONAME
	_ZTV23QScriptDeclarativeClass @ 394 NONAME
	_ZNK23QScriptDeclarativeClass9isQObjectEv @ 395 NONAME
	_ZN13QScriptEngine26reportAdditionalMemoryCostEi @ 396 NONAME
	_ZN23QScriptDeclarativeClass13functionValueERK12QScriptValueRKPv @ 397 NONAME
	_ZN23QScriptDeclarativeClass13propertyValueERK12QScriptValueRKPv @ 398 NONAME
	_ZN23QScriptDeclarativeClass14newObjectValueEP13QScriptEnginePS_PNS_6ObjectE @ 399 NONAME
	_ZN23QScriptDeclarativeClass15setSupportsCallEb @ 400 NONAME
	_ZN23QScriptDeclarativeClass20newStaticScopeObjectEP13QScriptEngine @ 401 NONAME
	_ZN23QScriptDeclarativeClass20newStaticScopeObjectEP13QScriptEngineiPK7QStringPK12QScriptValuePK6QFlagsINS5_12PropertyFlagEE @ 402 NONAME
	_ZN23QScriptDeclarativeClass4callEPNS_6ObjectEP14QScriptContext @ 403 NONAME
	_ZN23QScriptDeclarativeClass5ValueC1EP13QScriptEngineRK12QScriptValue @ 404 NONAME
	_ZN23QScriptDeclarativeClass5ValueC1EP13QScriptEngineRK7QString @ 405 NONAME
	_ZN23QScriptDeclarativeClass5ValueC1EP13QScriptEngineb @ 406 NONAME
	_ZN23QScriptDeclarativeClass5ValueC1EP13QScriptEngined @ 407 NONAME
	_ZN23QScriptDeclarativeClass5ValueC1EP13QScriptEnginef @ 408 NONAME
	_ZN23QScriptDeclarativeClass5ValueC1EP13QScriptEnginei @ 409 NONAME
	_ZN23QScriptDeclarativeClass5ValueC1EP13QScriptEnginej @ 410 NONAME
	_ZN23QScriptDeclarativeClass5ValueC1EP14QScriptContextRK12QScriptValue @ 411 NONAME
	_ZN23QScriptDeclarativeClass5ValueC1EP14QScriptContextRK7QString @ 412 NONAME
	_ZN23QScriptDeclarativeClass5ValueC1EP14QScriptContextb @ 413 NONAME
	_ZN23QScriptDeclarativeClass5ValueC1EP14QScriptContextd @ 414 NONAME
	_ZN23QScriptDeclarativeClass5ValueC1EP14QScriptContextf @ 415 NONAME
	_ZN23QScriptDeclarativeClass5ValueC1EP14QScriptContexti @ 416 NONAME
	_ZN23QScriptDeclarativeClass5ValueC1EP14QScriptContextj @ 417 NONAME
	_ZN23QScriptDeclarativeClass5ValueC1ERKS0_ @ 418 NONAME
	_ZN23QScriptDeclarativeClass5ValueC1Ev @ 419 NONAME
	_ZN23QScriptDeclarativeClass5ValueC2EP13QScriptEngineRK12QScriptValue @ 420 NONAME
	_ZN23QScriptDeclarativeClass5ValueC2EP13QScriptEngineRK7QString @ 421 NONAME
	_ZN23QScriptDeclarativeClass5ValueC2EP13QScriptEngineb @ 422 NONAME
	_ZN23QScriptDeclarativeClass5ValueC2EP13QScriptEngined @ 423 NONAME
	_ZN23QScriptDeclarativeClass5ValueC2EP13QScriptEnginef @ 424 NONAME
	_ZN23QScriptDeclarativeClass5ValueC2EP13QScriptEnginei @ 425 NONAME
	_ZN23QScriptDeclarativeClass5ValueC2EP13QScriptEnginej @ 426 NONAME
	_ZN23QScriptDeclarativeClass5ValueC2EP14QScriptContextRK12QScriptValue @ 427 NONAME
	_ZN23QScriptDeclarativeClass5ValueC2EP14QScriptContextRK7QString @ 428 NONAME
	_ZN23QScriptDeclarativeClass5ValueC2EP14QScriptContextb @ 429 NONAME
	_ZN23QScriptDeclarativeClass5ValueC2EP14QScriptContextd @ 430 NONAME
	_ZN23QScriptDeclarativeClass5ValueC2EP14QScriptContextf @ 431 NONAME
	_ZN23QScriptDeclarativeClass5ValueC2EP14QScriptContexti @ 432 NONAME
	_ZN23QScriptDeclarativeClass5ValueC2EP14QScriptContextj @ 433 NONAME
	_ZN23QScriptDeclarativeClass5ValueC2ERKS0_ @ 434 NONAME
	_ZN23QScriptDeclarativeClass5ValueC2Ev @ 435 NONAME
	_ZN23QScriptDeclarativeClass5ValueD1Ev @ 436 NONAME
	_ZN23QScriptDeclarativeClass5ValueD2Ev @ 437 NONAME
	_ZN23QScriptDeclarativeClass7compareEPNS_6ObjectES1_ @ 438 NONAME
	_ZN25QScriptEngineAgentPrivate11atStatementERKN5QTJSC17DebuggerCallFrameEii @ 439 NONAME
	_ZN25QScriptEngineAgentPrivate18didReachBreakpointERKN5QTJSC17DebuggerCallFrameEii @ 440 NONAME
	_ZNK23QScriptDeclarativeClass12supportsCallEv @ 441 NONAME
	_ZNK23QScriptDeclarativeClass5Value13toScriptValueEP13QScriptEngine @ 442 NONAME
	_ZN23QScriptDeclarativeClass15startsWithUpperERKPv @ 443 NONAME
	_ZNK23QScriptDeclarativeClass20PersistentIdentifier8toStringEv @ 444 NONAME
	_ZN13QScriptEngine18qt_static_metacallEP7QObjectN11QMetaObject4CallEiPPv @ 445 NONAME
	_ZN13QScriptEngine25staticMetaObjectExtraDataE @ 446 NONAME DATA 8
	_ZN22QScriptExtensionPlugin18qt_static_metacallEP7QObjectN11QMetaObject4CallEiPPv @ 447 NONAME
	_ZN22QScriptExtensionPlugin25staticMetaObjectExtraDataE @ 448 NONAME DATA 8

