EXPORTS
	_Z5qHashRK15QSourceLocation @ 1 NONAME
	_Z5qHashRK18QXmlNodeModelIndex @ 2 NONAME
	_Z5qHashRK8QXmlName @ 3 NONAME
	_ZN10QXmlSchema14setUriResolverEPK20QAbstractUriResolver @ 4 NONAME
	_ZN10QXmlSchema17setMessageHandlerEP23QAbstractMessageHandler @ 5 NONAME
	_ZN10QXmlSchema23setNetworkAccessManagerEP21QNetworkAccessManager @ 6 NONAME
	_ZN10QXmlSchema4loadEP9QIODeviceRK4QUrl @ 7 NONAME
	_ZN10QXmlSchema4loadERK10QByteArrayRK4QUrl @ 8 NONAME
	_ZN10QXmlSchema4loadERK4QUrl @ 9 NONAME
	_ZN10QXmlSchemaC1ERKS_ @ 10 NONAME
	_ZN10QXmlSchemaC1Ev @ 11 NONAME
	_ZN10QXmlSchemaC2ERKS_ @ 12 NONAME
	_ZN10QXmlSchemaC2Ev @ 13 NONAME
	_ZN10QXmlSchemaD1Ev @ 14 NONAME
	_ZN10QXmlSchemaD2Ev @ 15 NONAME
	_ZN12QXmlNamePoolC1EPN11QPatternist8NamePoolE @ 16 NONAME
	_ZN12QXmlNamePoolC1ERKS_ @ 17 NONAME
	_ZN12QXmlNamePoolC1Ev @ 18 NONAME
	_ZN12QXmlNamePoolC2EPN11QPatternist8NamePoolE @ 19 NONAME
	_ZN12QXmlNamePoolC2ERKS_ @ 20 NONAME
	_ZN12QXmlNamePoolC2Ev @ 21 NONAME
	_ZN12QXmlNamePoolD1Ev @ 22 NONAME
	_ZN12QXmlNamePoolD2Ev @ 23 NONAME
	_ZN12QXmlNamePoolaSERKS_ @ 24 NONAME
	_ZN13QXmlFormatter10charactersERK10QStringRef @ 25 NONAME
	_ZN13QXmlFormatter10endElementEv @ 26 NONAME
	_ZN13QXmlFormatter11atomicValueERK8QVariant @ 27 NONAME
	_ZN13QXmlFormatter11endDocumentEv @ 28 NONAME
	_ZN13QXmlFormatter12startElementERK8QXmlName @ 29 NONAME
	_ZN13QXmlFormatter13endOfSequenceEv @ 30 NONAME
	_ZN13QXmlFormatter13startDocumentEv @ 31 NONAME
	_ZN13QXmlFormatter15startOfSequenceEv @ 32 NONAME
	_ZN13QXmlFormatter19setIndentationDepthEi @ 33 NONAME
	_ZN13QXmlFormatter21processingInstructionERK8QXmlNameRK7QString @ 34 NONAME
	_ZN13QXmlFormatter4itemERKN11QPatternist4ItemE @ 35 NONAME
	_ZN13QXmlFormatter7commentERK7QString @ 36 NONAME
	_ZN13QXmlFormatter9attributeERK8QXmlNameRK10QStringRef @ 37 NONAME
	_ZN13QXmlFormatterC1ERK9QXmlQueryP9QIODevice @ 38 NONAME
	_ZN13QXmlFormatterC2ERK9QXmlQueryP9QIODevice @ 39 NONAME
	_ZN14QXmlSerializer10charactersERK10QStringRef @ 40 NONAME
	_ZN14QXmlSerializer10endElementEv @ 41 NONAME
	_ZN14QXmlSerializer11atomicValueERK8QVariant @ 42 NONAME
	_ZN14QXmlSerializer11endDocumentEv @ 43 NONAME
	_ZN14QXmlSerializer12startElementERK8QXmlName @ 44 NONAME
	_ZN14QXmlSerializer12writeEscapedERK7QString @ 45 NONAME
	_ZN14QXmlSerializer13endOfSequenceEv @ 46 NONAME
	_ZN14QXmlSerializer13startDocumentEv @ 47 NONAME
	_ZN14QXmlSerializer15startOfSequenceEv @ 48 NONAME
	_ZN14QXmlSerializer16namespaceBindingERK8QXmlName @ 49 NONAME
	_ZN14QXmlSerializer21processingInstructionERK8QXmlNameRK7QString @ 50 NONAME
	_ZN14QXmlSerializer4itemERKN11QPatternist4ItemE @ 51 NONAME
	_ZN14QXmlSerializer7commentERK7QString @ 52 NONAME
	_ZN14QXmlSerializer8setCodecEPK10QTextCodec @ 53 NONAME
	_ZN14QXmlSerializer9attributeERK8QXmlNameRK10QStringRef @ 54 NONAME
	_ZN14QXmlSerializerC1EP27QAbstractXmlReceiverPrivate @ 55 NONAME
	_ZN14QXmlSerializerC1ERK9QXmlQueryP9QIODevice @ 56 NONAME
	_ZN14QXmlSerializerC2EP27QAbstractXmlReceiverPrivate @ 57 NONAME
	_ZN14QXmlSerializerC2ERK9QXmlQueryP9QIODevice @ 58 NONAME
	_ZN15QSourceLocation6setUriERK4QUrl @ 59 NONAME
	_ZN15QSourceLocation7setLineEx @ 60 NONAME
	_ZN15QSourceLocation9setColumnEx @ 61 NONAME
	_ZN15QSourceLocationC1ERK4QUrlii @ 62 NONAME
	_ZN15QSourceLocationC1ERKS_ @ 63 NONAME
	_ZN15QSourceLocationC1Ev @ 64 NONAME
	_ZN15QSourceLocationC2ERK4QUrlii @ 65 NONAME
	_ZN15QSourceLocationC2ERKS_ @ 66 NONAME
	_ZN15QSourceLocationC2Ev @ 67 NONAME
	_ZN15QSourceLocationD1Ev @ 68 NONAME
	_ZN15QSourceLocationD2Ev @ 69 NONAME
	_ZN15QSourceLocationaSERKS_ @ 70 NONAME
	_ZN15QXmlResultItems4nextEv @ 71 NONAME
	_ZN15QXmlResultItemsC1Ev @ 72 NONAME
	_ZN15QXmlResultItemsC2Ev @ 73 NONAME
	_ZN15QXmlResultItemsD0Ev @ 74 NONAME
	_ZN15QXmlResultItemsD1Ev @ 75 NONAME
	_ZN15QXmlResultItemsD2Ev @ 76 NONAME
	_ZN19QSimpleXmlNodeModelC2ERK12QXmlNamePool @ 77 NONAME
	_ZN19QSimpleXmlNodeModelD0Ev @ 78 NONAME
	_ZN19QSimpleXmlNodeModelD1Ev @ 79 NONAME
	_ZN19QSimpleXmlNodeModelD2Ev @ 80 NONAME
	_ZN19QXmlSchemaValidator14setUriResolverEPK20QAbstractUriResolver @ 81 NONAME
	_ZN19QXmlSchemaValidator17setMessageHandlerEP23QAbstractMessageHandler @ 82 NONAME
	_ZN19QXmlSchemaValidator23setNetworkAccessManagerEP21QNetworkAccessManager @ 83 NONAME
	_ZN19QXmlSchemaValidator9setSchemaERK10QXmlSchema @ 84 NONAME
	_ZN19QXmlSchemaValidatorC1ERK10QXmlSchema @ 85 NONAME
	_ZN19QXmlSchemaValidatorC1Ev @ 86 NONAME
	_ZN19QXmlSchemaValidatorC2ERK10QXmlSchema @ 87 NONAME
	_ZN19QXmlSchemaValidatorC2Ev @ 88 NONAME
	_ZN19QXmlSchemaValidatorD1Ev @ 89 NONAME
	_ZN19QXmlSchemaValidatorD2Ev @ 90 NONAME
	_ZN20QAbstractUriResolver11qt_metacallEN11QMetaObject4CallEiPPv @ 91 NONAME
	_ZN20QAbstractUriResolver11qt_metacastEPKc @ 92 NONAME
	_ZN20QAbstractUriResolver16staticMetaObjectE @ 93 NONAME DATA 16
	_ZN20QAbstractUriResolver19getStaticMetaObjectEv @ 94 NONAME
	_ZN20QAbstractUriResolverC2EP7QObject @ 95 NONAME
	_ZN20QAbstractUriResolverD0Ev @ 96 NONAME
	_ZN20QAbstractUriResolverD1Ev @ 97 NONAME
	_ZN20QAbstractUriResolverD2Ev @ 98 NONAME
	_ZN20QAbstractXmlReceiver10sendAsNodeERKN11QPatternist4ItemE @ 99 NONAME
	_ZN20QAbstractXmlReceiver14whitespaceOnlyERK10QStringRef @ 100 NONAME
	_ZN20QAbstractXmlReceiver4itemERKN11QPatternist4ItemE @ 101 NONAME
	_ZN20QAbstractXmlReceiverC2EP27QAbstractXmlReceiverPrivate @ 102 NONAME
	_ZN20QAbstractXmlReceiverC2Ev @ 103 NONAME
	_ZN20QAbstractXmlReceiverD0Ev @ 104 NONAME
	_ZN20QAbstractXmlReceiverD1Ev @ 105 NONAME
	_ZN20QAbstractXmlReceiverD2Ev @ 106 NONAME
	_ZN21QAbstractXmlNodeModelC2EP28QAbstractXmlNodeModelPrivate @ 107 NONAME
	_ZN21QAbstractXmlNodeModelC2Ev @ 108 NONAME
	_ZN21QAbstractXmlNodeModelD0Ev @ 109 NONAME
	_ZN21QAbstractXmlNodeModelD1Ev @ 110 NONAME
	_ZN21QAbstractXmlNodeModelD2Ev @ 111 NONAME
	_ZN23QAbstractMessageHandler11qt_metacallEN11QMetaObject4CallEiPPv @ 112 NONAME
	_ZN23QAbstractMessageHandler11qt_metacastEPKc @ 113 NONAME
	_ZN23QAbstractMessageHandler16staticMetaObjectE @ 114 NONAME DATA 16
	_ZN23QAbstractMessageHandler19getStaticMetaObjectEv @ 115 NONAME
	_ZN23QAbstractMessageHandler7messageE9QtMsgTypeRK7QStringRK4QUrlRK15QSourceLocation @ 116 NONAME
	_ZN23QAbstractMessageHandlerC2EP7QObject @ 117 NONAME
	_ZN23QAbstractMessageHandlerD0Ev @ 118 NONAME
	_ZN23QAbstractMessageHandlerD1Ev @ 119 NONAME
	_ZN23QAbstractMessageHandlerD2Ev @ 120 NONAME
	_ZN8QXmlItemC1ERK18QXmlNodeModelIndex @ 121 NONAME
	_ZN8QXmlItemC1ERK8QVariant @ 122 NONAME
	_ZN8QXmlItemC1ERKS_ @ 123 NONAME
	_ZN8QXmlItemC1Ev @ 124 NONAME
	_ZN8QXmlItemC2ERK18QXmlNodeModelIndex @ 125 NONAME
	_ZN8QXmlItemC2ERK8QVariant @ 126 NONAME
	_ZN8QXmlItemC2ERKS_ @ 127 NONAME
	_ZN8QXmlItemC2Ev @ 128 NONAME
	_ZN8QXmlItemD1Ev @ 129 NONAME
	_ZN8QXmlItemD2Ev @ 130 NONAME
	_ZN8QXmlItemaSERKS_ @ 131 NONAME
	_ZN8QXmlName13fromClarkNameERK7QStringRK12QXmlNamePool @ 132 NONAME
	_ZN8QXmlName8isNCNameERK7QString @ 133 NONAME
	_ZN8QXmlNameC1ER12QXmlNamePoolRK7QStringS4_S4_ @ 134 NONAME
	_ZN8QXmlNameC1Ev @ 135 NONAME
	_ZN8QXmlNameC2ER12QXmlNamePoolRK7QStringS4_S4_ @ 136 NONAME
	_ZN8QXmlNameC2Ev @ 137 NONAME
	_ZN8QXmlNameaSERKS_ @ 138 NONAME
	_ZN9QXmlQuery12bindVariableERK7QStringP9QIODevice @ 139 NONAME
	_ZN9QXmlQuery12bindVariableERK7QStringRK8QXmlItem @ 140 NONAME
	_ZN9QXmlQuery12bindVariableERK7QStringRKS_ @ 141 NONAME
	_ZN9QXmlQuery12bindVariableERK8QXmlNameP9QIODevice @ 142 NONAME
	_ZN9QXmlQuery12bindVariableERK8QXmlNameRK8QXmlItem @ 143 NONAME
	_ZN9QXmlQuery12bindVariableERK8QXmlNameRKS_ @ 144 NONAME
	_ZN9QXmlQuery14setUriResolverEPK20QAbstractUriResolver @ 145 NONAME
	_ZN9QXmlQuery17setMessageHandlerEP23QAbstractMessageHandler @ 146 NONAME
	_ZN9QXmlQuery22setInitialTemplateNameERK7QString @ 147 NONAME
	_ZN9QXmlQuery22setInitialTemplateNameERK8QXmlName @ 148 NONAME
	_ZN9QXmlQuery23setNetworkAccessManagerEP21QNetworkAccessManager @ 149 NONAME
	_ZN9QXmlQuery8setFocusEP9QIODevice @ 150 NONAME
	_ZN9QXmlQuery8setFocusERK4QUrl @ 151 NONAME
	_ZN9QXmlQuery8setFocusERK7QString @ 152 NONAME
	_ZN9QXmlQuery8setFocusERK8QXmlItem @ 153 NONAME
	_ZN9QXmlQuery8setQueryEP9QIODeviceRK4QUrl @ 154 NONAME
	_ZN9QXmlQuery8setQueryERK4QUrlS2_ @ 155 NONAME
	_ZN9QXmlQuery8setQueryERK7QStringRK4QUrl @ 156 NONAME
	_ZN9QXmlQueryC1ENS_13QueryLanguageERK12QXmlNamePool @ 157 NONAME
	_ZN9QXmlQueryC1ERK12QXmlNamePool @ 158 NONAME
	_ZN9QXmlQueryC1ERKS_ @ 159 NONAME
	_ZN9QXmlQueryC1Ev @ 160 NONAME
	_ZN9QXmlQueryC2ENS_13QueryLanguageERK12QXmlNamePool @ 161 NONAME
	_ZN9QXmlQueryC2ERK12QXmlNamePool @ 162 NONAME
	_ZN9QXmlQueryC2ERKS_ @ 163 NONAME
	_ZN9QXmlQueryC2Ev @ 164 NONAME
	_ZN9QXmlQueryD1Ev @ 165 NONAME
	_ZN9QXmlQueryD2Ev @ 166 NONAME
	_ZN9QXmlQueryaSERKS_ @ 167 NONAME
	_ZNK10QXmlSchema11documentUriEv @ 168 NONAME
	_ZNK10QXmlSchema11uriResolverEv @ 169 NONAME
	_ZNK10QXmlSchema14messageHandlerEv @ 170 NONAME
	_ZNK10QXmlSchema20networkAccessManagerEv @ 171 NONAME
	_ZNK10QXmlSchema7isValidEv @ 172 NONAME
	_ZNK10QXmlSchema8namePoolEv @ 173 NONAME
	_ZNK13QXmlFormatter16indentationDepthEv @ 174 NONAME
	_ZNK14QXmlSerializer12outputDeviceEv @ 175 NONAME
	_ZNK14QXmlSerializer5codecEv @ 176 NONAME
	_ZNK15QSourceLocation3uriEv @ 177 NONAME
	_ZNK15QSourceLocation4lineEv @ 178 NONAME
	_ZNK15QSourceLocation6columnEv @ 179 NONAME
	_ZNK15QSourceLocation6isNullEv @ 180 NONAME
	_ZNK15QSourceLocationeqERKS_ @ 181 NONAME
	_ZNK15QSourceLocationneERKS_ @ 182 NONAME
	_ZNK15QXmlResultItems7currentEv @ 183 NONAME
	_ZNK15QXmlResultItems8hasErrorEv @ 184 NONAME
	_ZNK18QXmlNodeModelIndexeqERKS_ @ 185 NONAME
	_ZNK18QXmlNodeModelIndexneERKS_ @ 186 NONAME
	_ZNK19QSimpleXmlNodeModel11elementByIdERK8QXmlName @ 187 NONAME
	_ZNK19QSimpleXmlNodeModel11stringValueERK18QXmlNodeModelIndex @ 188 NONAME
	_ZNK19QSimpleXmlNodeModel12nodesByIdrefERK8QXmlName @ 189 NONAME
	_ZNK19QSimpleXmlNodeModel17namespaceBindingsERK18QXmlNodeModelIndex @ 190 NONAME
	_ZNK19QSimpleXmlNodeModel7baseUriERK18QXmlNodeModelIndex @ 191 NONAME
	_ZNK19QSimpleXmlNodeModel8namePoolEv @ 192 NONAME
	_ZNK19QXmlSchemaValidator11uriResolverEv @ 193 NONAME
	_ZNK19QXmlSchemaValidator14messageHandlerEv @ 194 NONAME
	_ZNK19QXmlSchemaValidator20networkAccessManagerEv @ 195 NONAME
	_ZNK19QXmlSchemaValidator6schemaEv @ 196 NONAME
	_ZNK19QXmlSchemaValidator8namePoolEv @ 197 NONAME
	_ZNK19QXmlSchemaValidator8validateEP9QIODeviceRK4QUrl @ 198 NONAME
	_ZNK19QXmlSchemaValidator8validateERK10QByteArrayRK4QUrl @ 199 NONAME
	_ZNK19QXmlSchemaValidator8validateERK4QUrl @ 200 NONAME
	_ZNK20QAbstractUriResolver10metaObjectEv @ 201 NONAME
	_ZNK21QAbstractXmlNodeModel10copyNodeToERK18QXmlNodeModelIndexP20QAbstractXmlReceiverRK6QFlagsINS_15NodeCopySettingEE @ 202 NONAME
	_ZNK21QAbstractXmlNodeModel11isDeepEqualERK18QXmlNodeModelIndexS2_ @ 203 NONAME
	_ZNK21QAbstractXmlNodeModel14sendNamespacesERK18QXmlNodeModelIndexP20QAbstractXmlReceiver @ 204 NONAME
	_ZNK21QAbstractXmlNodeModel14sourceLocationERK18QXmlNodeModelIndex @ 205 NONAME
	_ZNK21QAbstractXmlNodeModel18namespaceForPrefixERK18QXmlNodeModelIndexs @ 206 NONAME
	_ZNK21QAbstractXmlNodeModel19sequencedTypedValueERK18QXmlNodeModelIndex @ 207 NONAME
	_ZNK21QAbstractXmlNodeModel4typeERK18QXmlNodeModelIndex @ 208 NONAME
	_ZNK21QAbstractXmlNodeModel7iterateERK18QXmlNodeModelIndexNS0_4AxisE @ 209 NONAME
	_ZNK23QAbstractMessageHandler10metaObjectEv @ 210 NONAME
	_ZNK8QXmlItem13isAtomicValueEv @ 211 NONAME
	_ZNK8QXmlItem13toAtomicValueEv @ 212 NONAME
	_ZNK8QXmlItem16toNodeModelIndexEv @ 213 NONAME
	_ZNK8QXmlItem6isNodeEv @ 214 NONAME
	_ZNK8QXmlItem6isNullEv @ 215 NONAME
	_ZNK8QXmlName11toClarkNameERK12QXmlNamePool @ 216 NONAME
	_ZNK8QXmlName12namespaceUriERK12QXmlNamePool @ 217 NONAME
	_ZNK8QXmlName6isNullEv @ 218 NONAME
	_ZNK8QXmlName6prefixERK12QXmlNamePool @ 219 NONAME
	_ZNK8QXmlName9localNameERK12QXmlNamePool @ 220 NONAME
	_ZNK8QXmlNameeqERKS_ @ 221 NONAME
	_ZNK8QXmlNameneERKS_ @ 222 NONAME
	_ZNK9QXmlQuery10evaluateToEP11QStringList @ 223 NONAME
	_ZNK9QXmlQuery10evaluateToEP15QXmlResultItems @ 224 NONAME
	_ZNK9QXmlQuery10evaluateToEP20QAbstractXmlReceiver @ 225 NONAME
	_ZNK9QXmlQuery10evaluateToEP7QString @ 226 NONAME
	_ZNK9QXmlQuery10evaluateToEP9QIODevice @ 227 NONAME
	_ZNK9QXmlQuery11uriResolverEv @ 228 NONAME
	_ZNK9QXmlQuery13queryLanguageEv @ 229 NONAME
	_ZNK9QXmlQuery14messageHandlerEv @ 230 NONAME
	_ZNK9QXmlQuery19initialTemplateNameEv @ 231 NONAME
	_ZNK9QXmlQuery20networkAccessManagerEv @ 232 NONAME
	_ZNK9QXmlQuery7isValidEv @ 233 NONAME
	_ZNK9QXmlQuery8namePoolEv @ 234 NONAME
	_ZTI13QXmlFormatter @ 235 NONAME
	_ZTI14QXmlSerializer @ 236 NONAME
	_ZTI15QXmlResultItems @ 237 NONAME
	_ZTI19QSimpleXmlNodeModel @ 238 NONAME
	_ZTI20QAbstractUriResolver @ 239 NONAME
	_ZTI20QAbstractXmlReceiver @ 240 NONAME
	_ZTI21QAbstractXmlNodeModel @ 241 NONAME
	_ZTI23QAbstractMessageHandler @ 242 NONAME
	_ZTV13QXmlFormatter @ 243 NONAME
	_ZTV14QXmlSerializer @ 244 NONAME
	_ZTV15QXmlResultItems @ 245 NONAME
	_ZTV19QSimpleXmlNodeModel @ 246 NONAME
	_ZTV20QAbstractUriResolver @ 247 NONAME
	_ZTV20QAbstractXmlReceiver @ 248 NONAME
	_ZTV21QAbstractXmlNodeModel @ 249 NONAME
	_ZTV23QAbstractMessageHandler @ 250 NONAME
	_Zls6QDebugRK15QSourceLocation @ 251 NONAME
	_ZN20QAbstractUriResolver18qt_static_metacallEP7QObjectN11QMetaObject4CallEiPPv @ 252 NONAME
	_ZN20QAbstractUriResolver25staticMetaObjectExtraDataE @ 253 NONAME DATA 8
	_ZN23QAbstractMessageHandler18qt_static_metacallEP7QObjectN11QMetaObject4CallEiPPv @ 254 NONAME
	_ZN23QAbstractMessageHandler25staticMetaObjectExtraDataE @ 255 NONAME DATA 8

