Certificate:
    Data:
        Version: 3 (0x2)
        Serial Number: 28 (0x1c)
        Signature Algorithm: sha1WithRSAEncryption
        Issuer: CN=Westpoint Certificate Test CA, ST=Lancashire, C=UK/emailAddress=ca@example.com, O=Westpoint Certificate Test Root Certification Authority
        Validity
            Not Before: Jul 31 21:01:18 2011 GMT
            Not After : Jul 28 21:01:18 2021 GMT
        Subject: ST=Lancashire, C=UK/emailAddress=test@example.com, O=Test intermediate CA
        Subject Public Key Info:
            Public Key Algorithm: rsaEncryption
                Public-Key: (1024 bit)
                Modulus:
                    00:bc:bd:83:c1:bc:36:d8:9c:74:68:5a:46:48:25:
                    83:59:f8:35:1e:8f:dc:2c:52:3b:7c:2e:ea:40:c4:
                    93:b6:39:31:df:f5:a6:f8:01:17:67:93:21:59:9b:
                    89:7f:ed:2a:19:7b:25:a5:e1:71:12:99:e5:14:28:
                    df:75:b5:17:1c:3b:1d:3d:74:48:4f:b7:42:f4:3a:
                    ab:56:05:2b:fc:d3:27:97:01:08:5b:ad:26:9b:f2:
                    87:51:9c:7e:e1:f1:ef:1c:bf:ad:7e:38:d9:76:89:
                    30:a6:8c:2f:6f:87:9f:9e:57:13:14:b4:45:30:f3:
                    be:58:df:8a:d2:ee:7b:1d:89
                Exponent: 65537 (0x10001)
        X509v3 extensions:
            Authority Information Access: 
                OCSP - URI:http://ocsp.example.com:8888/

            X509v3 Basic Constraints: 
                CA:TRUE
    Signature Algorithm: sha1WithRSAEncryption
        33:84:9d:0e:b2:59:04:dc:ef:e3:04:8b:00:6c:64:ea:58:9e:
        36:59:76:27:59:a0:b8:ee:0d:86:83:ff:db:65:eb:6c:1f:16:
        47:e7:f5:e6:c3:88:81:73:7e:ed:12:8d:7e:fd:5e:b1:5c:68:
        47:f8:f9:ca:e3:e0:c0:f3:12:b2:24:3b:77:2c:98:de:05:6d:
        a8:ec:27:b8:af:ab:84:25:26:73:b4:58:4c:7c:c1:74:97:98:
        ab:0e:e6:99:70:bc:38:b0:9a:e3:d9:5c:75:fa:46:d2:87:55:
        09:86:8f:ef:4a:e4:ef:3e:32:c6:ac:9d:27:86:29:b8:78:38:
        7b:87:6c:57:72:bd:57:99:73:36:db:fa:52:bd:7b:a7:05:cd:
        28:b8:85:fc:11:47:5e:c6:77:72:6a:fb:73:3e:8b:a4:6d:f8:
        17:f4:12:d5:36:e0:ef:5c:f8:b2:a1:69:3e:4c:cf:86:5f:63:
        f6:02:60:95:7f:61:e8:cb:7f:14:66:da:36:2e:78:13:3e:68:
        ae:3f:13:c1:79:88:18:18:3f:23:f3:9a:e1:e7:7e:ae:50:e4:
        b7:80:76:31:92:74:79:2c:de:d0:74:fe:81:7c:f6:01:14:6a:
        1f:5f:88:85:6a:11:1d:50:af:f1:97:4d:67:40:c3:e9:ae:6f:
        60:e2:bc:e2
-----BEGIN CERTIFICATE-----
MIIDUDCCAjigAwIBAgIBHDANBgkqhkiG9w0BAQUFADCBqzEmMCQGA1UEAxMdV2Vz
dHBvaW50IENlcnRpZmljYXRlIFRlc3QgQ0ExEzARBgNVBAgTCkxhbmNhc2hpcmUx
CzAJBgNVBAYTAlVLMR0wGwYJKoZIhvcNAQkBFg5jYUBleGFtcGxlLmNvbTFAMD4G
A1UEChM3V2VzdHBvaW50IENlcnRpZmljYXRlIFRlc3QgUm9vdCBDZXJ0aWZpY2F0
aW9uIEF1dGhvcml0eTAeFw0xMTA3MzEyMTAxMThaFw0yMTA3MjgyMTAxMThaMGIx
EzARBgNVBAgTCkxhbmNhc2hpcmUxCzAJBgNVBAYTAlVLMR8wHQYJKoZIhvcNAQkB
FhB0ZXN0QGV4YW1wbGUuY29tMR0wGwYDVQQKExRUZXN0IGludGVybWVkaWF0ZSBD
QTCBnzANBgkqhkiG9w0BAQEFAAOBjQAwgYkCgYEAvL2Dwbw22Jx0aFpGSCWDWfg1
Ho/cLFI7fC7qQMSTtjkx3/Wm+AEXZ5MhWZuJf+0qGXslpeFxEpnlFCjfdbUXHDsd
PXRIT7dC9DqrVgUr/NMnlwEIW60mm/KHUZx+4fHvHL+tfjjZdokwpowvb4efnlcT
FLRFMPO+WN+K0u57HYkCAwEAAaNLMEkwOQYIKwYBBQUHAQEELTArMCkGCCsGAQUF
BzABhh1odHRwOi8vb2NzcC5leGFtcGxlLmNvbTo4ODg4LzAMBgNVHRMEBTADAQH/
MA0GCSqGSIb3DQEBBQUAA4IBAQAzhJ0OslkE3O/jBIsAbGTqWJ42WXYnWaC47g2G
g//bZetsHxZH5/Xmw4iBc37tEo1+/V6xXGhH+PnK4+DA8xKyJDt3LJjeBW2o7Ce4
r6uEJSZztFhMfMF0l5irDuaZcLw4sJrj2Vx1+kbSh1UJho/vSuTvPjLGrJ0nhim4
eDh7h2xXcr1XmXM22/pSvXunBc0ouIX8EUdexndyavtzPoukbfgX9BLVNuDvXPiy
oWk+TM+GX2P2AmCVf2Hoy38UZto2LngTPmiuPxPBeYgYGD8j85rh536uUOS3gHYx
knR5LN7QdP6BfPYBFGofX4iFahEdUK/xl01nQMPprm9g4rzi
-----END CERTIFICATE-----
