Certificate:
    Data:
        Version: 3 (0x2)
        Serial Number: 27 (0x1b)
        Signature Algorithm: sha1WithRSAEncryption
        Issuer: CN=example.com, ST=Lancashire, C=UK/emailAddress=test@example.com, O=Some organisation
        Validity
            Not Before: Jul 31 21:01:18 2011 GMT
            Not After : Jul 28 21:01:18 2021 GMT
        Subject: CN=example.com
        Subject Public Key Info:
            Public Key Algorithm: rsaEncryption
                Public-Key: (1024 bit)
                Modulus:
                    00:ea:d6:97:b5:3c:f4:37:8a:58:b4:7a:49:31:55:
                    dd:c8:84:ee:36:f6:72:3a:31:99:d1:df:af:bb:f9:
                    17:e9:d8:47:d2:20:4b:94:ce:ea:c1:6b:23:9a:da:
                    02:41:29:51:34:05:13:c0:98:4d:87:f8:91:a8:85:
                    81:e4:ab:26:3d:26:59:29:16:7d:04:db:57:7b:f0:
                    b6:2b:5d:cf:e7:82:ba:83:a7:bc:63:43:03:2a:2b:
                    18:40:89:4c:1e:90:bc:bf:10:24:81:50:0d:2e:e8:
                    8e:a9:0a:fc:f8:cd:97:98:3c:cc:55:b7:f2:b2:0d:
                    0e:36:53:3a:b2:d0:45:90:8b
                Exponent: 65537 (0x10001)
        X509v3 extensions:
            X509v3 Basic Constraints: 
                CA:FALSE
            Authority Information Access: 
                OCSP - URI:http://ocsp.example.com:8888/

    Signature Algorithm: sha1WithRSAEncryption
        82:d8:53:9c:d8:0b:0a:b3:9d:b4:0a:9f:93:ec:96:a6:31:6b:
        79:c9:d2:1c:76:0b:b7:f3:9f:b9:7a:dd:d7:b7:7b:26:ba:0a:
        54:2a:a3:ad:89:8e:3c:b8:8e:ea:09:53:58:73:9a:b3:a0:40:
        90:02:f2:60:04:b8:f0:2a:61:bd:91:9b:5e:81:5f:bf:cc:f2:
        33:33:8a:70:07:f5:ea:c0:05:38:34:f7:dc:ea:0c:74:01:5d:
        dd:92:ab:f2:87:64:1b:7c:be:ae:37:c1:6c:ae:99:73:a5:aa:
        45:20:32:57:19:cb:30:45:61:2c:3b:23:52:ee:f0:cc:12:80:
        97:34
-----BEGIN CERTIFICATE-----
MIICSTCCAbKgAwIBAgIBGzANBgkqhkiG9w0BAQUFADB1MRQwEgYDVQQDEwtleGFt
cGxlLmNvbTETMBEGA1UECBMKTGFuY2FzaGlyZTELMAkGA1UEBhMCVUsxHzAdBgkq
hkiG9w0BCQEWEHRlc3RAZXhhbXBsZS5jb20xGjAYBgNVBAoTEVNvbWUgb3JnYW5p
c2F0aW9uMB4XDTExMDczMTIxMDExOFoXDTIxMDcyODIxMDExOFowFjEUMBIGA1UE
AxMLZXhhbXBsZS5jb20wgZ8wDQYJKoZIhvcNAQEBBQADgY0AMIGJAoGBAOrWl7U8
9DeKWLR6STFV3ciE7jb2cjoxmdHfr7v5F+nYR9IgS5TO6sFrI5raAkEpUTQFE8CY
TYf4kaiFgeSrJj0mWSkWfQTbV3vwtitdz+eCuoOnvGNDAyorGECJTB6QvL8QJIFQ
DS7ojqkK/PjNl5g8zFW38rINDjZTOrLQRZCLAgMBAAGjSDBGMAkGA1UdEwQCMAAw
OQYIKwYBBQUHAQEELTArMCkGCCsGAQUFBzABhh1odHRwOi8vb2NzcC5leGFtcGxl
LmNvbTo4ODg4LzANBgkqhkiG9w0BAQUFAAOBgQCC2FOc2AsKs520Cp+T7JamMWt5
ydIcdgu385+5et3Xt3smugpUKqOtiY48uI7qCVNYc5qzoECQAvJgBLjwKmG9kZte
gV+/zPIzM4pwB/XqwAU4NPfc6gx0AV3dkqvyh2QbfL6uN8FsrplzpapFIDJXGcsw
RWEsOyNS7vDMEoCXNA==
-----END CERTIFICATE-----
