Certificate:
    Data:
        Version: 3 (0x2)
        Serial Number: 29 (0x1d)
        Signature Algorithm: sha1WithRSAEncryption
        Issuer: ST=Lancashire, C=UK/emailAddress=test@example.com, O=Test intermediate CA
        Validity
            Not Before: Jul 31 21:01:18 2011 GMT
            Not After : Jul 28 21:01:18 2021 GMT
        Subject: CN=example.com
        Subject Public Key Info:
            Public Key Algorithm: rsaEncryption
                Public-Key: (1024 bit)
                Modulus:
                    00:c9:bb:98:5b:27:cd:b1:8a:a9:38:fc:aa:bb:ad:
                    a1:ed:cb:94:94:3e:79:90:ae:35:f3:87:b1:2a:4e:
                    d5:ff:55:93:e0:1a:68:2a:36:94:05:38:a7:72:64:
                    a3:31:0f:61:5c:ec:76:41:f1:35:4a:5e:bc:ef:51:
                    90:9e:33:b4:08:7a:3f:f0:04:a8:46:99:96:25:b3:
                    03:c8:cd:8c:33:42:76:82:b9:db:61:c6:91:ed:76:
                    86:ae:04:38:d7:e5:5c:a9:a9:f9:b6:13:f4:90:40:
                    6d:ec:2f:ba:ed:bc:ff:88:05:f0:7b:c8:ac:bd:d0:
                    72:3a:91:64:86:06:89:66:0d
                Exponent: 65537 (0x10001)
        X509v3 extensions:
            X509v3 Basic Constraints: 
                CA:FALSE
            Authority Information Access: 
                OCSP - URI:http://ocsp.example.com:8888/

    Signature Algorithm: sha1WithRSAEncryption
        22:30:97:01:ea:d0:a8:d8:b5:32:97:c8:c9:8b:7d:01:02:53:
        74:f8:0a:10:dc:fc:73:b2:50:bb:59:47:f3:e4:9f:44:94:d5:
        ca:c0:64:da:83:00:95:43:15:a5:e3:30:ce:66:ca:55:8c:16:
        03:1e:55:02:8b:c7:ad:ed:2e:ae:ee:31:59:53:37:ff:26:86:
        93:9d:e2:69:2e:c0:2a:66:38:a5:b5:54:a1:02:0a:83:67:e0:
        91:cf:fc:09:c3:70:71:b6:cf:fc:d3:e9:9f:f5:1c:4d:55:ec:
        66:f7:07:71:fc:d6:17:de:e1:ab:e6:f2:7b:83:46:1e:b9:96:
        95:8f
-----BEGIN CERTIFICATE-----
MIICNjCCAZ+gAwIBAgIBHTANBgkqhkiG9w0BAQUFADBiMRMwEQYDVQQIEwpMYW5j
YXNoaXJlMQswCQYDVQQGEwJVSzEfMB0GCSqGSIb3DQEJARYQdGVzdEBleGFtcGxl
LmNvbTEdMBsGA1UEChMUVGVzdCBpbnRlcm1lZGlhdGUgQ0EwHhcNMTEwNzMxMjEw
MTE4WhcNMjEwNzI4MjEwMTE4WjAWMRQwEgYDVQQDEwtleGFtcGxlLmNvbTCBnzAN
BgkqhkiG9w0BAQEFAAOBjQAwgYkCgYEAybuYWyfNsYqpOPyqu62h7cuUlD55kK41
84exKk7V/1WT4BpoKjaUBTincmSjMQ9hXOx2QfE1Sl6871GQnjO0CHo/8ASoRpmW
JbMDyM2MM0J2grnbYcaR7XaGrgQ41+Vcqan5thP0kEBt7C+67bz/iAXwe8isvdBy
OpFkhgaJZg0CAwEAAaNIMEYwCQYDVR0TBAIwADA5BggrBgEFBQcBAQQtMCswKQYI
KwYBBQUHMAGGHWh0dHA6Ly9vY3NwLmV4YW1wbGUuY29tOjg4ODgvMA0GCSqGSIb3
DQEBBQUAA4GBACIwlwHq0KjYtTKXyMmLfQECU3T4ChDc/HOyULtZR/Pkn0SU1crA
ZNqDAJVDFaXjMM5mylWMFgMeVQKLx63tLq7uMVlTN/8mhpOd4mkuwCpmOKW1VKEC
CoNn4JHP/AnDcHG2z/zT6Z/1HE1V7Gb3B3H81hfe4avm8nuDRh65lpWP
-----END CERTIFICATE-----
