Certificate:
    Data:
        Version: 3 (0x2)
        Serial Number: 10 (0xa)
        Signature Algorithm: sha1WithRSAEncryption
        Issuer: CN=Westpoint Certificate Test CA, ST=Lancashire, C=UK/emailAddress=ca@example.com, O=Westpoint Certificate Test Root Certification Authority
        Validity
            Not Before: Jul 31 21:01:17 2011 GMT
            Not After : Jul 28 21:01:17 2021 GMT
        Subject: CN=www.example.com, CN=www2.example.com, ST=Lancashire, C=UK, O=Some organisation
        Subject Public Key Info:
            Public Key Algorithm: rsaEncryption
                Public-Key: (1024 bit)
                Modulus:
                    00:e8:61:96:bd:d0:d2:c6:54:92:15:fe:42:2b:86:
                    20:dc:74:51:82:c8:b4:5e:5e:c5:3b:01:6e:1e:84:
                    8d:4a:8c:6f:d8:63:21:a7:74:16:02:62:c3:84:1f:
                    ac:83:00:ad:6d:f8:79:d0:48:19:4a:a4:45:bf:24:
                    88:db:89:f7:96:80:70:b1:f9:94:46:8d:52:cd:47:
                    11:86:74:3b:04:c6:d2:08:3b:4d:70:b0:d4:a2:5a:
                    ae:54:43:4e:8c:26:05:77:b4:52:8b:bf:43:26:cd:
                    6e:b6:04:ca:36:e1:cf:c3:70:52:7b:73:40:1d:1f:
                    2a:44:b9:fc:d3:be:77:5a:df
                Exponent: 65537 (0x10001)
        X509v3 extensions:
            X509v3 Basic Constraints: 
                CA:FALSE
            Authority Information Access: 
                OCSP - URI:http://ocsp.example.com:8888/

    Signature Algorithm: sha1WithRSAEncryption
        a7:ce:f4:72:aa:54:01:d5:a0:ef:fb:54:a5:79:d0:51:87:27:
        93:37:d7:a8:92:a0:51:a4:56:a6:93:ea:3b:f4:e2:07:68:29:
        2b:59:e6:eb:71:d8:78:0a:b2:e2:df:13:9f:68:f9:6b:d8:42:
        c6:ff:3b:e1:2e:01:91:9b:eb:90:7f:da:54:7e:5a:47:ba:40:
        18:fb:a5:f7:8a:3a:b0:05:37:03:a8:b8:23:61:d4:58:37:97:
        87:54:57:62:aa:7f:e6:73:8f:74:f4:3b:57:29:af:bb:f7:bc:
        33:72:d4:f3:02:22:44:3e:70:1f:48:59:7d:6e:a0:af:c4:91:
        58:4c:99:6b:33:28:36:09:59:c7:71:a7:94:ba:0e:af:87:d2:
        47:75:86:c1:ac:2d:ab:89:83:03:a9:97:cb:50:39:c1:66:a3:
        a2:92:f6:c8:42:05:5b:d3:e4:13:17:84:10:57:8f:3e:ae:d0:
        5e:f7:15:54:dd:04:61:2f:d6:d4:25:00:d6:6f:02:bb:b9:9f:
        ff:ab:d2:a0:32:87:a0:d2:ff:91:29:bf:5d:74:61:d8:86:e5:
        89:29:5e:c0:85:b1:05:e1:79:68:50:fa:21:98:cc:26:09:d1:
        86:18:4d:2e:84:21:33:d1:ff:b5:bf:78:2d:0b:9e:8c:51:82:
        09:9c:03:ec
-----BEGIN CERTIFICATE-----
MIIDXjCCAkagAwIBAgIBCjANBgkqhkiG9w0BAQUFADCBqzEmMCQGA1UEAxMdV2Vz
dHBvaW50IENlcnRpZmljYXRlIFRlc3QgQ0ExEzARBgNVBAgTCkxhbmNhc2hpcmUx
CzAJBgNVBAYTAlVLMR0wGwYJKoZIhvcNAQkBFg5jYUBleGFtcGxlLmNvbTFAMD4G
A1UEChM3V2VzdHBvaW50IENlcnRpZmljYXRlIFRlc3QgUm9vdCBDZXJ0aWZpY2F0
aW9uIEF1dGhvcml0eTAeFw0xMTA3MzEyMTAxMTdaFw0yMTA3MjgyMTAxMTdaMHMx
GDAWBgNVBAMTD3d3dy5leGFtcGxlLmNvbTEZMBcGA1UEAxMQd3d3Mi5leGFtcGxl
LmNvbTETMBEGA1UECBMKTGFuY2FzaGlyZTELMAkGA1UEBhMCVUsxGjAYBgNVBAoT
EVNvbWUgb3JnYW5pc2F0aW9uMIGfMA0GCSqGSIb3DQEBAQUAA4GNADCBiQKBgQDo
YZa90NLGVJIV/kIrhiDcdFGCyLReXsU7AW4ehI1KjG/YYyGndBYCYsOEH6yDAK1t
+HnQSBlKpEW/JIjbifeWgHCx+ZRGjVLNRxGGdDsExtIIO01wsNSiWq5UQ06MJgV3
tFKLv0MmzW62BMo24c/DcFJ7c0AdHypEufzTvnda3wIDAQABo0gwRjAJBgNVHRME
AjAAMDkGCCsGAQUFBwEBBC0wKzApBggrBgEFBQcwAYYdaHR0cDovL29jc3AuZXhh
bXBsZS5jb206ODg4OC8wDQYJKoZIhvcNAQEFBQADggEBAKfO9HKqVAHVoO/7VKV5
0FGHJ5M316iSoFGkVqaT6jv04gdoKStZ5utx2HgKsuLfE59o+WvYQsb/O+EuAZGb
65B/2lR+Wke6QBj7pfeKOrAFNwOouCNh1Fg3l4dUV2Kqf+Zzj3T0O1cpr7v3vDNy
1PMCIkQ+cB9IWX1uoK/EkVhMmWszKDYJWcdxp5S6Dq+H0kd1hsGsLauJgwOpl8tQ
OcFmo6KS9shCBVvT5BMXhBBXjz6u0F73FVTdBGEv1tQlANZvAru5n/+r0qAyh6DS
/5Epv110YdiG5YkpXsCFsQXheWhQ+iGYzCYJ0YYYTS6EITPR/7W/eC0LnoxRggmc
A+w=
-----END CERTIFICATE-----
